ARM GAS  /var/folders/_2/42wyrlld3p52fkcpt1lv6gxh0000gp/T//cctHLpbJ.s 			page 1


   1              		.syntax unified
   2              		.cpu cortex-m3
   3              		.fpu softvfp
   4              		.eabi_attribute 20, 1
   5              		.eabi_attribute 21, 1
   6              		.eabi_attribute 23, 3
   7              		.eabi_attribute 24, 1
   8              		.eabi_attribute 25, 1
   9              		.eabi_attribute 26, 1
  10              		.eabi_attribute 30, 4
  11              		.eabi_attribute 34, 1
  12              		.eabi_attribute 18, 4
  13              		.thumb
  14              		.syntax unified
  15              		.file	"adc.c"
  16              		.text
  17              	.Ltext0:
  18              		.cfi_sections	.debug_frame
  19              		.section	.text.adcInit,"ax",%progbits
  20              		.align	1
  21              		.global	adcInit
  22              		.thumb
  23              		.thumb_func
  24              		.type	adcInit, %function
  25              	adcInit:
  26              	.LFB63:
  27              		.file 1 "chibios/os/hal/src/adc.c"
  28              		.loc 1 68 0
  29              		.cfi_startproc
  30              		@ args = 0, pretend = 0, frame = 0
  31              		@ frame_needed = 1, uses_anonymous_args = 0
  32              		@ link register save eliminated.
  33 0000 80B4     		push	{r7}
  34              	.LCFI0:
  35              		.cfi_def_cfa_offset 4
  36              		.cfi_offset 7, -4
  37 0002 00AF     		add	r7, sp, #0
  38              	.LCFI1:
  39              		.cfi_def_cfa_register 7
  40              		.loc 1 71 0
  41 0004 BD46     		mov	sp, r7
  42              	.LCFI2:
  43              		.cfi_def_cfa_register 13
  44              		@ sp needed
  45 0006 80BC     		pop	{r7}
  46              	.LCFI3:
  47              		.cfi_restore 7
  48              		.cfi_def_cfa_offset 0
  49              		.loc 1 70 0
  50 0008 FFF7FEBF 		b	adc_lld_init
  51              	.LVL0:
  52              		.cfi_endproc
  53              	.LFE63:
  54              		.size	adcInit, .-adcInit
  55              		.section	.text.adcObjectInit,"ax",%progbits
  56              		.align	1
  57              		.global	adcObjectInit
ARM GAS  /var/folders/_2/42wyrlld3p52fkcpt1lv6gxh0000gp/T//cctHLpbJ.s 			page 2


  58              		.thumb
  59              		.thumb_func
  60              		.type	adcObjectInit, %function
  61              	adcObjectInit:
  62              	.LFB64:
  63              		.loc 1 80 0
  64              		.cfi_startproc
  65              		@ args = 0, pretend = 0, frame = 0
  66              		@ frame_needed = 1, uses_anonymous_args = 0
  67              		@ link register save eliminated.
  68              	.LVL1:
  69 0000 80B4     		push	{r7}
  70              	.LCFI4:
  71              		.cfi_def_cfa_offset 4
  72              		.cfi_offset 7, -4
  73              		.loc 1 82 0
  74 0002 0123     		movs	r3, #1
  75 0004 0370     		strb	r3, [r0]
  76              		.loc 1 83 0
  77 0006 0023     		movs	r3, #0
  78 0008 4360     		str	r3, [r0, #4]
  79              		.loc 1 84 0
  80 000a 8360     		str	r3, [r0, #8]
  81              		.loc 1 85 0
  82 000c C360     		str	r3, [r0, #12]
  83              		.loc 1 86 0
  84 000e 0361     		str	r3, [r0, #16]
  85              		.loc 1 88 0
  86 0010 4361     		str	r3, [r0, #20]
  87              		.loc 1 80 0
  88 0012 00AF     		add	r7, sp, #0
  89              	.LCFI5:
  90              		.cfi_def_cfa_register 7
  91              		.loc 1 92 0
  92 0014 1830     		adds	r0, r0, #24
  93              	.LVL2:
  94              		.loc 1 100 0
  95 0016 BD46     		mov	sp, r7
  96              	.LCFI6:
  97              		.cfi_def_cfa_register 13
  98              		@ sp needed
  99 0018 80BC     		pop	{r7}
 100              	.LCFI7:
 101              		.cfi_restore 7
 102              		.cfi_def_cfa_offset 0
 103              		.loc 1 92 0
 104 001a FFF7FEBF 		b	chMtxInit
 105              	.LVL3:
 106              		.cfi_endproc
 107              	.LFE64:
 108              		.size	adcObjectInit, .-adcObjectInit
 109              		.section	.text.adcStart,"ax",%progbits
 110              		.align	1
 111              		.global	adcStart
 112              		.thumb
 113              		.thumb_func
 114              		.type	adcStart, %function
ARM GAS  /var/folders/_2/42wyrlld3p52fkcpt1lv6gxh0000gp/T//cctHLpbJ.s 			page 3


 115              	adcStart:
 116              	.LFB65:
 117              		.loc 1 111 0
 118              		.cfi_startproc
 119              		@ args = 0, pretend = 0, frame = 0
 120              		@ frame_needed = 1, uses_anonymous_args = 0
 121              	.LVL4:
 122 0000 98B5     		push	{r3, r4, r7, lr}
 123              	.LCFI8:
 124              		.cfi_def_cfa_offset 16
 125              		.cfi_offset 3, -16
 126              		.cfi_offset 4, -12
 127              		.cfi_offset 7, -8
 128              		.cfi_offset 14, -4
 129 0002 0446     		mov	r4, r0
 130 0004 00AF     		add	r7, sp, #0
 131              	.LCFI9:
 132              		.cfi_def_cfa_register 7
 133              	.LBB10:
 134              		.loc 1 115 0
 135 0006 2023     		movs	r3, #32
 136              		.syntax unified
 137              	@ 115 "chibios/os/hal/src/adc.c" 1
 138 0008 83F31188 		msr     BASEPRI, r3
 139              	@ 0 "" 2
 140              		.thumb
 141              		.syntax unified
 142              	.LBE10:
 143              		.loc 1 118 0
 144 000c 4160     		str	r1, [r0, #4]
 145              		.loc 1 119 0
 146 000e FFF7FEFF 		bl	adc_lld_start
 147              	.LVL5:
 148              		.loc 1 120 0
 149 0012 0223     		movs	r3, #2
 150 0014 2370     		strb	r3, [r4]
 151              	.LBB11:
 152              		.loc 1 121 0
 153 0016 0023     		movs	r3, #0
 154              		.syntax unified
 155              	@ 121 "chibios/os/hal/src/adc.c" 1
 156 0018 83F31188 		msr     BASEPRI, r3
 157              	@ 0 "" 2
 158              		.thumb
 159              		.syntax unified
 160 001c 98BD     		pop	{r3, r4, r7, pc}
 161              	.LBE11:
 162              		.cfi_endproc
 163              	.LFE65:
 164              		.size	adcStart, .-adcStart
 165              		.section	.text.adcStop,"ax",%progbits
 166              		.align	1
 167              		.global	adcStop
 168              		.thumb
 169              		.thumb_func
 170              		.type	adcStop, %function
 171              	adcStop:
ARM GAS  /var/folders/_2/42wyrlld3p52fkcpt1lv6gxh0000gp/T//cctHLpbJ.s 			page 4


 172              	.LFB66:
 173              		.loc 1 131 0
 174              		.cfi_startproc
 175              		@ args = 0, pretend = 0, frame = 0
 176              		@ frame_needed = 1, uses_anonymous_args = 0
 177              	.LVL6:
 178 0000 98B5     		push	{r3, r4, r7, lr}
 179              	.LCFI10:
 180              		.cfi_def_cfa_offset 16
 181              		.cfi_offset 3, -16
 182              		.cfi_offset 4, -12
 183              		.cfi_offset 7, -8
 184              		.cfi_offset 14, -4
 185 0002 0446     		mov	r4, r0
 186 0004 00AF     		add	r7, sp, #0
 187              	.LCFI11:
 188              		.cfi_def_cfa_register 7
 189              	.LBB12:
 190              		.loc 1 135 0
 191 0006 2023     		movs	r3, #32
 192              		.syntax unified
 193              	@ 135 "chibios/os/hal/src/adc.c" 1
 194 0008 83F31188 		msr     BASEPRI, r3
 195              	@ 0 "" 2
 196              		.thumb
 197              		.syntax unified
 198              	.LBE12:
 199              		.loc 1 138 0
 200 000c FFF7FEFF 		bl	adc_lld_stop
 201              	.LVL7:
 202              		.loc 1 139 0
 203 0010 0123     		movs	r3, #1
 204 0012 2370     		strb	r3, [r4]
 205              	.LBB13:
 206              		.loc 1 140 0
 207 0014 0023     		movs	r3, #0
 208              		.syntax unified
 209              	@ 140 "chibios/os/hal/src/adc.c" 1
 210 0016 83F31188 		msr     BASEPRI, r3
 211              	@ 0 "" 2
 212              		.thumb
 213              		.syntax unified
 214 001a 98BD     		pop	{r3, r4, r7, pc}
 215              	.LBE13:
 216              		.cfi_endproc
 217              	.LFE66:
 218              		.size	adcStop, .-adcStop
 219              		.section	.text.adcStartConversion,"ax",%progbits
 220              		.align	1
 221              		.global	adcStartConversion
 222              		.thumb
 223              		.thumb_func
 224              		.type	adcStartConversion, %function
 225              	adcStartConversion:
 226              	.LFB67:
 227              		.loc 1 162 0
 228              		.cfi_startproc
ARM GAS  /var/folders/_2/42wyrlld3p52fkcpt1lv6gxh0000gp/T//cctHLpbJ.s 			page 5


 229              		@ args = 0, pretend = 0, frame = 0
 230              		@ frame_needed = 1, uses_anonymous_args = 0
 231              	.LVL8:
 232 0000 B0B5     		push	{r4, r5, r7, lr}
 233              	.LCFI12:
 234              		.cfi_def_cfa_offset 16
 235              		.cfi_offset 4, -16
 236              		.cfi_offset 5, -12
 237              		.cfi_offset 7, -8
 238              		.cfi_offset 14, -4
 239 0002 1D46     		mov	r5, r3
 240 0004 00AF     		add	r7, sp, #0
 241              	.LCFI13:
 242              		.cfi_def_cfa_register 7
 243              	.LBB14:
 244              		.loc 1 164 0
 245 0006 2023     		movs	r3, #32
 246              	.LVL9:
 247              		.syntax unified
 248              	@ 164 "chibios/os/hal/src/adc.c" 1
 249 0008 83F31188 		msr     BASEPRI, r3
 250              	@ 0 "" 2
 251              	.LVL10:
 252              		.thumb
 253              		.syntax unified
 254              	.LBE14:
 255              	.LBB15:
 256              	.LBB16:
 257              		.loc 1 204 0
 258 000c 0323     		movs	r3, #3
 259 000e 0370     		strb	r3, [r0]
 260              		.loc 1 201 0
 261 0010 8260     		str	r2, [r0, #8]
 262              		.loc 1 202 0
 263 0012 C560     		str	r5, [r0, #12]
 264              		.loc 1 203 0
 265 0014 0161     		str	r1, [r0, #16]
 266              		.loc 1 205 0
 267 0016 FFF7FEFF 		bl	adc_lld_start_conversion
 268              	.LVL11:
 269              	.LBE16:
 270              	.LBE15:
 271              	.LBB17:
 272              		.loc 1 166 0
 273 001a 0023     		movs	r3, #0
 274              		.syntax unified
 275              	@ 166 "chibios/os/hal/src/adc.c" 1
 276 001c 83F31188 		msr     BASEPRI, r3
 277              	@ 0 "" 2
 278              		.thumb
 279              		.syntax unified
 280 0020 B0BD     		pop	{r4, r5, r7, pc}
 281              	.LBE17:
 282              		.cfi_endproc
 283              	.LFE67:
 284              		.size	adcStartConversion, .-adcStartConversion
 285              		.section	.text.adcStartConversionI,"ax",%progbits
ARM GAS  /var/folders/_2/42wyrlld3p52fkcpt1lv6gxh0000gp/T//cctHLpbJ.s 			page 6


 286              		.align	1
 287              		.global	adcStartConversionI
 288              		.thumb
 289              		.thumb_func
 290              		.type	adcStartConversionI, %function
 291              	adcStartConversionI:
 292              	.LFB68:
 293              		.loc 1 190 0
 294              		.cfi_startproc
 295              		@ args = 0, pretend = 0, frame = 0
 296              		@ frame_needed = 1, uses_anonymous_args = 0
 297              		@ link register save eliminated.
 298              	.LVL12:
 299 0000 90B4     		push	{r4, r7}
 300              	.LCFI14:
 301              		.cfi_def_cfa_offset 8
 302              		.cfi_offset 4, -8
 303              		.cfi_offset 7, -4
 304              		.loc 1 202 0
 305 0002 C360     		str	r3, [r0, #12]
 306              		.loc 1 190 0
 307 0004 00AF     		add	r7, sp, #0
 308              	.LCFI15:
 309              		.cfi_def_cfa_register 7
 310              		.loc 1 204 0
 311 0006 0323     		movs	r3, #3
 312              	.LVL13:
 313              		.loc 1 201 0
 314 0008 8260     		str	r2, [r0, #8]
 315              		.loc 1 203 0
 316 000a 0161     		str	r1, [r0, #16]
 317              		.loc 1 204 0
 318 000c 0370     		strb	r3, [r0]
 319              		.loc 1 206 0
 320 000e BD46     		mov	sp, r7
 321              	.LCFI16:
 322              		.cfi_def_cfa_register 13
 323              		@ sp needed
 324 0010 90BC     		pop	{r4, r7}
 325              	.LCFI17:
 326              		.cfi_restore 7
 327              		.cfi_restore 4
 328              		.cfi_def_cfa_offset 0
 329              		.loc 1 205 0
 330 0012 FFF7FEBF 		b	adc_lld_start_conversion
 331              	.LVL14:
 332              		.cfi_endproc
 333              	.LFE68:
 334              		.size	adcStartConversionI, .-adcStartConversionI
 335              		.section	.text.adcStopConversion,"ax",%progbits
 336              		.align	1
 337              		.global	adcStopConversion
 338              		.thumb
 339              		.thumb_func
 340              		.type	adcStopConversion, %function
 341              	adcStopConversion:
 342              	.LFB69:
ARM GAS  /var/folders/_2/42wyrlld3p52fkcpt1lv6gxh0000gp/T//cctHLpbJ.s 			page 7


 343              		.loc 1 218 0
 344              		.cfi_startproc
 345              		@ args = 0, pretend = 0, frame = 0
 346              		@ frame_needed = 1, uses_anonymous_args = 0
 347              	.LVL15:
 348 0000 98B5     		push	{r3, r4, r7, lr}
 349              	.LCFI18:
 350              		.cfi_def_cfa_offset 16
 351              		.cfi_offset 3, -16
 352              		.cfi_offset 4, -12
 353              		.cfi_offset 7, -8
 354              		.cfi_offset 14, -4
 355 0002 0446     		mov	r4, r0
 356 0004 00AF     		add	r7, sp, #0
 357              	.LCFI19:
 358              		.cfi_def_cfa_register 7
 359              	.LBB18:
 360              		.loc 1 222 0
 361 0006 2023     		movs	r3, #32
 362              		.syntax unified
 363              	@ 222 "chibios/os/hal/src/adc.c" 1
 364 0008 83F31188 		msr     BASEPRI, r3
 365              	@ 0 "" 2
 366              		.thumb
 367              		.syntax unified
 368              	.LBE18:
 369              		.loc 1 226 0
 370 000c 0378     		ldrb	r3, [r0]	@ zero_extendqisi2
 371 000e 022B     		cmp	r3, #2
 372 0010 0CD0     		beq	.L9
 373              		.loc 1 227 0
 374 0012 FFF7FEFF 		bl	adc_lld_stop_conversion
 375              	.LVL16:
 376              		.loc 1 230 0
 377 0016 6069     		ldr	r0, [r4, #20]
 378              		.loc 1 228 0
 379 0018 0023     		movs	r3, #0
 380              		.loc 1 229 0
 381 001a 0222     		movs	r2, #2
 382              		.loc 1 228 0
 383 001c 2361     		str	r3, [r4, #16]
 384              		.loc 1 229 0
 385 001e 2270     		strb	r2, [r4]
 386              		.loc 1 230 0
 387 0020 20B1     		cbz	r0, .L9
 388              	.LVL17:
 389              	.LBB19:
 390              		.loc 1 230 0 is_stmt 0 discriminator 1
 391 0022 6361     		str	r3, [r4, #20]
 392 0024 6FF00101 		mvn	r1, #1
 393 0028 FFF7FEFF 		bl	chSchWakeupS
 394              	.LVL18:
 395              	.L9:
 396              	.LBE19:
 397              	.LBB20:
 398              		.loc 1 232 0 is_stmt 1
 399 002c 0023     		movs	r3, #0
ARM GAS  /var/folders/_2/42wyrlld3p52fkcpt1lv6gxh0000gp/T//cctHLpbJ.s 			page 8


 400              		.syntax unified
 401              	@ 232 "chibios/os/hal/src/adc.c" 1
 402 002e 83F31188 		msr     BASEPRI, r3
 403              	@ 0 "" 2
 404              		.thumb
 405              		.syntax unified
 406 0032 98BD     		pop	{r3, r4, r7, pc}
 407              	.LBE20:
 408              		.cfi_endproc
 409              	.LFE69:
 410              		.size	adcStopConversion, .-adcStopConversion
 411              		.section	.text.adcStopConversionI,"ax",%progbits
 412              		.align	1
 413              		.global	adcStopConversionI
 414              		.thumb
 415              		.thumb_func
 416              		.type	adcStopConversionI, %function
 417              	adcStopConversionI:
 418              	.LFB70:
 419              		.loc 1 245 0
 420              		.cfi_startproc
 421              		@ args = 0, pretend = 0, frame = 0
 422              		@ frame_needed = 1, uses_anonymous_args = 0
 423              	.LVL19:
 424 0000 98B5     		push	{r3, r4, r7, lr}
 425              	.LCFI20:
 426              		.cfi_def_cfa_offset 16
 427              		.cfi_offset 3, -16
 428              		.cfi_offset 4, -12
 429              		.cfi_offset 7, -8
 430              		.cfi_offset 14, -4
 431              		.loc 1 254 0
 432 0002 0378     		ldrb	r3, [r0]	@ zero_extendqisi2
 433              		.loc 1 245 0
 434 0004 00AF     		add	r7, sp, #0
 435              	.LCFI21:
 436              		.cfi_def_cfa_register 7
 437              		.loc 1 254 0
 438 0006 022B     		cmp	r3, #2
 439              		.loc 1 245 0
 440 0008 0446     		mov	r4, r0
 441              		.loc 1 254 0
 442 000a 10D0     		beq	.L15
 443              		.loc 1 255 0
 444 000c FFF7FEFF 		bl	adc_lld_stop_conversion
 445              	.LVL20:
 446              		.loc 1 258 0
 447 0010 6069     		ldr	r0, [r4, #20]
 448              		.loc 1 256 0
 449 0012 0023     		movs	r3, #0
 450              		.loc 1 257 0
 451 0014 0222     		movs	r2, #2
 452              		.loc 1 256 0
 453 0016 2361     		str	r3, [r4, #16]
 454              		.loc 1 257 0
 455 0018 2270     		strb	r2, [r4]
 456              		.loc 1 258 0
ARM GAS  /var/folders/_2/42wyrlld3p52fkcpt1lv6gxh0000gp/T//cctHLpbJ.s 			page 9


 457 001a 40B1     		cbz	r0, .L15
 458              	.LVL21:
 459              	.LBB21:
 460              		.loc 1 258 0 is_stmt 0 discriminator 1
 461 001c 6361     		str	r3, [r4, #20]
 462 001e 6FF00103 		mvn	r3, #1
 463 0022 8362     		str	r3, [r0, #40]
 464              	.LBE21:
 465              		.loc 1 260 0 is_stmt 1 discriminator 1
 466 0024 BD46     		mov	sp, r7
 467              	.LCFI22:
 468              		.cfi_remember_state
 469              		.cfi_def_cfa_register 13
 470              		@ sp needed
 471 0026 BDE89840 		pop	{r3, r4, r7, lr}
 472              	.LCFI23:
 473              		.cfi_restore 14
 474              		.cfi_restore 7
 475              		.cfi_restore 4
 476              		.cfi_restore 3
 477              		.cfi_def_cfa_offset 0
 478              	.LVL22:
 479              	.LBB22:
 480              		.loc 1 258 0 discriminator 1
 481 002a FFF7FEBF 		b	chSchReadyI
 482              	.LVL23:
 483              	.L15:
 484              	.LCFI24:
 485              		.cfi_restore_state
 486 002e 98BD     		pop	{r3, r4, r7, pc}
 487              	.LBE22:
 488              		.cfi_endproc
 489              	.LFE70:
 490              		.size	adcStopConversionI, .-adcStopConversionI
 491              		.section	.text.adcConvert,"ax",%progbits
 492              		.align	1
 493              		.global	adcConvert
 494              		.thumb
 495              		.thumb_func
 496              		.type	adcConvert, %function
 497              	adcConvert:
 498              	.LFB71:
 499              		.loc 1 289 0
 500              		.cfi_startproc
 501              		@ args = 0, pretend = 0, frame = 0
 502              		@ frame_needed = 1, uses_anonymous_args = 0
 503              	.LVL24:
 504 0000 B0B5     		push	{r4, r5, r7, lr}
 505              	.LCFI25:
 506              		.cfi_def_cfa_offset 16
 507              		.cfi_offset 4, -16
 508              		.cfi_offset 5, -12
 509              		.cfi_offset 7, -8
 510              		.cfi_offset 14, -4
 511 0002 1D46     		mov	r5, r3
 512 0004 00AF     		add	r7, sp, #0
 513              	.LCFI26:
ARM GAS  /var/folders/_2/42wyrlld3p52fkcpt1lv6gxh0000gp/T//cctHLpbJ.s 			page 10


 514              		.cfi_def_cfa_register 7
 515              		.loc 1 289 0
 516 0006 0446     		mov	r4, r0
 517              	.LBB23:
 518              		.loc 1 292 0
 519 0008 2023     		movs	r3, #32
 520              	.LVL25:
 521              		.syntax unified
 522              	@ 292 "chibios/os/hal/src/adc.c" 1
 523 000a 83F31188 		msr     BASEPRI, r3
 524              	@ 0 "" 2
 525              	.LVL26:
 526              		.thumb
 527              		.syntax unified
 528              	.LBE23:
 529              	.LBB24:
 530              	.LBB25:
 531              		.loc 1 204 0
 532 000e 0323     		movs	r3, #3
 533              		.loc 1 202 0
 534 0010 C560     		str	r5, [r0, #12]
 535              	.LBE25:
 536              	.LBE24:
 537              		.loc 1 295 0
 538 0012 084D     		ldr	r5, .L23
 539              	.LVL27:
 540              	.LBB27:
 541              	.LBB26:
 542              		.loc 1 201 0
 543 0014 8260     		str	r2, [r0, #8]
 544              		.loc 1 203 0
 545 0016 0161     		str	r1, [r0, #16]
 546              		.loc 1 204 0
 547 0018 0370     		strb	r3, [r0]
 548              		.loc 1 205 0
 549 001a FFF7FEFF 		bl	adc_lld_start_conversion
 550              	.LVL28:
 551              	.LBE26:
 552              	.LBE27:
 553              		.loc 1 295 0
 554 001e AB69     		ldr	r3, [r5, #24]
 555              		.loc 1 296 0
 556 0020 0220     		movs	r0, #2
 557              		.loc 1 295 0
 558 0022 6361     		str	r3, [r4, #20]
 559              		.loc 1 296 0
 560 0024 FFF7FEFF 		bl	chSchGoSleepS
 561              	.LVL29:
 562              		.loc 1 297 0
 563 0028 AB69     		ldr	r3, [r5, #24]
 564 002a 986A     		ldr	r0, [r3, #40]
 565              	.LVL30:
 566              	.LBB28:
 567              		.loc 1 298 0
 568 002c 0023     		movs	r3, #0
 569              		.syntax unified
 570              	@ 298 "chibios/os/hal/src/adc.c" 1
ARM GAS  /var/folders/_2/42wyrlld3p52fkcpt1lv6gxh0000gp/T//cctHLpbJ.s 			page 11


 571 002e 83F31188 		msr     BASEPRI, r3
 572              	@ 0 "" 2
 573              		.thumb
 574              		.syntax unified
 575              	.LBE28:
 576              		.loc 1 300 0
 577 0032 B0BD     		pop	{r4, r5, r7, pc}
 578              	.LVL31:
 579              	.L24:
 580              		.align	2
 581              	.L23:
 582 0034 00000000 		.word	rlist
 583              		.cfi_endproc
 584              	.LFE71:
 585              		.size	adcConvert, .-adcConvert
 586              		.section	.text.adcAcquireBus,"ax",%progbits
 587              		.align	1
 588              		.global	adcAcquireBus
 589              		.thumb
 590              		.thumb_func
 591              		.type	adcAcquireBus, %function
 592              	adcAcquireBus:
 593              	.LFB72:
 594              		.loc 1 315 0
 595              		.cfi_startproc
 596              		@ args = 0, pretend = 0, frame = 0
 597              		@ frame_needed = 1, uses_anonymous_args = 0
 598              		@ link register save eliminated.
 599              	.LVL32:
 600 0000 80B4     		push	{r7}
 601              	.LCFI27:
 602              		.cfi_def_cfa_offset 4
 603              		.cfi_offset 7, -4
 604              		.loc 1 320 0
 605 0002 1830     		adds	r0, r0, #24
 606              	.LVL33:
 607              		.loc 1 315 0
 608 0004 00AF     		add	r7, sp, #0
 609              	.LCFI28:
 610              		.cfi_def_cfa_register 7
 611              		.loc 1 324 0
 612 0006 BD46     		mov	sp, r7
 613              	.LCFI29:
 614              		.cfi_def_cfa_register 13
 615              		@ sp needed
 616 0008 80BC     		pop	{r7}
 617              	.LCFI30:
 618              		.cfi_restore 7
 619              		.cfi_def_cfa_offset 0
 620              		.loc 1 320 0
 621 000a FFF7FEBF 		b	chMtxLock
 622              	.LVL34:
 623              		.cfi_endproc
 624              	.LFE72:
 625              		.size	adcAcquireBus, .-adcAcquireBus
 626              		.section	.text.adcReleaseBus,"ax",%progbits
 627              		.align	1
ARM GAS  /var/folders/_2/42wyrlld3p52fkcpt1lv6gxh0000gp/T//cctHLpbJ.s 			page 12


 628              		.global	adcReleaseBus
 629              		.thumb
 630              		.thumb_func
 631              		.type	adcReleaseBus, %function
 632              	adcReleaseBus:
 633              	.LFB73:
 634              		.loc 1 335 0
 635              		.cfi_startproc
 636              		@ args = 0, pretend = 0, frame = 0
 637              		@ frame_needed = 1, uses_anonymous_args = 0
 638              		@ link register save eliminated.
 639              	.LVL35:
 640 0000 80B4     		push	{r7}
 641              	.LCFI31:
 642              		.cfi_def_cfa_offset 4
 643              		.cfi_offset 7, -4
 644 0002 00AF     		add	r7, sp, #0
 645              	.LCFI32:
 646              		.cfi_def_cfa_register 7
 647              		.loc 1 345 0
 648 0004 BD46     		mov	sp, r7
 649              	.LCFI33:
 650              		.cfi_def_cfa_register 13
 651              		@ sp needed
 652 0006 80BC     		pop	{r7}
 653              	.LCFI34:
 654              		.cfi_restore 7
 655              		.cfi_def_cfa_offset 0
 656              		.loc 1 341 0
 657 0008 FFF7FEBF 		b	chMtxUnlock
 658              	.LVL36:
 659              		.cfi_endproc
 660              	.LFE73:
 661              		.size	adcReleaseBus, .-adcReleaseBus
 662              		.text
 663              	.Letext0:
 664              		.file 2 "/Users/ARS/Applications/Eclipse.app/Contents/gcc-arm-none-eabi-5_3-2016q1/lib/gcc/arm-non
 665              		.file 3 "/Users/ARS/Applications/Eclipse.app/Contents/gcc-arm-none-eabi-5_3-2016q1/arm-none-eabi/i
 666              		.file 4 "/Users/ARS/Applications/Eclipse.app/Contents/gcc-arm-none-eabi-5_3-2016q1/arm-none-eabi/i
 667              		.file 5 "chibios/os/ports/GCC/ARMCMx/chtypes.h"
 668              		.file 6 "chibios/os/kernel/include/chlists.h"
 669              		.file 7 "chibios/os/kernel/include/chthreads.h"
 670              		.file 8 "chibios/os/ports/GCC/ARMCMx/chcore_v7m.h"
 671              		.file 9 "chibios/os/kernel/include/chschd.h"
 672              		.file 10 "chibios/os/kernel/include/chmtx.h"
 673              		.file 11 "chibios/os/hal/platforms/STM32L1xx/stm32l1xx.h"
 674              		.file 12 "chibios/os/hal/platforms/STM32L1xx/stm32_dma.h"
 675              		.file 13 "chibios/os/hal/include/adc.h"
 676              		.file 14 "chibios/os/hal/platforms/STM32L1xx/adc_lld.h"
 677              		.file 15 "chibios/os/ports/common/ARMCMx/CMSIS/include/core_cm3.h"