ARM GAS  /var/folders/_2/42wyrlld3p52fkcpt1lv6gxh0000gp/T//cc1eQ7Hh.s 			page 1


   1              		.syntax unified
   2              		.cpu cortex-m3
   3              		.fpu softvfp
   4              		.eabi_attribute 20, 1
   5              		.eabi_attribute 21, 1
   6              		.eabi_attribute 23, 3
   7              		.eabi_attribute 24, 1
   8              		.eabi_attribute 25, 1
   9              		.eabi_attribute 26, 1
  10              		.eabi_attribute 30, 4
  11              		.eabi_attribute 34, 1
  12              		.eabi_attribute 18, 4
  13              		.thumb
  14              		.syntax unified
  15              		.file	"adc_lld.c"
  16              		.text
  17              	.Ltext0:
  18              		.cfi_sections	.debug_frame
  19              		.section	.text.adc_lld_init,"ax",%progbits
  20              		.align	1
  21              		.global	adc_lld_init
  22              		.thumb
  23              		.thumb_func
  24              		.type	adc_lld_init, %function
  25              	adc_lld_init:
  26              	.LFB65:
  27              		.file 1 "chibios/os/hal/platforms/STM32L1xx/adc_lld.c"
  28              		.loc 1 121 0
  29              		.cfi_startproc
  30              		@ args = 0, pretend = 0, frame = 0
  31              		@ frame_needed = 1, uses_anonymous_args = 0
  32 0000 98B5     		push	{r3, r4, r7, lr}
  33              	.LCFI0:
  34              		.cfi_def_cfa_offset 16
  35              		.cfi_offset 3, -16
  36              		.cfi_offset 4, -12
  37              		.cfi_offset 7, -8
  38              		.cfi_offset 14, -4
  39              		.loc 1 125 0
  40 0002 094C     		ldr	r4, .L2
  41              		.loc 1 121 0
  42 0004 00AF     		add	r7, sp, #0
  43              	.LCFI1:
  44              		.cfi_def_cfa_register 7
  45              		.loc 1 125 0
  46 0006 2046     		mov	r0, r4
  47 0008 FFF7FEFF 		bl	adcObjectInit
  48              	.LVL0:
  49              		.loc 1 126 0
  50 000c 074B     		ldr	r3, .L2+4
  51              		.loc 1 137 0
  52 000e 6021     		movs	r1, #96
  53              		.loc 1 126 0
  54 0010 A362     		str	r3, [r4, #40]
  55              		.loc 1 127 0
  56 0012 074B     		ldr	r3, .L2+8
  57              		.loc 1 137 0
ARM GAS  /var/folders/_2/42wyrlld3p52fkcpt1lv6gxh0000gp/T//cc1eQ7Hh.s 			page 2


  58 0014 1220     		movs	r0, #18
  59              		.loc 1 127 0
  60 0016 E362     		str	r3, [r4, #44]
  61              		.loc 1 128 0
  62 0018 42F28A53 		movw	r3, #9610
  63 001c 2363     		str	r3, [r4, #48]
  64              		.loc 1 138 0
  65 001e BD46     		mov	sp, r7
  66              	.LCFI2:
  67              		.cfi_def_cfa_register 13
  68              		@ sp needed
  69 0020 BDE89840 		pop	{r3, r4, r7, lr}
  70              	.LCFI3:
  71              		.cfi_restore 14
  72              		.cfi_restore 7
  73              		.cfi_restore 4
  74              		.cfi_restore 3
  75              		.cfi_def_cfa_offset 0
  76              		.loc 1 137 0
  77 0024 FFF7FEBF 		b	nvicEnableVector
  78              	.LVL1:
  79              	.L3:
  80              		.align	2
  81              	.L2:
  82 0028 00000000 		.word	.LANCHOR0
  83 002c 00240140 		.word	1073816576
  84 0030 00000000 		.word	_stm32_dma_streams
  85              		.cfi_endproc
  86              	.LFE65:
  87              		.size	adc_lld_init, .-adc_lld_init
  88              		.section	.text.adc_lld_start,"ax",%progbits
  89              		.align	1
  90              		.global	adc_lld_start
  91              		.thumb
  92              		.thumb_func
  93              		.type	adc_lld_start, %function
  94              	adc_lld_start:
  95              	.LFB66:
  96              		.loc 1 147 0
  97              		.cfi_startproc
  98              		@ args = 0, pretend = 0, frame = 0
  99              		@ frame_needed = 1, uses_anonymous_args = 0
 100              	.LVL2:
 101 0000 98B5     		push	{r3, r4, r7, lr}
 102              	.LCFI4:
 103              		.cfi_def_cfa_offset 16
 104              		.cfi_offset 3, -16
 105              		.cfi_offset 4, -12
 106              		.cfi_offset 7, -8
 107              		.cfi_offset 14, -4
 108              		.loc 1 150 0
 109 0002 0378     		ldrb	r3, [r0]	@ zero_extendqisi2
 110              		.loc 1 147 0
 111 0004 00AF     		add	r7, sp, #0
 112              	.LCFI5:
 113              		.cfi_def_cfa_register 7
 114              		.loc 1 150 0
ARM GAS  /var/folders/_2/42wyrlld3p52fkcpt1lv6gxh0000gp/T//cc1eQ7Hh.s 			page 3


 115 0006 012B     		cmp	r3, #1
 116              		.loc 1 147 0
 117 0008 0446     		mov	r4, r0
 118              		.loc 1 150 0
 119 000a 17D1     		bne	.L4
 120              		.loc 1 152 0
 121 000c 0C4B     		ldr	r3, .L8
 122 000e 9842     		cmp	r0, r3
 123 0010 0ED1     		bne	.L6
 124              	.LBB2:
 125              		.loc 1 154 0
 126 0012 0346     		mov	r3, r0
 127 0014 0B4A     		ldr	r2, .L8+4
 128 0016 0621     		movs	r1, #6
 129 0018 C06A     		ldr	r0, [r0, #44]
 130              	.LVL3:
 131 001a FFF7FEFF 		bl	dmaStreamAllocate
 132              	.LVL4:
 133              		.loc 1 159 0
 134 001e E36A     		ldr	r3, [r4, #44]
 135 0020 094A     		ldr	r2, .L8+8
 136 0022 1B68     		ldr	r3, [r3]
 137 0024 9A60     		str	r2, [r3, #8]
 138              		.loc 1 160 0
 139 0026 094A     		ldr	r2, .L8+12
 140 0028 136A     		ldr	r3, [r2, #32]
 141 002a 43F40073 		orr	r3, r3, #512
 142 002e 1362     		str	r3, [r2, #32]
 143              	.L6:
 144              	.LBE2:
 145              		.loc 1 166 0
 146 0030 A36A     		ldr	r3, [r4, #40]
 147 0032 0022     		movs	r2, #0
 148 0034 5A60     		str	r2, [r3, #4]
 149              		.loc 1 167 0
 150 0036 9A60     		str	r2, [r3, #8]
 151              		.loc 1 168 0
 152 0038 0122     		movs	r2, #1
 153 003a 9A60     		str	r2, [r3, #8]
 154              	.L4:
 155 003c 98BD     		pop	{r3, r4, r7, pc}
 156              	.LVL5:
 157              	.L9:
 158 003e 00BF     		.align	2
 159              	.L8:
 160 0040 00000000 		.word	.LANCHOR0
 161 0044 00000000 		.word	adc_lld_serve_rx_interrupt
 162 0048 58240140 		.word	1073816664
 163 004c 00380240 		.word	1073887232
 164              		.cfi_endproc
 165              	.LFE66:
 166              		.size	adc_lld_start, .-adc_lld_start
 167              		.section	.text.adc_lld_stop,"ax",%progbits
 168              		.align	1
 169              		.global	adc_lld_stop
 170              		.thumb
 171              		.thumb_func
ARM GAS  /var/folders/_2/42wyrlld3p52fkcpt1lv6gxh0000gp/T//cc1eQ7Hh.s 			page 4


 172              		.type	adc_lld_stop, %function
 173              	adc_lld_stop:
 174              	.LFB67:
 175              		.loc 1 179 0
 176              		.cfi_startproc
 177              		@ args = 0, pretend = 0, frame = 0
 178              		@ frame_needed = 1, uses_anonymous_args = 0
 179              	.LVL6:
 180 0000 98B5     		push	{r3, r4, r7, lr}
 181              	.LCFI6:
 182              		.cfi_def_cfa_offset 16
 183              		.cfi_offset 3, -16
 184              		.cfi_offset 4, -12
 185              		.cfi_offset 7, -8
 186              		.cfi_offset 14, -4
 187              		.loc 1 182 0
 188 0002 0378     		ldrb	r3, [r0]	@ zero_extendqisi2
 189              		.loc 1 179 0
 190 0004 00AF     		add	r7, sp, #0
 191              	.LCFI7:
 192              		.cfi_def_cfa_register 7
 193              		.loc 1 182 0
 194 0006 022B     		cmp	r3, #2
 195              		.loc 1 179 0
 196 0008 0446     		mov	r4, r0
 197              		.loc 1 182 0
 198 000a 0ED1     		bne	.L10
 199              		.loc 1 183 0
 200 000c C06A     		ldr	r0, [r0, #44]
 201              	.LVL7:
 202 000e FFF7FEFF 		bl	dmaStreamRelease
 203              	.LVL8:
 204              		.loc 1 184 0
 205 0012 A36A     		ldr	r3, [r4, #40]
 206 0014 0022     		movs	r2, #0
 207 0016 5A60     		str	r2, [r3, #4]
 208              		.loc 1 185 0
 209 0018 9A60     		str	r2, [r3, #8]
 210              		.loc 1 188 0
 211 001a 044B     		ldr	r3, .L14
 212 001c 9C42     		cmp	r4, r3
 213              		.loc 1 189 0
 214 001e 01BF     		itttt	eq
 215 0020 034A     		ldreq	r2, .L14+4
 216 0022 136A     		ldreq	r3, [r2, #32]
 217 0024 23F40073 		biceq	r3, r3, #512
 218 0028 1362     		streq	r3, [r2, #32]
 219              	.L10:
 220 002a 98BD     		pop	{r3, r4, r7, pc}
 221              	.LVL9:
 222              	.L15:
 223              		.align	2
 224              	.L14:
 225 002c 00000000 		.word	.LANCHOR0
 226 0030 00380240 		.word	1073887232
 227              		.cfi_endproc
 228              	.LFE67:
ARM GAS  /var/folders/_2/42wyrlld3p52fkcpt1lv6gxh0000gp/T//cc1eQ7Hh.s 			page 5


 229              		.size	adc_lld_stop, .-adc_lld_stop
 230              		.section	.text.adc_lld_start_conversion,"ax",%progbits
 231              		.align	1
 232              		.global	adc_lld_start_conversion
 233              		.thumb
 234              		.thumb_func
 235              		.type	adc_lld_start_conversion, %function
 236              	adc_lld_start_conversion:
 237              	.LFB68:
 238              		.loc 1 201 0
 239              		.cfi_startproc
 240              		@ args = 0, pretend = 0, frame = 0
 241              		@ frame_needed = 1, uses_anonymous_args = 0
 242              	.LVL10:
 243 0000 B0B5     		push	{r4, r5, r7, lr}
 244              	.LCFI8:
 245              		.cfi_def_cfa_offset 16
 246              		.cfi_offset 4, -16
 247              		.cfi_offset 5, -12
 248              		.cfi_offset 7, -8
 249              		.cfi_offset 14, -4
 250              		.loc 1 203 0
 251 0002 0269     		ldr	r2, [r0, #16]
 252              	.LVL11:
 253              		.loc 1 201 0
 254 0004 00AF     		add	r7, sp, #0
 255              	.LCFI9:
 256              		.cfi_def_cfa_register 7
 257              		.loc 1 207 0
 258 0006 1378     		ldrb	r3, [r2]	@ zero_extendqisi2
 259              		.loc 1 206 0
 260 0008 016B     		ldr	r1, [r0, #48]
 261              	.LVL12:
 262              		.loc 1 207 0
 263 000a 0BB1     		cbz	r3, .L17
 264              		.loc 1 208 0
 265 000c 41F02001 		orr	r1, r1, #32
 266              	.LVL13:
 267              	.L17:
 268              		.loc 1 215 0
 269 0010 C36A     		ldr	r3, [r0, #44]
 270 0012 8568     		ldr	r5, [r0, #8]
 271 0014 1B68     		ldr	r3, [r3]
 272              		.loc 1 210 0
 273 0016 C468     		ldr	r4, [r0, #12]
 274              		.loc 1 215 0
 275 0018 DD60     		str	r5, [r3, #12]
 276              		.loc 1 216 0
 277 001a 5588     		ldrh	r5, [r2, #2]
 278              		.loc 1 210 0
 279 001c 012C     		cmp	r4, #1
 280              		.loc 1 216 0
 281 001e 04FB05F4 		mul	r4, r4, r5
 282              		.loc 1 213 0
 283 0022 88BF     		it	hi
 284 0024 41F00401 		orrhi	r1, r1, #4
 285              	.LVL14:
ARM GAS  /var/folders/_2/42wyrlld3p52fkcpt1lv6gxh0000gp/T//cc1eQ7Hh.s 			page 6


 286              		.loc 1 216 0
 287 0028 5C60     		str	r4, [r3, #4]
 288              		.loc 1 218 0
 289 002a 1960     		str	r1, [r3]
 290              		.loc 1 219 0
 291 002c 1968     		ldr	r1, [r3]
 292              	.LVL15:
 293 002e 41F00101 		orr	r1, r1, #1
 294 0032 1960     		str	r1, [r3]
 295              	.LVL16:
 296              		.loc 1 222 0
 297 0034 836A     		ldr	r3, [r0, #40]
 298 0036 0021     		movs	r1, #0
 299 0038 1960     		str	r1, [r3]
 300              		.loc 1 223 0
 301 003a 5169     		ldr	r1, [r2, #20]
 302 003c D960     		str	r1, [r3, #12]
 303              		.loc 1 224 0
 304 003e 9169     		ldr	r1, [r2, #24]
 305 0040 1961     		str	r1, [r3, #16]
 306              		.loc 1 225 0
 307 0042 D169     		ldr	r1, [r2, #28]
 308 0044 5961     		str	r1, [r3, #20]
 309              		.loc 1 226 0
 310 0046 116A     		ldr	r1, [r2, #32]
 311 0048 1963     		str	r1, [r3, #48]
 312              		.loc 1 227 0
 313 004a 516A     		ldr	r1, [r2, #36]
 314 004c 5963     		str	r1, [r3, #52]
 315              		.loc 1 228 0
 316 004e 916A     		ldr	r1, [r2, #40]
 317 0050 9963     		str	r1, [r3, #56]
 318              		.loc 1 229 0
 319 0052 D16A     		ldr	r1, [r2, #44]
 320 0054 D963     		str	r1, [r3, #60]
 321              		.loc 1 230 0
 322 0056 116B     		ldr	r1, [r2, #48]
 323 0058 1964     		str	r1, [r3, #64]
 324              		.loc 1 234 0
 325 005a D168     		ldr	r1, [r2, #12]
 326              		.loc 1 235 0
 327 005c 1269     		ldr	r2, [r2, #16]
 328              	.LVL17:
 329              		.loc 1 234 0
 330 005e 41F08061 		orr	r1, r1, #67108864
 331              		.loc 1 235 0
 332 0062 12F0804F 		tst	r2, #1073741824
 333              		.loc 1 237 0
 334 0066 42F44072 		orr	r2, r2, #768
 335              		.loc 1 234 0
 336 006a 41F48071 		orr	r1, r1, #256
 337              		.loc 1 237 0
 338 006e 14BF     		ite	ne
 339 0070 42F00302 		orrne	r2, r2, #3
 340              		.loc 1 240 0
 341 0074 42F00102 		orreq	r2, r2, #1
 342              		.loc 1 234 0
ARM GAS  /var/folders/_2/42wyrlld3p52fkcpt1lv6gxh0000gp/T//cc1eQ7Hh.s 			page 7


 343 0078 5960     		str	r1, [r3, #4]
 344              		.loc 1 239 0
 345 007a 9A60     		str	r2, [r3, #8]
 346 007c B0BD     		pop	{r4, r5, r7, pc}
 347              		.cfi_endproc
 348              	.LFE68:
 349              		.size	adc_lld_start_conversion, .-adc_lld_start_conversion
 350              		.section	.text.adc_lld_stop_conversion,"ax",%progbits
 351              		.align	1
 352              		.global	adc_lld_stop_conversion
 353              		.thumb
 354              		.thumb_func
 355              		.type	adc_lld_stop_conversion, %function
 356              	adc_lld_stop_conversion:
 357              	.LFB69:
 358              		.loc 1 250 0
 359              		.cfi_startproc
 360              		@ args = 0, pretend = 0, frame = 0
 361              		@ frame_needed = 1, uses_anonymous_args = 0
 362              	.LVL18:
 363              		.loc 1 252 0
 364 0000 C36A     		ldr	r3, [r0, #44]
 365              		.loc 1 250 0
 366 0002 80B5     		push	{r7, lr}
 367              	.LCFI10:
 368              		.cfi_def_cfa_offset 8
 369              		.cfi_offset 7, -8
 370              		.cfi_offset 14, -4
 371              		.loc 1 252 0
 372 0004 1968     		ldr	r1, [r3]
 373              		.loc 1 250 0
 374 0006 00AF     		add	r7, sp, #0
 375              	.LCFI11:
 376              		.cfi_def_cfa_register 7
 377              		.loc 1 252 0
 378 0008 0A68     		ldr	r2, [r1]
 379 000a 22F00F02 		bic	r2, r2, #15
 380 000e 0A60     		str	r2, [r1]
 381 0010 197A     		ldrb	r1, [r3, #8]	@ zero_extendqisi2
 382 0012 5A68     		ldr	r2, [r3, #4]
 383 0014 0F23     		movs	r3, #15
 384 0016 8B40     		lsls	r3, r3, r1
 385 0018 1360     		str	r3, [r2]
 386              		.loc 1 253 0
 387 001a 836A     		ldr	r3, [r0, #40]
 388 001c 0022     		movs	r2, #0
 389 001e 5A60     		str	r2, [r3, #4]
 390              		.loc 1 254 0
 391 0020 9A60     		str	r2, [r3, #8]
 392              		.loc 1 255 0
 393 0022 0122     		movs	r2, #1
 394 0024 9A60     		str	r2, [r3, #8]
 395 0026 80BD     		pop	{r7, pc}
 396              		.cfi_endproc
 397              	.LFE69:
 398              		.size	adc_lld_stop_conversion, .-adc_lld_stop_conversion
 399              		.section	.text.Vector88,"ax",%progbits
ARM GAS  /var/folders/_2/42wyrlld3p52fkcpt1lv6gxh0000gp/T//cc1eQ7Hh.s 			page 8


 400              		.align	1
 401              		.global	Vector88
 402              		.thumb
 403              		.thumb_func
 404              		.type	Vector88, %function
 405              	Vector88:
 406              	.LFB64:
 407              		.loc 1 91 0
 408              		.cfi_startproc
 409              		@ args = 0, pretend = 0, frame = 0
 410              		@ frame_needed = 1, uses_anonymous_args = 0
 411 0000 98B5     		push	{r3, r4, r7, lr}
 412              	.LCFI12:
 413              		.cfi_def_cfa_offset 16
 414              		.cfi_offset 3, -16
 415              		.cfi_offset 4, -12
 416              		.cfi_offset 7, -8
 417              		.cfi_offset 14, -4
 418              		.loc 1 96 0
 419 0002 1A4B     		ldr	r3, .L44
 420              		.loc 1 97 0
 421 0004 0021     		movs	r1, #0
 422              		.loc 1 96 0
 423 0006 1A68     		ldr	r2, [r3]
 424              	.LVL19:
 425              		.loc 1 97 0
 426 0008 1960     		str	r1, [r3]
 427              		.loc 1 100 0
 428 000a 9306     		lsls	r3, r2, #26
 429              		.loc 1 91 0
 430 000c 00AF     		add	r7, sp, #0
 431              	.LCFI13:
 432              		.cfi_def_cfa_register 7
 433              		.loc 1 100 0
 434 000e 27D5     		bpl	.L27
 435              		.loc 1 100 0 is_stmt 0 discriminator 1
 436 0010 174C     		ldr	r4, .L44+4
 437 0012 E36A     		ldr	r3, [r4, #44]
 438 0014 1B68     		ldr	r3, [r3]
 439 0016 5B68     		ldr	r3, [r3, #4]
 440 0018 13B3     		cbz	r3, .L27
 441              		.loc 1 103 0 is_stmt 1
 442 001a 2369     		ldr	r3, [r4, #16]
 443 001c 03B3     		cbz	r3, .L27
 444              		.loc 1 104 0
 445 001e 2046     		mov	r0, r4
 446 0020 FFF7FEFF 		bl	adc_lld_stop_conversion
 447              	.LVL20:
 448 0024 2369     		ldr	r3, [r4, #16]
 449 0026 9B68     		ldr	r3, [r3, #8]
 450 0028 4BB1     		cbz	r3, .L29
 451              		.loc 1 104 0 is_stmt 0 discriminator 1
 452 002a 0522     		movs	r2, #5
 453 002c 2270     		strb	r2, [r4]
 454 002e 0121     		movs	r1, #1
 455 0030 2046     		mov	r0, r4
 456 0032 9847     		blx	r3
ARM GAS  /var/folders/_2/42wyrlld3p52fkcpt1lv6gxh0000gp/T//cc1eQ7Hh.s 			page 9


 457              	.LVL21:
 458 0034 2378     		ldrb	r3, [r4]	@ zero_extendqisi2
 459 0036 052B     		cmp	r3, #5
 460 0038 04BF     		itt	eq
 461 003a 0223     		moveq	r3, #2
 462 003c 2370     		strbeq	r3, [r4]
 463              	.L29:
 464              		.loc 1 104 0 discriminator 5
 465 003e 0022     		movs	r2, #0
 466 0040 2261     		str	r2, [r4, #16]
 467              	.LBB3:
 468 0042 2023     		movs	r3, #32
 469              		.syntax unified
 470              	@ 104 "chibios/os/hal/platforms/STM32L1xx/adc_lld.c" 1
 471 0044 83F31188 		msr     BASEPRI, r3
 472              	@ 0 "" 2
 473              		.thumb
 474              		.syntax unified
 475              	.LBE3:
 476 0048 6069     		ldr	r0, [r4, #20]
 477 004a 30B1     		cbz	r0, .L31
 478              	.LVL22:
 479              	.LBB4:
 480              		.loc 1 104 0 discriminator 6
 481 004c 084B     		ldr	r3, .L44+4
 482 004e 5A61     		str	r2, [r3, #20]
 483 0050 4FF0FF33 		mov	r3, #-1
 484 0054 8362     		str	r3, [r0, #40]
 485 0056 FFF7FEFF 		bl	chSchReadyI
 486              	.LVL23:
 487              	.L31:
 488              	.LBE4:
 489              	.LBB5:
 490              		.loc 1 104 0 discriminator 8
 491 005a 0023     		movs	r3, #0
 492              		.syntax unified
 493              	@ 104 "chibios/os/hal/platforms/STM32L1xx/adc_lld.c" 1
 494 005c 83F31188 		msr     BASEPRI, r3
 495              	@ 0 "" 2
 496              		.thumb
 497              		.syntax unified
 498              	.L27:
 499              	.LBE5:
 500              		.loc 1 109 0 is_stmt 1
 501 0060 BD46     		mov	sp, r7
 502              	.LCFI14:
 503              		.cfi_def_cfa_register 13
 504              		@ sp needed
 505 0062 BDE89840 		pop	{r3, r4, r7, lr}
 506              	.LCFI15:
 507              		.cfi_restore 14
 508              		.cfi_restore 7
 509              		.cfi_restore 4
 510              		.cfi_restore 3
 511              		.cfi_def_cfa_offset 0
 512              		.loc 1 108 0
 513 0066 FFF7FEBF 		b	_port_irq_epilogue
ARM GAS  /var/folders/_2/42wyrlld3p52fkcpt1lv6gxh0000gp/T//cc1eQ7Hh.s 			page 10


 514              	.LVL24:
 515              	.L45:
 516 006a 00BF     		.align	2
 517              	.L44:
 518 006c 00240140 		.word	1073816576
 519 0070 00000000 		.word	.LANCHOR0
 520              		.cfi_endproc
 521              	.LFE64:
 522              		.size	Vector88, .-Vector88
 523              		.section	.text.adc_lld_serve_rx_interrupt,"ax",%progbits
 524              		.align	1
 525              		.thumb
 526              		.thumb_func
 527              		.type	adc_lld_serve_rx_interrupt, %function
 528              	adc_lld_serve_rx_interrupt:
 529              	.LFB63:
 530              		.loc 1 57 0
 531              		.cfi_startproc
 532              		@ args = 0, pretend = 0, frame = 0
 533              		@ frame_needed = 1, uses_anonymous_args = 0
 534              	.LVL25:
 535 0000 B0B5     		push	{r4, r5, r7, lr}
 536              	.LCFI16:
 537              		.cfi_def_cfa_offset 16
 538              		.cfi_offset 4, -16
 539              		.cfi_offset 5, -12
 540              		.cfi_offset 7, -8
 541              		.cfi_offset 14, -4
 542 0002 0D46     		mov	r5, r1
 543              		.loc 1 60 0
 544 0004 2907     		lsls	r1, r5, #28
 545              	.LVL26:
 546              		.loc 1 57 0
 547 0006 00AF     		add	r7, sp, #0
 548              	.LCFI17:
 549              		.cfi_def_cfa_register 7
 550              		.loc 1 57 0
 551 0008 0446     		mov	r4, r0
 552              		.loc 1 60 0
 553 000a 19D5     		bpl	.L47
 554              		.loc 1 63 0
 555 000c FFF7FEFF 		bl	adc_lld_stop_conversion
 556              	.LVL27:
 557 0010 0369     		ldr	r3, [r0, #16]
 558 0012 9B68     		ldr	r3, [r3, #8]
 559 0014 43B1     		cbz	r3, .L49
 560              		.loc 1 63 0 is_stmt 0 discriminator 1
 561 0016 0522     		movs	r2, #5
 562 0018 0270     		strb	r2, [r0]
 563 001a 0021     		movs	r1, #0
 564 001c 9847     		blx	r3
 565              	.LVL28:
 566 001e 2378     		ldrb	r3, [r4]	@ zero_extendqisi2
 567 0020 052B     		cmp	r3, #5
 568 0022 04BF     		itt	eq
 569 0024 0223     		moveq	r3, #2
 570 0026 2370     		strbeq	r3, [r4]
ARM GAS  /var/folders/_2/42wyrlld3p52fkcpt1lv6gxh0000gp/T//cc1eQ7Hh.s 			page 11


 571              	.L49:
 572              		.loc 1 63 0 discriminator 5
 573 0028 0022     		movs	r2, #0
 574 002a 2261     		str	r2, [r4, #16]
 575              	.LBB6:
 576 002c 2023     		movs	r3, #32
 577              		.syntax unified
 578              	@ 63 "chibios/os/hal/platforms/STM32L1xx/adc_lld.c" 1
 579 002e 83F31188 		msr     BASEPRI, r3
 580              	@ 0 "" 2
 581              		.thumb
 582              		.syntax unified
 583              	.LBE6:
 584 0032 6069     		ldr	r0, [r4, #20]
 585 0034 0028     		cmp	r0, #0
 586 0036 4CD0     		beq	.L62
 587              	.LVL29:
 588              	.LBB7:
 589              		.loc 1 63 0 discriminator 6
 590 0038 6261     		str	r2, [r4, #20]
 591 003a 4FF0FF33 		mov	r3, #-1
 592 003e 45E0     		b	.L86
 593              	.LVL30:
 594              	.L47:
 595              	.LBE7:
 596              		.loc 1 68 0 is_stmt 1
 597 0040 0369     		ldr	r3, [r0, #16]
 598 0042 002B     		cmp	r3, #0
 599 0044 48D0     		beq	.L46
 600              		.loc 1 69 0
 601 0046 6A07     		lsls	r2, r5, #29
 602 0048 05D5     		bpl	.L54
 603              		.loc 1 71 0
 604 004a 5B68     		ldr	r3, [r3, #4]
 605 004c 1BB1     		cbz	r3, .L54
 606              		.loc 1 71 0 is_stmt 0 discriminator 1
 607 004e C268     		ldr	r2, [r0, #12]
 608 0050 8168     		ldr	r1, [r0, #8]
 609 0052 5208     		lsrs	r2, r2, #1
 610 0054 9847     		blx	r3
 611              	.LVL31:
 612              	.L54:
 613              		.loc 1 73 0 is_stmt 1
 614 0056 AB07     		lsls	r3, r5, #30
 615 0058 3ED5     		bpl	.L46
 616              		.loc 1 75 0
 617 005a 2169     		ldr	r1, [r4, #16]
 618 005c 0B78     		ldrb	r3, [r1]	@ zero_extendqisi2
 619 005e 93B1     		cbz	r3, .L56
 620              		.loc 1 75 0 is_stmt 0 discriminator 1
 621 0060 4B68     		ldr	r3, [r1, #4]
 622 0062 002B     		cmp	r3, #0
 623 0064 38D0     		beq	.L46
 624              		.loc 1 75 0 discriminator 3
 625 0066 E268     		ldr	r2, [r4, #12]
 626 0068 012A     		cmp	r2, #1
 627              	.LBB8:
ARM GAS  /var/folders/_2/42wyrlld3p52fkcpt1lv6gxh0000gp/T//cc1eQ7Hh.s 			page 12


 628 006a 81BF     		itttt	hi
 629 006c 4988     		ldrhhi	r1, [r1, #2]
 630 006e 5208     		lsrhi	r2, r2, #1
 631              	.LVL32:
 632 0070 5143     		mulhi	r1, r2, r1
 633 0072 A068     		ldrhi	r0, [r4, #8]
 634              	.LBE8:
 635 0074 94BF     		ite	ls
 636 0076 A168     		ldrls	r1, [r4, #8]
 637              	.LBB9:
 638 0078 00EB4101 		addhi	r1, r0, r1, lsl #1
 639              	.LBE9:
 640 007c 2046     		mov	r0, r4
 641              		.loc 1 79 0 is_stmt 1 discriminator 3
 642 007e BD46     		mov	sp, r7
 643              	.LCFI18:
 644              		.cfi_remember_state
 645              		.cfi_def_cfa_register 13
 646              		@ sp needed
 647 0080 BDE8B040 		pop	{r4, r5, r7, lr}
 648              	.LCFI19:
 649              		.cfi_restore 14
 650              		.cfi_restore 7
 651              		.cfi_restore 5
 652              		.cfi_restore 4
 653              		.cfi_def_cfa_offset 0
 654              	.LVL33:
 655              		.loc 1 75 0 discriminator 3
 656 0084 1847     		bx	r3	@ indirect register sibling call
 657              	.LVL34:
 658              	.L56:
 659              	.LCFI20:
 660              		.cfi_restore_state
 661              		.loc 1 75 0 is_stmt 0 discriminator 2
 662 0086 2046     		mov	r0, r4
 663 0088 FFF7FEFF 		bl	adc_lld_stop_conversion
 664              	.LVL35:
 665 008c 2169     		ldr	r1, [r4, #16]
 666 008e 4B68     		ldr	r3, [r1, #4]
 667 0090 8BB1     		cbz	r3, .L58
 668              		.loc 1 75 0 discriminator 6
 669 0092 0422     		movs	r2, #4
 670 0094 2270     		strb	r2, [r4]
 671 0096 E268     		ldr	r2, [r4, #12]
 672 0098 012A     		cmp	r2, #1
 673              	.LBB10:
 674 009a 81BF     		itttt	hi
 675 009c 4988     		ldrhhi	r1, [r1, #2]
 676 009e 5208     		lsrhi	r2, r2, #1
 677              	.LVL36:
 678 00a0 5143     		mulhi	r1, r2, r1
 679 00a2 A068     		ldrhi	r0, [r4, #8]
 680              	.LBE10:
 681 00a4 94BF     		ite	ls
 682 00a6 A168     		ldrls	r1, [r4, #8]
 683              	.LBB11:
 684 00a8 00EB4101 		addhi	r1, r0, r1, lsl #1
ARM GAS  /var/folders/_2/42wyrlld3p52fkcpt1lv6gxh0000gp/T//cc1eQ7Hh.s 			page 13


 685              	.LBE11:
 686 00ac 2046     		mov	r0, r4
 687 00ae 9847     		blx	r3
 688              	.LVL37:
 689 00b0 2378     		ldrb	r3, [r4]	@ zero_extendqisi2
 690 00b2 042B     		cmp	r3, #4
 691 00b4 03D1     		bne	.L61
 692              	.L58:
 693              		.loc 1 75 0 discriminator 12
 694 00b6 0223     		movs	r3, #2
 695 00b8 2370     		strb	r3, [r4]
 696 00ba 0023     		movs	r3, #0
 697 00bc 2361     		str	r3, [r4, #16]
 698              	.L61:
 699              	.LBB12:
 700              		.loc 1 75 0 discriminator 13
 701 00be 2023     		movs	r3, #32
 702              		.syntax unified
 703              	@ 75 "chibios/os/hal/platforms/STM32L1xx/adc_lld.c" 1
 704 00c0 83F31188 		msr     BASEPRI, r3
 705              	@ 0 "" 2
 706              		.thumb
 707              		.syntax unified
 708              	.LBE12:
 709 00c4 6069     		ldr	r0, [r4, #20]
 710 00c6 20B1     		cbz	r0, .L62
 711              	.LVL38:
 712              	.LBB13:
 713              		.loc 1 75 0 discriminator 14
 714 00c8 0023     		movs	r3, #0
 715 00ca 6361     		str	r3, [r4, #20]
 716              	.LVL39:
 717              	.L86:
 718 00cc 8362     		str	r3, [r0, #40]
 719 00ce FFF7FEFF 		bl	chSchReadyI
 720              	.LVL40:
 721              	.L62:
 722              	.LBE13:
 723              	.LBB14:
 724              		.loc 1 75 0 discriminator 16
 725 00d2 0023     		movs	r3, #0
 726              		.syntax unified
 727              	@ 75 "chibios/os/hal/platforms/STM32L1xx/adc_lld.c" 1
 728 00d4 83F31188 		msr     BASEPRI, r3
 729              	@ 0 "" 2
 730              		.thumb
 731              		.syntax unified
 732              	.L46:
 733 00d8 B0BD     		pop	{r4, r5, r7, pc}
 734              	.LBE14:
 735              		.cfi_endproc
 736              	.LFE63:
 737              		.size	adc_lld_serve_rx_interrupt, .-adc_lld_serve_rx_interrupt
 738              		.section	.text.adcSTM32EnableTSVREFE,"ax",%progbits
 739              		.align	1
 740              		.global	adcSTM32EnableTSVREFE
 741              		.thumb
ARM GAS  /var/folders/_2/42wyrlld3p52fkcpt1lv6gxh0000gp/T//cc1eQ7Hh.s 			page 14


 742              		.thumb_func
 743              		.type	adcSTM32EnableTSVREFE, %function
 744              	adcSTM32EnableTSVREFE:
 745              	.LFB70:
 746              		.loc 1 264 0 is_stmt 1
 747              		.cfi_startproc
 748              		@ args = 0, pretend = 0, frame = 0
 749              		@ frame_needed = 1, uses_anonymous_args = 0
 750 0000 80B5     		push	{r7, lr}
 751              	.LCFI21:
 752              		.cfi_def_cfa_offset 8
 753              		.cfi_offset 7, -8
 754              		.cfi_offset 14, -4
 755              		.loc 1 266 0
 756 0002 034A     		ldr	r2, .L88
 757              		.loc 1 264 0
 758 0004 00AF     		add	r7, sp, #0
 759              	.LCFI22:
 760              		.cfi_def_cfa_register 7
 761              		.loc 1 266 0
 762 0006 5368     		ldr	r3, [r2, #4]
 763 0008 43F40003 		orr	r3, r3, #8388608
 764 000c 5360     		str	r3, [r2, #4]
 765 000e 80BD     		pop	{r7, pc}
 766              	.L89:
 767              		.align	2
 768              	.L88:
 769 0010 00270140 		.word	1073817344
 770              		.cfi_endproc
 771              	.LFE70:
 772              		.size	adcSTM32EnableTSVREFE, .-adcSTM32EnableTSVREFE
 773              		.section	.text.adcSTM32DisableTSVREFE,"ax",%progbits
 774              		.align	1
 775              		.global	adcSTM32DisableTSVREFE
 776              		.thumb
 777              		.thumb_func
 778              		.type	adcSTM32DisableTSVREFE, %function
 779              	adcSTM32DisableTSVREFE:
 780              	.LFB71:
 781              		.loc 1 275 0
 782              		.cfi_startproc
 783              		@ args = 0, pretend = 0, frame = 0
 784              		@ frame_needed = 1, uses_anonymous_args = 0
 785 0000 80B5     		push	{r7, lr}
 786              	.LCFI23:
 787              		.cfi_def_cfa_offset 8
 788              		.cfi_offset 7, -8
 789              		.cfi_offset 14, -4
 790              		.loc 1 277 0
 791 0002 034A     		ldr	r2, .L91
 792              		.loc 1 275 0
 793 0004 00AF     		add	r7, sp, #0
 794              	.LCFI24:
 795              		.cfi_def_cfa_register 7
 796              		.loc 1 277 0
 797 0006 5368     		ldr	r3, [r2, #4]
 798 0008 23F40003 		bic	r3, r3, #8388608
ARM GAS  /var/folders/_2/42wyrlld3p52fkcpt1lv6gxh0000gp/T//cc1eQ7Hh.s 			page 15


 799 000c 5360     		str	r3, [r2, #4]
 800 000e 80BD     		pop	{r7, pc}
 801              	.L92:
 802              		.align	2
 803              	.L91:
 804 0010 00270140 		.word	1073817344
 805              		.cfi_endproc
 806              	.LFE71:
 807              		.size	adcSTM32DisableTSVREFE, .-adcSTM32DisableTSVREFE
 808              		.global	ADCD1
 809              		.section	.bss.ADCD1,"aw",%nobits
 810              		.align	2
 811              		.set	.LANCHOR0,. + 0
 812              		.type	ADCD1, %object
 813              		.size	ADCD1, 52
 814              	ADCD1:
 815 0000 00000000 		.space	52
 815      00000000 
 815      00000000 
 815      00000000 
 815      00000000 
 816              		.text
 817              	.Letext0:
 818              		.file 2 "/Users/ARS/Applications/Eclipse.app/Contents/gcc-arm-none-eabi-5_3-2016q1/lib/gcc/arm-non
 819              		.file 3 "/Users/ARS/Applications/Eclipse.app/Contents/gcc-arm-none-eabi-5_3-2016q1/arm-none-eabi/i
 820              		.file 4 "/Users/ARS/Applications/Eclipse.app/Contents/gcc-arm-none-eabi-5_3-2016q1/arm-none-eabi/i
 821              		.file 5 "chibios/os/ports/GCC/ARMCMx/chtypes.h"
 822              		.file 6 "chibios/os/kernel/include/chlists.h"
 823              		.file 7 "chibios/os/kernel/include/chthreads.h"
 824              		.file 8 "chibios/os/ports/GCC/ARMCMx/chcore_v7m.h"
 825              		.file 9 "chibios/os/kernel/include/chmtx.h"
 826              		.file 10 "chibios/os/hal/platforms/STM32L1xx/stm32l1xx.h"
 827              		.file 11 "chibios/os/hal/platforms/STM32L1xx/stm32_dma.h"
 828              		.file 12 "chibios/os/hal/include/adc.h"
 829              		.file 13 "chibios/os/hal/platforms/STM32L1xx/adc_lld.h"
 830              		.file 14 "chibios/os/ports/common/ARMCMx/CMSIS/include/core_cm3.h"
 831              		.file 15 "chibios/os/ports/common/ARMCMx/nvic.h"
 832              		.file 16 "chibios/os/kernel/include/chschd.h"