ARM GAS  /var/folders/_2/42wyrlld3p52fkcpt1lv6gxh0000gp/T//ccXVs8ky.s 			page 1


   1              		.syntax unified
   2              		.cpu cortex-m3
   3              		.fpu softvfp
   4              		.eabi_attribute 20, 1
   5              		.eabi_attribute 21, 1
   6              		.eabi_attribute 23, 3
   7              		.eabi_attribute 24, 1
   8              		.eabi_attribute 25, 1
   9              		.eabi_attribute 26, 1
  10              		.eabi_attribute 30, 4
  11              		.eabi_attribute 34, 1
  12              		.eabi_attribute 18, 4
  13              		.thumb
  14              		.syntax unified
  15              		.file	"alarm_task.c"
  16              		.text
  17              	.Ltext0:
  18              		.cfi_sections	.debug_frame
  19              		.section	.text.alarm_keep_going,"ax",%progbits
  20              		.align	1
  21              		.thumb
  22              		.thumb_func
  23              		.type	alarm_keep_going, %function
  24              	alarm_keep_going:
  25              	.LFB71:
  26              		.file 1 "src/alarm_task.c"
  27              		.loc 1 25 0
  28              		.cfi_startproc
  29              		@ args = 0, pretend = 0, frame = 16
  30              		@ frame_needed = 1, uses_anonymous_args = 0
  31 0000 80B5     		push	{r7, lr}
  32              	.LCFI0:
  33              		.cfi_def_cfa_offset 8
  34              		.cfi_offset 7, -8
  35              		.cfi_offset 14, -4
  36 0002 84B0     		sub	sp, sp, #16
  37              	.LCFI1:
  38              		.cfi_def_cfa_offset 24
  39 0004 00AF     		add	r7, sp, #0
  40              	.LCFI2:
  41              		.cfi_def_cfa_register 7
  42              		.loc 1 29 0
  43 0006 FA1D     		adds	r2, r7, #7
  44 0008 07F10C01 		add	r1, r7, #12
  45 000c 07F10800 		add	r0, r7, #8
  46 0010 FFF7FEFF 		bl	sensor_get_temperature
  47              	.LVL0:
  48 0014 074B     		ldr	r3, .L8
  49 0016 00B9     		cbnz	r0, .L2
  50              		.loc 1 30 0
  51 0018 1870     		strb	r0, [r3]
  52              	.L2:
  53              		.loc 1 32 0
  54 001a 074A     		ldr	r2, .L8+4
  55              		.loc 1 36 0
  56 001c 1037     		adds	r7, r7, #16
  57              	.LCFI3:
ARM GAS  /var/folders/_2/42wyrlld3p52fkcpt1lv6gxh0000gp/T//ccXVs8ky.s 			page 2


  58              		.cfi_def_cfa_offset 8
  59              		.loc 1 32 0
  60 001e 9269     		ldr	r2, [r2, #24]
  61 0020 92F82120 		ldrb	r2, [r2, #33]	@ zero_extendqisi2
  62 0024 5207     		lsls	r2, r2, #29
  63              		.loc 1 33 0
  64 0026 44BF     		itt	mi
  65 0028 0022     		movmi	r2, #0
  66 002a 1A70     		strbmi	r2, [r3]
  67              		.loc 1 36 0
  68 002c 1878     		ldrb	r0, [r3]	@ zero_extendqisi2
  69 002e BD46     		mov	sp, r7
  70              	.LCFI4:
  71              		.cfi_def_cfa_register 13
  72              		@ sp needed
  73 0030 80BD     		pop	{r7, pc}
  74              	.L9:
  75 0032 00BF     		.align	2
  76              	.L8:
  77 0034 00000000 		.word	.LANCHOR0
  78 0038 00000000 		.word	rlist
  79              		.cfi_endproc
  80              	.LFE71:
  81              		.size	alarm_keep_going, .-alarm_keep_going
  82              		.section	.text.alarm_task,"ax",%progbits
  83              		.align	1
  84              		.thumb
  85              		.thumb_func
  86              		.type	alarm_task, %function
  87              	alarm_task:
  88              	.LFB72:
  89              		.loc 1 42 0
  90              		.cfi_startproc
  91              		@ args = 0, pretend = 0, frame = 16
  92              		@ frame_needed = 1, uses_anonymous_args = 0
  93              	.LVL1:
  94 0000 2DE9F043 		push	{r4, r5, r6, r7, r8, r9, lr}
  95              	.LCFI5:
  96              		.cfi_def_cfa_offset 28
  97              		.cfi_offset 4, -28
  98              		.cfi_offset 5, -24
  99              		.cfi_offset 6, -20
 100              		.cfi_offset 7, -16
 101              		.cfi_offset 8, -12
 102              		.cfi_offset 9, -8
 103              		.cfi_offset 14, -4
 104 0004 85B0     		sub	sp, sp, #20
 105              	.LCFI6:
 106              		.cfi_def_cfa_offset 48
 107              		.loc 1 45 0
 108 0006 1E4D     		ldr	r5, .L21
 109 0008 1E4A     		ldr	r2, .L21+4
 110 000a AB69     		ldr	r3, [r5, #24]
 111              	.LBB2:
 112              	.LBB3:
 113              		.loc 1 53 0
 114 000c 1E4E     		ldr	r6, .L21+8
ARM GAS  /var/folders/_2/42wyrlld3p52fkcpt1lv6gxh0000gp/T//ccXVs8ky.s 			page 3


 115              		.loc 1 65 0
 116 000e DFF88080 		ldr	r8, .L21+16
 117              	.LBE3:
 118              	.LBE2:
 119              		.loc 1 42 0
 120 0012 00AF     		add	r7, sp, #0
 121              	.LCFI7:
 122              		.cfi_def_cfa_register 7
 123              		.loc 1 45 0
 124 0014 9A61     		str	r2, [r3, #24]
 125              		.loc 1 43 0
 126 0016 4FF00009 		mov	r9, #0
 127              	.LVL2:
 128              	.L11:
 129              		.loc 1 47 0
 130 001a AB69     		ldr	r3, [r5, #24]
 131 001c 93F82130 		ldrb	r3, [r3, #33]	@ zero_extendqisi2
 132 0020 5B07     		lsls	r3, r3, #29
 133 0022 27D4     		bmi	.L20
 134              	.LBB5:
 135              		.loc 1 51 0
 136 0024 FA1D     		adds	r2, r7, #7
 137 0026 07F10C01 		add	r1, r7, #12
 138 002a 07F10800 		add	r0, r7, #8
 139 002e FFF7FEFF 		bl	sensor_get_temperature
 140              	.LVL3:
 141 0032 C8B1     		cbz	r0, .L15
 142              	.LBB4:
 143              		.loc 1 53 0
 144 0034 3468     		ldr	r4, [r6]
 145 0036 BB68     		ldr	r3, [r7, #8]
 146 0038 1C1B     		subs	r4, r3, r4
 147              	.LVL4:
 148              		.loc 1 56 0
 149 003a B4F5FA7F 		cmp	r4, #500
 150 003e 06DC     		bgt	.L16
 151              		.loc 1 58 0
 152 0040 14F5FA7F 		cmn	r4, #500
 153 0044 ACBF     		ite	ge
 154 0046 0024     		movge	r4, #0
 155              	.LVL5:
 156 0048 0124     		movlt	r4, #1
 157 004a 6442     		negs	r4, r4
 158 004c 00E0     		b	.L13
 159              	.LVL6:
 160              	.L16:
 161              		.loc 1 57 0
 162 004e 0124     		movs	r4, #1
 163              	.LVL7:
 164              	.L13:
 165              		.loc 1 63 0
 166 0050 B9F1000F 		cmp	r9, #0
 167 0054 09D0     		beq	.L12
 168              		.loc 1 63 0 is_stmt 0 discriminator 1
 169 0056 A145     		cmp	r9, r4
 170 0058 07D0     		beq	.L12
 171              		.loc 1 65 0 is_stmt 1
ARM GAS  /var/folders/_2/42wyrlld3p52fkcpt1lv6gxh0000gp/T//ccXVs8ky.s 			page 4


 172 005a 0123     		movs	r3, #1
 173              	.LVL8:
 174              		.loc 1 66 0
 175 005c 0B48     		ldr	r0, .L21+12
 176              		.loc 1 65 0
 177 005e 88F80030 		strb	r3, [r8]
 178              		.loc 1 66 0
 179 0062 FFF7FEFF 		bl	beeper_midi
 180              	.LVL9:
 181 0066 00E0     		b	.L12
 182              	.LVL10:
 183              	.L15:
 184              	.LBE4:
 185 0068 4C46     		mov	r4, r9
 186              	.L12:
 187              	.LVL11:
 188              		.loc 1 72 0
 189 006a 6420     		movs	r0, #100
 190 006c FFF7FEFF 		bl	chThdSleep
 191              	.LVL12:
 192 0070 A146     		mov	r9, r4
 193 0072 D2E7     		b	.L11
 194              	.LVL13:
 195              	.L20:
 196              	.LBE5:
 197              		.loc 1 76 0
 198 0074 0020     		movs	r0, #0
 199 0076 1437     		adds	r7, r7, #20
 200              	.LCFI8:
 201              		.cfi_def_cfa_offset 28
 202 0078 BD46     		mov	sp, r7
 203              	.LCFI9:
 204              		.cfi_def_cfa_register 13
 205              		@ sp needed
 206 007a BDE8F083 		pop	{r4, r5, r6, r7, r8, r9, pc}
 207              	.LVL14:
 208              	.L22:
 209 007e 00BF     		.align	2
 210              	.L21:
 211 0080 00000000 		.word	rlist
 212 0084 00000000 		.word	.LC0
 213 0088 00000000 		.word	.LANCHOR1
 214 008c 00000000 		.word	alarm_keep_going
 215 0090 00000000 		.word	.LANCHOR0
 216              		.cfi_endproc
 217              	.LFE72:
 218              		.size	alarm_task, .-alarm_task
 219              		.section	.text.alarm_set_limit,"ax",%progbits
 220              		.align	1
 221              		.global	alarm_set_limit
 222              		.thumb
 223              		.thumb_func
 224              		.type	alarm_set_limit, %function
 225              	alarm_set_limit:
 226              	.LFB70:
 227              		.loc 1 14 0
 228              		.cfi_startproc
ARM GAS  /var/folders/_2/42wyrlld3p52fkcpt1lv6gxh0000gp/T//ccXVs8ky.s 			page 5


 229              		@ args = 0, pretend = 0, frame = 0
 230              		@ frame_needed = 1, uses_anonymous_args = 0
 231              	.LVL15:
 232 0000 80B5     		push	{r7, lr}
 233              	.LCFI10:
 234              		.cfi_def_cfa_offset 8
 235              		.cfi_offset 7, -8
 236              		.cfi_offset 14, -4
 237              		.loc 1 15 0
 238 0002 074A     		ldr	r2, .L25
 239              		.loc 1 14 0
 240 0004 00AF     		add	r7, sp, #0
 241              	.LCFI11:
 242              		.cfi_def_cfa_register 7
 243              		.loc 1 15 0
 244 0006 1368     		ldr	r3, [r2]
 245 0008 8342     		cmp	r3, r0
 246 000a 08D0     		beq	.L23
 247              	.LBB6:
 248              		.loc 1 17 0
 249 000c 2023     		movs	r3, #32
 250              		.syntax unified
 251              	@ 17 "src/alarm_task.c" 1
 252 000e 83F31188 		msr     BASEPRI, r3
 253              	@ 0 "" 2
 254              		.thumb
 255              		.syntax unified
 256              	.LBE6:
 257              		.loc 1 18 0
 258 0012 1060     		str	r0, [r2]
 259              		.loc 1 19 0
 260 0014 034A     		ldr	r2, .L25+4
 261 0016 0023     		movs	r3, #0
 262 0018 1370     		strb	r3, [r2]
 263              	.LBB7:
 264              		.loc 1 20 0
 265              		.syntax unified
 266              	@ 20 "src/alarm_task.c" 1
 267 001a 83F31188 		msr     BASEPRI, r3
 268              	@ 0 "" 2
 269              		.thumb
 270              		.syntax unified
 271              	.L23:
 272 001e 80BD     		pop	{r7, pc}
 273              	.L26:
 274              		.align	2
 275              	.L25:
 276 0020 00000000 		.word	.LANCHOR1
 277 0024 00000000 		.word	.LANCHOR0
 278              	.LBE7:
 279              		.cfi_endproc
 280              	.LFE70:
 281              		.size	alarm_set_limit, .-alarm_set_limit
 282              		.section	.text.alarm_start,"ax",%progbits
 283              		.align	1
 284              		.global	alarm_start
 285              		.thumb
ARM GAS  /var/folders/_2/42wyrlld3p52fkcpt1lv6gxh0000gp/T//ccXVs8ky.s 			page 6


 286              		.thumb_func
 287              		.type	alarm_start, %function
 288              	alarm_start:
 289              	.LFB73:
 290              		.loc 1 79 0
 291              		.cfi_startproc
 292              		@ args = 0, pretend = 0, frame = 0
 293              		@ frame_needed = 1, uses_anonymous_args = 0
 294 0000 90B5     		push	{r4, r7, lr}
 295              	.LCFI12:
 296              		.cfi_def_cfa_offset 12
 297              		.cfi_offset 4, -12
 298              		.cfi_offset 7, -8
 299              		.cfi_offset 14, -4
 300 0002 83B0     		sub	sp, sp, #12
 301              	.LCFI13:
 302              		.cfi_def_cfa_offset 24
 303              		.loc 1 80 0
 304 0004 084C     		ldr	r4, .L29
 305              		.loc 1 79 0
 306 0006 02AF     		add	r7, sp, #8
 307              	.LCFI14:
 308              		.cfi_def_cfa 7, 16
 309              		.loc 1 80 0
 310 0008 2368     		ldr	r3, [r4]
 311 000a 53B9     		cbnz	r3, .L27
 312              		.loc 1 83 0
 313 000c 074A     		ldr	r2, .L29+4
 314              		.loc 1 85 0
 315 000e 4FF4D071 		mov	r1, #416
 316              		.loc 1 83 0
 317 0012 1370     		strb	r3, [r2]
 318              		.loc 1 85 0
 319 0014 0648     		ldr	r0, .L29+8
 320 0016 0093     		str	r3, [sp]
 321 0018 4522     		movs	r2, #69
 322 001a 064B     		ldr	r3, .L29+12
 323 001c FFF7FEFF 		bl	chThdCreateStatic
 324              	.LVL16:
 325 0020 2060     		str	r0, [r4]
 326              	.L27:
 327              		.loc 1 87 0
 328 0022 0437     		adds	r7, r7, #4
 329              	.LCFI15:
 330              		.cfi_def_cfa_offset 12
 331 0024 BD46     		mov	sp, r7
 332              	.LCFI16:
 333              		.cfi_def_cfa_register 13
 334              		@ sp needed
 335 0026 90BD     		pop	{r4, r7, pc}
 336              	.L30:
 337              		.align	2
 338              	.L29:
 339 0028 00000000 		.word	.LANCHOR2
 340 002c 00000000 		.word	.LANCHOR0
 341 0030 00000000 		.word	.LANCHOR3
 342 0034 00000000 		.word	alarm_task
ARM GAS  /var/folders/_2/42wyrlld3p52fkcpt1lv6gxh0000gp/T//ccXVs8ky.s 			page 7


 343              		.cfi_endproc
 344              	.LFE73:
 345              		.size	alarm_start, .-alarm_start
 346              		.section	.text.alarm_stop,"ax",%progbits
 347              		.align	1
 348              		.global	alarm_stop
 349              		.thumb
 350              		.thumb_func
 351              		.type	alarm_stop, %function
 352              	alarm_stop:
 353              	.LFB74:
 354              		.loc 1 90 0
 355              		.cfi_startproc
 356              		@ args = 0, pretend = 0, frame = 0
 357              		@ frame_needed = 1, uses_anonymous_args = 0
 358 0000 98B5     		push	{r3, r4, r7, lr}
 359              	.LCFI17:
 360              		.cfi_def_cfa_offset 16
 361              		.cfi_offset 3, -16
 362              		.cfi_offset 4, -12
 363              		.cfi_offset 7, -8
 364              		.cfi_offset 14, -4
 365              		.loc 1 91 0
 366 0002 064C     		ldr	r4, .L36
 367              		.loc 1 90 0
 368 0004 00AF     		add	r7, sp, #0
 369              	.LCFI18:
 370              		.cfi_def_cfa_register 7
 371              		.loc 1 91 0
 372 0006 2068     		ldr	r0, [r4]
 373 0008 30B1     		cbz	r0, .L31
 374              		.loc 1 93 0
 375 000a FFF7FEFF 		bl	chThdTerminate
 376              	.LVL17:
 377              		.loc 1 94 0
 378 000e 2068     		ldr	r0, [r4]
 379 0010 FFF7FEFF 		bl	chThdWait
 380              	.LVL18:
 381              		.loc 1 95 0
 382 0014 0023     		movs	r3, #0
 383 0016 2360     		str	r3, [r4]
 384              	.L31:
 385 0018 98BD     		pop	{r3, r4, r7, pc}
 386              	.L37:
 387 001a 00BF     		.align	2
 388              	.L36:
 389 001c 00000000 		.word	.LANCHOR2
 390              		.cfi_endproc
 391              	.LFE74:
 392              		.size	alarm_stop, .-alarm_stop
 393              		.section	.bss.alarmThread_wa,"aw",%nobits
 394              		.align	3
 395              		.set	.LANCHOR3,. + 0
 396              		.type	alarmThread_wa, %object
 397              		.size	alarmThread_wa, 416
 398              	alarmThread_wa:
 399 0000 00000000 		.space	416
ARM GAS  /var/folders/_2/42wyrlld3p52fkcpt1lv6gxh0000gp/T//ccXVs8ky.s 			page 8


 399      00000000 
 399      00000000 
 399      00000000 
 399      00000000 
 400              		.section	.bss.alarmThread,"aw",%nobits
 401              		.align	2
 402              		.set	.LANCHOR2,. + 0
 403              		.type	alarmThread, %object
 404              		.size	alarmThread, 4
 405              	alarmThread:
 406 0000 00000000 		.space	4
 407              		.section	.rodata.str1.1,"aMS",%progbits,1
 408              	.LC0:
 409 0000 616C6172 		.ascii	"alarm\000"
 409      6D00
 410              		.section	.bss.g_alarm_active,"aw",%nobits
 411              		.set	.LANCHOR0,. + 0
 412              		.type	g_alarm_active, %object
 413              		.size	g_alarm_active, 1
 414              	g_alarm_active:
 415 0000 00       		.space	1
 416              		.section	.bss.g_alarm_limit,"aw",%nobits
 417              		.align	2
 418              		.set	.LANCHOR1,. + 0
 419              		.type	g_alarm_limit, %object
 420              		.size	g_alarm_limit, 4
 421              	g_alarm_limit:
 422 0000 00000000 		.space	4
 423              		.text
 424              	.Letext0:
 425              		.file 2 "/Users/ARS/Applications/Eclipse.app/Contents/gcc-arm-none-eabi-5_3-2016q1/arm-none-eabi/i
 426              		.file 3 "/Users/ARS/Applications/Eclipse.app/Contents/gcc-arm-none-eabi-5_3-2016q1/arm-none-eabi/i
 427              		.file 4 "chibios/os/ports/GCC/ARMCMx/chtypes.h"
 428              		.file 5 "chibios/os/kernel/include/chlists.h"
 429              		.file 6 "chibios/os/kernel/include/chthreads.h"
 430              		.file 7 "chibios/os/ports/GCC/ARMCMx/chcore_v7m.h"
 431              		.file 8 "chibios/os/kernel/include/chschd.h"
 432              		.file 9 "chibios/os/kernel/include/chmtx.h"
 433              		.file 10 "chibios/os/ports/common/ARMCMx/CMSIS/include/core_cm3.h"
 434              		.file 11 "src/sensor_task.h"
 435              		.file 12 "src/beeper.h"