ARM GAS  /var/folders/_2/42wyrlld3p52fkcpt1lv6gxh0000gp/T//ccyqRb58.s 			page 1


   1              		.syntax unified
   2              		.cpu cortex-m3
   3              		.fpu softvfp
   4              		.eabi_attribute 20, 1
   5              		.eabi_attribute 21, 1
   6              		.eabi_attribute 23, 3
   7              		.eabi_attribute 24, 1
   8              		.eabi_attribute 25, 1
   9              		.eabi_attribute 26, 1
  10              		.eabi_attribute 30, 4
  11              		.eabi_attribute 34, 1
  12              		.eabi_attribute 18, 4
  13              		.thumb
  14              		.syntax unified
  15              		.file	"battery.c"
  16              		.text
  17              	.Ltext0:
  18              		.cfi_sections	.debug_frame
  19              		.section	.text.battery_vcc_voltage,"ax",%progbits
  20              		.align	1
  21              		.global	battery_vcc_voltage
  22              		.thumb
  23              		.thumb_func
  24              		.type	battery_vcc_voltage, %function
  25              	battery_vcc_voltage:
  26              	.LFB63:
  27              		.file 1 "src/battery.c"
  28              		.loc 1 23 0
  29              		.cfi_startproc
  30              		@ args = 0, pretend = 0, frame = 8
  31              		@ frame_needed = 1, uses_anonymous_args = 0
  32 0000 F0B5     		push	{r4, r5, r6, r7, lr}
  33              	.LCFI0:
  34              		.cfi_def_cfa_offset 20
  35              		.cfi_offset 4, -20
  36              		.cfi_offset 5, -16
  37              		.cfi_offset 6, -12
  38              		.cfi_offset 7, -8
  39              		.cfi_offset 14, -4
  40 0002 83B0     		sub	sp, sp, #12
  41              	.LCFI1:
  42              		.cfi_def_cfa_offset 32
  43              		.loc 1 24 0
  44 0004 144C     		ldr	r4, .L2
  45              		.loc 1 28 0
  46 0006 154D     		ldr	r5, .L2+4
  47              		.loc 1 24 0
  48 0008 6368     		ldr	r3, [r4, #4]
  49              		.loc 1 23 0
  50 000a 00AF     		add	r7, sp, #0
  51              	.LCFI2:
  52              		.cfi_def_cfa_register 7
  53              		.loc 1 24 0
  54 000c 43F40003 		orr	r3, r3, #8388608
  55 0010 6360     		str	r3, [r4, #4]
  56              		.loc 1 29 0
  57 0012 134E     		ldr	r6, .L2+8
ARM GAS  /var/folders/_2/42wyrlld3p52fkcpt1lv6gxh0000gp/T//ccyqRb58.s 			page 2


  58              		.loc 1 25 0
  59 0014 0A20     		movs	r0, #10
  60 0016 FFF7FEFF 		bl	chThdSleep
  61              	.LVL0:
  62              		.loc 1 28 0
  63 001a 2846     		mov	r0, r5
  64 001c FFF7FEFF 		bl	adcAcquireBus
  65              	.LVL1:
  66              		.loc 1 29 0
  67 0020 BA1D     		adds	r2, r7, #6
  68 0022 3146     		mov	r1, r6
  69 0024 0123     		movs	r3, #1
  70 0026 2846     		mov	r0, r5
  71 0028 FFF7FEFF 		bl	adcConvert
  72              	.LVL2:
  73              		.loc 1 30 0
  74 002c BA1D     		adds	r2, r7, #6
  75 002e 0123     		movs	r3, #1
  76 0030 3146     		mov	r1, r6
  77 0032 2846     		mov	r0, r5
  78 0034 FFF7FEFF 		bl	adcConvert
  79              	.LVL3:
  80              		.loc 1 31 0
  81 0038 2846     		mov	r0, r5
  82 003a FFF7FEFF 		bl	adcReleaseBus
  83              	.LVL4:
  84              		.loc 1 33 0
  85 003e 6368     		ldr	r3, [r4, #4]
  86              		.loc 1 38 0
  87 0040 4FF49900 		mov	r0, #5013504
  88              		.loc 1 33 0
  89 0044 23F40003 		bic	r3, r3, #8388608
  90 0048 6360     		str	r3, [r4, #4]
  91              		.loc 1 37 0
  92 004a FB88     		ldrh	r3, [r7, #6]
  93              		.loc 1 38 0
  94 004c 0C37     		adds	r7, r7, #12
  95              	.LCFI3:
  96              		.cfi_def_cfa_offset 20
  97 004e 90FBF3F0 		sdiv	r0, r0, r3
  98 0052 BD46     		mov	sp, r7
  99              	.LCFI4:
 100              		.cfi_def_cfa_register 13
 101              		@ sp needed
 102 0054 F0BD     		pop	{r4, r5, r6, r7, pc}
 103              	.L3:
 104 0056 00BF     		.align	2
 105              	.L2:
 106 0058 00270140 		.word	1073817344
 107 005c 00000000 		.word	ADCD1
 108 0060 00000000 		.word	.LANCHOR0
 109              		.cfi_endproc
 110              	.LFE63:
 111              		.size	battery_vcc_voltage, .-battery_vcc_voltage
 112              		.section	.text.battery_low,"ax",%progbits
 113              		.align	1
 114              		.global	battery_low
ARM GAS  /var/folders/_2/42wyrlld3p52fkcpt1lv6gxh0000gp/T//ccyqRb58.s 			page 3


 115              		.thumb
 116              		.thumb_func
 117              		.type	battery_low, %function
 118              	battery_low:
 119              	.LFB64:
 120              		.loc 1 41 0
 121              		.cfi_startproc
 122              		@ args = 0, pretend = 0, frame = 0
 123              		@ frame_needed = 1, uses_anonymous_args = 0
 124 0000 80B5     		push	{r7, lr}
 125              	.LCFI5:
 126              		.cfi_def_cfa_offset 8
 127              		.cfi_offset 7, -8
 128              		.cfi_offset 14, -4
 129 0002 00AF     		add	r7, sp, #0
 130              	.LCFI6:
 131              		.cfi_def_cfa_register 7
 132              		.loc 1 42 0
 133 0004 FFF7FEFF 		bl	battery_vcc_voltage
 134              	.LVL5:
 135              		.loc 1 43 0
 136 0008 40F61B43 		movw	r3, #3099
 137 000c 9842     		cmp	r0, r3
 138 000e CCBF     		ite	gt
 139 0010 0020     		movgt	r0, #0
 140 0012 0120     		movle	r0, #1
 141 0014 80BD     		pop	{r7, pc}
 142              		.cfi_endproc
 143              	.LFE64:
 144              		.size	battery_low, .-battery_low
 145              		.section	.rodata.g_adcconvgrp,"a",%progbits
 146              		.align	2
 147              		.set	.LANCHOR0,. + 0
 148              		.type	g_adcconvgrp, %object
 149              		.size	g_adcconvgrp, 52
 150              	g_adcconvgrp:
 151 0000 00       		.byte	0
 152 0001 00       		.space	1
 153 0002 0100     		.short	1
 154 0004 00000000 		.word	0
 155 0008 00000000 		.word	0
 156 000c 00000000 		.word	0
 157 0010 10000040 		.word	1073741840
 158 0014 00000000 		.word	0
 159 0018 0000E000 		.word	14680064
 160 001c 00000000 		.word	0
 161 0020 00000000 		.word	0
 162 0024 00000000 		.word	0
 163 0028 00000000 		.word	0
 164 002c 00000000 		.word	0
 165 0030 11000000 		.word	17
 166              		.text
 167              	.Letext0:
 168              		.file 2 "/Users/ARS/Applications/Eclipse.app/Contents/gcc-arm-none-eabi-5_3-2016q1/lib/gcc/arm-non
 169              		.file 3 "/Users/ARS/Applications/Eclipse.app/Contents/gcc-arm-none-eabi-5_3-2016q1/arm-none-eabi/i
 170              		.file 4 "/Users/ARS/Applications/Eclipse.app/Contents/gcc-arm-none-eabi-5_3-2016q1/arm-none-eabi/i
 171              		.file 5 "chibios/os/ports/GCC/ARMCMx/chtypes.h"
ARM GAS  /var/folders/_2/42wyrlld3p52fkcpt1lv6gxh0000gp/T//ccyqRb58.s 			page 4


 172              		.file 6 "chibios/os/kernel/include/chlists.h"
 173              		.file 7 "chibios/os/kernel/include/chthreads.h"
 174              		.file 8 "chibios/os/ports/GCC/ARMCMx/chcore_v7m.h"
 175              		.file 9 "chibios/os/kernel/include/chmtx.h"
 176              		.file 10 "chibios/os/hal/platforms/STM32L1xx/stm32l1xx.h"
 177              		.file 11 "chibios/os/hal/platforms/STM32L1xx/stm32_dma.h"
 178              		.file 12 "chibios/os/hal/include/adc.h"
 179              		.file 13 "chibios/os/hal/platforms/STM32L1xx/adc_lld.h"
 180              		.file 14 "chibios/os/ports/common/ARMCMx/CMSIS/include/core_cm3.h"