ARM GAS  /var/folders/_2/42wyrlld3p52fkcpt1lv6gxh0000gp/T//ccW9zjGV.s 			page 1


   1              		.syntax unified
   2              		.cpu cortex-m3
   3              		.fpu softvfp
   4              		.eabi_attribute 20, 1
   5              		.eabi_attribute 21, 1
   6              		.eabi_attribute 23, 3
   7              		.eabi_attribute 24, 1
   8              		.eabi_attribute 25, 1
   9              		.eabi_attribute 26, 1
  10              		.eabi_attribute 30, 4
  11              		.eabi_attribute 34, 1
  12              		.eabi_attribute 18, 4
  13              		.thumb
  14              		.syntax unified
  15              		.file	"board.c"
  16              		.text
  17              	.Ltext0:
  18              		.cfi_sections	.debug_frame
  19              		.section	.text.__early_init,"ax",%progbits
  20              		.align	1
  21              		.global	__early_init
  22              		.thumb
  23              		.thumb_func
  24              		.type	__early_init, %function
  25              	__early_init:
  26              	.LFB63:
  27              		.file 1 "src/board.c"
  28              		.loc 1 53 0
  29              		.cfi_startproc
  30              		@ args = 0, pretend = 0, frame = 0
  31              		@ frame_needed = 1, uses_anonymous_args = 0
  32              		@ link register save eliminated.
  33 0000 80B4     		push	{r7}
  34              	.LCFI0:
  35              		.cfi_def_cfa_offset 4
  36              		.cfi_offset 7, -4
  37 0002 00AF     		add	r7, sp, #0
  38              	.LCFI1:
  39              		.cfi_def_cfa_register 7
  40              		.loc 1 56 0
  41 0004 BD46     		mov	sp, r7
  42              	.LCFI2:
  43              		.cfi_def_cfa_register 13
  44              		@ sp needed
  45 0006 80BC     		pop	{r7}
  46              	.LCFI3:
  47              		.cfi_restore 7
  48              		.cfi_def_cfa_offset 0
  49              		.loc 1 55 0
  50 0008 FFF7FEBF 		b	stm32_clock_init
  51              	.LVL0:
  52              		.cfi_endproc
  53              	.LFE63:
  54              		.size	__early_init, .-__early_init
  55              		.section	.text.boardInit,"ax",%progbits
  56              		.align	1
  57              		.global	boardInit
ARM GAS  /var/folders/_2/42wyrlld3p52fkcpt1lv6gxh0000gp/T//ccW9zjGV.s 			page 2


  58              		.thumb
  59              		.thumb_func
  60              		.type	boardInit, %function
  61              	boardInit:
  62              	.LFB64:
  63              		.loc 1 61 0
  64              		.cfi_startproc
  65              		@ args = 0, pretend = 0, frame = 0
  66              		@ frame_needed = 1, uses_anonymous_args = 0
  67 0000 80B5     		push	{r7, lr}
  68              	.LCFI4:
  69              		.cfi_def_cfa_offset 8
  70              		.cfi_offset 7, -8
  71              		.cfi_offset 14, -4
  72 0002 00AF     		add	r7, sp, #0
  73              	.LCFI5:
  74              		.cfi_def_cfa_register 7
  75 0004 80BD     		pop	{r7, pc}
  76              		.cfi_endproc
  77              	.LFE64:
  78              		.size	boardInit, .-boardInit
  79              		.global	pal_default_config
  80              		.section	.rodata.pal_default_config,"a",%progbits
  81              		.align	2
  82              		.type	pal_default_config, %object
  83              		.size	pal_default_config, 168
  84              	pal_default_config:
  85 0000 507C2428 		.word	673479760
  86 0004 00000000 		.word	0
  87 0008 FFFFFFFF 		.word	-1
  88 000c 08022180 		.word	-2145320440
  89 0010 00000000 		.word	0
  90 0014 00000000 		.word	0
  91 0018 00A70A00 		.word	698112
  92 001c 54555555 		.word	1431655764
  93 0020 00000000 		.word	0
  94 0024 FFFFFFFF 		.word	-1
  95 0028 00000000 		.word	0
  96 002c 00000000 		.word	0
  97 0030 00000000 		.word	0
  98 0034 00000000 		.word	0
  99 0038 000000F4 		.word	-201326592
 100 003c 00000000 		.word	0
 101 0040 FFFFFFFF 		.word	-1
 102 0044 00000000 		.word	0
 103 0048 00000000 		.word	0
 104 004c 00000000 		.word	0
 105 0050 00000000 		.word	0
 106 0054 00000000 		.word	0
 107 0058 00000000 		.word	0
 108 005c 00000000 		.word	0
 109 0060 00000000 		.word	0
 110 0064 00000000 		.word	0
 111 0068 00000000 		.word	0
 112 006c 00000000 		.word	0
 113 0070 00000000 		.word	0
 114 0074 00000000 		.word	0
ARM GAS  /var/folders/_2/42wyrlld3p52fkcpt1lv6gxh0000gp/T//ccW9zjGV.s 			page 3


 115 0078 00000000 		.word	0
 116 007c 00000000 		.word	0
 117 0080 00000000 		.word	0
 118 0084 00000000 		.word	0
 119 0088 00000000 		.word	0
 120 008c 07000000 		.word	7
 121 0090 00000000 		.word	0
 122 0094 FFFFFFFF 		.word	-1
 123 0098 00000000 		.word	0
 124 009c 00000000 		.word	0
 125 00a0 00000000 		.word	0
 126 00a4 00000000 		.word	0
 127              		.text
 128              	.Letext0:
 129              		.file 2 "/Users/ARS/Applications/Eclipse.app/Contents/gcc-arm-none-eabi-5_3-2016q1/arm-none-eabi/i
 130              		.file 3 "/Users/ARS/Applications/Eclipse.app/Contents/gcc-arm-none-eabi-5_3-2016q1/arm-none-eabi/i
 131              		.file 4 "chibios/os/hal/platforms/STM32/GPIOv2/pal_lld.h"
 132              		.file 5 "chibios/os/ports/common/ARMCMx/CMSIS/include/core_cm3.h"
 133              		.file 6 "chibios/os/hal/platforms/STM32L1xx/hal_lld.h"