ARM GAS  /var/folders/_2/42wyrlld3p52fkcpt1lv6gxh0000gp/T//cctbc50a.s 			page 1


   1              		.syntax unified
   2              		.cpu cortex-m3
   3              		.fpu softvfp
   4              		.eabi_attribute 20, 1
   5              		.eabi_attribute 21, 1
   6              		.eabi_attribute 23, 3
   7              		.eabi_attribute 24, 1
   8              		.eabi_attribute 25, 1
   9              		.eabi_attribute 26, 1
  10              		.eabi_attribute 30, 4
  11              		.eabi_attribute 34, 1
  12              		.eabi_attribute 18, 4
  13              		.thumb
  14              		.syntax unified
  15              		.file	"buttons.c"
  16              		.text
  17              	.Ltext0:
  18              		.cfi_sections	.debug_frame
  19              		.section	.text.exti_button_callback,"ax",%progbits
  20              		.align	1
  21              		.thumb
  22              		.thumb_func
  23              		.type	exti_button_callback, %function
  24              	exti_button_callback:
  25              	.LFB66:
  26              		.file 1 "src/buttons.c"
  27              		.loc 1 114 0
  28              		.cfi_startproc
  29              		@ args = 0, pretend = 0, frame = 0
  30              		@ frame_needed = 1, uses_anonymous_args = 0
  31              	.LVL0:
  32 0000 80B5     		push	{r7, lr}
  33              	.LCFI0:
  34              		.cfi_def_cfa_offset 8
  35              		.cfi_offset 7, -8
  36              		.cfi_offset 14, -4
  37              	.LBB2:
  38              		.loc 1 115 0
  39 0002 2023     		movs	r3, #32
  40              	.LBE2:
  41              		.loc 1 114 0
  42 0004 00AF     		add	r7, sp, #0
  43              	.LCFI1:
  44              		.cfi_def_cfa_register 7
  45              	.LBB3:
  46              		.loc 1 115 0
  47              		.syntax unified
  48              	@ 115 "src/buttons.c" 1
  49 0006 83F31188 		msr     BASEPRI, r3
  50              	@ 0 "" 2
  51              		.thumb
  52              		.syntax unified
  53              	.LBE3:
  54              		.loc 1 116 0
  55 000a 0548     		ldr	r0, .L4
  56              	.LVL1:
  57 000c 8368     		ldr	r3, [r0, #8]
ARM GAS  /var/folders/_2/42wyrlld3p52fkcpt1lv6gxh0000gp/T//cctbc50a.s 			page 2


  58 000e 002B     		cmp	r3, #0
  59 0010 01DC     		bgt	.L2
  60              		.loc 1 116 0 is_stmt 0 discriminator 1
  61 0012 FFF7FEFF 		bl	chSemSignalI
  62              	.LVL2:
  63              	.L2:
  64              	.LBB4:
  65              		.loc 1 117 0 is_stmt 1
  66 0016 0023     		movs	r3, #0
  67              		.syntax unified
  68              	@ 117 "src/buttons.c" 1
  69 0018 83F31188 		msr     BASEPRI, r3
  70              	@ 0 "" 2
  71              		.thumb
  72              		.syntax unified
  73 001c 80BD     		pop	{r7, pc}
  74              	.L5:
  75 001e 00BF     		.align	2
  76              	.L4:
  77 0020 00000000 		.word	.LANCHOR0
  78              	.LBE4:
  79              		.cfi_endproc
  80              	.LFE66:
  81              		.size	exti_button_callback, .-exti_button_callback
  82              		.section	.text.buttons_read_immediate,"ax",%progbits
  83              		.align	1
  84              		.global	buttons_read_immediate
  85              		.thumb
  86              		.thumb_func
  87              		.type	buttons_read_immediate, %function
  88              	buttons_read_immediate:
  89              	.LFB63:
  90              		.loc 1 25 0
  91              		.cfi_startproc
  92              		@ args = 0, pretend = 0, frame = 8
  93              		@ frame_needed = 1, uses_anonymous_args = 0
  94 0000 2DE9F041 		push	{r4, r5, r6, r7, r8, lr}
  95              	.LCFI2:
  96              		.cfi_def_cfa_offset 24
  97              		.cfi_offset 4, -24
  98              		.cfi_offset 5, -20
  99              		.cfi_offset 6, -16
 100              		.cfi_offset 7, -12
 101              		.cfi_offset 8, -8
 102              		.cfi_offset 14, -4
 103 0004 82B0     		sub	sp, sp, #8
 104              	.LCFI3:
 105              		.cfi_def_cfa_offset 32
 106              	.LBB5:
 107              		.loc 1 28 0
 108 0006 2023     		movs	r3, #32
 109              	.LBE5:
 110              		.loc 1 25 0
 111 0008 00AF     		add	r7, sp, #0
 112              	.LCFI4:
 113              		.cfi_def_cfa_register 7
 114              	.LBB6:
ARM GAS  /var/folders/_2/42wyrlld3p52fkcpt1lv6gxh0000gp/T//cctbc50a.s 			page 3


 115              		.loc 1 28 0
 116              		.syntax unified
 117              	@ 28 "src/buttons.c" 1
 118 000a 83F31188 		msr     BASEPRI, r3
 119              	@ 0 "" 2
 120              		.thumb
 121              		.syntax unified
 122              	.LBE6:
 123              		.loc 1 29 0
 124 000e 0322     		movs	r2, #3
 125 0010 0121     		movs	r1, #1
 126 0012 2248     		ldr	r0, .L11
 127 0014 FFF7FEFF 		bl	_pal_lld_setgroupmode
 128              	.LVL3:
 129              	.LBB7:
 130              		.loc 1 30 0
 131 0018 0023     		movs	r3, #0
 132              		.syntax unified
 133              	@ 30 "src/buttons.c" 1
 134 001a 83F31188 		msr     BASEPRI, r3
 135              	@ 0 "" 2
 136              		.thumb
 137              		.syntax unified
 138              	.L8:
 139              	.LVL4:
 140              	.LBE7:
 141              		.loc 1 37 0
 142 001e 0024     		movs	r4, #0
 143              		.loc 1 36 0
 144 0020 2646     		mov	r6, r4
 145              		.loc 1 25 0
 146 0022 0525     		movs	r5, #5
 147              		.loc 1 35 0
 148 0024 4FF48058 		mov	r8, #4096
 149              	.LVL5:
 150              	.L7:
 151              	.LBB8:
 152              	.LBB9:
 153              		.loc 1 43 0
 154 0028 1D48     		ldr	r0, .L11+4
 155 002a FFF7FEFF 		bl	adcAcquireBus
 156              	.LVL6:
 157              		.loc 1 44 0
 158 002e 0123     		movs	r3, #1
 159 0030 BA1D     		adds	r2, r7, #6
 160 0032 1C49     		ldr	r1, .L11+8
 161 0034 1A48     		ldr	r0, .L11+4
 162 0036 FFF7FEFF 		bl	adcConvert
 163              	.LVL7:
 164              		.loc 1 45 0
 165 003a 1948     		ldr	r0, .L11+4
 166 003c FFF7FEFF 		bl	adcReleaseBus
 167              	.LVL8:
 168              		.loc 1 47 0
 169 0040 FB88     		ldrh	r3, [r7, #6]
 170              		.loc 1 50 0
 171 0042 0220     		movs	r0, #2
ARM GAS  /var/folders/_2/42wyrlld3p52fkcpt1lv6gxh0000gp/T//cctbc50a.s 			page 4


 172 0044 9845     		cmp	r8, r3
 173 0046 A8BF     		it	ge
 174 0048 9846     		movge	r8, r3
 175              	.LVL9:
 176 004a 9E42     		cmp	r6, r3
 177 004c B8BF     		it	lt
 178 004e 1E46     		movlt	r6, r3
 179              	.LVL10:
 180              		.loc 1 49 0
 181 0050 1C44     		add	r4, r4, r3
 182              	.LVL11:
 183              		.loc 1 50 0
 184 0052 FFF7FEFF 		bl	chThdSleep
 185              	.LVL12:
 186              	.LBE9:
 187              		.loc 1 39 0
 188 0056 013D     		subs	r5, r5, #1
 189              	.LVL13:
 190 0058 E6D1     		bne	.L7
 191              	.LBE8:
 192              		.loc 1 52 0
 193 005a C8EB0606 		rsb	r6, r8, r6
 194              	.LVL14:
 195 005e 1E2E     		cmp	r6, #30
 196 0060 DDDC     		bgt	.L8
 197              	.LBB10:
 198              		.loc 1 55 0
 199 0062 2023     		movs	r3, #32
 200              		.syntax unified
 201              	@ 55 "src/buttons.c" 1
 202 0064 83F31188 		msr     BASEPRI, r3
 203              	@ 0 "" 2
 204              		.thumb
 205              		.syntax unified
 206              	.LBE10:
 207              		.loc 1 56 0
 208 0068 0121     		movs	r1, #1
 209 006a 2A46     		mov	r2, r5
 210 006c 0B48     		ldr	r0, .L11
 211 006e FFF7FEFF 		bl	_pal_lld_setgroupmode
 212              	.LVL15:
 213              	.LBB11:
 214              		.loc 1 57 0
 215 0072 2B46     		mov	r3, r5
 216              		.syntax unified
 217              	@ 57 "src/buttons.c" 1
 218 0074 83F31188 		msr     BASEPRI, r3
 219              	@ 0 "" 2
 220              		.thumb
 221              		.syntax unified
 222              	.LBE11:
 223              		.loc 1 59 0
 224 0078 0520     		movs	r0, #5
 225 007a 94FBF0F4 		sdiv	r4, r4, r0
 226              	.LVL16:
 227              		.loc 1 62 0
 228 007e 6420     		movs	r0, #100
ARM GAS  /var/folders/_2/42wyrlld3p52fkcpt1lv6gxh0000gp/T//cctbc50a.s 			page 5


 229 0080 6043     		muls	r0, r4, r0
 230 0082 C4F58054 		rsb	r4, r4, #4096
 231              	.LVL17:
 232 0086 90FBF4F4 		sdiv	r4, r0, r4
 233              	.LVL18:
 234 008a 04F14000 		add	r0, r4, #64
 235              		.loc 1 63 0
 236 008e C0F3C710 		ubfx	r0, r0, #7, #8
 237 0092 0837     		adds	r7, r7, #8
 238              	.LCFI5:
 239              		.cfi_def_cfa_offset 24
 240 0094 BD46     		mov	sp, r7
 241              	.LCFI6:
 242              		.cfi_def_cfa_register 13
 243              		@ sp needed
 244 0096 BDE8F081 		pop	{r4, r5, r6, r7, r8, pc}
 245              	.LVL19:
 246              	.L12:
 247 009a 00BF     		.align	2
 248              	.L11:
 249 009c 00000240 		.word	1073872896
 250 00a0 00000000 		.word	ADCD1
 251 00a4 00000000 		.word	.LANCHOR1
 252              		.cfi_endproc
 253              	.LFE63:
 254              		.size	buttons_read_immediate, .-buttons_read_immediate
 255              		.section	.text.buttons_task,"ax",%progbits
 256              		.align	1
 257              		.thumb
 258              		.thumb_func
 259              		.type	buttons_task, %function
 260              	buttons_task:
 261              	.LFB67:
 262              		.loc 1 130 0
 263              		.cfi_startproc
 264              		@ args = 0, pretend = 0, frame = 0
 265              		@ frame_needed = 1, uses_anonymous_args = 0
 266              	.LVL20:
 267 0000 2DE9F84F 		push	{r3, r4, r5, r6, r7, r8, r9, r10, fp, lr}
 268              	.LCFI7:
 269              		.cfi_def_cfa_offset 40
 270              		.cfi_offset 3, -40
 271              		.cfi_offset 4, -36
 272              		.cfi_offset 5, -32
 273              		.cfi_offset 6, -28
 274              		.cfi_offset 7, -24
 275              		.cfi_offset 8, -20
 276              		.cfi_offset 9, -16
 277              		.cfi_offset 10, -12
 278              		.cfi_offset 11, -8
 279              		.cfi_offset 14, -4
 280              		.loc 1 131 0
 281 0004 444E     		ldr	r6, .L41
 282 0006 454A     		ldr	r2, .L41+4
 283 0008 B369     		ldr	r3, [r6, #24]
 284              		.loc 1 130 0
 285 000a 00AF     		add	r7, sp, #0
ARM GAS  /var/folders/_2/42wyrlld3p52fkcpt1lv6gxh0000gp/T//cctbc50a.s 			page 6


 286              	.LCFI8:
 287              		.cfi_def_cfa_register 7
 288              		.loc 1 131 0
 289 000c 9A61     		str	r2, [r3, #24]
 290              		.loc 1 135 0
 291 000e 4449     		ldr	r1, .L41+8
 292 0010 4448     		ldr	r0, .L41+12
 293              	.LVL21:
 294 0012 FFF7FEFF 		bl	extStart
 295              	.LVL22:
 296              	.L14:
 297              	.LBB12:
 298              		.loc 1 143 0
 299 0016 444D     		ldr	r5, .L41+16
 300              		.loc 1 145 0
 301 0018 DFF82091 		ldr	r9, .L41+36
 302              	.L15:
 303              	.LBE12:
 304              		.loc 1 136 0
 305 001c B369     		ldr	r3, [r6, #24]
 306 001e 93F82130 		ldrb	r3, [r3, #33]	@ zero_extendqisi2
 307 0022 03F00403 		and	r3, r3, #4
 308 0026 03F0FF04 		and	r4, r3, #255
 309 002a 002B     		cmp	r3, #0
 310 002c 6DD1     		bne	.L40
 311              	.LBB15:
 312              		.loc 1 138 0
 313 002e 6421     		movs	r1, #100
 314 0030 3E48     		ldr	r0, .L41+20
 315 0032 FFF7FEFF 		bl	chSemWaitTimeout
 316              	.LVL23:
 317              		.loc 1 143 0
 318 0036 4AF6AA23 		movw	r3, #43690
 319 003a 2B60     		str	r3, [r5]
 320              		.loc 1 145 0
 321 003c D9F81030 		ldr	r3, [r9, #16]
 322 0040 D907     		lsls	r1, r3, #31
 323 0042 EBD5     		bpl	.L15
 324 0044 A246     		mov	r10, r4
 325 0046 2546     		mov	r5, r4
 326              		.loc 1 179 0
 327 0048 DFF8F4B0 		ldr	fp, .L41+40
 328              		.loc 1 157 0
 329 004c DFF8F490 		ldr	r9, .L41+44
 330              	.L27:
 331              	.LVL24:
 332              		.loc 1 154 0
 333 0050 032D     		cmp	r5, #3
 334 0052 15D1     		bne	.L16
 335              		.loc 1 157 0
 336 0054 4FF00208 		mov	r8, #2
 337              		.loc 1 158 0
 338 0058 6420     		movs	r0, #100
 339              		.loc 1 157 0
 340 005a A9F81880 		strh	r8, [r9, #24]	@ movhi
 341              		.loc 1 158 0
 342 005e FFF7FEFF 		bl	chThdSleep
ARM GAS  /var/folders/_2/42wyrlld3p52fkcpt1lv6gxh0000gp/T//cctbc50a.s 			page 7


 343              	.LVL25:
 344              		.loc 1 159 0
 345 0062 FFF7FEFF 		bl	beeper_click
 346              	.LVL26:
 347              		.loc 1 160 0
 348 0066 A9F81A80 		strh	r8, [r9, #26]	@ movhi
 349              		.loc 1 162 0
 350 006a 3148     		ldr	r0, .L41+24
 351 006c FFF7FEFF 		bl	usart1_putstring
 352              	.LVL27:
 353              		.loc 1 163 0
 354 0070 304B     		ldr	r3, .L41+28
 355 0072 314A     		ldr	r2, .L41+32
 356 0074 DA60     		str	r2, [r3, #12]
 357              		.loc 1 166 0
 358 0076 BAF1000F 		cmp	r10, #0
 359 007a 38D0     		beq	.L29
 360              	.L20:
 361 007c 1CB9     		cbnz	r4, .L18
 362 007e 24E0     		b	.L19
 363              	.L16:
 364 0080 BAF1000F 		cmp	r10, #0
 365 0084 FAD1     		bne	.L20
 366              	.L18:
 367              		.loc 1 168 0
 368 0086 082D     		cmp	r5, #8
 369 0088 1FD8     		bhi	.L19
 370 008a 4FF48B73 		mov	r3, #278
 371 008e EB40     		lsrs	r3, r3, r5
 372 0090 DA07     		lsls	r2, r3, #31
 373 0092 1AD5     		bpl	.L19
 374              	.LBB13:
 375              		.loc 1 171 0
 376 0094 2023     		movs	r3, #32
 377              		.syntax unified
 378              	@ 171 "src/buttons.c" 1
 379 0096 83F31188 		msr     BASEPRI, r3
 380              	@ 0 "" 2
 381              		.thumb
 382              		.syntax unified
 383              	.LBE13:
 384              		.loc 1 172 0
 385 009a 6B1E     		subs	r3, r5, #1
 386 009c DBB2     		uxtb	r3, r3
 387 009e 012B     		cmp	r3, #1
 388 00a0 0CD9     		bls	.L22
 389              		.loc 1 176 0
 390 00a2 042D     		cmp	r5, #4
 391 00a4 03D1     		bne	.L23
 392              		.loc 1 177 0
 393 00a6 DBF80030 		ldr	r3, [fp]
 394 00aa 0133     		adds	r3, r3, #1
 395 00ac 04E0     		b	.L37
 396              	.L23:
 397              		.loc 1 178 0
 398 00ae 082D     		cmp	r5, #8
 399 00b0 04D1     		bne	.L22
ARM GAS  /var/folders/_2/42wyrlld3p52fkcpt1lv6gxh0000gp/T//cctbc50a.s 			page 8


 400              		.loc 1 179 0
 401 00b2 DBF80030 		ldr	r3, [fp]
 402 00b6 013B     		subs	r3, r3, #1
 403              	.L37:
 404 00b8 CBF80030 		str	r3, [fp]
 405              	.L22:
 406              	.LBB14:
 407              		.loc 1 180 0
 408 00bc 0023     		movs	r3, #0
 409              		.syntax unified
 410              	@ 180 "src/buttons.c" 1
 411 00be 83F31188 		msr     BASEPRI, r3
 412              	@ 0 "" 2
 413              		.thumb
 414              		.syntax unified
 415              	.LBE14:
 416              		.loc 1 182 0
 417 00c2 FFF7FEFF 		bl	beeper_click
 418              	.LVL28:
 419              		.loc 1 183 0
 420 00c6 FFF7FEFF 		bl	powersave_keep_alive
 421              	.LVL29:
 422              	.L19:
 423              		.loc 1 188 0
 424 00ca BAF1090F 		cmp	r10, #9
 425 00ce 10DD     		ble	.L30
 426              		.loc 1 193 0
 427 00d0 BAF1310F 		cmp	r10, #49
 428 00d4 02DC     		bgt	.L24
 429              		.loc 1 196 0
 430 00d6 1AF0030F 		tst	r10, #3
 431 00da 0AD1     		bne	.L30
 432              	.L24:
 433              		.loc 1 201 0
 434 00dc 042D     		cmp	r5, #4
 435 00de 04D0     		beq	.L33
 436              		.loc 1 201 0 is_stmt 0 discriminator 2
 437 00e0 A5F10803 		sub	r3, r5, #8
 438 00e4 5C42     		rsbs	r4, r3, #0
 439              	.LVL30:
 440 00e6 5C41     		adcs	r4, r4, r3
 441 00e8 04E0     		b	.L17
 442              	.LVL31:
 443              	.L33:
 444              		.loc 1 201 0
 445 00ea 0124     		movs	r4, #1
 446              	.LVL32:
 447 00ec 02E0     		b	.L17
 448              	.L29:
 449              		.loc 1 191 0 is_stmt 1
 450 00ee 5446     		mov	r4, r10
 451              	.LVL33:
 452 00f0 00E0     		b	.L17
 453              	.LVL34:
 454              	.L30:
 455 00f2 0024     		movs	r4, #0
 456              	.LVL35:
ARM GAS  /var/folders/_2/42wyrlld3p52fkcpt1lv6gxh0000gp/T//cctbc50a.s 			page 9


 457              	.L17:
 458              		.loc 1 204 0
 459 00f4 3220     		movs	r0, #50
 460 00f6 FFF7FEFF 		bl	chThdSleep
 461              	.LVL36:
 462              		.loc 1 205 0
 463 00fa FFF7FEFF 		bl	buttons_read_immediate
 464              	.LVL37:
 465              		.loc 1 206 0
 466 00fe 0AF1010A 		add	r10, r10, #1
 467              	.LVL38:
 468              		.loc 1 207 0
 469 0102 0546     		mov	r5, r0
 470 0104 0028     		cmp	r0, #0
 471 0106 A3D1     		bne	.L27
 472 0108 85E7     		b	.L14
 473              	.LVL39:
 474              	.L40:
 475              	.LBE15:
 476              		.loc 1 209 0
 477 010a 0648     		ldr	r0, .L41+12
 478 010c FFF7FEFF 		bl	extStop
 479              	.LVL40:
 480              		.loc 1 211 0
 481 0110 0020     		movs	r0, #0
 482 0112 BDE8F88F 		pop	{r3, r4, r5, r6, r7, r8, r9, r10, fp, pc}
 483              	.L42:
 484 0116 00BF     		.align	2
 485              	.L41:
 486 0118 00000000 		.word	rlist
 487 011c 00000000 		.word	.LC0
 488 0120 00000000 		.word	.LANCHOR2
 489 0124 00000000 		.word	EXTD1
 490 0128 00300040 		.word	1073754112
 491 012c 00000000 		.word	.LANCHOR0
 492 0130 08000000 		.word	.LC1
 493 0134 00ED00E0 		.word	-536810240
 494 0138 0400FA05 		.word	100270084
 495 013c 00000240 		.word	1073872896
 496 0140 00000000 		.word	.LANCHOR3
 497 0144 00140240 		.word	1073878016
 498              		.cfi_endproc
 499              	.LFE67:
 500              		.size	buttons_task, .-buttons_task
 501              		.section	.text.buttons_read_buffer,"ax",%progbits
 502              		.align	1
 503              		.global	buttons_read_buffer
 504              		.thumb
 505              		.thumb_func
 506              		.type	buttons_read_buffer, %function
 507              	buttons_read_buffer:
 508              	.LFB64:
 509              		.loc 1 73 0
 510              		.cfi_startproc
 511              		@ args = 0, pretend = 0, frame = 0
 512              		@ frame_needed = 1, uses_anonymous_args = 0
 513              	.LVL41:
ARM GAS  /var/folders/_2/42wyrlld3p52fkcpt1lv6gxh0000gp/T//cctbc50a.s 			page 10


 514 0000 80B5     		push	{r7, lr}
 515              	.LCFI9:
 516              		.cfi_def_cfa_offset 8
 517              		.cfi_offset 7, -8
 518              		.cfi_offset 14, -4
 519              		.loc 1 100 0
 520 0002 0020     		movs	r0, #0
 521              		.loc 1 73 0
 522 0004 00AF     		add	r7, sp, #0
 523              	.LCFI10:
 524              		.cfi_def_cfa_register 7
 525              		.loc 1 100 0
 526 0006 80BD     		pop	{r7, pc}
 527              		.cfi_endproc
 528              	.LFE64:
 529              		.size	buttons_read_buffer, .-buttons_read_buffer
 530              		.section	.text.buttons_clear_buffer,"ax",%progbits
 531              		.align	1
 532              		.global	buttons_clear_buffer
 533              		.thumb
 534              		.thumb_func
 535              		.type	buttons_clear_buffer, %function
 536              	buttons_clear_buffer:
 537              	.LFB65:
 538              		.loc 1 103 0
 539              		.cfi_startproc
 540              		@ args = 0, pretend = 0, frame = 0
 541              		@ frame_needed = 1, uses_anonymous_args = 0
 542 0000 80B5     		push	{r7, lr}
 543              	.LCFI11:
 544              		.cfi_def_cfa_offset 8
 545              		.cfi_offset 7, -8
 546              		.cfi_offset 14, -4
 547              	.LBB16:
 548              		.loc 1 104 0
 549 0002 2023     		movs	r3, #32
 550              	.LBE16:
 551              		.loc 1 103 0
 552 0004 00AF     		add	r7, sp, #0
 553              	.LCFI12:
 554              		.cfi_def_cfa_register 7
 555              	.LBB17:
 556              		.loc 1 104 0
 557              		.syntax unified
 558              	@ 104 "src/buttons.c" 1
 559 0006 83F31188 		msr     BASEPRI, r3
 560              	@ 0 "" 2
 561              		.thumb
 562              		.syntax unified
 563              	.LBE17:
 564              		.loc 1 107 0
 565 000a 034A     		ldr	r2, .L45
 566 000c 0023     		movs	r3, #0
 567 000e 1360     		str	r3, [r2]
 568              	.LBB18:
 569              		.loc 1 108 0
 570              		.syntax unified
ARM GAS  /var/folders/_2/42wyrlld3p52fkcpt1lv6gxh0000gp/T//cctbc50a.s 			page 11


 571              	@ 108 "src/buttons.c" 1
 572 0010 83F31188 		msr     BASEPRI, r3
 573              	@ 0 "" 2
 574              		.thumb
 575              		.syntax unified
 576 0014 80BD     		pop	{r7, pc}
 577              	.L46:
 578 0016 00BF     		.align	2
 579              	.L45:
 580 0018 00000000 		.word	.LANCHOR3
 581              	.LBE18:
 582              		.cfi_endproc
 583              	.LFE65:
 584              		.size	buttons_clear_buffer, .-buttons_clear_buffer
 585              		.section	.text.buttons_start,"ax",%progbits
 586              		.align	1
 587              		.global	buttons_start
 588              		.thumb
 589              		.thumb_func
 590              		.type	buttons_start, %function
 591              	buttons_start:
 592              	.LFB68:
 593              		.loc 1 214 0
 594              		.cfi_startproc
 595              		@ args = 0, pretend = 0, frame = 0
 596              		@ frame_needed = 1, uses_anonymous_args = 0
 597 0000 90B5     		push	{r4, r7, lr}
 598              	.LCFI13:
 599              		.cfi_def_cfa_offset 12
 600              		.cfi_offset 4, -12
 601              		.cfi_offset 7, -8
 602              		.cfi_offset 14, -4
 603 0002 83B0     		sub	sp, sp, #12
 604              	.LCFI14:
 605              		.cfi_def_cfa_offset 24
 606              		.loc 1 215 0
 607 0004 074C     		ldr	r4, .L49
 608              		.loc 1 214 0
 609 0006 02AF     		add	r7, sp, #8
 610              	.LCFI15:
 611              		.cfi_def_cfa 7, 16
 612              		.loc 1 215 0
 613 0008 2368     		ldr	r3, [r4]
 614 000a 43B9     		cbnz	r3, .L47
 615              		.loc 1 218 0
 616 000c 0093     		str	r3, [sp]
 617 000e 5422     		movs	r2, #84
 618 0010 054B     		ldr	r3, .L49+4
 619 0012 4FF49071 		mov	r1, #288
 620 0016 0548     		ldr	r0, .L49+8
 621 0018 FFF7FEFF 		bl	chThdCreateStatic
 622              	.LVL42:
 623 001c 2060     		str	r0, [r4]
 624              	.L47:
 625              		.loc 1 220 0
 626 001e 0437     		adds	r7, r7, #4
 627              	.LCFI16:
ARM GAS  /var/folders/_2/42wyrlld3p52fkcpt1lv6gxh0000gp/T//cctbc50a.s 			page 12


 628              		.cfi_def_cfa_offset 12
 629 0020 BD46     		mov	sp, r7
 630              	.LCFI17:
 631              		.cfi_def_cfa_register 13
 632              		@ sp needed
 633 0022 90BD     		pop	{r4, r7, pc}
 634              	.L50:
 635              		.align	2
 636              	.L49:
 637 0024 00000000 		.word	.LANCHOR4
 638 0028 00000000 		.word	buttons_task
 639 002c 00000000 		.word	.LANCHOR5
 640              		.cfi_endproc
 641              	.LFE68:
 642              		.size	buttons_start, .-buttons_start
 643              		.section	.text.buttons_stop,"ax",%progbits
 644              		.align	1
 645              		.global	buttons_stop
 646              		.thumb
 647              		.thumb_func
 648              		.type	buttons_stop, %function
 649              	buttons_stop:
 650              	.LFB69:
 651              		.loc 1 223 0
 652              		.cfi_startproc
 653              		@ args = 0, pretend = 0, frame = 0
 654              		@ frame_needed = 1, uses_anonymous_args = 0
 655 0000 98B5     		push	{r3, r4, r7, lr}
 656              	.LCFI18:
 657              		.cfi_def_cfa_offset 16
 658              		.cfi_offset 3, -16
 659              		.cfi_offset 4, -12
 660              		.cfi_offset 7, -8
 661              		.cfi_offset 14, -4
 662              		.loc 1 224 0
 663 0002 064C     		ldr	r4, .L56
 664              		.loc 1 223 0
 665 0004 00AF     		add	r7, sp, #0
 666              	.LCFI19:
 667              		.cfi_def_cfa_register 7
 668              		.loc 1 224 0
 669 0006 2068     		ldr	r0, [r4]
 670 0008 30B1     		cbz	r0, .L51
 671              		.loc 1 226 0
 672 000a FFF7FEFF 		bl	chThdTerminate
 673              	.LVL43:
 674              		.loc 1 227 0
 675 000e 2068     		ldr	r0, [r4]
 676 0010 FFF7FEFF 		bl	chThdWait
 677              	.LVL44:
 678              		.loc 1 228 0
 679 0014 0023     		movs	r3, #0
 680 0016 2360     		str	r3, [r4]
 681              	.L51:
 682 0018 98BD     		pop	{r3, r4, r7, pc}
 683              	.L57:
 684 001a 00BF     		.align	2
ARM GAS  /var/folders/_2/42wyrlld3p52fkcpt1lv6gxh0000gp/T//cctbc50a.s 			page 13


 685              	.L56:
 686 001c 00000000 		.word	.LANCHOR4
 687              		.cfi_endproc
 688              	.LFE69:
 689              		.size	buttons_stop, .-buttons_stop
 690              		.section	.rodata.convgrp,"a",%progbits
 691              		.align	2
 692              		.set	.LANCHOR1,. + 0
 693              		.type	convgrp, %object
 694              		.size	convgrp, 52
 695              	convgrp:
 696 0000 00       		.byte	0
 697 0001 00       		.space	1
 698 0002 0100     		.short	1
 699 0004 00000000 		.word	0
 700 0008 00000000 		.word	0
 701 000c 00000000 		.word	0
 702 0010 10000040 		.word	1073741840
 703 0014 00000000 		.word	0
 704 0018 00000000 		.word	0
 705 001c 00000000 		.word	0
 706 0020 00000000 		.word	0
 707 0024 00000000 		.word	0
 708 0028 00000000 		.word	0
 709 002c 00000000 		.word	0
 710 0030 00000000 		.word	0
 711              		.section	.bss.buttonThread_wa,"aw",%nobits
 712              		.align	3
 713              		.set	.LANCHOR5,. + 0
 714              		.type	buttonThread_wa, %object
 715              		.size	buttonThread_wa, 288
 716              	buttonThread_wa:
 717 0000 00000000 		.space	288
 717      00000000 
 717      00000000 
 717      00000000 
 717      00000000 
 718              		.section	.bss.buttonThread,"aw",%nobits
 719              		.align	2
 720              		.set	.LANCHOR4,. + 0
 721              		.type	buttonThread, %object
 722              		.size	buttonThread, 4
 723              	buttonThread:
 724 0000 00000000 		.space	4
 725              		.section	.rodata.str1.1,"aMS",%progbits,1
 726              	.LC0:
 727 0000 62757474 		.ascii	"buttons\000"
 727      6F6E7300 
 728              	.LC1:
 729 0008 466F7263 		.ascii	"Forced reboot\012\000"
 729      65642072 
 729      65626F6F 
 729      740A00
 730              		.section	.data.g_new_event,"aw",%progbits
 731              		.align	2
 732              		.set	.LANCHOR0,. + 0
 733              		.type	g_new_event, %object
ARM GAS  /var/folders/_2/42wyrlld3p52fkcpt1lv6gxh0000gp/T//cctbc50a.s 			page 14


 734              		.size	g_new_event, 12
 735              	g_new_event:
 736 0000 00000000 		.word	g_new_event
 737 0004 00000000 		.word	g_new_event
 738 0008 00000000 		.word	0
 739              		.section	.rodata.extconfig,"a",%progbits
 740              		.align	2
 741              		.set	.LANCHOR2,. + 0
 742              		.type	extconfig, %object
 743              		.size	extconfig, 184
 744              	extconfig:
 745 0000 05000000 		.word	5
 746 0004 00000000 		.word	exti_button_callback
 747 0008 00000000 		.space	176
 747      00000000 
 747      00000000 
 747      00000000 
 747      00000000 
 748              		.section	.bss.g_plusminus_delta,"aw",%nobits
 749              		.align	2
 750              		.set	.LANCHOR3,. + 0
 751              		.type	g_plusminus_delta, %object
 752              		.size	g_plusminus_delta, 4
 753              	g_plusminus_delta:
 754 0000 00000000 		.space	4
 755              		.text
 756              	.Letext0:
 757              		.file 2 "src/buttons.h"
 758              		.file 3 "/Users/ARS/Applications/Eclipse.app/Contents/gcc-arm-none-eabi-5_3-2016q1/lib/gcc/arm-non
 759              		.file 4 "/Users/ARS/Applications/Eclipse.app/Contents/gcc-arm-none-eabi-5_3-2016q1/arm-none-eabi/i
 760              		.file 5 "/Users/ARS/Applications/Eclipse.app/Contents/gcc-arm-none-eabi-5_3-2016q1/arm-none-eabi/i
 761              		.file 6 "chibios/os/ports/GCC/ARMCMx/chtypes.h"
 762              		.file 7 "chibios/os/kernel/include/chlists.h"
 763              		.file 8 "chibios/os/kernel/include/chthreads.h"
 764              		.file 9 "chibios/os/ports/GCC/ARMCMx/chcore_v7m.h"
 765              		.file 10 "chibios/os/kernel/include/chschd.h"
 766              		.file 11 "chibios/os/kernel/include/chsem.h"
 767              		.file 12 "chibios/os/kernel/include/chbsem.h"
 768              		.file 13 "chibios/os/kernel/include/chmtx.h"
 769              		.file 14 "chibios/os/ports/common/ARMCMx/CMSIS/include/core_cm3.h"
 770              		.file 15 "chibios/os/hal/platforms/STM32L1xx/stm32l1xx.h"
 771              		.file 16 "chibios/os/hal/platforms/STM32L1xx/stm32_dma.h"
 772              		.file 17 "chibios/os/hal/platforms/STM32/GPIOv2/pal_lld.h"
 773              		.file 18 "chibios/os/hal/include/adc.h"
 774              		.file 19 "chibios/os/hal/platforms/STM32L1xx/adc_lld.h"
 775              		.file 20 "chibios/os/hal/include/ext.h"
 776              		.file 21 "chibios/os/hal/platforms/STM32/ext_lld.h"
 777              		.file 22 "src/beeper.h"
 778              		.file 23 "src/chconf.h"
 779              		.file 24 "src/powersave.h"