ARM GAS  /var/folders/_2/42wyrlld3p52fkcpt1lv6gxh0000gp/T//cc8yfSTt.s 			page 1


   1              		.syntax unified
   2              		.cpu cortex-m3
   3              		.fpu softvfp
   4              		.eabi_attribute 20, 1
   5              		.eabi_attribute 21, 1
   6              		.eabi_attribute 23, 3
   7              		.eabi_attribute 24, 1
   8              		.eabi_attribute 25, 1
   9              		.eabi_attribute 26, 1
  10              		.eabi_attribute 30, 4
  11              		.eabi_attribute 34, 1
  12              		.eabi_attribute 18, 4
  13              		.thumb
  14              		.syntax unified
  15              		.file	"chcore_v7m.c"
  16              		.text
  17              	.Ltext0:
  18              		.cfi_sections	.debug_frame
  19              		.section	.text._port_switch_from_isr,"ax",%progbits
  20              		.align	1
  21              		.global	_port_switch_from_isr
  22              		.thumb
  23              		.thumb_func
  24              		.type	_port_switch_from_isr, %function
  25              	_port_switch_from_isr:
  26              	.LFB11:
  27              		.file 1 "chibios/os/ports/GCC/ARMCMx/chcore_v7m.c"
  28              		.loc 1 207 0
  29              		.cfi_startproc
  30              		@ Naked Function: prologue and epilogue provided by programmer.
  31              		@ args = 0, pretend = 0, frame = 0
  32              		@ frame_needed = 1, uses_anonymous_args = 0
  33              		.loc 1 210 0
  34 0000 FFF7FEFF 		bl	chSchDoReschedule
  35              	.LVL0:
  36              		.loc 1 212 0
  37              		.syntax unified
  38              	@ 212 "chibios/os/ports/GCC/ARMCMx/chcore_v7m.c" 1
  39              		_port_exit_from_isr:
  40              	@ 0 "" 2
  41              		.loc 1 214 0
  42              	@ 214 "chibios/os/ports/GCC/ARMCMx/chcore_v7m.c" 1
  43 0004 00DF     		svc     #0
  44              	@ 0 "" 2
  45              		.loc 1 221 0
  46              		.thumb
  47              		.syntax unified
  48              		.cfi_endproc
  49              	.LFE11:
  50              		.size	_port_switch_from_isr, .-_port_switch_from_isr
  51              		.section	.text.SVCallVector,"ax",%progbits
  52              		.align	1
  53              		.global	SVCallVector
  54              		.thumb
  55              		.thumb_func
  56              		.type	SVCallVector, %function
  57              	SVCallVector:
ARM GAS  /var/folders/_2/42wyrlld3p52fkcpt1lv6gxh0000gp/T//cc8yfSTt.s 			page 2


  58              	.LFB8:
  59              		.loc 1 65 0
  60              		.cfi_startproc
  61              		@ args = 0, pretend = 0, frame = 0
  62              		@ frame_needed = 1, uses_anonymous_args = 0
  63 0000 80B5     		push	{r7, lr}
  64              	.LCFI0:
  65              		.cfi_def_cfa_offset 8
  66              		.cfi_offset 7, -8
  67              		.cfi_offset 14, -4
  68 0002 00AF     		add	r7, sp, #0
  69              	.LCFI1:
  70              		.cfi_def_cfa_register 7
  71              		.loc 1 69 0
  72              		.syntax unified
  73              	@ 69 "chibios/os/ports/GCC/ARMCMx/chcore_v7m.c" 1
  74 0004 EFF30983 		mrs     r3, PSP
  75              	@ 0 "" 2
  76              	.LVL1:
  77              		.loc 1 80 0
  78              		.thumb
  79              		.syntax unified
  80 0008 2033     		adds	r3, r3, #32
  81              	.LVL2:
  82              		.syntax unified
  83              	@ 80 "chibios/os/ports/GCC/ARMCMx/chcore_v7m.c" 1
  84 000a 83F30988 		msr     PSP, r3
  85              	@ 0 "" 2
  86              		.thumb
  87              		.syntax unified
  88              	.LBB5:
  89              		.loc 1 81 0
  90 000e 0023     		movs	r3, #0
  91              	.LVL3:
  92              		.syntax unified
  93              	@ 81 "chibios/os/ports/GCC/ARMCMx/chcore_v7m.c" 1
  94 0010 83F31188 		msr     BASEPRI, r3
  95              	@ 0 "" 2
  96              		.thumb
  97              		.syntax unified
  98 0014 80BD     		pop	{r7, pc}
  99              	.LBE5:
 100              		.cfi_endproc
 101              	.LFE8:
 102              		.size	SVCallVector, .-SVCallVector
 103              		.section	.text._port_init,"ax",%progbits
 104              		.align	1
 105              		.global	_port_init
 106              		.thumb
 107              		.thumb_func
 108              		.type	_port_init, %function
 109              	_port_init:
 110              	.LFB9:
 111              		.loc 1 118 0
 112              		.cfi_startproc
 113              		@ args = 0, pretend = 0, frame = 0
 114              		@ frame_needed = 1, uses_anonymous_args = 0
ARM GAS  /var/folders/_2/42wyrlld3p52fkcpt1lv6gxh0000gp/T//cc8yfSTt.s 			page 3


 115 0000 80B5     		push	{r7, lr}
 116              	.LCFI2:
 117              		.cfi_def_cfa_offset 8
 118              		.cfi_offset 7, -8
 119              		.cfi_offset 14, -4
 120              		.loc 1 121 0
 121 0002 0B4B     		ldr	r3, .L4
 122 0004 0022     		movs	r2, #0
 123 0006 9A60     		str	r2, [r3, #8]
 124              		.loc 1 122 0
 125 0008 0A4A     		ldr	r2, .L4+4
 126              		.loc 1 118 0
 127 000a 00AF     		add	r7, sp, #0
 128              	.LCFI3:
 129              		.cfi_def_cfa_register 7
 130              		.loc 1 122 0
 131 000c DA60     		str	r2, [r3, #12]
 132              		.loc 1 125 0
 133 000e 1021     		movs	r1, #16
 134 0010 0720     		movs	r0, #7
 135 0012 FFF7FEFF 		bl	nvicSetSystemHandlerPriority
 136              	.LVL4:
 137              		.loc 1 127 0
 138 0016 4FF40071 		mov	r1, #512
 139 001a 0A20     		movs	r0, #10
 140 001c FFF7FEFF 		bl	nvicSetSystemHandlerPriority
 141              	.LVL5:
 142              		.loc 1 129 0
 143 0020 8021     		movs	r1, #128
 144 0022 0B20     		movs	r0, #11
 145              		.loc 1 131 0
 146 0024 BD46     		mov	sp, r7
 147              	.LCFI4:
 148              		.cfi_def_cfa_register 13
 149              		@ sp needed
 150 0026 BDE88040 		pop	{r7, lr}
 151              	.LCFI5:
 152              		.cfi_restore 14
 153              		.cfi_restore 7
 154              		.cfi_def_cfa_offset 0
 155              		.loc 1 129 0
 156 002a FFF7FEBF 		b	nvicSetSystemHandlerPriority
 157              	.LVL6:
 158              	.L5:
 159 002e 00BF     		.align	2
 160              	.L4:
 161 0030 00ED00E0 		.word	-536810240
 162 0034 0003FA05 		.word	100270848
 163              		.cfi_endproc
 164              	.LFE9:
 165              		.size	_port_init, .-_port_init
 166              		.section	.text._port_irq_epilogue,"ax",%progbits
 167              		.align	1
 168              		.global	_port_irq_epilogue
 169              		.thumb
 170              		.thumb_func
 171              		.type	_port_irq_epilogue, %function
ARM GAS  /var/folders/_2/42wyrlld3p52fkcpt1lv6gxh0000gp/T//cc8yfSTt.s 			page 4


 172              	_port_irq_epilogue:
 173              	.LFB10:
 174              		.loc 1 148 0
 175              		.cfi_startproc
 176              		@ args = 0, pretend = 0, frame = 0
 177              		@ frame_needed = 1, uses_anonymous_args = 0
 178 0000 80B5     		push	{r7, lr}
 179              	.LCFI6:
 180              		.cfi_def_cfa_offset 8
 181              		.cfi_offset 7, -8
 182              		.cfi_offset 14, -4
 183              	.LBB13:
 184              		.loc 1 150 0
 185 0002 2023     		movs	r3, #32
 186              	.LBE13:
 187              		.loc 1 148 0
 188 0004 00AF     		add	r7, sp, #0
 189              	.LCFI7:
 190              		.cfi_def_cfa_register 7
 191              	.LBB14:
 192              		.loc 1 150 0
 193              		.syntax unified
 194              	@ 150 "chibios/os/ports/GCC/ARMCMx/chcore_v7m.c" 1
 195 0006 83F31188 		msr     BASEPRI, r3
 196              	@ 0 "" 2
 197              		.thumb
 198              		.syntax unified
 199              	.LBE14:
 200              		.loc 1 151 0
 201 000a 154B     		ldr	r3, .L14
 202 000c 5B68     		ldr	r3, [r3, #4]
 203 000e 13F40063 		ands	r3, r3, #2048
 204 0012 21D0     		beq	.L7
 205              	.LBB15:
 206              	.LBB16:
 207              		.loc 1 155 0
 208              		.syntax unified
 209              	@ 155 "chibios/os/ports/GCC/ARMCMx/chcore_v7m.c" 1
 210 0014 EFF30982 		mrs     r2, PSP
 211              	@ 0 "" 2
 212              	.LVL7:
 213              		.loc 1 160 0
 214              		.thumb
 215              		.syntax unified
 216 0018 A2F12003 		sub	r3, r2, #32
 217              	.LVL8:
 218              		.syntax unified
 219              	@ 160 "chibios/os/ports/GCC/ARMCMx/chcore_v7m.c" 1
 220 001c 83F30988 		msr     PSP, r3
 221              	@ 0 "" 2
 222              		.loc 1 165 0
 223              		.thumb
 224              		.syntax unified
 225 0020 1049     		ldr	r1, .L14+4
 226              		.loc 1 161 0
 227 0022 4FF08073 		mov	r3, #16777216
 228              	.LVL9:
ARM GAS  /var/folders/_2/42wyrlld3p52fkcpt1lv6gxh0000gp/T//cc8yfSTt.s 			page 5


 229 0026 42F8043C 		str	r3, [r2, #-4]
 230              		.loc 1 165 0
 231 002a 8B69     		ldr	r3, [r1, #24]
 232 002c 0968     		ldr	r1, [r1]
 233 002e 93F82200 		ldrb	r0, [r3, #34]	@ zero_extendqisi2
 234 0032 8968     		ldr	r1, [r1, #8]
 235 0034 9B68     		ldr	r3, [r3, #8]
 236 0036 20B1     		cbz	r0, .L8
 237 0038 9942     		cmp	r1, r3
 238 003a 94BF     		ite	ls
 239 003c 0023     		movls	r3, #0
 240 003e 0123     		movhi	r3, #1
 241 0040 03E0     		b	.L9
 242              	.L8:
 243 0042 9942     		cmp	r1, r3
 244 0044 34BF     		ite	cc
 245 0046 0023     		movcc	r3, #0
 246 0048 0123     		movcs	r3, #1
 247              	.L9:
 248 004a 0BB1     		cbz	r3, .L10
 249              		.loc 1 167 0
 250 004c 064B     		ldr	r3, .L14+8
 251 004e 00E0     		b	.L12
 252              	.L10:
 253              		.loc 1 176 0
 254 0050 064B     		ldr	r3, .L14+12
 255              	.L12:
 256 0052 42F8083C 		str	r3, [r2, #-8]
 257 0056 80BD     		pop	{r7, pc}
 258              	.LVL10:
 259              	.L7:
 260              	.LBE16:
 261              	.LBE15:
 262              	.LBB17:
 263              		.loc 1 197 0
 264              		.syntax unified
 265              	@ 197 "chibios/os/ports/GCC/ARMCMx/chcore_v7m.c" 1
 266 0058 83F31188 		msr     BASEPRI, r3
 267              	@ 0 "" 2
 268              		.thumb
 269              		.syntax unified
 270 005c 80BD     		pop	{r7, pc}
 271              	.L15:
 272 005e 00BF     		.align	2
 273              	.L14:
 274 0060 00ED00E0 		.word	-536810240
 275 0064 00000000 		.word	rlist
 276 0068 00000000 		.word	_port_switch_from_isr
 277 006c 04000000 		.word	_port_exit_from_isr
 278              	.LBE17:
 279              		.cfi_endproc
 280              	.LFE10:
 281              		.size	_port_irq_epilogue, .-_port_irq_epilogue
 282              		.section	.text.SysTickVector,"ax",%progbits
 283              		.align	1
 284              		.global	SysTickVector
 285              		.thumb
ARM GAS  /var/folders/_2/42wyrlld3p52fkcpt1lv6gxh0000gp/T//cc8yfSTt.s 			page 6


 286              		.thumb_func
 287              		.type	SysTickVector, %function
 288              	SysTickVector:
 289              	.LFB7:
 290              		.loc 1 47 0
 291              		.cfi_startproc
 292              		@ args = 0, pretend = 0, frame = 0
 293              		@ frame_needed = 1, uses_anonymous_args = 0
 294 0000 80B5     		push	{r7, lr}
 295              	.LCFI8:
 296              		.cfi_def_cfa_offset 8
 297              		.cfi_offset 7, -8
 298              		.cfi_offset 14, -4
 299              	.LBB18:
 300              		.loc 1 51 0
 301 0002 2023     		movs	r3, #32
 302              	.LBE18:
 303              		.loc 1 47 0
 304 0004 00AF     		add	r7, sp, #0
 305              	.LCFI9:
 306              		.cfi_def_cfa_register 7
 307              	.LBB19:
 308              		.loc 1 51 0
 309              		.syntax unified
 310              	@ 51 "chibios/os/ports/GCC/ARMCMx/chcore_v7m.c" 1
 311 0006 83F31188 		msr     BASEPRI, r3
 312              	@ 0 "" 2
 313              		.thumb
 314              		.syntax unified
 315              	.LBE19:
 316              		.loc 1 52 0
 317 000a FFF7FEFF 		bl	chSysTimerHandlerI
 318              	.LVL11:
 319              	.LBB20:
 320              		.loc 1 53 0
 321 000e 0023     		movs	r3, #0
 322              		.syntax unified
 323              	@ 53 "chibios/os/ports/GCC/ARMCMx/chcore_v7m.c" 1
 324 0010 83F31188 		msr     BASEPRI, r3
 325              	@ 0 "" 2
 326              		.thumb
 327              		.syntax unified
 328              	.LBE20:
 329              		.loc 1 56 0
 330 0014 BD46     		mov	sp, r7
 331              	.LCFI10:
 332              		.cfi_def_cfa_register 13
 333              		@ sp needed
 334 0016 BDE88040 		pop	{r7, lr}
 335              	.LCFI11:
 336              		.cfi_restore 14
 337              		.cfi_restore 7
 338              		.cfi_def_cfa_offset 0
 339              		.loc 1 55 0
 340 001a FFF7FEBF 		b	_port_irq_epilogue
 341              	.LVL12:
 342              		.cfi_endproc
ARM GAS  /var/folders/_2/42wyrlld3p52fkcpt1lv6gxh0000gp/T//cc8yfSTt.s 			page 7


 343              	.LFE7:
 344              		.size	SysTickVector, .-SysTickVector
 345              		.section	.text._port_switch,"ax",%progbits
 346              		.align	1
 347              		.global	_port_switch
 348              		.thumb
 349              		.thumb_func
 350              		.type	_port_switch, %function
 351              	_port_switch:
 352              	.LFB12:
 353              		.loc 1 236 0
 354              		.cfi_startproc
 355              		@ Naked Function: prologue and epilogue provided by programmer.
 356              		@ args = 0, pretend = 0, frame = 0
 357              		@ frame_needed = 1, uses_anonymous_args = 0
 358              	.LVL13:
 359              		.loc 1 238 0
 360              		.syntax unified
 361              	@ 238 "chibios/os/ports/GCC/ARMCMx/chcore_v7m.c" 1
 362 0000 2DE9F04F 		push    {r4, r5, r6, r7, r8, r9, r10, r11, lr}
 363              	@ 0 "" 2
 364              		.loc 1 244 0
 365              	@ 244 "chibios/os/ports/GCC/ARMCMx/chcore_v7m.c" 1
 366 0004 C1F80CD0 		str     sp, [r1, #12]                          
 367 0008 D0F80CD0 		ldr     sp, [r0, #12]
 368              	@ 0 "" 2
 369              		.loc 1 250 0
 370              	@ 250 "chibios/os/ports/GCC/ARMCMx/chcore_v7m.c" 1
 371 000c BDE8F08F 		pop     {r4, r5, r6, r7, r8, r9, r10, r11, pc}
 372              	@ 0 "" 2
 373              		.loc 1 252 0
 374              		.thumb
 375              		.syntax unified
 376              		.cfi_endproc
 377              	.LFE12:
 378              		.size	_port_switch, .-_port_switch
 379              		.section	.text._port_thread_start,"ax",%progbits
 380              		.align	1
 381              		.global	_port_thread_start
 382              		.thumb
 383              		.thumb_func
 384              		.type	_port_thread_start, %function
 385              	_port_thread_start:
 386              	.LFB13:
 387              		.loc 1 259 0
 388              		.cfi_startproc
 389              		@ args = 0, pretend = 0, frame = 0
 390              		@ frame_needed = 1, uses_anonymous_args = 0
 391 0000 80B5     		push	{r7, lr}
 392              	.LCFI12:
 393              		.cfi_def_cfa_offset 8
 394              		.cfi_offset 7, -8
 395              		.cfi_offset 14, -4
 396              	.LBB21:
 397              		.loc 1 261 0
 398 0002 0023     		movs	r3, #0
 399              	.LBE21:
ARM GAS  /var/folders/_2/42wyrlld3p52fkcpt1lv6gxh0000gp/T//cc8yfSTt.s 			page 8


 400              		.loc 1 259 0
 401 0004 00AF     		add	r7, sp, #0
 402              	.LCFI13:
 403              		.cfi_def_cfa_register 7
 404              	.LBB22:
 405              		.loc 1 261 0
 406              		.syntax unified
 407              	@ 261 "chibios/os/ports/GCC/ARMCMx/chcore_v7m.c" 1
 408 0006 83F31188 		msr     BASEPRI, r3
 409              	@ 0 "" 2
 410              		.thumb
 411              		.syntax unified
 412              	.LBE22:
 413              		.loc 1 262 0
 414              		.syntax unified
 415              	@ 262 "chibios/os/ports/GCC/ARMCMx/chcore_v7m.c" 1
 416 000a 2846     		mov     r0, r5                                 
 417 000c A047     		blx     r4                                     
 418 000e FFF7FEFF 		bl      chThdExit
 419              	@ 0 "" 2
 420              		.thumb
 421              		.syntax unified
 422 0012 80BD     		pop	{r7, pc}
 423              		.cfi_endproc
 424              	.LFE13:
 425              		.size	_port_thread_start, .-_port_thread_start
 426              		.text
 427              	.Letext0:
 428              		.file 2 "/Users/ARS/Applications/Eclipse.app/Contents/gcc-arm-none-eabi-5_3-2016q1/arm-none-eabi/i
 429              		.file 3 "/Users/ARS/Applications/Eclipse.app/Contents/gcc-arm-none-eabi-5_3-2016q1/arm-none-eabi/i
 430              		.file 4 "chibios/os/ports/GCC/ARMCMx/chtypes.h"
 431              		.file 5 "chibios/os/kernel/include/chlists.h"
 432              		.file 6 "chibios/os/kernel/include/chthreads.h"
 433              		.file 7 "chibios/os/ports/GCC/ARMCMx/chcore_v7m.h"
 434              		.file 8 "chibios/os/ports/common/ARMCMx/nvic.h"
 435              		.file 9 "chibios/os/kernel/include/chschd.h"
 436              		.file 10 "chibios/os/kernel/include/chmtx.h"
 437              		.file 11 "chibios/os/kernel/include/chsys.h"