ARM GAS  /var/folders/_2/42wyrlld3p52fkcpt1lv6gxh0000gp/T//cc7PwCwk.s 			page 1


   1              		.syntax unified
   2              		.cpu cortex-m3
   3              		.fpu softvfp
   4              		.eabi_attribute 20, 1
   5              		.eabi_attribute 21, 1
   6              		.eabi_attribute 23, 3
   7              		.eabi_attribute 24, 1
   8              		.eabi_attribute 25, 1
   9              		.eabi_attribute 26, 1
  10              		.eabi_attribute 30, 4
  11              		.eabi_attribute 34, 1
  12              		.eabi_attribute 18, 4
  13              		.thumb
  14              		.syntax unified
  15              		.file	"chdebug.c"
  16              		.text
  17              	.Ltext0:
  18              		.cfi_sections	.debug_frame
  19              		.section	.text._trace_init,"ax",%progbits
  20              		.align	1
  21              		.global	_trace_init
  22              		.thumb
  23              		.thumb_func
  24              		.type	_trace_init, %function
  25              	_trace_init:
  26              	.LFB7:
  27              		.file 1 "chibios/os/kernel/src/chdebug.c"
  28              		.loc 1 229 0
  29              		.cfi_startproc
  30              		@ args = 0, pretend = 0, frame = 0
  31              		@ frame_needed = 1, uses_anonymous_args = 0
  32              		.loc 1 231 0
  33 0000 044A     		ldr	r2, .L2
  34              		.loc 1 229 0
  35 0002 80B5     		push	{r7, lr}
  36              	.LCFI0:
  37              		.cfi_def_cfa_offset 8
  38              		.cfi_offset 7, -8
  39              		.cfi_offset 14, -4
  40              		.loc 1 231 0
  41 0004 1346     		mov	r3, r2
  42 0006 4021     		movs	r1, #64
  43 0008 43F8081B 		str	r1, [r3], #8
  44              		.loc 1 229 0
  45 000c 00AF     		add	r7, sp, #0
  46              	.LCFI1:
  47              		.cfi_def_cfa_register 7
  48              		.loc 1 232 0
  49 000e 5360     		str	r3, [r2, #4]
  50 0010 80BD     		pop	{r7, pc}
  51              	.L3:
  52 0012 00BF     		.align	2
  53              	.L2:
  54 0014 00000000 		.word	.LANCHOR0
  55              		.cfi_endproc
  56              	.LFE7:
  57              		.size	_trace_init, .-_trace_init
ARM GAS  /var/folders/_2/42wyrlld3p52fkcpt1lv6gxh0000gp/T//cc7PwCwk.s 			page 2


  58              		.section	.text.dbg_trace,"ax",%progbits
  59              		.align	1
  60              		.global	dbg_trace
  61              		.thumb
  62              		.thumb_func
  63              		.type	dbg_trace, %function
  64              	dbg_trace:
  65              	.LFB8:
  66              		.loc 1 242 0
  67              		.cfi_startproc
  68              		@ args = 0, pretend = 0, frame = 0
  69              		@ frame_needed = 1, uses_anonymous_args = 0
  70              	.LVL0:
  71              		.loc 1 244 0
  72 0000 0D4A     		ldr	r2, .L8
  73 0002 0E49     		ldr	r1, .L8+4
  74 0004 5368     		ldr	r3, [r2, #4]
  75 0006 C968     		ldr	r1, [r1, #12]
  76              		.loc 1 242 0
  77 0008 80B5     		push	{r7, lr}
  78              	.LCFI2:
  79              		.cfi_def_cfa_offset 8
  80              		.cfi_offset 7, -8
  81              		.cfi_offset 14, -4
  82              		.loc 1 244 0
  83 000a 1960     		str	r1, [r3]
  84              		.loc 1 245 0
  85 000c 0C49     		ldr	r1, .L8+8
  86              		.loc 1 248 0
  87 000e 1033     		adds	r3, r3, #16
  88              		.loc 1 245 0
  89 0010 8969     		ldr	r1, [r1, #24]
  90              		.loc 1 242 0
  91 0012 00AF     		add	r7, sp, #0
  92              	.LCFI3:
  93              		.cfi_def_cfa_register 7
  94              		.loc 1 245 0
  95 0014 43F80C1C 		str	r1, [r3, #-12]
  96              		.loc 1 246 0
  97 0018 816A     		ldr	r1, [r0, #40]
  98 001a 43F8081C 		str	r1, [r3, #-8]
  99              		.loc 1 247 0
 100 001e 90F82010 		ldrb	r1, [r0, #32]	@ zero_extendqisi2
 101 0022 03F8041C 		strb	r1, [r3, #-4]
 102              		.loc 1 248 0
 103 0026 02F58161 		add	r1, r2, #1032
 104 002a 8B42     		cmp	r3, r1
 105              		.loc 1 250 0
 106 002c 28BF     		it	cs
 107 002e 02F10803 		addcs	r3, r2, #8
 108 0032 5360     		str	r3, [r2, #4]
 109 0034 80BD     		pop	{r7, pc}
 110              	.L9:
 111 0036 00BF     		.align	2
 112              	.L8:
 113 0038 00000000 		.word	.LANCHOR0
 114 003c 00000000 		.word	vtlist
ARM GAS  /var/folders/_2/42wyrlld3p52fkcpt1lv6gxh0000gp/T//cc7PwCwk.s 			page 3


 115 0040 00000000 		.word	rlist
 116              		.cfi_endproc
 117              	.LFE8:
 118              		.size	dbg_trace, .-dbg_trace
 119              		.section	.text.chDbgPanic,"ax",%progbits
 120              		.align	1
 121              		.global	chDbgPanic
 122              		.thumb
 123              		.thumb_func
 124              		.type	chDbgPanic, %function
 125              	chDbgPanic:
 126              	.LFB9:
 127              		.loc 1 271 0
 128              		.cfi_startproc
 129              		@ args = 0, pretend = 0, frame = 0
 130              		@ frame_needed = 1, uses_anonymous_args = 0
 131              	.LVL1:
 132 0000 98B5     		push	{r3, r4, r7, lr}
 133              	.LCFI4:
 134              		.cfi_def_cfa_offset 16
 135              		.cfi_offset 3, -16
 136              		.cfi_offset 4, -12
 137              		.cfi_offset 7, -8
 138              		.cfi_offset 14, -4
 139              		.loc 1 273 0
 140 0002 084C     		ldr	r4, .L11
 141              		.loc 1 271 0
 142 0004 00AF     		add	r7, sp, #0
 143              	.LCFI5:
 144              		.cfi_def_cfa_register 7
 145              		.loc 1 273 0
 146 0006 2060     		str	r0, [r4]
 147              		.loc 1 274 0
 148 0008 0748     		ldr	r0, .L11+4
 149              	.LVL2:
 150 000a FFF7FEFF 		bl	usart1_putstring
 151              	.LVL3:
 152 000e 2068     		ldr	r0, [r4]
 153 0010 FFF7FEFF 		bl	usart1_putstring
 154              	.LVL4:
 155 0014 FFF7FEFF 		bl	reboot
 156              	.LVL5:
 157              		.loc 1 275 0
 158 0018 BD46     		mov	sp, r7
 159              	.LCFI6:
 160              		.cfi_def_cfa_register 13
 161              		@ sp needed
 162 001a BDE89840 		pop	{r3, r4, r7, lr}
 163              	.LCFI7:
 164              		.cfi_restore 14
 165              		.cfi_restore 7
 166              		.cfi_restore 4
 167              		.cfi_restore 3
 168              		.cfi_def_cfa_offset 0
 169              		.loc 1 274 0
 170 001e FFF7FEBF 		b	port_halt
 171              	.LVL6:
ARM GAS  /var/folders/_2/42wyrlld3p52fkcpt1lv6gxh0000gp/T//cc7PwCwk.s 			page 4


 172              	.L12:
 173 0022 00BF     		.align	2
 174              	.L11:
 175 0024 00000000 		.word	.LANCHOR1
 176 0028 00000000 		.word	.LC0
 177              		.cfi_endproc
 178              	.LFE9:
 179              		.size	chDbgPanic, .-chDbgPanic
 180              		.global	dbg_panic_msg
 181              		.global	dbg_trace_buffer
 182              		.section	.bss.dbg_trace_buffer,"aw",%nobits
 183              		.align	2
 184              		.set	.LANCHOR0,. + 0
 185              		.type	dbg_trace_buffer, %object
 186              		.size	dbg_trace_buffer, 1032
 187              	dbg_trace_buffer:
 188 0000 00000000 		.space	1032
 188      00000000 
 188      00000000 
 188      00000000 
 188      00000000 
 189              		.section	.rodata.str1.1,"aMS",%progbits,1
 190              	.LC0:
 191 0000 0D0A0D0A 		.ascii	"\015\012\015\012SYSTEM HALT: \000"
 191      53595354 
 191      454D2048 
 191      414C543A 
 191      2000
 192              		.section	.bss.dbg_panic_msg,"aw",%nobits
 193              		.align	2
 194              		.set	.LANCHOR1,. + 0
 195              		.type	dbg_panic_msg, %object
 196              		.size	dbg_panic_msg, 4
 197              	dbg_panic_msg:
 198 0000 00000000 		.space	4
 199              		.text
 200              	.Letext0:
 201              		.file 2 "/Users/ARS/Applications/Eclipse.app/Contents/gcc-arm-none-eabi-5_3-2016q1/arm-none-eabi/i
 202              		.file 3 "/Users/ARS/Applications/Eclipse.app/Contents/gcc-arm-none-eabi-5_3-2016q1/arm-none-eabi/i
 203              		.file 4 "chibios/os/ports/GCC/ARMCMx/chtypes.h"
 204              		.file 5 "chibios/os/kernel/include/chlists.h"
 205              		.file 6 "chibios/os/kernel/include/chthreads.h"
 206              		.file 7 "chibios/os/ports/GCC/ARMCMx/chcore_v7m.h"
 207              		.file 8 "chibios/os/kernel/include/chvt.h"
 208              		.file 9 "chibios/os/kernel/include/chschd.h"
 209              		.file 10 "chibios/os/kernel/include/chmtx.h"
 210              		.file 11 "chibios/os/kernel/include/chdebug.h"
 211              		.file 12 "src/chconf.h"