ARM GAS  /var/folders/_2/42wyrlld3p52fkcpt1lv6gxh0000gp/T//cczMbqGI.s 			page 1


   1              		.syntax unified
   2              		.cpu cortex-m3
   3              		.fpu softvfp
   4              		.eabi_attribute 20, 1
   5              		.eabi_attribute 21, 1
   6              		.eabi_attribute 23, 3
   7              		.eabi_attribute 24, 1
   8              		.eabi_attribute 25, 1
   9              		.eabi_attribute 26, 1
  10              		.eabi_attribute 30, 4
  11              		.eabi_attribute 34, 1
  12              		.eabi_attribute 18, 4
  13              		.thumb
  14              		.syntax unified
  15              		.file	"chevents.c"
  16              		.text
  17              	.Ltext0:
  18              		.cfi_sections	.debug_frame
  19              		.section	.text.chEvtRegisterMask,"ax",%progbits
  20              		.align	1
  21              		.global	chEvtRegisterMask
  22              		.thumb
  23              		.thumb_func
  24              		.type	chEvtRegisterMask, %function
  25              	chEvtRegisterMask:
  26              	.LFB7:
  27              		.file 1 "chibios/os/kernel/src/chevents.c"
  28              		.loc 1 85 0
  29              		.cfi_startproc
  30              		@ args = 0, pretend = 0, frame = 0
  31              		@ frame_needed = 1, uses_anonymous_args = 0
  32              	.LVL0:
  33 0000 80B5     		push	{r7, lr}
  34              	.LCFI0:
  35              		.cfi_def_cfa_offset 8
  36              		.cfi_offset 7, -8
  37              		.cfi_offset 14, -4
  38              	.LBB2:
  39              		.loc 1 89 0
  40 0002 2023     		movs	r3, #32
  41              	.LBE2:
  42              		.loc 1 85 0
  43 0004 00AF     		add	r7, sp, #0
  44              	.LCFI1:
  45              		.cfi_def_cfa_register 7
  46              	.LBB3:
  47              		.loc 1 89 0
  48              		.syntax unified
  49              	@ 89 "chibios/os/kernel/src/chevents.c" 1
  50 0006 83F31188 		msr     BASEPRI, r3
  51              	@ 0 "" 2
  52              		.thumb
  53              		.syntax unified
  54              	.LBE3:
  55              		.loc 1 90 0
  56 000a 0368     		ldr	r3, [r0]
  57 000c 0B60     		str	r3, [r1]
ARM GAS  /var/folders/_2/42wyrlld3p52fkcpt1lv6gxh0000gp/T//cczMbqGI.s 			page 2


  58              		.loc 1 92 0
  59 000e 054B     		ldr	r3, .L2
  60              		.loc 1 91 0
  61 0010 0160     		str	r1, [r0]
  62              		.loc 1 92 0
  63 0012 9B69     		ldr	r3, [r3, #24]
  64              		.loc 1 93 0
  65 0014 8A60     		str	r2, [r1, #8]
  66              		.loc 1 92 0
  67 0016 4B60     		str	r3, [r1, #4]
  68              		.loc 1 94 0
  69 0018 0023     		movs	r3, #0
  70 001a CB60     		str	r3, [r1, #12]
  71              	.LBB4:
  72              		.loc 1 95 0
  73              		.syntax unified
  74              	@ 95 "chibios/os/kernel/src/chevents.c" 1
  75 001c 83F31188 		msr     BASEPRI, r3
  76              	@ 0 "" 2
  77              		.thumb
  78              		.syntax unified
  79 0020 80BD     		pop	{r7, pc}
  80              	.L3:
  81 0022 00BF     		.align	2
  82              	.L2:
  83 0024 00000000 		.word	rlist
  84              	.LBE4:
  85              		.cfi_endproc
  86              	.LFE7:
  87              		.size	chEvtRegisterMask, .-chEvtRegisterMask
  88              		.section	.text.chEvtUnregister,"ax",%progbits
  89              		.align	1
  90              		.global	chEvtUnregister
  91              		.thumb
  92              		.thumb_func
  93              		.type	chEvtUnregister, %function
  94              	chEvtUnregister:
  95              	.LFB8:
  96              		.loc 1 111 0
  97              		.cfi_startproc
  98              		@ args = 0, pretend = 0, frame = 0
  99              		@ frame_needed = 1, uses_anonymous_args = 0
 100              	.LVL1:
 101 0000 80B5     		push	{r7, lr}
 102              	.LCFI2:
 103              		.cfi_def_cfa_offset 8
 104              		.cfi_offset 7, -8
 105              		.cfi_offset 14, -4
 106              	.LBB5:
 107              		.loc 1 117 0
 108 0002 2023     		movs	r3, #32
 109              	.LBE5:
 110              		.loc 1 111 0
 111 0004 00AF     		add	r7, sp, #0
 112              	.LCFI3:
 113              		.cfi_def_cfa_register 7
 114              	.LBB6:
ARM GAS  /var/folders/_2/42wyrlld3p52fkcpt1lv6gxh0000gp/T//cczMbqGI.s 			page 3


 115              		.loc 1 117 0
 116              		.syntax unified
 117              	@ 117 "chibios/os/kernel/src/chevents.c" 1
 118 0006 83F31188 		msr     BASEPRI, r3
 119              	@ 0 "" 2
 120              		.thumb
 121              		.syntax unified
 122              	.LBE6:
 123              		.loc 1 116 0
 124 000a 0246     		mov	r2, r0
 125              	.LVL2:
 126              	.L5:
 127              		.loc 1 118 0
 128 000c 1368     		ldr	r3, [r2]
 129 000e 9842     		cmp	r0, r3
 130 0010 06D0     		beq	.L6
 131              		.loc 1 119 0
 132 0012 9942     		cmp	r1, r3
 133 0014 02D1     		bne	.L8
 134              		.loc 1 120 0
 135 0016 0B68     		ldr	r3, [r1]
 136 0018 1360     		str	r3, [r2]
 137              		.loc 1 121 0
 138 001a 01E0     		b	.L6
 139              	.L8:
 140 001c 1A46     		mov	r2, r3
 141              	.LVL3:
 142 001e F5E7     		b	.L5
 143              	.LVL4:
 144              	.L6:
 145              	.LBB7:
 146              		.loc 1 125 0
 147 0020 0023     		movs	r3, #0
 148              		.syntax unified
 149              	@ 125 "chibios/os/kernel/src/chevents.c" 1
 150 0022 83F31188 		msr     BASEPRI, r3
 151              	@ 0 "" 2
 152              		.thumb
 153              		.syntax unified
 154 0026 80BD     		pop	{r7, pc}
 155              	.LBE7:
 156              		.cfi_endproc
 157              	.LFE8:
 158              		.size	chEvtUnregister, .-chEvtUnregister
 159              		.section	.text.chEvtGetAndClearEvents,"ax",%progbits
 160              		.align	1
 161              		.global	chEvtGetAndClearEvents
 162              		.thumb
 163              		.thumb_func
 164              		.type	chEvtGetAndClearEvents, %function
 165              	chEvtGetAndClearEvents:
 166              	.LFB9:
 167              		.loc 1 136 0
 168              		.cfi_startproc
 169              		@ args = 0, pretend = 0, frame = 0
 170              		@ frame_needed = 1, uses_anonymous_args = 0
 171              	.LVL5:
ARM GAS  /var/folders/_2/42wyrlld3p52fkcpt1lv6gxh0000gp/T//cczMbqGI.s 			page 4


 172 0000 80B5     		push	{r7, lr}
 173              	.LCFI4:
 174              		.cfi_def_cfa_offset 8
 175              		.cfi_offset 7, -8
 176              		.cfi_offset 14, -4
 177              	.LBB8:
 178              		.loc 1 139 0
 179 0002 2023     		movs	r3, #32
 180              	.LBE8:
 181              		.loc 1 136 0
 182 0004 00AF     		add	r7, sp, #0
 183              	.LCFI5:
 184              		.cfi_def_cfa_register 7
 185              	.LBB9:
 186              		.loc 1 139 0
 187              		.syntax unified
 188              	@ 139 "chibios/os/kernel/src/chevents.c" 1
 189 0006 83F31188 		msr     BASEPRI, r3
 190              	@ 0 "" 2
 191              		.thumb
 192              		.syntax unified
 193              	.LBE9:
 194              		.loc 1 141 0
 195 000a 054B     		ldr	r3, .L11
 196 000c 9B69     		ldr	r3, [r3, #24]
 197 000e 1A6B     		ldr	r2, [r3, #48]
 198              	.LVL6:
 199              		.loc 1 142 0
 200 0010 22EA0001 		bic	r1, r2, r0
 201 0014 1963     		str	r1, [r3, #48]
 202              	.LBB10:
 203              		.loc 1 144 0
 204 0016 0023     		movs	r3, #0
 205              		.syntax unified
 206              	@ 144 "chibios/os/kernel/src/chevents.c" 1
 207 0018 83F31188 		msr     BASEPRI, r3
 208              	@ 0 "" 2
 209              		.thumb
 210              		.syntax unified
 211              	.LBE10:
 212              		.loc 1 146 0
 213 001c 1040     		ands	r0, r0, r2
 214              	.LVL7:
 215 001e 80BD     		pop	{r7, pc}
 216              	.L12:
 217              		.align	2
 218              	.L11:
 219 0020 00000000 		.word	rlist
 220              		.cfi_endproc
 221              	.LFE9:
 222              		.size	chEvtGetAndClearEvents, .-chEvtGetAndClearEvents
 223              		.section	.text.chEvtAddEvents,"ax",%progbits
 224              		.align	1
 225              		.global	chEvtAddEvents
 226              		.thumb
 227              		.thumb_func
 228              		.type	chEvtAddEvents, %function
ARM GAS  /var/folders/_2/42wyrlld3p52fkcpt1lv6gxh0000gp/T//cczMbqGI.s 			page 5


 229              	chEvtAddEvents:
 230              	.LFB10:
 231              		.loc 1 157 0
 232              		.cfi_startproc
 233              		@ args = 0, pretend = 0, frame = 0
 234              		@ frame_needed = 1, uses_anonymous_args = 0
 235              	.LVL8:
 236 0000 80B5     		push	{r7, lr}
 237              	.LCFI6:
 238              		.cfi_def_cfa_offset 8
 239              		.cfi_offset 7, -8
 240              		.cfi_offset 14, -4
 241              	.LBB11:
 242              		.loc 1 159 0
 243 0002 2023     		movs	r3, #32
 244              	.LBE11:
 245              		.loc 1 157 0
 246 0004 00AF     		add	r7, sp, #0
 247              	.LCFI7:
 248              		.cfi_def_cfa_register 7
 249              	.LBB12:
 250              		.loc 1 159 0
 251              		.syntax unified
 252              	@ 159 "chibios/os/kernel/src/chevents.c" 1
 253 0006 83F31188 		msr     BASEPRI, r3
 254              	@ 0 "" 2
 255              		.thumb
 256              		.syntax unified
 257              	.LBE12:
 258              		.loc 1 161 0
 259 000a 044B     		ldr	r3, .L14
 260 000c 9A69     		ldr	r2, [r3, #24]
 261 000e 136B     		ldr	r3, [r2, #48]
 262 0010 1843     		orrs	r0, r0, r3
 263              	.LVL9:
 264 0012 1063     		str	r0, [r2, #48]
 265              	.LVL10:
 266              	.LBB13:
 267              		.loc 1 163 0
 268 0014 0023     		movs	r3, #0
 269              		.syntax unified
 270              	@ 163 "chibios/os/kernel/src/chevents.c" 1
 271 0016 83F31188 		msr     BASEPRI, r3
 272              	@ 0 "" 2
 273              		.thumb
 274              		.syntax unified
 275              	.LBE13:
 276              		.loc 1 165 0
 277 001a 80BD     		pop	{r7, pc}
 278              	.L15:
 279              		.align	2
 280              	.L14:
 281 001c 00000000 		.word	rlist
 282              		.cfi_endproc
 283              	.LFE10:
 284              		.size	chEvtAddEvents, .-chEvtAddEvents
 285              		.section	.text.chEvtGetAndClearFlags,"ax",%progbits
ARM GAS  /var/folders/_2/42wyrlld3p52fkcpt1lv6gxh0000gp/T//cczMbqGI.s 			page 6


 286              		.align	1
 287              		.global	chEvtGetAndClearFlags
 288              		.thumb
 289              		.thumb_func
 290              		.type	chEvtGetAndClearFlags, %function
 291              	chEvtGetAndClearFlags:
 292              	.LFB12:
 293              		.loc 1 209 0
 294              		.cfi_startproc
 295              		@ args = 0, pretend = 0, frame = 0
 296              		@ frame_needed = 1, uses_anonymous_args = 0
 297              	.LVL11:
 298 0000 80B5     		push	{r7, lr}
 299              	.LCFI8:
 300              		.cfi_def_cfa_offset 8
 301              		.cfi_offset 7, -8
 302              		.cfi_offset 14, -4
 303 0002 0246     		mov	r2, r0
 304 0004 00AF     		add	r7, sp, #0
 305              	.LCFI9:
 306              		.cfi_def_cfa_register 7
 307              	.LBB14:
 308              		.loc 1 212 0
 309 0006 2023     		movs	r3, #32
 310              		.syntax unified
 311              	@ 212 "chibios/os/kernel/src/chevents.c" 1
 312 0008 83F31188 		msr     BASEPRI, r3
 313              	@ 0 "" 2
 314              		.thumb
 315              		.syntax unified
 316              	.LBE14:
 317              		.loc 1 215 0
 318 000c 0023     		movs	r3, #0
 319              		.loc 1 214 0
 320 000e C068     		ldr	r0, [r0, #12]
 321              	.LVL12:
 322              		.loc 1 215 0
 323 0010 D360     		str	r3, [r2, #12]
 324              	.LBB15:
 325              		.loc 1 217 0
 326              		.syntax unified
 327              	@ 217 "chibios/os/kernel/src/chevents.c" 1
 328 0012 83F31188 		msr     BASEPRI, r3
 329              	@ 0 "" 2
 330              		.thumb
 331              		.syntax unified
 332              	.LBE15:
 333              		.loc 1 219 0
 334 0016 80BD     		pop	{r7, pc}
 335              		.cfi_endproc
 336              	.LFE12:
 337              		.size	chEvtGetAndClearFlags, .-chEvtGetAndClearFlags
 338              		.section	.text.chEvtSignalI,"ax",%progbits
 339              		.align	1
 340              		.global	chEvtSignalI
 341              		.thumb
 342              		.thumb_func
ARM GAS  /var/folders/_2/42wyrlld3p52fkcpt1lv6gxh0000gp/T//cczMbqGI.s 			page 7


 343              		.type	chEvtSignalI, %function
 344              	chEvtSignalI:
 345              	.LFB14:
 346              		.loc 1 251 0
 347              		.cfi_startproc
 348              		@ args = 0, pretend = 0, frame = 0
 349              		@ frame_needed = 1, uses_anonymous_args = 0
 350              	.LVL13:
 351 0000 80B5     		push	{r7, lr}
 352              	.LCFI10:
 353              		.cfi_def_cfa_offset 8
 354              		.cfi_offset 7, -8
 355              		.cfi_offset 14, -4
 356              		.loc 1 256 0
 357 0002 036B     		ldr	r3, [r0, #48]
 358              		.loc 1 251 0
 359 0004 00AF     		add	r7, sp, #0
 360              	.LCFI11:
 361              		.cfi_def_cfa_register 7
 362              		.loc 1 256 0
 363 0006 1943     		orrs	r1, r1, r3
 364              	.LVL14:
 365              		.loc 1 258 0
 366 0008 90F82030 		ldrb	r3, [r0, #32]	@ zero_extendqisi2
 367              		.loc 1 256 0
 368 000c 0163     		str	r1, [r0, #48]
 369              		.loc 1 258 0
 370 000e 082B     		cmp	r3, #8
 371 0010 03D1     		bne	.L18
 372              		.loc 1 258 0 is_stmt 0 discriminator 1
 373 0012 836A     		ldr	r3, [r0, #40]
 374 0014 1942     		tst	r1, r3
 375 0016 05D1     		bne	.L19
 376 0018 80BD     		pop	{r7, pc}
 377              	.L18:
 378              		.loc 1 259 0 is_stmt 1
 379 001a 092B     		cmp	r3, #9
 380 001c 06D1     		bne	.L17
 381              		.loc 1 261 0
 382 001e 836A     		ldr	r3, [r0, #40]
 383              		.loc 1 260 0
 384 0020 8B43     		bics	r3, r3, r1
 385 0022 03D1     		bne	.L17
 386              	.L19:
 387              	.LVL15:
 388              	.LBB18:
 389              	.LBB19:
 390              		.loc 1 262 0
 391 0024 FFF7FEFF 		bl	chSchReadyI
 392              	.LVL16:
 393 0028 0023     		movs	r3, #0
 394 002a 8362     		str	r3, [r0, #40]
 395              	.LVL17:
 396              	.L17:
 397 002c 80BD     		pop	{r7, pc}
 398              	.LBE19:
 399              	.LBE18:
ARM GAS  /var/folders/_2/42wyrlld3p52fkcpt1lv6gxh0000gp/T//cczMbqGI.s 			page 8


 400              		.cfi_endproc
 401              	.LFE14:
 402              		.size	chEvtSignalI, .-chEvtSignalI
 403              		.section	.text.chEvtBroadcastFlagsI,"ax",%progbits
 404              		.align	1
 405              		.global	chEvtBroadcastFlagsI
 406              		.thumb
 407              		.thumb_func
 408              		.type	chEvtBroadcastFlagsI, %function
 409              	chEvtBroadcastFlagsI:
 410              	.LFB11:
 411              		.loc 1 184 0
 412              		.cfi_startproc
 413              		@ args = 0, pretend = 0, frame = 0
 414              		@ frame_needed = 1, uses_anonymous_args = 0
 415              	.LVL18:
 416 0000 F8B5     		push	{r3, r4, r5, r6, r7, lr}
 417              	.LCFI12:
 418              		.cfi_def_cfa_offset 24
 419              		.cfi_offset 3, -24
 420              		.cfi_offset 4, -20
 421              		.cfi_offset 5, -16
 422              		.cfi_offset 6, -12
 423              		.cfi_offset 7, -8
 424              		.cfi_offset 14, -4
 425 0002 0546     		mov	r5, r0
 426 0004 0E46     		mov	r6, r1
 427              		.loc 1 190 0
 428 0006 0468     		ldr	r4, [r0]
 429              	.LVL19:
 430              		.loc 1 184 0
 431 0008 00AF     		add	r7, sp, #0
 432              	.LCFI13:
 433              		.cfi_def_cfa_register 7
 434              	.LVL20:
 435              	.L22:
 436              		.loc 1 191 0
 437 000a AC42     		cmp	r4, r5
 438 000c 08D0     		beq	.L24
 439              		.loc 1 192 0
 440 000e E368     		ldr	r3, [r4, #12]
 441              		.loc 1 193 0
 442 0010 A168     		ldr	r1, [r4, #8]
 443              		.loc 1 192 0
 444 0012 3343     		orrs	r3, r3, r6
 445 0014 E360     		str	r3, [r4, #12]
 446              		.loc 1 193 0
 447 0016 6068     		ldr	r0, [r4, #4]
 448 0018 FFF7FEFF 		bl	chEvtSignalI
 449              	.LVL21:
 450              		.loc 1 194 0
 451 001c 2468     		ldr	r4, [r4]
 452              	.LVL22:
 453 001e F4E7     		b	.L22
 454              	.L24:
 455              		.loc 1 196 0
 456 0020 F8BD     		pop	{r3, r4, r5, r6, r7, pc}
ARM GAS  /var/folders/_2/42wyrlld3p52fkcpt1lv6gxh0000gp/T//cczMbqGI.s 			page 9


 457              		.cfi_endproc
 458              	.LFE11:
 459              		.size	chEvtBroadcastFlagsI, .-chEvtBroadcastFlagsI
 460              		.section	.text.chEvtSignal,"ax",%progbits
 461              		.align	1
 462              		.global	chEvtSignal
 463              		.thumb
 464              		.thumb_func
 465              		.type	chEvtSignal, %function
 466              	chEvtSignal:
 467              	.LFB13:
 468              		.loc 1 229 0
 469              		.cfi_startproc
 470              		@ args = 0, pretend = 0, frame = 0
 471              		@ frame_needed = 1, uses_anonymous_args = 0
 472              	.LVL23:
 473 0000 80B5     		push	{r7, lr}
 474              	.LCFI14:
 475              		.cfi_def_cfa_offset 8
 476              		.cfi_offset 7, -8
 477              		.cfi_offset 14, -4
 478              	.LBB20:
 479              		.loc 1 233 0
 480 0002 2023     		movs	r3, #32
 481              	.LBE20:
 482              		.loc 1 229 0
 483 0004 00AF     		add	r7, sp, #0
 484              	.LCFI15:
 485              		.cfi_def_cfa_register 7
 486              	.LBB21:
 487              		.loc 1 233 0
 488              		.syntax unified
 489              	@ 233 "chibios/os/kernel/src/chevents.c" 1
 490 0006 83F31188 		msr     BASEPRI, r3
 491              	@ 0 "" 2
 492              		.thumb
 493              		.syntax unified
 494              	.LBE21:
 495              		.loc 1 234 0
 496 000a FFF7FEFF 		bl	chEvtSignalI
 497              	.LVL24:
 498              		.loc 1 235 0
 499 000e FFF7FEFF 		bl	chSchRescheduleS
 500              	.LVL25:
 501              	.LBB22:
 502              		.loc 1 236 0
 503 0012 0023     		movs	r3, #0
 504              		.syntax unified
 505              	@ 236 "chibios/os/kernel/src/chevents.c" 1
 506 0014 83F31188 		msr     BASEPRI, r3
 507              	@ 0 "" 2
 508              		.thumb
 509              		.syntax unified
 510 0018 80BD     		pop	{r7, pc}
 511              	.LBE22:
 512              		.cfi_endproc
 513              	.LFE13:
ARM GAS  /var/folders/_2/42wyrlld3p52fkcpt1lv6gxh0000gp/T//cczMbqGI.s 			page 10


 514              		.size	chEvtSignal, .-chEvtSignal
 515              		.section	.text.chEvtBroadcastFlags,"ax",%progbits
 516              		.align	1
 517              		.global	chEvtBroadcastFlags
 518              		.thumb
 519              		.thumb_func
 520              		.type	chEvtBroadcastFlags, %function
 521              	chEvtBroadcastFlags:
 522              	.LFB15:
 523              		.loc 1 278 0
 524              		.cfi_startproc
 525              		@ args = 0, pretend = 0, frame = 0
 526              		@ frame_needed = 1, uses_anonymous_args = 0
 527              	.LVL26:
 528 0000 80B5     		push	{r7, lr}
 529              	.LCFI16:
 530              		.cfi_def_cfa_offset 8
 531              		.cfi_offset 7, -8
 532              		.cfi_offset 14, -4
 533              	.LBB23:
 534              		.loc 1 280 0
 535 0002 2023     		movs	r3, #32
 536              	.LBE23:
 537              		.loc 1 278 0
 538 0004 00AF     		add	r7, sp, #0
 539              	.LCFI17:
 540              		.cfi_def_cfa_register 7
 541              	.LBB24:
 542              		.loc 1 280 0
 543              		.syntax unified
 544              	@ 280 "chibios/os/kernel/src/chevents.c" 1
 545 0006 83F31188 		msr     BASEPRI, r3
 546              	@ 0 "" 2
 547              		.thumb
 548              		.syntax unified
 549              	.LBE24:
 550              		.loc 1 281 0
 551 000a FFF7FEFF 		bl	chEvtBroadcastFlagsI
 552              	.LVL27:
 553              		.loc 1 282 0
 554 000e FFF7FEFF 		bl	chSchRescheduleS
 555              	.LVL28:
 556              	.LBB25:
 557              		.loc 1 283 0
 558 0012 0023     		movs	r3, #0
 559              		.syntax unified
 560              	@ 283 "chibios/os/kernel/src/chevents.c" 1
 561 0014 83F31188 		msr     BASEPRI, r3
 562              	@ 0 "" 2
 563              		.thumb
 564              		.syntax unified
 565 0018 80BD     		pop	{r7, pc}
 566              	.LBE25:
 567              		.cfi_endproc
 568              	.LFE15:
 569              		.size	chEvtBroadcastFlags, .-chEvtBroadcastFlags
 570              		.section	.text.chEvtGetAndClearFlagsI,"ax",%progbits
ARM GAS  /var/folders/_2/42wyrlld3p52fkcpt1lv6gxh0000gp/T//cczMbqGI.s 			page 11


 571              		.align	1
 572              		.global	chEvtGetAndClearFlagsI
 573              		.thumb
 574              		.thumb_func
 575              		.type	chEvtGetAndClearFlagsI, %function
 576              	chEvtGetAndClearFlagsI:
 577              	.LFB16:
 578              		.loc 1 297 0
 579              		.cfi_startproc
 580              		@ args = 0, pretend = 0, frame = 0
 581              		@ frame_needed = 1, uses_anonymous_args = 0
 582              	.LVL29:
 583 0000 0346     		mov	r3, r0
 584 0002 80B5     		push	{r7, lr}
 585              	.LCFI18:
 586              		.cfi_def_cfa_offset 8
 587              		.cfi_offset 7, -8
 588              		.cfi_offset 14, -4
 589              		.loc 1 301 0
 590 0004 0022     		movs	r2, #0
 591              		.loc 1 300 0
 592 0006 C068     		ldr	r0, [r0, #12]
 593              	.LVL30:
 594              		.loc 1 297 0
 595 0008 00AF     		add	r7, sp, #0
 596              	.LCFI19:
 597              		.cfi_def_cfa_register 7
 598              		.loc 1 301 0
 599 000a DA60     		str	r2, [r3, #12]
 600              		.loc 1 304 0
 601 000c 80BD     		pop	{r7, pc}
 602              		.cfi_endproc
 603              	.LFE16:
 604              		.size	chEvtGetAndClearFlagsI, .-chEvtGetAndClearFlagsI
 605              		.section	.text.chEvtDispatch,"ax",%progbits
 606              		.align	1
 607              		.global	chEvtDispatch
 608              		.thumb
 609              		.thumb_func
 610              		.type	chEvtDispatch, %function
 611              	chEvtDispatch:
 612              	.LFB17:
 613              		.loc 1 315 0
 614              		.cfi_startproc
 615              		@ args = 0, pretend = 0, frame = 0
 616              		@ frame_needed = 1, uses_anonymous_args = 0
 617              	.LVL31:
 618 0000 2DE9F041 		push	{r4, r5, r6, r7, r8, lr}
 619              	.LCFI20:
 620              		.cfi_def_cfa_offset 24
 621              		.cfi_offset 4, -24
 622              		.cfi_offset 5, -20
 623              		.cfi_offset 6, -16
 624              		.cfi_offset 7, -12
 625              		.cfi_offset 8, -8
 626              		.cfi_offset 14, -4
 627 0004 0646     		mov	r6, r0
ARM GAS  /var/folders/_2/42wyrlld3p52fkcpt1lv6gxh0000gp/T//cczMbqGI.s 			page 12


 628 0006 0D46     		mov	r5, r1
 629 0008 00AF     		add	r7, sp, #0
 630              	.LCFI21:
 631              		.cfi_def_cfa_register 7
 632              		.loc 1 320 0
 633 000a 0024     		movs	r4, #0
 634              		.loc 1 322 0
 635 000c 4FF00108 		mov	r8, #1
 636              	.LVL32:
 637              	.L29:
 638              		.loc 1 321 0
 639 0010 5DB1     		cbz	r5, .L35
 640              		.loc 1 322 0
 641 0012 08FA04F3 		lsl	r3, r8, r4
 642 0016 1D42     		tst	r5, r3
 643 0018 05D0     		beq	.L30
 644              		.loc 1 326 0
 645 001a 25EA0305 		bic	r5, r5, r3
 646              	.LVL33:
 647              		.loc 1 327 0
 648 001e 2046     		mov	r0, r4
 649 0020 56F82430 		ldr	r3, [r6, r4, lsl #2]
 650 0024 9847     		blx	r3
 651              	.LVL34:
 652              	.L30:
 653              		.loc 1 329 0
 654 0026 0134     		adds	r4, r4, #1
 655              	.LVL35:
 656 0028 F2E7     		b	.L29
 657              	.L35:
 658              		.loc 1 331 0
 659 002a BDE8F081 		pop	{r4, r5, r6, r7, r8, pc}
 660              		.cfi_endproc
 661              	.LFE17:
 662              		.size	chEvtDispatch, .-chEvtDispatch
 663              		.section	.text.chEvtWaitOne,"ax",%progbits
 664              		.align	1
 665              		.global	chEvtWaitOne
 666              		.thumb
 667              		.thumb_func
 668              		.type	chEvtWaitOne, %function
 669              	chEvtWaitOne:
 670              	.LFB18:
 671              		.loc 1 350 0
 672              		.cfi_startproc
 673              		@ args = 0, pretend = 0, frame = 0
 674              		@ frame_needed = 1, uses_anonymous_args = 0
 675              	.LVL36:
 676 0000 B0B5     		push	{r4, r5, r7, lr}
 677              	.LCFI22:
 678              		.cfi_def_cfa_offset 16
 679              		.cfi_offset 4, -16
 680              		.cfi_offset 5, -12
 681              		.cfi_offset 7, -8
 682              		.cfi_offset 14, -4
 683              		.loc 1 351 0
 684 0002 0D4B     		ldr	r3, .L38
ARM GAS  /var/folders/_2/42wyrlld3p52fkcpt1lv6gxh0000gp/T//cczMbqGI.s 			page 13


 685              		.loc 1 350 0
 686 0004 00AF     		add	r7, sp, #0
 687              	.LCFI23:
 688              		.cfi_def_cfa_register 7
 689              		.loc 1 351 0
 690 0006 9C69     		ldr	r4, [r3, #24]
 691              	.LVL37:
 692              		.loc 1 350 0
 693 0008 0546     		mov	r5, r0
 694              	.LBB26:
 695              		.loc 1 354 0
 696 000a 2023     		movs	r3, #32
 697              		.syntax unified
 698              	@ 354 "chibios/os/kernel/src/chevents.c" 1
 699 000c 83F31188 		msr     BASEPRI, r3
 700              	@ 0 "" 2
 701              		.thumb
 702              		.syntax unified
 703              	.LBE26:
 704              		.loc 1 356 0
 705 0010 236B     		ldr	r3, [r4, #48]
 706              	.LVL38:
 707 0012 0340     		ands	r3, r0, r3
 708              	.LVL39:
 709 0014 05D1     		bne	.L37
 710              		.loc 1 357 0
 711 0016 A062     		str	r0, [r4, #40]
 712              		.loc 1 358 0
 713 0018 0820     		movs	r0, #8
 714              	.LVL40:
 715 001a FFF7FEFF 		bl	chSchGoSleepS
 716              	.LVL41:
 717              		.loc 1 359 0
 718 001e 236B     		ldr	r3, [r4, #48]
 719 0020 2B40     		ands	r3, r3, r5
 720              	.LVL42:
 721              	.L37:
 722              		.loc 1 361 0
 723 0022 5842     		negs	r0, r3
 724 0024 1840     		ands	r0, r0, r3
 725              	.LVL43:
 726              		.loc 1 362 0
 727 0026 236B     		ldr	r3, [r4, #48]
 728 0028 23EA0003 		bic	r3, r3, r0
 729 002c 2363     		str	r3, [r4, #48]
 730              	.LBB27:
 731              		.loc 1 364 0
 732 002e 0023     		movs	r3, #0
 733              		.syntax unified
 734              	@ 364 "chibios/os/kernel/src/chevents.c" 1
 735 0030 83F31188 		msr     BASEPRI, r3
 736              	@ 0 "" 2
 737              		.thumb
 738              		.syntax unified
 739              	.LBE27:
 740              		.loc 1 366 0
 741 0034 B0BD     		pop	{r4, r5, r7, pc}
ARM GAS  /var/folders/_2/42wyrlld3p52fkcpt1lv6gxh0000gp/T//cczMbqGI.s 			page 14


 742              	.LVL44:
 743              	.L39:
 744 0036 00BF     		.align	2
 745              	.L38:
 746 0038 00000000 		.word	rlist
 747              		.cfi_endproc
 748              	.LFE18:
 749              		.size	chEvtWaitOne, .-chEvtWaitOne
 750              		.section	.text.chEvtWaitAny,"ax",%progbits
 751              		.align	1
 752              		.global	chEvtWaitAny
 753              		.thumb
 754              		.thumb_func
 755              		.type	chEvtWaitAny, %function
 756              	chEvtWaitAny:
 757              	.LFB19:
 758              		.loc 1 379 0
 759              		.cfi_startproc
 760              		@ args = 0, pretend = 0, frame = 0
 761              		@ frame_needed = 1, uses_anonymous_args = 0
 762              	.LVL45:
 763 0000 B0B5     		push	{r4, r5, r7, lr}
 764              	.LCFI24:
 765              		.cfi_def_cfa_offset 16
 766              		.cfi_offset 4, -16
 767              		.cfi_offset 5, -12
 768              		.cfi_offset 7, -8
 769              		.cfi_offset 14, -4
 770              		.loc 1 380 0
 771 0002 0C4B     		ldr	r3, .L42
 772              		.loc 1 379 0
 773 0004 00AF     		add	r7, sp, #0
 774              	.LCFI25:
 775              		.cfi_def_cfa_register 7
 776              		.loc 1 380 0
 777 0006 9C69     		ldr	r4, [r3, #24]
 778              	.LVL46:
 779              		.loc 1 379 0
 780 0008 0546     		mov	r5, r0
 781              	.LBB28:
 782              		.loc 1 383 0
 783 000a 2023     		movs	r3, #32
 784              		.syntax unified
 785              	@ 383 "chibios/os/kernel/src/chevents.c" 1
 786 000c 83F31188 		msr     BASEPRI, r3
 787              	@ 0 "" 2
 788              		.thumb
 789              		.syntax unified
 790              	.LBE28:
 791              		.loc 1 385 0
 792 0010 206B     		ldr	r0, [r4, #48]
 793              	.LVL47:
 794 0012 2840     		ands	r0, r5, r0
 795              	.LVL48:
 796 0014 05D1     		bne	.L41
 797              		.loc 1 387 0
 798 0016 0820     		movs	r0, #8
ARM GAS  /var/folders/_2/42wyrlld3p52fkcpt1lv6gxh0000gp/T//cczMbqGI.s 			page 15


 799              	.LVL49:
 800              		.loc 1 386 0
 801 0018 A562     		str	r5, [r4, #40]
 802              		.loc 1 387 0
 803 001a FFF7FEFF 		bl	chSchGoSleepS
 804              	.LVL50:
 805              		.loc 1 388 0
 806 001e 206B     		ldr	r0, [r4, #48]
 807 0020 2840     		ands	r0, r0, r5
 808              	.LVL51:
 809              	.L41:
 810              		.loc 1 390 0
 811 0022 236B     		ldr	r3, [r4, #48]
 812 0024 23EA0003 		bic	r3, r3, r0
 813 0028 2363     		str	r3, [r4, #48]
 814              	.LBB29:
 815              		.loc 1 392 0
 816 002a 0023     		movs	r3, #0
 817              		.syntax unified
 818              	@ 392 "chibios/os/kernel/src/chevents.c" 1
 819 002c 83F31188 		msr     BASEPRI, r3
 820              	@ 0 "" 2
 821              		.thumb
 822              		.syntax unified
 823              	.LBE29:
 824              		.loc 1 394 0
 825 0030 B0BD     		pop	{r4, r5, r7, pc}
 826              	.LVL52:
 827              	.L43:
 828 0032 00BF     		.align	2
 829              	.L42:
 830 0034 00000000 		.word	rlist
 831              		.cfi_endproc
 832              	.LFE19:
 833              		.size	chEvtWaitAny, .-chEvtWaitAny
 834              		.section	.text.chEvtWaitAll,"ax",%progbits
 835              		.align	1
 836              		.global	chEvtWaitAll
 837              		.thumb
 838              		.thumb_func
 839              		.type	chEvtWaitAll, %function
 840              	chEvtWaitAll:
 841              	.LFB20:
 842              		.loc 1 407 0
 843              		.cfi_startproc
 844              		@ args = 0, pretend = 0, frame = 0
 845              		@ frame_needed = 1, uses_anonymous_args = 0
 846              	.LVL53:
 847 0000 B0B5     		push	{r4, r5, r7, lr}
 848              	.LCFI26:
 849              		.cfi_def_cfa_offset 16
 850              		.cfi_offset 4, -16
 851              		.cfi_offset 5, -12
 852              		.cfi_offset 7, -8
 853              		.cfi_offset 14, -4
 854              		.loc 1 408 0
 855 0002 0C4B     		ldr	r3, .L46
ARM GAS  /var/folders/_2/42wyrlld3p52fkcpt1lv6gxh0000gp/T//cczMbqGI.s 			page 16


 856              		.loc 1 407 0
 857 0004 00AF     		add	r7, sp, #0
 858              	.LCFI27:
 859              		.cfi_def_cfa_register 7
 860              		.loc 1 408 0
 861 0006 9D69     		ldr	r5, [r3, #24]
 862              	.LVL54:
 863              		.loc 1 407 0
 864 0008 0446     		mov	r4, r0
 865              	.LBB30:
 866              		.loc 1 410 0
 867 000a 2023     		movs	r3, #32
 868              		.syntax unified
 869              	@ 410 "chibios/os/kernel/src/chevents.c" 1
 870 000c 83F31188 		msr     BASEPRI, r3
 871              	@ 0 "" 2
 872              		.thumb
 873              		.syntax unified
 874              	.LBE30:
 875              		.loc 1 412 0
 876 0010 2B6B     		ldr	r3, [r5, #48]
 877 0012 30EA0303 		bics	r3, r0, r3
 878 0016 03D0     		beq	.L45
 879              		.loc 1 413 0
 880 0018 A862     		str	r0, [r5, #40]
 881              		.loc 1 414 0
 882 001a 0920     		movs	r0, #9
 883              	.LVL55:
 884 001c FFF7FEFF 		bl	chSchGoSleepS
 885              	.LVL56:
 886              	.L45:
 887              		.loc 1 416 0
 888 0020 2B6B     		ldr	r3, [r5, #48]
 889 0022 23EA0403 		bic	r3, r3, r4
 890 0026 2B63     		str	r3, [r5, #48]
 891              	.LBB31:
 892              		.loc 1 418 0
 893 0028 0023     		movs	r3, #0
 894              		.syntax unified
 895              	@ 418 "chibios/os/kernel/src/chevents.c" 1
 896 002a 83F31188 		msr     BASEPRI, r3
 897              	@ 0 "" 2
 898              		.thumb
 899              		.syntax unified
 900              	.LBE31:
 901              		.loc 1 420 0
 902 002e 2046     		mov	r0, r4
 903 0030 B0BD     		pop	{r4, r5, r7, pc}
 904              	.LVL57:
 905              	.L47:
 906 0032 00BF     		.align	2
 907              	.L46:
 908 0034 00000000 		.word	rlist
 909              		.cfi_endproc
 910              	.LFE20:
 911              		.size	chEvtWaitAll, .-chEvtWaitAll
 912              		.section	.text.chEvtWaitOneTimeout,"ax",%progbits
ARM GAS  /var/folders/_2/42wyrlld3p52fkcpt1lv6gxh0000gp/T//cczMbqGI.s 			page 17


 913              		.align	1
 914              		.global	chEvtWaitOneTimeout
 915              		.thumb
 916              		.thumb_func
 917              		.type	chEvtWaitOneTimeout, %function
 918              	chEvtWaitOneTimeout:
 919              	.LFB21:
 920              		.loc 1 446 0
 921              		.cfi_startproc
 922              		@ args = 0, pretend = 0, frame = 0
 923              		@ frame_needed = 1, uses_anonymous_args = 0
 924              	.LVL58:
 925 0000 F8B5     		push	{r3, r4, r5, r6, r7, lr}
 926              	.LCFI28:
 927              		.cfi_def_cfa_offset 24
 928              		.cfi_offset 3, -24
 929              		.cfi_offset 4, -20
 930              		.cfi_offset 5, -16
 931              		.cfi_offset 6, -12
 932              		.cfi_offset 7, -8
 933              		.cfi_offset 14, -4
 934              		.loc 1 447 0
 935 0002 124B     		ldr	r3, .L54
 936              		.loc 1 446 0
 937 0004 00AF     		add	r7, sp, #0
 938              	.LCFI29:
 939              		.cfi_def_cfa_register 7
 940              		.loc 1 447 0
 941 0006 9D69     		ldr	r5, [r3, #24]
 942              	.LVL59:
 943              		.loc 1 446 0
 944 0008 0646     		mov	r6, r0
 945              	.LBB32:
 946              		.loc 1 450 0
 947 000a 2023     		movs	r3, #32
 948              		.syntax unified
 949              	@ 450 "chibios/os/kernel/src/chevents.c" 1
 950 000c 83F31188 		msr     BASEPRI, r3
 951              	@ 0 "" 2
 952              		.thumb
 953              		.syntax unified
 954              	.LBE32:
 955              		.loc 1 452 0
 956 0010 2C6B     		ldr	r4, [r5, #48]
 957              	.LVL60:
 958 0012 0440     		ands	r4, r0, r4
 959              	.LVL61:
 960 0014 0ED1     		bne	.L49
 961              		.loc 1 453 0
 962 0016 09B9     		cbnz	r1, .L50
 963              	.LBB33:
 964              		.loc 1 454 0
 965 0018 0B46     		mov	r3, r1
 966 001a 06E0     		b	.L53
 967              	.L50:
 968              	.LBE33:
 969              		.loc 1 457 0
ARM GAS  /var/folders/_2/42wyrlld3p52fkcpt1lv6gxh0000gp/T//cczMbqGI.s 			page 18


 970 001c A862     		str	r0, [r5, #40]
 971              		.loc 1 458 0
 972 001e 0820     		movs	r0, #8
 973              	.LVL62:
 974 0020 FFF7FEFF 		bl	chSchGoSleepTimeoutS
 975              	.LVL63:
 976 0024 0028     		cmp	r0, #0
 977 0026 03DA     		bge	.L52
 978              	.LBB34:
 979              		.loc 1 459 0
 980 0028 2346     		mov	r3, r4
 981              	.L53:
 982              		.syntax unified
 983              	@ 459 "chibios/os/kernel/src/chevents.c" 1
 984 002a 83F31188 		msr     BASEPRI, r3
 985              	@ 0 "" 2
 986              		.thumb
 987              		.syntax unified
 988              	.LBE34:
 989              		.loc 1 460 0
 990 002e 0BE0     		b	.L51
 991              	.L52:
 992              		.loc 1 462 0
 993 0030 2C6B     		ldr	r4, [r5, #48]
 994              	.LVL64:
 995 0032 3440     		ands	r4, r4, r6
 996              	.LVL65:
 997              	.L49:
 998              		.loc 1 464 0
 999 0034 6342     		negs	r3, r4
 1000 0036 1C40     		ands	r4, r4, r3
 1001              	.LVL66:
 1002              		.loc 1 465 0
 1003 0038 2B6B     		ldr	r3, [r5, #48]
 1004 003a 23EA0403 		bic	r3, r3, r4
 1005 003e 2B63     		str	r3, [r5, #48]
 1006              	.LBB35:
 1007              		.loc 1 467 0
 1008 0040 0023     		movs	r3, #0
 1009              		.syntax unified
 1010              	@ 467 "chibios/os/kernel/src/chevents.c" 1
 1011 0042 83F31188 		msr     BASEPRI, r3
 1012              	@ 0 "" 2
 1013              		.thumb
 1014              		.syntax unified
 1015              	.LBE35:
 1016              		.loc 1 468 0
 1017 0046 2346     		mov	r3, r4
 1018              	.L51:
 1019              		.loc 1 469 0
 1020 0048 1846     		mov	r0, r3
 1021 004a F8BD     		pop	{r3, r4, r5, r6, r7, pc}
 1022              	.LVL67:
 1023              	.L55:
 1024              		.align	2
 1025              	.L54:
 1026 004c 00000000 		.word	rlist
ARM GAS  /var/folders/_2/42wyrlld3p52fkcpt1lv6gxh0000gp/T//cczMbqGI.s 			page 19


 1027              		.cfi_endproc
 1028              	.LFE21:
 1029              		.size	chEvtWaitOneTimeout, .-chEvtWaitOneTimeout
 1030              		.section	.text.chEvtWaitAnyTimeout,"ax",%progbits
 1031              		.align	1
 1032              		.global	chEvtWaitAnyTimeout
 1033              		.thumb
 1034              		.thumb_func
 1035              		.type	chEvtWaitAnyTimeout, %function
 1036              	chEvtWaitAnyTimeout:
 1037              	.LFB22:
 1038              		.loc 1 489 0
 1039              		.cfi_startproc
 1040              		@ args = 0, pretend = 0, frame = 0
 1041              		@ frame_needed = 1, uses_anonymous_args = 0
 1042              	.LVL68:
 1043 0000 F8B5     		push	{r3, r4, r5, r6, r7, lr}
 1044              	.LCFI30:
 1045              		.cfi_def_cfa_offset 24
 1046              		.cfi_offset 3, -24
 1047              		.cfi_offset 4, -20
 1048              		.cfi_offset 5, -16
 1049              		.cfi_offset 6, -12
 1050              		.cfi_offset 7, -8
 1051              		.cfi_offset 14, -4
 1052              		.loc 1 490 0
 1053 0002 114B     		ldr	r3, .L62
 1054              		.loc 1 489 0
 1055 0004 00AF     		add	r7, sp, #0
 1056              	.LCFI31:
 1057              		.cfi_def_cfa_register 7
 1058              		.loc 1 490 0
 1059 0006 9D69     		ldr	r5, [r3, #24]
 1060              	.LVL69:
 1061              		.loc 1 489 0
 1062 0008 0646     		mov	r6, r0
 1063              	.LBB36:
 1064              		.loc 1 493 0
 1065 000a 2023     		movs	r3, #32
 1066              		.syntax unified
 1067              	@ 493 "chibios/os/kernel/src/chevents.c" 1
 1068 000c 83F31188 		msr     BASEPRI, r3
 1069              	@ 0 "" 2
 1070              		.thumb
 1071              		.syntax unified
 1072              	.LBE36:
 1073              		.loc 1 495 0
 1074 0010 2C6B     		ldr	r4, [r5, #48]
 1075              	.LVL70:
 1076 0012 0440     		ands	r4, r0, r4
 1077              	.LVL71:
 1078 0014 0ED1     		bne	.L57
 1079              		.loc 1 496 0
 1080 0016 09B9     		cbnz	r1, .L58
 1081              	.LBB37:
 1082              		.loc 1 497 0
 1083 0018 0B46     		mov	r3, r1
ARM GAS  /var/folders/_2/42wyrlld3p52fkcpt1lv6gxh0000gp/T//cczMbqGI.s 			page 20


 1084 001a 06E0     		b	.L61
 1085              	.L58:
 1086              	.LBE37:
 1087              		.loc 1 500 0
 1088 001c A862     		str	r0, [r5, #40]
 1089              		.loc 1 501 0
 1090 001e 0820     		movs	r0, #8
 1091              	.LVL72:
 1092 0020 FFF7FEFF 		bl	chSchGoSleepTimeoutS
 1093              	.LVL73:
 1094 0024 0028     		cmp	r0, #0
 1095 0026 03DA     		bge	.L60
 1096              	.LBB38:
 1097              		.loc 1 502 0
 1098 0028 2346     		mov	r3, r4
 1099              	.L61:
 1100              		.syntax unified
 1101              	@ 502 "chibios/os/kernel/src/chevents.c" 1
 1102 002a 83F31188 		msr     BASEPRI, r3
 1103              	@ 0 "" 2
 1104              		.thumb
 1105              		.syntax unified
 1106              	.LBE38:
 1107              		.loc 1 503 0
 1108 002e 09E0     		b	.L59
 1109              	.L60:
 1110              		.loc 1 505 0
 1111 0030 2C6B     		ldr	r4, [r5, #48]
 1112              	.LVL74:
 1113 0032 3440     		ands	r4, r4, r6
 1114              	.LVL75:
 1115              	.L57:
 1116              		.loc 1 507 0
 1117 0034 2B6B     		ldr	r3, [r5, #48]
 1118 0036 23EA0403 		bic	r3, r3, r4
 1119 003a 2B63     		str	r3, [r5, #48]
 1120              	.LBB39:
 1121              		.loc 1 509 0
 1122 003c 0023     		movs	r3, #0
 1123              		.syntax unified
 1124              	@ 509 "chibios/os/kernel/src/chevents.c" 1
 1125 003e 83F31188 		msr     BASEPRI, r3
 1126              	@ 0 "" 2
 1127              		.thumb
 1128              		.syntax unified
 1129              	.LBE39:
 1130              		.loc 1 510 0
 1131 0042 2346     		mov	r3, r4
 1132              	.L59:
 1133              		.loc 1 511 0
 1134 0044 1846     		mov	r0, r3
 1135 0046 F8BD     		pop	{r3, r4, r5, r6, r7, pc}
 1136              	.LVL76:
 1137              	.L63:
 1138              		.align	2
 1139              	.L62:
 1140 0048 00000000 		.word	rlist
ARM GAS  /var/folders/_2/42wyrlld3p52fkcpt1lv6gxh0000gp/T//cczMbqGI.s 			page 21


 1141              		.cfi_endproc
 1142              	.LFE22:
 1143              		.size	chEvtWaitAnyTimeout, .-chEvtWaitAnyTimeout
 1144              		.section	.text.chEvtWaitAllTimeout,"ax",%progbits
 1145              		.align	1
 1146              		.global	chEvtWaitAllTimeout
 1147              		.thumb
 1148              		.thumb_func
 1149              		.type	chEvtWaitAllTimeout, %function
 1150              	chEvtWaitAllTimeout:
 1151              	.LFB23:
 1152              		.loc 1 530 0
 1153              		.cfi_startproc
 1154              		@ args = 0, pretend = 0, frame = 0
 1155              		@ frame_needed = 1, uses_anonymous_args = 0
 1156              	.LVL77:
 1157 0000 B0B5     		push	{r4, r5, r7, lr}
 1158              	.LCFI32:
 1159              		.cfi_def_cfa_offset 16
 1160              		.cfi_offset 4, -16
 1161              		.cfi_offset 5, -12
 1162              		.cfi_offset 7, -8
 1163              		.cfi_offset 14, -4
 1164              		.loc 1 531 0
 1165 0002 114B     		ldr	r3, .L69
 1166              		.loc 1 530 0
 1167 0004 00AF     		add	r7, sp, #0
 1168              	.LCFI33:
 1169              		.cfi_def_cfa_register 7
 1170              		.loc 1 531 0
 1171 0006 9D69     		ldr	r5, [r3, #24]
 1172              	.LVL78:
 1173              		.loc 1 530 0
 1174 0008 0446     		mov	r4, r0
 1175              	.LBB40:
 1176              		.loc 1 533 0
 1177 000a 2023     		movs	r3, #32
 1178              		.syntax unified
 1179              	@ 533 "chibios/os/kernel/src/chevents.c" 1
 1180 000c 83F31188 		msr     BASEPRI, r3
 1181              	@ 0 "" 2
 1182              		.thumb
 1183              		.syntax unified
 1184              	.LBE40:
 1185              		.loc 1 535 0
 1186 0010 2B6B     		ldr	r3, [r5, #48]
 1187 0012 30EA0303 		bics	r3, r0, r3
 1188 0016 0CD0     		beq	.L65
 1189              		.loc 1 536 0
 1190 0018 09B9     		cbnz	r1, .L66
 1191              	.LBB41:
 1192              		.loc 1 537 0
 1193 001a 0B46     		mov	r3, r1
 1194 001c 06E0     		b	.L68
 1195              	.L66:
 1196              	.LBE41:
 1197              		.loc 1 540 0
ARM GAS  /var/folders/_2/42wyrlld3p52fkcpt1lv6gxh0000gp/T//cczMbqGI.s 			page 22


 1198 001e A862     		str	r0, [r5, #40]
 1199              		.loc 1 541 0
 1200 0020 0920     		movs	r0, #9
 1201              	.LVL79:
 1202 0022 FFF7FEFF 		bl	chSchGoSleepTimeoutS
 1203              	.LVL80:
 1204 0026 0028     		cmp	r0, #0
 1205 0028 03DA     		bge	.L65
 1206              	.LBB42:
 1207              		.loc 1 542 0
 1208 002a 0023     		movs	r3, #0
 1209              	.L68:
 1210              		.syntax unified
 1211              	@ 542 "chibios/os/kernel/src/chevents.c" 1
 1212 002c 83F31188 		msr     BASEPRI, r3
 1213              	@ 0 "" 2
 1214              		.thumb
 1215              		.syntax unified
 1216              	.LBE42:
 1217              		.loc 1 543 0
 1218 0030 07E0     		b	.L67
 1219              	.L65:
 1220              		.loc 1 546 0
 1221 0032 2B6B     		ldr	r3, [r5, #48]
 1222 0034 23EA0403 		bic	r3, r3, r4
 1223 0038 2B63     		str	r3, [r5, #48]
 1224              	.LBB43:
 1225              		.loc 1 548 0
 1226 003a 0023     		movs	r3, #0
 1227              		.syntax unified
 1228              	@ 548 "chibios/os/kernel/src/chevents.c" 1
 1229 003c 83F31188 		msr     BASEPRI, r3
 1230              	@ 0 "" 2
 1231              		.thumb
 1232              		.syntax unified
 1233              	.LBE43:
 1234              		.loc 1 549 0
 1235 0040 2346     		mov	r3, r4
 1236              	.L67:
 1237              		.loc 1 550 0
 1238 0042 1846     		mov	r0, r3
 1239 0044 B0BD     		pop	{r4, r5, r7, pc}
 1240              	.LVL81:
 1241              	.L70:
 1242 0046 00BF     		.align	2
 1243              	.L69:
 1244 0048 00000000 		.word	rlist
 1245              		.cfi_endproc
 1246              	.LFE23:
 1247              		.size	chEvtWaitAllTimeout, .-chEvtWaitAllTimeout
 1248              		.text
 1249              	.Letext0:
 1250              		.file 2 "/Users/ARS/Applications/Eclipse.app/Contents/gcc-arm-none-eabi-5_3-2016q1/arm-none-eabi/i
 1251              		.file 3 "/Users/ARS/Applications/Eclipse.app/Contents/gcc-arm-none-eabi-5_3-2016q1/arm-none-eabi/i
 1252              		.file 4 "chibios/os/ports/GCC/ARMCMx/chtypes.h"
 1253              		.file 5 "chibios/os/kernel/include/chlists.h"
 1254              		.file 6 "chibios/os/kernel/include/chthreads.h"
ARM GAS  /var/folders/_2/42wyrlld3p52fkcpt1lv6gxh0000gp/T//cczMbqGI.s 			page 23


 1255              		.file 7 "chibios/os/ports/GCC/ARMCMx/chcore_v7m.h"
 1256              		.file 8 "chibios/os/kernel/include/chschd.h"
 1257              		.file 9 "chibios/os/kernel/include/chmtx.h"
 1258              		.file 10 "chibios/os/kernel/include/chevents.h"