ARM GAS  /var/folders/_2/42wyrlld3p52fkcpt1lv6gxh0000gp/T//ccJLPQVT.s 			page 1


   1              		.syntax unified
   2              		.cpu cortex-m3
   3              		.fpu softvfp
   4              		.eabi_attribute 20, 1
   5              		.eabi_attribute 21, 1
   6              		.eabi_attribute 23, 3
   7              		.eabi_attribute 24, 1
   8              		.eabi_attribute 25, 1
   9              		.eabi_attribute 26, 1
  10              		.eabi_attribute 30, 4
  11              		.eabi_attribute 34, 1
  12              		.eabi_attribute 18, 4
  13              		.thumb
  14              		.syntax unified
  15              		.file	"chheap.c"
  16              		.text
  17              	.Ltext0:
  18              		.cfi_sections	.debug_frame
  19              		.section	.text._heap_init,"ax",%progbits
  20              		.align	1
  21              		.global	_heap_init
  22              		.thumb
  23              		.thumb_func
  24              		.type	_heap_init, %function
  25              	_heap_init:
  26              	.LFB7:
  27              		.file 1 "chibios/os/kernel/src/chheap.c"
  28              		.loc 1 75 0
  29              		.cfi_startproc
  30              		@ args = 0, pretend = 0, frame = 0
  31              		@ frame_needed = 1, uses_anonymous_args = 0
  32              		@ link register save eliminated.
  33 0000 80B4     		push	{r7}
  34              	.LCFI0:
  35              		.cfi_def_cfa_offset 4
  36              		.cfi_offset 7, -4
  37              		.loc 1 76 0
  38 0002 0648     		ldr	r0, .L2
  39 0004 064B     		ldr	r3, .L2+4
  40              		.loc 1 75 0
  41 0006 00AF     		add	r7, sp, #0
  42              	.LCFI1:
  43              		.cfi_def_cfa_register 7
  44              		.loc 1 76 0
  45 0008 0360     		str	r3, [r0]
  46              		.loc 1 77 0
  47 000a 0023     		movs	r3, #0
  48 000c 8360     		str	r3, [r0, #8]
  49              		.loc 1 78 0
  50 000e C360     		str	r3, [r0, #12]
  51              		.loc 1 80 0
  52 0010 1030     		adds	r0, r0, #16
  53              		.loc 1 84 0
  54 0012 BD46     		mov	sp, r7
  55              	.LCFI2:
  56              		.cfi_def_cfa_register 13
  57              		@ sp needed
ARM GAS  /var/folders/_2/42wyrlld3p52fkcpt1lv6gxh0000gp/T//ccJLPQVT.s 			page 2


  58 0014 80BC     		pop	{r7}
  59              	.LCFI3:
  60              		.cfi_restore 7
  61              		.cfi_def_cfa_offset 0
  62              		.loc 1 80 0
  63 0016 FFF7FEBF 		b	chMtxInit
  64              	.LVL0:
  65              	.L3:
  66 001a 00BF     		.align	2
  67              	.L2:
  68 001c 00000000 		.word	.LANCHOR0
  69 0020 00000000 		.word	chCoreAlloc
  70              		.cfi_endproc
  71              	.LFE7:
  72              		.size	_heap_init, .-_heap_init
  73              		.section	.text.chHeapInit,"ax",%progbits
  74              		.align	1
  75              		.global	chHeapInit
  76              		.thumb
  77              		.thumb_func
  78              		.type	chHeapInit, %function
  79              	chHeapInit:
  80              	.LFB8:
  81              		.loc 1 99 0
  82              		.cfi_startproc
  83              		@ args = 0, pretend = 0, frame = 0
  84              		@ frame_needed = 1, uses_anonymous_args = 0
  85              		@ link register save eliminated.
  86              	.LVL1:
  87 0000 80B4     		push	{r7}
  88              	.LCFI4:
  89              		.cfi_def_cfa_offset 4
  90              		.cfi_offset 7, -4
  91              		.loc 1 104 0
  92 0002 0023     		movs	r3, #0
  93 0004 0360     		str	r3, [r0]
  94              	.LVL2:
  95              		.loc 1 105 0
  96 0006 8160     		str	r1, [r0, #8]
  97              		.loc 1 106 0
  98 0008 C360     		str	r3, [r0, #12]
  99              		.loc 1 108 0
 100 000a 083A     		subs	r2, r2, #8
 101              	.LVL3:
 102              		.loc 1 99 0
 103 000c 00AF     		add	r7, sp, #0
 104              	.LCFI5:
 105              		.cfi_def_cfa_register 7
 106              		.loc 1 110 0
 107 000e 1030     		adds	r0, r0, #16
 108              	.LVL4:
 109              		.loc 1 107 0
 110 0010 0B60     		str	r3, [r1]
 111              		.loc 1 108 0
 112 0012 4A60     		str	r2, [r1, #4]
 113              		.loc 1 114 0
 114 0014 BD46     		mov	sp, r7
ARM GAS  /var/folders/_2/42wyrlld3p52fkcpt1lv6gxh0000gp/T//ccJLPQVT.s 			page 3


 115              	.LCFI6:
 116              		.cfi_def_cfa_register 13
 117              		@ sp needed
 118 0016 80BC     		pop	{r7}
 119              	.LCFI7:
 120              		.cfi_restore 7
 121              		.cfi_def_cfa_offset 0
 122              		.loc 1 110 0
 123 0018 FFF7FEBF 		b	chMtxInit
 124              	.LVL5:
 125              		.cfi_endproc
 126              	.LFE8:
 127              		.size	chHeapInit, .-chHeapInit
 128              		.section	.text.chHeapAlloc,"ax",%progbits
 129              		.align	1
 130              		.global	chHeapAlloc
 131              		.thumb
 132              		.thumb_func
 133              		.type	chHeapAlloc, %function
 134              	chHeapAlloc:
 135              	.LFB9:
 136              		.loc 1 132 0
 137              		.cfi_startproc
 138              		@ args = 0, pretend = 0, frame = 0
 139              		@ frame_needed = 1, uses_anonymous_args = 0
 140              	.LVL6:
 141 0000 F8B5     		push	{r3, r4, r5, r6, r7, lr}
 142              	.LCFI8:
 143              		.cfi_def_cfa_offset 24
 144              		.cfi_offset 3, -24
 145              		.cfi_offset 4, -20
 146              		.cfi_offset 5, -16
 147              		.cfi_offset 6, -12
 148              		.cfi_offset 7, -8
 149              		.cfi_offset 14, -4
 150              		.loc 1 136 0
 151 0002 1F4D     		ldr	r5, .L20
 152              		.loc 1 138 0
 153 0004 0731     		adds	r1, r1, #7
 154              	.LVL7:
 155              		.loc 1 136 0
 156 0006 0028     		cmp	r0, #0
 157 0008 18BF     		it	ne
 158 000a 0546     		movne	r5, r0
 159              	.LVL8:
 160              		.loc 1 132 0
 161 000c 00AF     		add	r7, sp, #0
 162              	.LCFI9:
 163              		.cfi_def_cfa_register 7
 164              		.loc 1 140 0
 165 000e 05F11000 		add	r0, r5, #16
 166              		.loc 1 138 0
 167 0012 21F00704 		bic	r4, r1, #7
 168              	.LVL9:
 169              		.loc 1 139 0
 170 0016 05F10806 		add	r6, r5, #8
 171              	.LVL10:
ARM GAS  /var/folders/_2/42wyrlld3p52fkcpt1lv6gxh0000gp/T//ccJLPQVT.s 			page 4


 172              		.loc 1 140 0
 173 001a FFF7FEFF 		bl	chMtxLock
 174              	.LVL11:
 175              	.L7:
 176              		.loc 1 142 0
 177 001e 3068     		ldr	r0, [r6]
 178 0020 E8B1     		cbz	r0, .L19
 179              	.LVL12:
 180              		.loc 1 144 0
 181 0022 4368     		ldr	r3, [r0, #4]
 182 0024 9C42     		cmp	r4, r3
 183 0026 18D8     		bhi	.L14
 184              		.loc 1 145 0
 185 0028 04F10802 		add	r2, r4, #8
 186 002c 9342     		cmp	r3, r2
 187 002e D0F800E0 		ldr	lr, [r0]
 188 0032 02D2     		bcs	.L8
 189              		.loc 1 149 0
 190 0034 C6F800E0 		str	lr, [r6]
 191 0038 09E0     		b	.L9
 192              	.L8:
 193              		.loc 1 154 0
 194 003a 40F802E0 		str	lr, [r0, r2]
 195              		.loc 1 153 0
 196 003e 8118     		adds	r1, r0, r2
 197              	.LVL13:
 198              		.loc 1 155 0
 199 0040 6FF00702 		mvn	r2, #7
 200 0044 121B     		subs	r2, r2, r4
 201 0046 1344     		add	r3, r3, r2
 202 0048 4B60     		str	r3, [r1, #4]
 203              		.loc 1 156 0
 204 004a 3160     		str	r1, [r6]
 205              		.loc 1 157 0
 206 004c 4460     		str	r4, [r0, #4]
 207              	.LVL14:
 208              	.L9:
 209              		.loc 1 159 0
 210 004e 0446     		mov	r4, r0
 211              	.LVL15:
 212 0050 44F8085B 		str	r5, [r4], #8
 213              		.loc 1 161 0
 214 0054 FFF7FEFF 		bl	chMtxUnlock
 215              	.LVL16:
 216              		.loc 1 162 0
 217 0058 10E0     		b	.L10
 218              	.LVL17:
 219              	.L14:
 220 005a 0646     		mov	r6, r0
 221              	.LVL18:
 222 005c DFE7     		b	.L7
 223              	.LVL19:
 224              	.L19:
 225              		.loc 1 167 0
 226 005e FFF7FEFF 		bl	chMtxUnlock
 227              	.LVL20:
 228              		.loc 1 171 0
ARM GAS  /var/folders/_2/42wyrlld3p52fkcpt1lv6gxh0000gp/T//ccJLPQVT.s 			page 5


 229 0062 2B68     		ldr	r3, [r5]
 230 0064 0BB9     		cbnz	r3, .L12
 231              	.L13:
 232              		.loc 1 180 0
 233 0066 0024     		movs	r4, #0
 234              	.LVL21:
 235 0068 08E0     		b	.L10
 236              	.LVL22:
 237              	.L12:
 238              		.loc 1 172 0
 239 006a 04F10800 		add	r0, r4, #8
 240 006e 9847     		blx	r3
 241              	.LVL23:
 242              		.loc 1 173 0
 243 0070 0028     		cmp	r0, #0
 244 0072 F8D0     		beq	.L13
 245              		.loc 1 175 0
 246 0074 4460     		str	r4, [r0, #4]
 247              		.loc 1 174 0
 248 0076 0560     		str	r5, [r0]
 249              		.loc 1 176 0
 250 0078 00F10804 		add	r4, r0, #8
 251              	.LVL24:
 252              	.L10:
 253              		.loc 1 181 0
 254 007c 2046     		mov	r0, r4
 255 007e F8BD     		pop	{r3, r4, r5, r6, r7, pc}
 256              	.LVL25:
 257              	.L21:
 258              		.align	2
 259              	.L20:
 260 0080 00000000 		.word	.LANCHOR0
 261              		.cfi_endproc
 262              	.LFE9:
 263              		.size	chHeapAlloc, .-chHeapAlloc
 264              		.section	.text.chHeapFree,"ax",%progbits
 265              		.align	1
 266              		.global	chHeapFree
 267              		.thumb
 268              		.thumb_func
 269              		.type	chHeapFree, %function
 270              	chHeapFree:
 271              	.LFB10:
 272              		.loc 1 194 0
 273              		.cfi_startproc
 274              		@ args = 0, pretend = 0, frame = 0
 275              		@ frame_needed = 1, uses_anonymous_args = 0
 276              	.LVL26:
 277 0000 F8B5     		push	{r3, r4, r5, r6, r7, lr}
 278              	.LCFI10:
 279              		.cfi_def_cfa_offset 24
 280              		.cfi_offset 3, -24
 281              		.cfi_offset 4, -20
 282              		.cfi_offset 5, -16
 283              		.cfi_offset 6, -12
 284              		.cfi_offset 7, -8
 285              		.cfi_offset 14, -4
ARM GAS  /var/folders/_2/42wyrlld3p52fkcpt1lv6gxh0000gp/T//ccJLPQVT.s 			page 6


 286 0002 0446     		mov	r4, r0
 287              		.loc 1 200 0
 288 0004 A0F10805 		sub	r5, r0, #8
 289              	.LVL27:
 290              		.loc 1 201 0
 291 0008 50F8080C 		ldr	r0, [r0, #-8]
 292              	.LVL28:
 293              		.loc 1 194 0
 294 000c 00AF     		add	r7, sp, #0
 295              	.LCFI11:
 296              		.cfi_def_cfa_register 7
 297              		.loc 1 202 0
 298 000e 00F10806 		add	r6, r0, #8
 299              	.LVL29:
 300              		.loc 1 203 0
 301 0012 1030     		adds	r0, r0, #16
 302              	.LVL30:
 303 0014 FFF7FEFF 		bl	chMtxLock
 304              	.LVL31:
 305              		.loc 1 202 0
 306 0018 3346     		mov	r3, r6
 307              	.LVL32:
 308              	.L28:
 309              		.loc 1 210 0
 310 001a B342     		cmp	r3, r6
 311 001c 1A68     		ldr	r2, [r3]
 312 001e 01D0     		beq	.L23
 313              		.loc 1 210 0 is_stmt 0 discriminator 2
 314 0020 AB42     		cmp	r3, r5
 315 0022 25D2     		bcs	.L24
 316              	.L23:
 317              		.loc 1 210 0 discriminator 3
 318 0024 0AB1     		cbz	r2, .L25
 319              		.loc 1 211 0 is_stmt 1
 320 0026 9542     		cmp	r5, r2
 321 0028 22D2     		bcs	.L24
 322              	.L25:
 323              		.loc 1 213 0
 324 002a 44F8082C 		str	r2, [r4, #-8]
 325              		.loc 1 214 0
 326 002e 1D60     		str	r5, [r3]
 327              		.loc 1 216 0
 328 0030 54F8040C 		ldr	r0, [r4, #-4]
 329 0034 54F8086C 		ldr	r6, [r4, #-8]
 330              	.LVL33:
 331 0038 00F10801 		add	r1, r0, #8
 332 003c 6A18     		adds	r2, r5, r1
 333 003e B242     		cmp	r2, r6
 334 0040 07D1     		bne	.L26
 335              		.loc 1 218 0
 336 0042 5268     		ldr	r2, [r2, #4]
 337 0044 0244     		add	r2, r2, r0
 338 0046 0832     		adds	r2, r2, #8
 339 0048 44F8042C 		str	r2, [r4, #-4]
 340              		.loc 1 219 0
 341 004c 6A58     		ldr	r2, [r5, r1]
 342 004e 44F8082C 		str	r2, [r4, #-8]
ARM GAS  /var/folders/_2/42wyrlld3p52fkcpt1lv6gxh0000gp/T//ccJLPQVT.s 			page 7


 343              	.L26:
 344              		.loc 1 221 0
 345 0052 5868     		ldr	r0, [r3, #4]
 346 0054 00F10801 		add	r1, r0, #8
 347 0058 1944     		add	r1, r1, r3
 348 005a 8D42     		cmp	r5, r1
 349 005c 0AD1     		bne	.L27
 350              		.loc 1 223 0
 351 005e 54F8042C 		ldr	r2, [r4, #-4]
 352 0062 0244     		add	r2, r2, r0
 353 0064 0832     		adds	r2, r2, #8
 354 0066 5A60     		str	r2, [r3, #4]
 355              		.loc 1 224 0
 356 0068 54F8082C 		ldr	r2, [r4, #-8]
 357 006c 1A60     		str	r2, [r3]
 358 006e 01E0     		b	.L27
 359              	.LVL34:
 360              	.L24:
 361              		.loc 1 228 0
 362 0070 1346     		mov	r3, r2
 363              	.LVL35:
 364              		.loc 1 229 0
 365 0072 D2E7     		b	.L28
 366              	.LVL36:
 367              	.L27:
 368              		.loc 1 233 0
 369 0074 BD46     		mov	sp, r7
 370              	.LCFI12:
 371              		.cfi_def_cfa_register 13
 372              		@ sp needed
 373 0076 BDE8F840 		pop	{r3, r4, r5, r6, r7, lr}
 374              	.LCFI13:
 375              		.cfi_restore 14
 376              		.cfi_restore 7
 377              		.cfi_restore 6
 378              		.cfi_restore 5
 379              		.cfi_restore 4
 380              		.cfi_restore 3
 381              		.cfi_def_cfa_offset 0
 382              	.LVL37:
 383              		.loc 1 231 0
 384 007a FFF7FEBF 		b	chMtxUnlock
 385              	.LVL38:
 386              		.cfi_endproc
 387              	.LFE10:
 388              		.size	chHeapFree, .-chHeapFree
 389              		.section	.text.chHeapStatus,"ax",%progbits
 390              		.align	1
 391              		.global	chHeapStatus
 392              		.thumb
 393              		.thumb_func
 394              		.type	chHeapStatus, %function
 395              	chHeapStatus:
 396              	.LFB11:
 397              		.loc 1 250 0
 398              		.cfi_startproc
 399              		@ args = 0, pretend = 0, frame = 0
ARM GAS  /var/folders/_2/42wyrlld3p52fkcpt1lv6gxh0000gp/T//ccJLPQVT.s 			page 8


 400              		@ frame_needed = 1, uses_anonymous_args = 0
 401              	.LVL39:
 402 0000 B0B5     		push	{r4, r5, r7, lr}
 403              	.LCFI14:
 404              		.cfi_def_cfa_offset 16
 405              		.cfi_offset 4, -16
 406              		.cfi_offset 5, -12
 407              		.cfi_offset 7, -8
 408              		.cfi_offset 14, -4
 409              		.loc 1 255 0
 410 0002 0D4C     		ldr	r4, .L41
 411              		.loc 1 250 0
 412 0004 00AF     		add	r7, sp, #0
 413              	.LCFI15:
 414              		.cfi_def_cfa_register 7
 415              		.loc 1 255 0
 416 0006 0028     		cmp	r0, #0
 417 0008 18BF     		it	ne
 418 000a 0446     		movne	r4, r0
 419              	.LVL40:
 420              		.loc 1 257 0
 421 000c 04F11000 		add	r0, r4, #16
 422              		.loc 1 250 0
 423 0010 0D46     		mov	r5, r1
 424              		.loc 1 257 0
 425 0012 FFF7FEFF 		bl	chMtxLock
 426              	.LVL41:
 427              		.loc 1 259 0
 428 0016 0023     		movs	r3, #0
 429              		.loc 1 260 0
 430 0018 04F10800 		add	r0, r4, #8
 431              	.LVL42:
 432 001c 1C46     		mov	r4, r3
 433              	.LVL43:
 434              	.L34:
 435              		.loc 1 260 0 is_stmt 0 discriminator 1
 436 001e 0068     		ldr	r0, [r0]
 437              	.LVL44:
 438 0020 18B1     		cbz	r0, .L40
 439              		.loc 1 261 0 is_stmt 1 discriminator 3
 440 0022 4268     		ldr	r2, [r0, #4]
 441              		.loc 1 260 0 discriminator 3
 442 0024 0134     		adds	r4, r4, #1
 443              	.LVL45:
 444              		.loc 1 261 0 discriminator 3
 445 0026 1344     		add	r3, r3, r2
 446              	.LVL46:
 447 0028 F9E7     		b	.L34
 448              	.LVL47:
 449              	.L40:
 450              		.loc 1 262 0
 451 002a 05B1     		cbz	r5, .L36
 452              		.loc 1 263 0
 453 002c 2B60     		str	r3, [r5]
 454              	.L36:
 455              		.loc 1 265 0
 456 002e FFF7FEFF 		bl	chMtxUnlock
ARM GAS  /var/folders/_2/42wyrlld3p52fkcpt1lv6gxh0000gp/T//ccJLPQVT.s 			page 9


 457              	.LVL48:
 458              		.loc 1 267 0
 459 0032 2046     		mov	r0, r4
 460 0034 B0BD     		pop	{r4, r5, r7, pc}
 461              	.LVL49:
 462              	.L42:
 463 0036 00BF     		.align	2
 464              	.L41:
 465 0038 00000000 		.word	.LANCHOR0
 466              		.cfi_endproc
 467              	.LFE11:
 468              		.size	chHeapStatus, .-chHeapStatus
 469              		.section	.bss.default_heap,"aw",%nobits
 470              		.align	3
 471              		.set	.LANCHOR0,. + 0
 472              		.type	default_heap, %object
 473              		.size	default_heap, 32
 474              	default_heap:
 475 0000 00000000 		.space	32
 475      00000000 
 475      00000000 
 475      00000000 
 475      00000000 
 476              		.text
 477              	.Letext0:
 478              		.file 2 "/Users/ARS/Applications/Eclipse.app/Contents/gcc-arm-none-eabi-5_3-2016q1/lib/gcc/arm-non
 479              		.file 3 "/Users/ARS/Applications/Eclipse.app/Contents/gcc-arm-none-eabi-5_3-2016q1/arm-none-eabi/i
 480              		.file 4 "/Users/ARS/Applications/Eclipse.app/Contents/gcc-arm-none-eabi-5_3-2016q1/arm-none-eabi/i
 481              		.file 5 "chibios/os/ports/GCC/ARMCMx/chtypes.h"
 482              		.file 6 "chibios/os/kernel/include/chlists.h"
 483              		.file 7 "chibios/os/kernel/include/chthreads.h"
 484              		.file 8 "chibios/os/ports/GCC/ARMCMx/chcore_v7m.h"
 485              		.file 9 "chibios/os/kernel/include/chmtx.h"
 486              		.file 10 "chibios/os/kernel/include/chmemcore.h"
 487              		.file 11 "chibios/os/kernel/include/chheap.h"