ARM GAS  /var/folders/_2/42wyrlld3p52fkcpt1lv6gxh0000gp/T//ccOZBk66.s 			page 1


   1              		.syntax unified
   2              		.cpu cortex-m3
   3              		.fpu softvfp
   4              		.eabi_attribute 20, 1
   5              		.eabi_attribute 21, 1
   6              		.eabi_attribute 23, 3
   7              		.eabi_attribute 24, 1
   8              		.eabi_attribute 25, 1
   9              		.eabi_attribute 26, 1
  10              		.eabi_attribute 30, 4
  11              		.eabi_attribute 34, 1
  12              		.eabi_attribute 18, 4
  13              		.thumb
  14              		.syntax unified
  15              		.file	"chmemcore.c"
  16              		.text
  17              	.Ltext0:
  18              		.cfi_sections	.debug_frame
  19              		.section	.text._core_init,"ax",%progbits
  20              		.align	1
  21              		.global	_core_init
  22              		.thumb
  23              		.thumb_func
  24              		.type	_core_init, %function
  25              	_core_init:
  26              	.LFB7:
  27              		.file 1 "chibios/os/kernel/src/chmemcore.c"
  28              		.loc 1 66 0
  29              		.cfi_startproc
  30              		@ args = 0, pretend = 0, frame = 0
  31              		@ frame_needed = 1, uses_anonymous_args = 0
  32              		.loc 1 70 0
  33 0000 064B     		ldr	r3, .L2
  34              		.loc 1 66 0
  35 0002 80B5     		push	{r7, lr}
  36              	.LCFI0:
  37              		.cfi_def_cfa_offset 8
  38              		.cfi_offset 7, -8
  39              		.cfi_offset 14, -4
  40              		.loc 1 70 0
  41 0004 064A     		ldr	r2, .L2+4
  42 0006 23F00703 		bic	r3, r3, #7
  43 000a 1360     		str	r3, [r2]
  44              		.loc 1 71 0
  45 000c 054B     		ldr	r3, .L2+8
  46 000e 064A     		ldr	r2, .L2+12
  47 0010 23F00703 		bic	r3, r3, #7
  48              		.loc 1 66 0
  49 0014 00AF     		add	r7, sp, #0
  50              	.LCFI1:
  51              		.cfi_def_cfa_register 7
  52              		.loc 1 71 0
  53 0016 1360     		str	r3, [r2]
  54 0018 80BD     		pop	{r7, pc}
  55              	.L3:
  56 001a 00BF     		.align	2
  57              	.L2:
ARM GAS  /var/folders/_2/42wyrlld3p52fkcpt1lv6gxh0000gp/T//ccOZBk66.s 			page 2


  58 001c 07000000 		.word	__heap_base__+7
  59 0020 00000000 		.word	.LANCHOR0
  60 0024 00000000 		.word	__heap_end__
  61 0028 00000000 		.word	.LANCHOR1
  62              		.cfi_endproc
  63              	.LFE7:
  64              		.size	_core_init, .-_core_init
  65              		.section	.text.chCoreAllocI,"ax",%progbits
  66              		.align	1
  67              		.global	chCoreAllocI
  68              		.thumb
  69              		.thumb_func
  70              		.type	chCoreAllocI, %function
  71              	chCoreAllocI:
  72              	.LFB9:
  73              		.loc 1 112 0
  74              		.cfi_startproc
  75              		@ args = 0, pretend = 0, frame = 0
  76              		@ frame_needed = 1, uses_anonymous_args = 0
  77              	.LVL0:
  78              		.loc 1 118 0
  79 0000 0749     		ldr	r1, .L7
  80 0002 084A     		ldr	r2, .L7+4
  81              		.loc 1 117 0
  82 0004 0730     		adds	r0, r0, #7
  83              	.LVL1:
  84 0006 20F00703 		bic	r3, r0, #7
  85              	.LVL2:
  86              		.loc 1 112 0
  87 000a 80B5     		push	{r7, lr}
  88              	.LCFI2:
  89              		.cfi_def_cfa_offset 8
  90              		.cfi_offset 7, -8
  91              		.cfi_offset 14, -4
  92              		.loc 1 118 0
  93 000c 0868     		ldr	r0, [r1]
  94 000e 1268     		ldr	r2, [r2]
  95              		.loc 1 112 0
  96 0010 00AF     		add	r7, sp, #0
  97              	.LCFI3:
  98              		.cfi_def_cfa_register 7
  99              		.loc 1 118 0
 100 0012 121A     		subs	r2, r2, r0
 101 0014 9342     		cmp	r3, r2
 102              	.LVL3:
 103              		.loc 1 121 0
 104 0016 9ABF     		itte	ls
 105 0018 1B18     		addls	r3, r3, r0
 106              	.LVL4:
 107 001a 0B60     		strls	r3, [r1]
 108              		.loc 1 119 0
 109 001c 0020     		movhi	r0, #0
 110              	.LVL5:
 111              		.loc 1 123 0
 112 001e 80BD     		pop	{r7, pc}
 113              	.L8:
 114              		.align	2
ARM GAS  /var/folders/_2/42wyrlld3p52fkcpt1lv6gxh0000gp/T//ccOZBk66.s 			page 3


 115              	.L7:
 116 0020 00000000 		.word	.LANCHOR0
 117 0024 00000000 		.word	.LANCHOR1
 118              		.cfi_endproc
 119              	.LFE9:
 120              		.size	chCoreAllocI, .-chCoreAllocI
 121              		.section	.text.chCoreAlloc,"ax",%progbits
 122              		.align	1
 123              		.global	chCoreAlloc
 124              		.thumb
 125              		.thumb_func
 126              		.type	chCoreAlloc, %function
 127              	chCoreAlloc:
 128              	.LFB8:
 129              		.loc 1 91 0
 130              		.cfi_startproc
 131              		@ args = 0, pretend = 0, frame = 0
 132              		@ frame_needed = 1, uses_anonymous_args = 0
 133              	.LVL6:
 134 0000 80B5     		push	{r7, lr}
 135              	.LCFI4:
 136              		.cfi_def_cfa_offset 8
 137              		.cfi_offset 7, -8
 138              		.cfi_offset 14, -4
 139              	.LBB2:
 140              		.loc 1 94 0
 141 0002 2023     		movs	r3, #32
 142              	.LBE2:
 143              		.loc 1 91 0
 144 0004 00AF     		add	r7, sp, #0
 145              	.LCFI5:
 146              		.cfi_def_cfa_register 7
 147              	.LBB3:
 148              		.loc 1 94 0
 149              		.syntax unified
 150              	@ 94 "chibios/os/kernel/src/chmemcore.c" 1
 151 0006 83F31188 		msr     BASEPRI, r3
 152              	@ 0 "" 2
 153              		.thumb
 154              		.syntax unified
 155              	.LBE3:
 156              		.loc 1 95 0
 157 000a FFF7FEFF 		bl	chCoreAllocI
 158              	.LVL7:
 159              	.LBB4:
 160              		.loc 1 96 0
 161 000e 0023     		movs	r3, #0
 162              		.syntax unified
 163              	@ 96 "chibios/os/kernel/src/chmemcore.c" 1
 164 0010 83F31188 		msr     BASEPRI, r3
 165              	@ 0 "" 2
 166              		.thumb
 167              		.syntax unified
 168              	.LBE4:
 169              		.loc 1 98 0
 170 0014 80BD     		pop	{r7, pc}
 171              		.cfi_endproc
ARM GAS  /var/folders/_2/42wyrlld3p52fkcpt1lv6gxh0000gp/T//ccOZBk66.s 			page 4


 172              	.LFE8:
 173              		.size	chCoreAlloc, .-chCoreAlloc
 174              		.section	.text.chCoreStatus,"ax",%progbits
 175              		.align	1
 176              		.global	chCoreStatus
 177              		.thumb
 178              		.thumb_func
 179              		.type	chCoreStatus, %function
 180              	chCoreStatus:
 181              	.LFB10:
 182              		.loc 1 132 0
 183              		.cfi_startproc
 184              		@ args = 0, pretend = 0, frame = 0
 185              		@ frame_needed = 1, uses_anonymous_args = 0
 186              		.loc 1 134 0
 187 0000 034B     		ldr	r3, .L11
 188              		.loc 1 132 0
 189 0002 80B5     		push	{r7, lr}
 190              	.LCFI6:
 191              		.cfi_def_cfa_offset 8
 192              		.cfi_offset 7, -8
 193              		.cfi_offset 14, -4
 194              		.loc 1 134 0
 195 0004 1868     		ldr	r0, [r3]
 196 0006 034B     		ldr	r3, .L11+4
 197              		.loc 1 132 0
 198 0008 00AF     		add	r7, sp, #0
 199              	.LCFI7:
 200              		.cfi_def_cfa_register 7
 201              		.loc 1 134 0
 202 000a 1B68     		ldr	r3, [r3]
 203              		.loc 1 135 0
 204 000c C01A     		subs	r0, r0, r3
 205 000e 80BD     		pop	{r7, pc}
 206              	.L12:
 207              		.align	2
 208              	.L11:
 209 0010 00000000 		.word	.LANCHOR1
 210 0014 00000000 		.word	.LANCHOR0
 211              		.cfi_endproc
 212              	.LFE10:
 213              		.size	chCoreStatus, .-chCoreStatus
 214              		.section	.bss.endmem,"aw",%nobits
 215              		.align	2
 216              		.set	.LANCHOR1,. + 0
 217              		.type	endmem, %object
 218              		.size	endmem, 4
 219              	endmem:
 220 0000 00000000 		.space	4
 221              		.section	.bss.nextmem,"aw",%nobits
 222              		.align	2
 223              		.set	.LANCHOR0,. + 0
 224              		.type	nextmem, %object
 225              		.size	nextmem, 4
 226              	nextmem:
 227 0000 00000000 		.space	4
 228              		.text
ARM GAS  /var/folders/_2/42wyrlld3p52fkcpt1lv6gxh0000gp/T//ccOZBk66.s 			page 5


 229              	.Letext0:
 230              		.file 2 "/Users/ARS/Applications/Eclipse.app/Contents/gcc-arm-none-eabi-5_3-2016q1/lib/gcc/arm-non
 231              		.file 3 "/Users/ARS/Applications/Eclipse.app/Contents/gcc-arm-none-eabi-5_3-2016q1/arm-none-eabi/i
 232              		.file 4 "/Users/ARS/Applications/Eclipse.app/Contents/gcc-arm-none-eabi-5_3-2016q1/arm-none-eabi/i