ARM GAS  /var/folders/_2/42wyrlld3p52fkcpt1lv6gxh0000gp/T//cc0IBKMc.s 			page 1


   1              		.syntax unified
   2              		.cpu cortex-m3
   3              		.fpu softvfp
   4              		.eabi_attribute 20, 1
   5              		.eabi_attribute 21, 1
   6              		.eabi_attribute 23, 3
   7              		.eabi_attribute 24, 1
   8              		.eabi_attribute 25, 1
   9              		.eabi_attribute 26, 1
  10              		.eabi_attribute 30, 4
  11              		.eabi_attribute 34, 1
  12              		.eabi_attribute 18, 4
  13              		.thumb
  14              		.syntax unified
  15              		.file	"chmtx.c"
  16              		.text
  17              	.Ltext0:
  18              		.cfi_sections	.debug_frame
  19              		.section	.text.prio_insert,"ax",%progbits
  20              		.align	1
  21              		.thumb
  22              		.thumb_func
  23              		.type	prio_insert, %function
  24              	prio_insert:
  25              	.LFB0:
  26              		.file 1 "chibios/os/kernel/include/chinline.h"
  27              		.loc 1 41 0
  28              		.cfi_startproc
  29              		@ args = 0, pretend = 0, frame = 0
  30              		@ frame_needed = 1, uses_anonymous_args = 0
  31              	.LVL0:
  32              		.loc 1 43 0
  33 0000 0B46     		mov	r3, r1
  34              		.loc 1 41 0
  35 0002 90B5     		push	{r4, r7, lr}
  36              	.LCFI0:
  37              		.cfi_def_cfa_offset 12
  38              		.cfi_offset 4, -12
  39              		.cfi_offset 7, -8
  40              		.cfi_offset 14, -4
  41 0004 00AF     		add	r7, sp, #0
  42              	.LCFI1:
  43              		.cfi_def_cfa_register 7
  44              	.LVL1:
  45              	.L3:
  46              		.loc 1 45 0 discriminator 2
  47 0006 1B68     		ldr	r3, [r3]
  48              	.LVL2:
  49              		.loc 1 46 0 discriminator 2
  50 0008 9942     		cmp	r1, r3
  51 000a 05D1     		bne	.L2
  52              	.L4:
  53              		.loc 1 48 0
  54 000c 5A68     		ldr	r2, [r3, #4]
  55              		.loc 1 47 0
  56 000e 0360     		str	r3, [r0]
  57              		.loc 1 48 0
ARM GAS  /var/folders/_2/42wyrlld3p52fkcpt1lv6gxh0000gp/T//cc0IBKMc.s 			page 2


  58 0010 4260     		str	r2, [r0, #4]
  59              		.loc 1 49 0
  60 0012 5860     		str	r0, [r3, #4]
  61 0014 1060     		str	r0, [r2]
  62              		.loc 1 50 0
  63 0016 90BD     		pop	{r4, r7, pc}
  64              	.L2:
  65              		.loc 1 46 0 discriminator 1
  66 0018 9C68     		ldr	r4, [r3, #8]
  67 001a 8268     		ldr	r2, [r0, #8]
  68 001c 9442     		cmp	r4, r2
  69 001e F2D2     		bcs	.L3
  70 0020 F4E7     		b	.L4
  71              		.cfi_endproc
  72              	.LFE0:
  73              		.size	prio_insert, .-prio_insert
  74              		.section	.text.chMtxInit,"ax",%progbits
  75              		.align	1
  76              		.global	chMtxInit
  77              		.thumb
  78              		.thumb_func
  79              		.type	chMtxInit, %function
  80              	chMtxInit:
  81              	.LFB7:
  82              		.file 2 "chibios/os/kernel/src/chmtx.c"
  83              		.loc 2 86 0
  84              		.cfi_startproc
  85              		@ args = 0, pretend = 0, frame = 0
  86              		@ frame_needed = 1, uses_anonymous_args = 0
  87              	.LVL3:
  88 0000 80B5     		push	{r7, lr}
  89              	.LCFI2:
  90              		.cfi_def_cfa_offset 8
  91              		.cfi_offset 7, -8
  92              		.cfi_offset 14, -4
  93              		.loc 2 91 0
  94 0002 0023     		movs	r3, #0
  95              		.loc 2 86 0
  96 0004 00AF     		add	r7, sp, #0
  97              	.LCFI3:
  98              		.cfi_def_cfa_register 7
  99              		.loc 2 90 0
 100 0006 4060     		str	r0, [r0, #4]
 101 0008 0060     		str	r0, [r0]
 102              		.loc 2 91 0
 103 000a 8360     		str	r3, [r0, #8]
 104 000c 80BD     		pop	{r7, pc}
 105              		.cfi_endproc
 106              	.LFE7:
 107              		.size	chMtxInit, .-chMtxInit
 108              		.section	.text.chMtxLockS,"ax",%progbits
 109              		.align	1
 110              		.global	chMtxLockS
 111              		.thumb
 112              		.thumb_func
 113              		.type	chMtxLockS, %function
 114              	chMtxLockS:
ARM GAS  /var/folders/_2/42wyrlld3p52fkcpt1lv6gxh0000gp/T//cc0IBKMc.s 			page 3


 115              	.LFB9:
 116              		.loc 2 121 0
 117              		.cfi_startproc
 118              		@ args = 0, pretend = 0, frame = 0
 119              		@ frame_needed = 1, uses_anonymous_args = 0
 120              	.LVL4:
 121 0000 F8B5     		push	{r3, r4, r5, r6, r7, lr}
 122              	.LCFI4:
 123              		.cfi_def_cfa_offset 24
 124              		.cfi_offset 3, -24
 125              		.cfi_offset 4, -20
 126              		.cfi_offset 5, -16
 127              		.cfi_offset 6, -12
 128              		.cfi_offset 7, -8
 129              		.cfi_offset 14, -4
 130              		.loc 2 122 0
 131 0002 1A4B     		ldr	r3, .L17
 132              		.loc 2 128 0
 133 0004 8468     		ldr	r4, [r0, #8]
 134              		.loc 2 121 0
 135 0006 00AF     		add	r7, sp, #0
 136              	.LCFI5:
 137              		.cfi_def_cfa_register 7
 138              		.loc 2 121 0
 139 0008 0646     		mov	r6, r0
 140              		.loc 2 122 0
 141 000a 9D69     		ldr	r5, [r3, #24]
 142              	.LVL5:
 143              		.loc 2 128 0
 144 000c 44B3     		cbz	r4, .L16
 145              	.LVL6:
 146              	.L11:
 147              	.LBB21:
 148              		.loc 2 135 0
 149 000e AB68     		ldr	r3, [r5, #8]
 150 0010 A268     		ldr	r2, [r4, #8]
 151 0012 9A42     		cmp	r2, r3
 152 0014 19D2     		bcs	.L12
 153              		.loc 2 137 0
 154 0016 A360     		str	r3, [r4, #8]
 155              		.loc 2 139 0
 156 0018 94F82030 		ldrb	r3, [r4, #32]	@ zero_extendqisi2
 157 001c 6BB1     		cbz	r3, .L13
 158 001e 042B     		cmp	r3, #4
 159 0020 13D1     		bne	.L12
 160              	.LVL7:
 161              	.LBB22:
 162              	.LBB23:
 163              		.loc 1 75 0
 164 0022 94E80C00 		ldmia	r4, {r2, r3}
 165 0026 1A60     		str	r2, [r3]
 166              		.loc 1 76 0
 167 0028 2268     		ldr	r2, [r4]
 168              	.LBE23:
 169              	.LBE22:
 170              		.loc 2 142 0
 171 002a 2046     		mov	r0, r4
ARM GAS  /var/folders/_2/42wyrlld3p52fkcpt1lv6gxh0000gp/T//cc0IBKMc.s 			page 4


 172              	.LBB25:
 173              	.LBB24:
 174              		.loc 1 76 0
 175 002c 5360     		str	r3, [r2, #4]
 176              	.LVL8:
 177              	.LBE24:
 178              	.LBE25:
 179              		.loc 2 142 0
 180 002e A16A     		ldr	r1, [r4, #40]
 181 0030 FFF7FEFF 		bl	prio_insert
 182              	.LVL9:
 183              		.loc 2 143 0
 184 0034 A36A     		ldr	r3, [r4, #40]
 185 0036 9C68     		ldr	r4, [r3, #8]
 186              	.LVL10:
 187              		.loc 2 144 0
 188 0038 E9E7     		b	.L11
 189              	.L13:
 190              	.LVL11:
 191              	.LBB26:
 192              	.LBB27:
 193              		.loc 1 75 0
 194 003a 94E80C00 		ldmia	r4, {r2, r3}
 195 003e 1A60     		str	r2, [r3]
 196              		.loc 1 76 0
 197 0040 2268     		ldr	r2, [r4]
 198              	.LBE27:
 199              	.LBE26:
 200              		.loc 2 167 0
 201 0042 2046     		mov	r0, r4
 202              	.LBB29:
 203              	.LBB28:
 204              		.loc 1 76 0
 205 0044 5360     		str	r3, [r2, #4]
 206              	.LVL12:
 207              	.LBE28:
 208              	.LBE29:
 209              		.loc 2 167 0
 210 0046 FFF7FEFF 		bl	chSchReadyI
 211              	.LVL13:
 212              	.L12:
 213              		.loc 2 173 0
 214 004a 2846     		mov	r0, r5
 215 004c 3146     		mov	r1, r6
 216 004e FFF7FEFF 		bl	prio_insert
 217              	.LVL14:
 218              		.loc 2 175 0
 219 0052 0420     		movs	r0, #4
 220              		.loc 2 174 0
 221 0054 AE62     		str	r6, [r5, #40]
 222              	.LBE21:
 223              		.loc 2 187 0
 224 0056 BD46     		mov	sp, r7
 225              	.LCFI6:
 226              		.cfi_remember_state
 227              		.cfi_def_cfa_register 13
 228              		@ sp needed
ARM GAS  /var/folders/_2/42wyrlld3p52fkcpt1lv6gxh0000gp/T//cc0IBKMc.s 			page 5


 229 0058 BDE8F840 		pop	{r3, r4, r5, r6, r7, lr}
 230              	.LCFI7:
 231              		.cfi_restore 14
 232              		.cfi_restore 7
 233              		.cfi_restore 6
 234              		.cfi_restore 5
 235              		.cfi_restore 4
 236              		.cfi_restore 3
 237              		.cfi_def_cfa_offset 0
 238              	.LVL15:
 239              	.LBB30:
 240              		.loc 2 175 0
 241 005c FFF7FEBF 		b	chSchGoSleepS
 242              	.LVL16:
 243              	.L16:
 244              	.LCFI8:
 245              		.cfi_restore_state
 246              	.LBE30:
 247              		.loc 2 184 0
 248 0060 6B6B     		ldr	r3, [r5, #52]
 249              		.loc 2 183 0
 250 0062 8560     		str	r5, [r0, #8]
 251              		.loc 2 184 0
 252 0064 C360     		str	r3, [r0, #12]
 253              		.loc 2 185 0
 254 0066 6863     		str	r0, [r5, #52]
 255 0068 F8BD     		pop	{r3, r4, r5, r6, r7, pc}
 256              	.LVL17:
 257              	.L18:
 258 006a 00BF     		.align	2
 259              	.L17:
 260 006c 00000000 		.word	rlist
 261              		.cfi_endproc
 262              	.LFE9:
 263              		.size	chMtxLockS, .-chMtxLockS
 264              		.section	.text.chMtxLock,"ax",%progbits
 265              		.align	1
 266              		.global	chMtxLock
 267              		.thumb
 268              		.thumb_func
 269              		.type	chMtxLock, %function
 270              	chMtxLock:
 271              	.LFB8:
 272              		.loc 2 103 0
 273              		.cfi_startproc
 274              		@ args = 0, pretend = 0, frame = 0
 275              		@ frame_needed = 1, uses_anonymous_args = 0
 276              	.LVL18:
 277 0000 80B5     		push	{r7, lr}
 278              	.LCFI9:
 279              		.cfi_def_cfa_offset 8
 280              		.cfi_offset 7, -8
 281              		.cfi_offset 14, -4
 282              	.LBB31:
 283              		.loc 2 105 0
 284 0002 2023     		movs	r3, #32
 285              	.LBE31:
ARM GAS  /var/folders/_2/42wyrlld3p52fkcpt1lv6gxh0000gp/T//cc0IBKMc.s 			page 6


 286              		.loc 2 103 0
 287 0004 00AF     		add	r7, sp, #0
 288              	.LCFI10:
 289              		.cfi_def_cfa_register 7
 290              	.LBB32:
 291              		.loc 2 105 0
 292              		.syntax unified
 293              	@ 105 "chibios/os/kernel/src/chmtx.c" 1
 294 0006 83F31188 		msr     BASEPRI, r3
 295              	@ 0 "" 2
 296              		.thumb
 297              		.syntax unified
 298              	.LBE32:
 299              		.loc 2 107 0
 300 000a FFF7FEFF 		bl	chMtxLockS
 301              	.LVL19:
 302              	.LBB33:
 303              		.loc 2 109 0
 304 000e 0023     		movs	r3, #0
 305              		.syntax unified
 306              	@ 109 "chibios/os/kernel/src/chmtx.c" 1
 307 0010 83F31188 		msr     BASEPRI, r3
 308              	@ 0 "" 2
 309              		.thumb
 310              		.syntax unified
 311 0014 80BD     		pop	{r7, pc}
 312              	.LBE33:
 313              		.cfi_endproc
 314              	.LFE8:
 315              		.size	chMtxLock, .-chMtxLock
 316              		.section	.text.chMtxTryLockS,"ax",%progbits
 317              		.align	1
 318              		.global	chMtxTryLockS
 319              		.thumb
 320              		.thumb_func
 321              		.type	chMtxTryLockS, %function
 322              	chMtxTryLockS:
 323              	.LFB11:
 324              		.loc 2 234 0
 325              		.cfi_startproc
 326              		@ args = 0, pretend = 0, frame = 0
 327              		@ frame_needed = 1, uses_anonymous_args = 0
 328              	.LVL20:
 329 0000 80B5     		push	{r7, lr}
 330              	.LCFI11:
 331              		.cfi_def_cfa_offset 8
 332              		.cfi_offset 7, -8
 333              		.cfi_offset 14, -4
 334              		.loc 2 239 0
 335 0002 8368     		ldr	r3, [r0, #8]
 336              		.loc 2 234 0
 337 0004 00AF     		add	r7, sp, #0
 338              	.LCFI12:
 339              		.cfi_def_cfa_register 7
 340              		.loc 2 239 0
 341 0006 3BB9     		cbnz	r3, .L22
 342              	.LVL21:
ARM GAS  /var/folders/_2/42wyrlld3p52fkcpt1lv6gxh0000gp/T//cc0IBKMc.s 			page 7


 343              	.LBB36:
 344              	.LBB37:
 345              		.loc 2 241 0
 346 0008 044B     		ldr	r3, .L23
 347 000a 9B69     		ldr	r3, [r3, #24]
 348              		.loc 2 242 0
 349 000c 5A6B     		ldr	r2, [r3, #52]
 350              		.loc 2 241 0
 351 000e 8360     		str	r3, [r0, #8]
 352              		.loc 2 242 0
 353 0010 C260     		str	r2, [r0, #12]
 354              		.loc 2 243 0
 355 0012 5863     		str	r0, [r3, #52]
 356              	.LVL22:
 357 0014 0120     		movs	r0, #1
 358              	.LVL23:
 359 0016 80BD     		pop	{r7, pc}
 360              	.LVL24:
 361              	.L22:
 362              	.LBE37:
 363              	.LBE36:
 364              		.loc 2 240 0
 365 0018 0020     		movs	r0, #0
 366              	.LVL25:
 367              		.loc 2 245 0
 368 001a 80BD     		pop	{r7, pc}
 369              	.L24:
 370              		.align	2
 371              	.L23:
 372 001c 00000000 		.word	rlist
 373              		.cfi_endproc
 374              	.LFE11:
 375              		.size	chMtxTryLockS, .-chMtxTryLockS
 376              		.section	.text.chMtxTryLock,"ax",%progbits
 377              		.align	1
 378              		.global	chMtxTryLock
 379              		.thumb
 380              		.thumb_func
 381              		.type	chMtxTryLock, %function
 382              	chMtxTryLock:
 383              	.LFB10:
 384              		.loc 2 206 0
 385              		.cfi_startproc
 386              		@ args = 0, pretend = 0, frame = 0
 387              		@ frame_needed = 1, uses_anonymous_args = 0
 388              	.LVL26:
 389 0000 80B5     		push	{r7, lr}
 390              	.LCFI13:
 391              		.cfi_def_cfa_offset 8
 392              		.cfi_offset 7, -8
 393              		.cfi_offset 14, -4
 394              	.LBB38:
 395              		.loc 2 209 0
 396 0002 2023     		movs	r3, #32
 397              	.LBE38:
 398              		.loc 2 206 0
 399 0004 00AF     		add	r7, sp, #0
ARM GAS  /var/folders/_2/42wyrlld3p52fkcpt1lv6gxh0000gp/T//cc0IBKMc.s 			page 8


 400              	.LCFI14:
 401              		.cfi_def_cfa_register 7
 402              	.LBB39:
 403              		.loc 2 209 0
 404              		.syntax unified
 405              	@ 209 "chibios/os/kernel/src/chmtx.c" 1
 406 0006 83F31188 		msr     BASEPRI, r3
 407              	@ 0 "" 2
 408              		.thumb
 409              		.syntax unified
 410              	.LBE39:
 411              		.loc 2 211 0
 412 000a FFF7FEFF 		bl	chMtxTryLockS
 413              	.LVL27:
 414              	.LBB40:
 415              		.loc 2 213 0
 416 000e 0023     		movs	r3, #0
 417              		.syntax unified
 418              	@ 213 "chibios/os/kernel/src/chmtx.c" 1
 419 0010 83F31188 		msr     BASEPRI, r3
 420              	@ 0 "" 2
 421              		.thumb
 422              		.syntax unified
 423              	.LBE40:
 424              		.loc 2 215 0
 425 0014 80BD     		pop	{r7, pc}
 426              		.cfi_endproc
 427              	.LFE10:
 428              		.size	chMtxTryLock, .-chMtxTryLock
 429              		.section	.text.chMtxUnlock,"ax",%progbits
 430              		.align	1
 431              		.global	chMtxUnlock
 432              		.thumb
 433              		.thumb_func
 434              		.type	chMtxUnlock, %function
 435              	chMtxUnlock:
 436              	.LFB12:
 437              		.loc 2 257 0
 438              		.cfi_startproc
 439              		@ args = 0, pretend = 0, frame = 0
 440              		@ frame_needed = 1, uses_anonymous_args = 0
 441 0000 B0B5     		push	{r4, r5, r7, lr}
 442              	.LCFI15:
 443              		.cfi_def_cfa_offset 16
 444              		.cfi_offset 4, -16
 445              		.cfi_offset 5, -12
 446              		.cfi_offset 7, -8
 447              		.cfi_offset 14, -4
 448              		.loc 2 258 0
 449 0002 144B     		ldr	r3, .L33
 450              		.loc 2 257 0
 451 0004 00AF     		add	r7, sp, #0
 452              	.LCFI16:
 453              		.cfi_def_cfa_register 7
 454              		.loc 2 258 0
 455 0006 9A69     		ldr	r2, [r3, #24]
 456              	.LVL28:
ARM GAS  /var/folders/_2/42wyrlld3p52fkcpt1lv6gxh0000gp/T//cc0IBKMc.s 			page 9


 457              	.LBB41:
 458              		.loc 2 261 0
 459 0008 2023     		movs	r3, #32
 460              		.syntax unified
 461              	@ 261 "chibios/os/kernel/src/chmtx.c" 1
 462 000a 83F31188 		msr     BASEPRI, r3
 463              	@ 0 "" 2
 464              		.thumb
 465              		.syntax unified
 466              	.LBE41:
 467              		.loc 2 265 0
 468 000e 546B     		ldr	r4, [r2, #52]
 469              	.LVL29:
 470              		.loc 2 273 0
 471 0010 2068     		ldr	r0, [r4]
 472              		.loc 2 271 0
 473 0012 E168     		ldr	r1, [r4, #12]
 474              		.loc 2 273 0
 475 0014 A042     		cmp	r0, r4
 476              		.loc 2 271 0
 477 0016 5163     		str	r1, [r2, #52]
 478              		.loc 2 273 0
 479 0018 15D0     		beq	.L27
 480              	.LBB42:
 481              		.loc 2 278 0
 482 001a 936B     		ldr	r3, [r2, #56]
 483              	.LVL30:
 484              	.L28:
 485              		.loc 2 280 0
 486 001c 41B1     		cbz	r1, .L32
 487              		.loc 2 284 0
 488 001e 0D68     		ldr	r5, [r1]
 489 0020 8D42     		cmp	r5, r1
 490 0022 03D0     		beq	.L29
 491              		.loc 2 284 0 is_stmt 0 discriminator 1
 492 0024 AD68     		ldr	r5, [r5, #8]
 493 0026 AB42     		cmp	r3, r5
 494 0028 38BF     		it	cc
 495 002a 2B46     		movcc	r3, r5
 496              	.LVL31:
 497              	.L29:
 498              		.loc 2 286 0 is_stmt 1
 499 002c C968     		ldr	r1, [r1, #12]
 500              	.LVL32:
 501 002e F5E7     		b	.L28
 502              	.L32:
 503              		.loc 2 290 0
 504 0030 9360     		str	r3, [r2, #8]
 505              	.LVL33:
 506              	.LBB43:
 507              	.LBB44:
 508              		.loc 1 62 0
 509 0032 0368     		ldr	r3, [r0]
 510              	.LVL34:
 511 0034 2360     		str	r3, [r4]
 512 0036 5C60     		str	r4, [r3, #4]
 513              	.LVL35:
ARM GAS  /var/folders/_2/42wyrlld3p52fkcpt1lv6gxh0000gp/T//cc0IBKMc.s 			page 10


 514              	.LBE44:
 515              	.LBE43:
 516              		.loc 2 295 0
 517 0038 436B     		ldr	r3, [r0, #52]
 518              		.loc 2 294 0
 519 003a A060     		str	r0, [r4, #8]
 520              		.loc 2 295 0
 521 003c E360     		str	r3, [r4, #12]
 522              		.loc 2 296 0
 523 003e 4463     		str	r4, [r0, #52]
 524              		.loc 2 297 0
 525 0040 FFF7FEFF 		bl	chSchWakeupS
 526              	.LVL36:
 527              	.LBE42:
 528 0044 01E0     		b	.L31
 529              	.LVL37:
 530              	.L27:
 531              		.loc 2 300 0
 532 0046 0023     		movs	r3, #0
 533 0048 A360     		str	r3, [r4, #8]
 534              	.LVL38:
 535              	.L31:
 536              	.LBB45:
 537              		.loc 2 301 0
 538 004a 0023     		movs	r3, #0
 539              		.syntax unified
 540              	@ 301 "chibios/os/kernel/src/chmtx.c" 1
 541 004c 83F31188 		msr     BASEPRI, r3
 542              	@ 0 "" 2
 543              		.thumb
 544              		.syntax unified
 545              	.LBE45:
 546              		.loc 2 303 0
 547 0050 2046     		mov	r0, r4
 548 0052 B0BD     		pop	{r4, r5, r7, pc}
 549              	.LVL39:
 550              	.L34:
 551              		.align	2
 552              	.L33:
 553 0054 00000000 		.word	rlist
 554              		.cfi_endproc
 555              	.LFE12:
 556              		.size	chMtxUnlock, .-chMtxUnlock
 557              		.section	.text.chMtxUnlockS,"ax",%progbits
 558              		.align	1
 559              		.global	chMtxUnlockS
 560              		.thumb
 561              		.thumb_func
 562              		.type	chMtxUnlockS, %function
 563              	chMtxUnlockS:
 564              	.LFB13:
 565              		.loc 2 317 0
 566              		.cfi_startproc
 567              		@ args = 0, pretend = 0, frame = 0
 568              		@ frame_needed = 1, uses_anonymous_args = 0
 569              		.loc 2 318 0
 570 0000 114B     		ldr	r3, .L42
ARM GAS  /var/folders/_2/42wyrlld3p52fkcpt1lv6gxh0000gp/T//cc0IBKMc.s 			page 11


 571              		.loc 2 317 0
 572 0002 B0B5     		push	{r4, r5, r7, lr}
 573              	.LCFI17:
 574              		.cfi_def_cfa_offset 16
 575              		.cfi_offset 4, -16
 576              		.cfi_offset 5, -12
 577              		.cfi_offset 7, -8
 578              		.cfi_offset 14, -4
 579              		.loc 2 318 0
 580 0004 9A69     		ldr	r2, [r3, #24]
 581              	.LVL40:
 582              		.loc 2 317 0
 583 0006 00AF     		add	r7, sp, #0
 584              	.LCFI18:
 585              		.cfi_def_cfa_register 7
 586              		.loc 2 325 0
 587 0008 546B     		ldr	r4, [r2, #52]
 588              	.LVL41:
 589              		.loc 2 334 0
 590 000a 2068     		ldr	r0, [r4]
 591              		.loc 2 332 0
 592 000c E368     		ldr	r3, [r4, #12]
 593              		.loc 2 334 0
 594 000e A042     		cmp	r0, r4
 595              		.loc 2 332 0
 596 0010 5363     		str	r3, [r2, #52]
 597              		.loc 2 334 0
 598 0012 15D0     		beq	.L36
 599              	.LBB46:
 600              		.loc 2 339 0
 601 0014 916B     		ldr	r1, [r2, #56]
 602              	.LVL42:
 603              	.L37:
 604              		.loc 2 341 0
 605 0016 43B1     		cbz	r3, .L41
 606              		.loc 2 345 0
 607 0018 1D68     		ldr	r5, [r3]
 608 001a 9D42     		cmp	r5, r3
 609 001c 03D0     		beq	.L38
 610              		.loc 2 345 0 is_stmt 0 discriminator 1
 611 001e AD68     		ldr	r5, [r5, #8]
 612 0020 A942     		cmp	r1, r5
 613 0022 38BF     		it	cc
 614 0024 2946     		movcc	r1, r5
 615              	.LVL43:
 616              	.L38:
 617              		.loc 2 347 0 is_stmt 1
 618 0026 DB68     		ldr	r3, [r3, #12]
 619              	.LVL44:
 620 0028 F5E7     		b	.L37
 621              	.L41:
 622              	.LBB47:
 623              	.LBB48:
 624              		.loc 1 62 0
 625 002a 0368     		ldr	r3, [r0]
 626              	.LVL45:
 627              	.LBE48:
ARM GAS  /var/folders/_2/42wyrlld3p52fkcpt1lv6gxh0000gp/T//cc0IBKMc.s 			page 12


 628              	.LBE47:
 629              		.loc 2 349 0
 630 002c 9160     		str	r1, [r2, #8]
 631              	.LVL46:
 632              	.LBB50:
 633              	.LBB49:
 634              		.loc 1 62 0
 635 002e 2360     		str	r3, [r4]
 636 0030 5C60     		str	r4, [r3, #4]
 637              	.LVL47:
 638              	.LBE49:
 639              	.LBE50:
 640              		.loc 2 354 0
 641 0032 436B     		ldr	r3, [r0, #52]
 642              		.loc 2 353 0
 643 0034 A060     		str	r0, [r4, #8]
 644              		.loc 2 354 0
 645 0036 E360     		str	r3, [r4, #12]
 646              		.loc 2 355 0
 647 0038 4463     		str	r4, [r0, #52]
 648              		.loc 2 356 0
 649 003a FFF7FEFF 		bl	chSchReadyI
 650              	.LVL48:
 651              	.LBE46:
 652 003e 01E0     		b	.L40
 653              	.LVL49:
 654              	.L36:
 655              		.loc 2 359 0
 656 0040 0023     		movs	r3, #0
 657 0042 A360     		str	r3, [r4, #8]
 658              	.LVL50:
 659              	.L40:
 660              		.loc 2 361 0
 661 0044 2046     		mov	r0, r4
 662 0046 B0BD     		pop	{r4, r5, r7, pc}
 663              	.LVL51:
 664              	.L43:
 665              		.align	2
 666              	.L42:
 667 0048 00000000 		.word	rlist
 668              		.cfi_endproc
 669              	.LFE13:
 670              		.size	chMtxUnlockS, .-chMtxUnlockS
 671              		.section	.text.chMtxUnlockAll,"ax",%progbits
 672              		.align	1
 673              		.global	chMtxUnlockAll
 674              		.thumb
 675              		.thumb_func
 676              		.type	chMtxUnlockAll, %function
 677              	chMtxUnlockAll:
 678              	.LFB14:
 679              		.loc 2 374 0
 680              		.cfi_startproc
 681              		@ args = 0, pretend = 0, frame = 0
 682              		@ frame_needed = 1, uses_anonymous_args = 0
 683 0000 B0B5     		push	{r4, r5, r7, lr}
 684              	.LCFI19:
ARM GAS  /var/folders/_2/42wyrlld3p52fkcpt1lv6gxh0000gp/T//cc0IBKMc.s 			page 13


 685              		.cfi_def_cfa_offset 16
 686              		.cfi_offset 4, -16
 687              		.cfi_offset 5, -12
 688              		.cfi_offset 7, -8
 689              		.cfi_offset 14, -4
 690              		.loc 2 375 0
 691 0002 124B     		ldr	r3, .L54
 692              		.loc 2 374 0
 693 0004 00AF     		add	r7, sp, #0
 694              	.LCFI20:
 695              		.cfi_def_cfa_register 7
 696              		.loc 2 375 0
 697 0006 9C69     		ldr	r4, [r3, #24]
 698              	.LVL52:
 699              	.LBB51:
 700              		.loc 2 377 0
 701 0008 2023     		movs	r3, #32
 702              		.syntax unified
 703              	@ 377 "chibios/os/kernel/src/chmtx.c" 1
 704 000a 83F31188 		msr     BASEPRI, r3
 705              	@ 0 "" 2
 706              		.thumb
 707              		.syntax unified
 708              	.LBE51:
 709              		.loc 2 378 0
 710 000e 636B     		ldr	r3, [r4, #52]
 711 0010 C3B1     		cbz	r3, .L45
 712              	.LBB52:
 713              		.loc 2 390 0
 714 0012 0025     		movs	r5, #0
 715              	.L51:
 716              		.loc 2 380 0
 717 0014 636B     		ldr	r3, [r4, #52]
 718              	.LVL53:
 719              		.loc 2 382 0
 720 0016 1868     		ldr	r0, [r3]
 721              		.loc 2 381 0
 722 0018 DA68     		ldr	r2, [r3, #12]
 723              		.loc 2 382 0
 724 001a 9842     		cmp	r0, r3
 725              		.loc 2 381 0
 726 001c 6263     		str	r2, [r4, #52]
 727              		.loc 2 382 0
 728 001e 09D0     		beq	.L46
 729              	.LVL54:
 730              	.LBB53:
 731              	.LBB54:
 732              	.LBB55:
 733              		.loc 1 62 0
 734 0020 0268     		ldr	r2, [r0]
 735 0022 1A60     		str	r2, [r3]
 736 0024 5360     		str	r3, [r2, #4]
 737              	.LVL55:
 738              	.LBE55:
 739              	.LBE54:
 740              		.loc 2 385 0
 741 0026 426B     		ldr	r2, [r0, #52]
ARM GAS  /var/folders/_2/42wyrlld3p52fkcpt1lv6gxh0000gp/T//cc0IBKMc.s 			page 14


 742              		.loc 2 384 0
 743 0028 9860     		str	r0, [r3, #8]
 744              		.loc 2 385 0
 745 002a DA60     		str	r2, [r3, #12]
 746              		.loc 2 386 0
 747 002c 4363     		str	r3, [r0, #52]
 748              		.loc 2 387 0
 749 002e FFF7FEFF 		bl	chSchReadyI
 750              	.LVL56:
 751              	.LBE53:
 752 0032 00E0     		b	.L47
 753              	.LVL57:
 754              	.L46:
 755              		.loc 2 390 0
 756 0034 8560     		str	r5, [r0, #8]
 757              	.LVL58:
 758              	.L47:
 759              	.LBE52:
 760              		.loc 2 391 0
 761 0036 636B     		ldr	r3, [r4, #52]
 762 0038 002B     		cmp	r3, #0
 763 003a EBD1     		bne	.L51
 764              		.loc 2 392 0
 765 003c A36B     		ldr	r3, [r4, #56]
 766 003e A360     		str	r3, [r4, #8]
 767              		.loc 2 393 0
 768 0040 FFF7FEFF 		bl	chSchRescheduleS
 769              	.LVL59:
 770              	.L45:
 771              	.LBB56:
 772              		.loc 2 395 0
 773 0044 0023     		movs	r3, #0
 774              		.syntax unified
 775              	@ 395 "chibios/os/kernel/src/chmtx.c" 1
 776 0046 83F31188 		msr     BASEPRI, r3
 777              	@ 0 "" 2
 778              		.thumb
 779              		.syntax unified
 780 004a B0BD     		pop	{r4, r5, r7, pc}
 781              	.LVL60:
 782              	.L55:
 783              		.align	2
 784              	.L54:
 785 004c 00000000 		.word	rlist
 786              	.LBE56:
 787              		.cfi_endproc
 788              	.LFE14:
 789              		.size	chMtxUnlockAll, .-chMtxUnlockAll
 790              		.text
 791              	.Letext0:
 792              		.file 3 "/Users/ARS/Applications/Eclipse.app/Contents/gcc-arm-none-eabi-5_3-2016q1/arm-none-eabi/i
 793              		.file 4 "/Users/ARS/Applications/Eclipse.app/Contents/gcc-arm-none-eabi-5_3-2016q1/arm-none-eabi/i
 794              		.file 5 "chibios/os/ports/GCC/ARMCMx/chtypes.h"
 795              		.file 6 "chibios/os/kernel/include/chlists.h"
 796              		.file 7 "chibios/os/kernel/include/chthreads.h"
 797              		.file 8 "chibios/os/ports/GCC/ARMCMx/chcore_v7m.h"
 798              		.file 9 "chibios/os/kernel/include/chschd.h"
ARM GAS  /var/folders/_2/42wyrlld3p52fkcpt1lv6gxh0000gp/T//cc0IBKMc.s 			page 15


 799              		.file 10 "chibios/os/kernel/include/chmtx.h"