ARM GAS  /var/folders/_2/42wyrlld3p52fkcpt1lv6gxh0000gp/T//ccTBrFyl.s 			page 1


   1              		.syntax unified
   2              		.cpu cortex-m3
   3              		.fpu softvfp
   4              		.eabi_attribute 20, 1
   5              		.eabi_attribute 21, 1
   6              		.eabi_attribute 23, 3
   7              		.eabi_attribute 24, 1
   8              		.eabi_attribute 25, 1
   9              		.eabi_attribute 26, 1
  10              		.eabi_attribute 30, 4
  11              		.eabi_attribute 34, 1
  12              		.eabi_attribute 18, 4
  13              		.thumb
  14              		.syntax unified
  15              		.file	"chprintf.c"
  16              		.text
  17              	.Ltext0:
  18              		.cfi_sections	.debug_frame
  19              		.section	.text.long_to_string_with_divisor.constprop.0,"ax",%progbits
  20              		.align	1
  21              		.thumb
  22              		.thumb_func
  23              		.type	long_to_string_with_divisor.constprop.0, %function
  24              	long_to_string_with_divisor.constprop.0:
  25              	.LFB10:
  26              		.file 1 "chibios/os/various/chprintf.c"
  27              		.loc 1 36 0
  28              		.cfi_startproc
  29              		@ args = 0, pretend = 0, frame = 0
  30              		@ frame_needed = 1, uses_anonymous_args = 0
  31              	.LVL0:
  32 0000 F0B5     		push	{r4, r5, r6, r7, lr}
  33              	.LCFI0:
  34              		.cfi_def_cfa_offset 20
  35              		.cfi_offset 4, -20
  36              		.cfi_offset 5, -16
  37              		.cfi_offset 6, -12
  38              		.cfi_offset 7, -8
  39              		.cfi_offset 14, -4
  40              		.loc 1 51 0
  41 0002 00F10B04 		add	r4, r0, #11
  42              	.LVL1:
  43 0006 0D46     		mov	r5, r1
  44 0008 2346     		mov	r3, r4
  45              		.loc 1 36 0
  46 000a 00AF     		add	r7, sp, #0
  47              	.LCFI1:
  48              		.cfi_def_cfa_register 7
  49              	.LVL2:
  50              	.L3:
  51              		.loc 1 53 0
  52 000c B1FBF2FE 		udiv	lr, r1, r2
  53              		.loc 1 59 0
  54 0010 B5FBF2F5 		udiv	r5, r5, r2
  55              	.LVL3:
  56              		.loc 1 53 0
  57 0014 02FB1E11 		mls	r1, r2, lr, r1
ARM GAS  /var/folders/_2/42wyrlld3p52fkcpt1lv6gxh0000gp/T//ccTBrFyl.s 			page 2


  58              	.LVL4:
  59              		.loc 1 54 0
  60 0018 01F13006 		add	r6, r1, #48
  61              	.LVL5:
  62              		.loc 1 55 0
  63 001c 392E     		cmp	r6, #57
  64              		.loc 1 56 0
  65 001e C8BF     		it	gt
  66 0020 01F13706 		addgt	r6, r1, #55
  67              	.LVL6:
  68              		.loc 1 57 0
  69 0024 03F8016D 		strb	r6, [r3, #-1]!
  70              	.LVL7:
  71              		.loc 1 58 0
  72 0028 7146     		mov	r1, lr
  73              	.LVL8:
  74              		.loc 1 59 0
  75 002a 002D     		cmp	r5, #0
  76 002c EED1     		bne	.L3
  77              	.LVL9:
  78 002e 421E     		subs	r2, r0, #1
  79              	.LVL10:
  80 0030 E11A     		subs	r1, r4, r3
  81              	.LVL11:
  82              	.L4:
  83              		.loc 1 63 0
  84 0032 13F8015B 		ldrb	r5, [r3], #1	@ zero_extendqisi2
  85              	.LVL12:
  86              		.loc 1 64 0
  87 0036 9C42     		cmp	r4, r3
  88              		.loc 1 63 0
  89 0038 02F8015F 		strb	r5, [r2, #1]!
  90              		.loc 1 64 0
  91 003c F9D1     		bne	.L4
  92              		.loc 1 67 0
  93 003e 0844     		add	r0, r0, r1
  94 0040 F0BD     		pop	{r4, r5, r6, r7, pc}
  95              		.cfi_endproc
  96              	.LFE10:
  97              		.size	long_to_string_with_divisor.constprop.0, .-long_to_string_with_divisor.constprop.0
  98              		.section	.text.chprintf,"ax",%progbits
  99              		.align	1
 100              		.global	chprintf
 101              		.thumb
 102              		.thumb_func
 103              		.type	chprintf, %function
 104              	chprintf:
 105              	.LFB9:
 106              		.loc 1 108 0
 107              		.cfi_startproc
 108              		@ args = 4, pretend = 12, frame = 16
 109              		@ frame_needed = 1, uses_anonymous_args = 1
 110              	.LVL13:
 111 0000 0EB4     		push	{r1, r2, r3}
 112              	.LCFI2:
 113              		.cfi_def_cfa_offset 12
 114              		.cfi_offset 1, -12
ARM GAS  /var/folders/_2/42wyrlld3p52fkcpt1lv6gxh0000gp/T//ccTBrFyl.s 			page 3


 115              		.cfi_offset 2, -8
 116              		.cfi_offset 3, -4
 117 0002 2DE9F04F 		push	{r4, r5, r6, r7, r8, r9, r10, fp, lr}
 118              	.LCFI3:
 119              		.cfi_def_cfa_offset 48
 120              		.cfi_offset 4, -48
 121              		.cfi_offset 5, -44
 122              		.cfi_offset 6, -40
 123              		.cfi_offset 7, -36
 124              		.cfi_offset 8, -32
 125              		.cfi_offset 9, -28
 126              		.cfi_offset 10, -24
 127              		.cfi_offset 11, -20
 128              		.cfi_offset 14, -16
 129 0006 84B0     		sub	sp, sp, #16
 130              	.LCFI4:
 131              		.cfi_def_cfa_offset 64
 132 0008 8346     		mov	fp, r0
 133 000a 00AF     		add	r7, sp, #0
 134              	.LCFI5:
 135              		.cfi_def_cfa_register 7
 136              		.loc 1 108 0
 137 000c 07F13402 		add	r2, r7, #52
 138 0010 52F8043B 		ldr	r3, [r2], #4
 139              		.loc 1 121 0
 140 0014 3A60     		str	r2, [r7]
 141              	.LVL14:
 142              	.L9:
 143              		.loc 1 123 0
 144 0016 1978     		ldrb	r1, [r3]	@ zero_extendqisi2
 145 0018 5E1C     		adds	r6, r3, #1
 146              	.LVL15:
 147              		.loc 1 124 0
 148 001a 0029     		cmp	r1, #0
 149 001c 00F0EB80 		beq	.L156
 150              		.loc 1 128 0
 151 0020 2529     		cmp	r1, #37
 152 0022 06D0     		beq	.L11
 153              		.loc 1 129 0
 154 0024 DBF80030 		ldr	r3, [fp]
 155 0028 5846     		mov	r0, fp
 156 002a 9B68     		ldr	r3, [r3, #8]
 157 002c 9847     		blx	r3
 158              	.LVL16:
 159              	.L12:
 160              		.loc 1 108 0
 161 002e 3346     		mov	r3, r6
 162 0030 F1E7     		b	.L9
 163              	.LVL17:
 164              	.L11:
 165              		.loc 1 135 0
 166 0032 5A78     		ldrb	r2, [r3, #1]	@ zero_extendqisi2
 167 0034 2D2A     		cmp	r2, #45
 168              		.loc 1 136 0
 169 0036 08BF     		it	eq
 170 0038 9E1C     		addeq	r6, r3, #2
 171              	.LVL18:
ARM GAS  /var/folders/_2/42wyrlld3p52fkcpt1lv6gxh0000gp/T//ccTBrFyl.s 			page 4


 172              		.loc 1 140 0
 173 003a 3378     		ldrb	r3, [r6]	@ zero_extendqisi2
 174              		.loc 1 137 0
 175 003c 0CBF     		ite	eq
 176 003e 4FF00109 		moveq	r9, #1
 177              		.loc 1 134 0
 178 0042 4FF00009 		movne	r9, #0
 179              	.LVL19:
 180              		.loc 1 140 0
 181 0046 2E2B     		cmp	r3, #46
 182 0048 01D0     		beq	.L14
 183              		.loc 1 140 0 is_stmt 0 discriminator 1
 184 004a 302B     		cmp	r3, #48
 185 004c 03D1     		bne	.L60
 186              	.L14:
 187              		.loc 1 141 0 is_stmt 1
 188 004e 0136     		adds	r6, r6, #1
 189              	.LVL20:
 190              		.loc 1 142 0
 191 0050 4FF03008 		mov	r8, #48
 192 0054 01E0     		b	.L15
 193              	.LVL21:
 194              	.L60:
 195              		.loc 1 139 0
 196 0056 4FF02008 		mov	r8, #32
 197              	.LVL22:
 198              	.L15:
 199              		.loc 1 142 0
 200 005a 0020     		movs	r0, #0
 201              		.loc 1 144 0
 202 005c 0546     		mov	r5, r0
 203 005e 3968     		ldr	r1, [r7]
 204              	.LVL23:
 205              		.loc 1 153 0
 206 0060 0A24     		movs	r4, #10
 207              	.LVL24:
 208              	.L18:
 209              		.loc 1 146 0
 210 0062 16F8013B 		ldrb	r3, [r6], #1	@ zero_extendqisi2
 211              	.LVL25:
 212              		.loc 1 147 0
 213 0066 A3F13002 		sub	r2, r3, #48
 214 006a D2B2     		uxtb	r2, r2
 215 006c 092A     		cmp	r2, #9
 216 006e 04D9     		bls	.L16
 217              		.loc 1 149 0
 218 0070 2A2B     		cmp	r3, #42
 219 0072 05D1     		bne	.L17
 220              		.loc 1 150 0
 221 0074 0A78     		ldrb	r2, [r1]	@ zero_extendqisi2
 222              	.LVL26:
 223 0076 0120     		movs	r0, #1
 224 0078 0431     		adds	r1, r1, #4
 225              	.LVL27:
 226              	.L16:
 227              		.loc 1 153 0
 228 007a 04FB0525 		mla	r5, r4, r5, r2
ARM GAS  /var/folders/_2/42wyrlld3p52fkcpt1lv6gxh0000gp/T//ccTBrFyl.s 			page 5


 229              	.LVL28:
 230              		.loc 1 154 0
 231 007e F0E7     		b	.L18
 232              	.LVL29:
 233              	.L17:
 234 0080 00B1     		cbz	r0, .L19
 235 0082 3960     		str	r1, [r7]
 236              	.L19:
 237              	.LVL30:
 238              		.loc 1 156 0
 239 0084 2E2B     		cmp	r3, #46
 240 0086 16D1     		bne	.L61
 241 0088 0024     		movs	r4, #0
 242 008a 2246     		mov	r2, r4
 243 008c 3868     		ldr	r0, [r7]
 244              		.loc 1 165 0
 245 008e 4FF00A0E 		mov	lr, #10
 246              	.LVL31:
 247              	.L24:
 248              		.loc 1 158 0
 249 0092 16F8013B 		ldrb	r3, [r6], #1	@ zero_extendqisi2
 250              	.LVL32:
 251              		.loc 1 159 0
 252 0096 A3F13001 		sub	r1, r3, #48
 253 009a C9B2     		uxtb	r1, r1
 254 009c 0929     		cmp	r1, #9
 255 009e 07D9     		bls	.L21
 256              		.loc 1 161 0
 257 00a0 2A2B     		cmp	r3, #42
 258 00a2 02D0     		beq	.L22
 259 00a4 44B1     		cbz	r4, .L20
 260 00a6 3860     		str	r0, [r7]
 261 00a8 06E0     		b	.L20
 262              	.L22:
 263              		.loc 1 162 0
 264 00aa 0178     		ldrb	r1, [r0]	@ zero_extendqisi2
 265              	.LVL33:
 266 00ac 0124     		movs	r4, #1
 267 00ae 0430     		adds	r0, r0, #4
 268              	.LVL34:
 269              	.L21:
 270              		.loc 1 166 0
 271 00b0 0EFB0212 		mla	r2, lr, r2, r1
 272              	.LVL35:
 273              		.loc 1 167 0
 274 00b4 EDE7     		b	.L24
 275              	.LVL36:
 276              	.L61:
 277              		.loc 1 155 0
 278 00b6 0022     		movs	r2, #0
 279              	.LVL37:
 280              	.L20:
 281              		.loc 1 170 0
 282 00b8 03F0DF01 		and	r1, r3, #223
 283 00bc 4C29     		cmp	r1, #76
 284 00be 03D1     		bne	.L26
 285              	.LVL38:
ARM GAS  /var/folders/_2/42wyrlld3p52fkcpt1lv6gxh0000gp/T//ccTBrFyl.s 			page 6


 286              		.loc 1 172 0
 287 00c0 3178     		ldrb	r1, [r6]	@ zero_extendqisi2
 288 00c2 09B1     		cbz	r1, .L26
 289              		.loc 1 173 0
 290 00c4 0B46     		mov	r3, r1
 291              	.LVL39:
 292 00c6 0136     		adds	r6, r6, #1
 293              	.LVL40:
 294              	.L26:
 295              		.loc 1 179 0
 296 00c8 632B     		cmp	r3, #99
 297 00ca 0AD1     		bne	.L178
 298              	.LVL41:
 299              		.loc 1 182 0
 300 00cc 3B68     		ldr	r3, [r7]
 301              	.LVL42:
 302 00ce 07F11004 		add	r4, r7, #16
 303 00d2 1A1D     		adds	r2, r3, #4
 304 00d4 1B68     		ldr	r3, [r3]
 305 00d6 3A60     		str	r2, [r7]
 306 00d8 04F80C3D 		strb	r3, [r4, #-12]!
 307              		.loc 1 181 0
 308 00dc 4FF02008 		mov	r8, #32
 309 00e0 0BE0     		b	.L161
 310              	.LVL43:
 311              	.L178:
 312              		.loc 1 179 0
 313 00e2 55D8     		bhi	.L56
 314 00e4 4F2B     		cmp	r3, #79
 315 00e6 55D0     		beq	.L30
 316 00e8 09D9     		bls	.L179
 317 00ea 552B     		cmp	r3, #85
 318 00ec 57D0     		beq	.L33
 319 00ee 582B     		cmp	r3, #88
 320 00f0 60D0     		beq	.L67
 321              	.L27:
 322              	.LVL44:
 323              		.loc 1 236 0
 324 00f2 07F11004 		add	r4, r7, #16
 325 00f6 04F80C3D 		strb	r3, [r4, #-12]!
 326              	.LVL45:
 327              	.L161:
 328 00fa 781D     		adds	r0, r7, #5
 329              	.LVL46:
 330              		.loc 1 237 0
 331 00fc 11E0     		b	.L37
 332              	.LVL47:
 333              	.L179:
 334              		.loc 1 179 0
 335 00fe 442B     		cmp	r3, #68
 336 0100 54D1     		bne	.L180
 337              	.L42:
 338              		.loc 1 200 0
 339 0102 3B68     		ldr	r3, [r7]
 340              	.LVL48:
 341 0104 1A1D     		adds	r2, r3, #4
 342 0106 3A60     		str	r2, [r7]
ARM GAS  /var/folders/_2/42wyrlld3p52fkcpt1lv6gxh0000gp/T//ccTBrFyl.s 			page 7


 343 0108 1968     		ldr	r1, [r3]
 344              	.LVL49:
 345              	.LBB6:
 346              	.LBB7:
 347              		.loc 1 71 0
 348 010a 0A22     		movs	r2, #10
 349              	.LBE7:
 350              	.LBE6:
 351              		.loc 1 201 0
 352 010c 0029     		cmp	r1, #0
 353              		.loc 1 202 0
 354 010e BFBF     		itttt	lt
 355 0110 2D23     		movlt	r3, #45
 356 0112 3B71     		strblt	r3, [r7, #4]
 357              		.loc 1 203 0
 358 0114 4942     		rsblt	r1, r1, #0
 359              	.LVL50:
 360              		.loc 1 202 0
 361 0116 781D     		addlt	r0, r7, #5
 362              		.loc 1 132 0
 363 0118 A8BF     		it	ge
 364 011a 381D     		addge	r0, r7, #4
 365              	.LVL51:
 366              	.L160:
 367              	.LBB8:
 368              	.LBB9:
 369              		.loc 1 71 0
 370 011c FFF7FEFF 		bl	long_to_string_with_divisor.constprop.0
 371              	.LVL52:
 372              	.LBE9:
 373              	.LBE8:
 374              		.loc 1 133 0
 375 0120 3C1D     		adds	r4, r7, #4
 376              	.LVL53:
 377              	.L37:
 378              		.loc 1 239 0
 379 0122 C4EB000A 		rsb	r10, r4, r0
 380              	.LVL54:
 381              		.loc 1 240 0
 382 0126 CAEB0505 		rsb	r5, r10, r5
 383              	.LVL55:
 384 012a 25EAE575 		bic	r5, r5, r5, asr #31
 385              	.LVL56:
 386              		.loc 1 242 0
 387 012e B9F1000F 		cmp	r9, #0
 388 0132 17D1     		bne	.L52
 389              		.loc 1 243 0
 390 0134 6D42     		negs	r5, r5
 391              	.LVL57:
 392              		.loc 1 244 0
 393 0136 ADB1     		cbz	r5, .L52
 394              		.loc 1 245 0
 395 0138 2178     		ldrb	r1, [r4]	@ zero_extendqisi2
 396 013a 2D29     		cmp	r1, #45
 397 013c 0AD1     		bne	.L51
 398              		.loc 1 245 0 is_stmt 0 discriminator 1
 399 013e B8F1300F 		cmp	r8, #48
ARM GAS  /var/folders/_2/42wyrlld3p52fkcpt1lv6gxh0000gp/T//ccTBrFyl.s 			page 8


 400 0142 07D1     		bne	.L51
 401              		.loc 1 246 0 is_stmt 1
 402 0144 DBF80020 		ldr	r2, [fp]
 403 0148 5846     		mov	r0, fp
 404              	.LVL58:
 405 014a 9268     		ldr	r2, [r2, #8]
 406 014c 9047     		blx	r2
 407              	.LVL59:
 408 014e 0134     		adds	r4, r4, #1
 409              	.LVL60:
 410              		.loc 1 247 0
 411 0150 0AF1FF3A 		add	r10, r10, #-1
 412              	.LVL61:
 413              	.L51:
 414              		.loc 1 250 0 discriminator 1
 415 0154 DBF80020 		ldr	r2, [fp]
 416 0158 4146     		mov	r1, r8
 417 015a 9268     		ldr	r2, [r2, #8]
 418 015c 5846     		mov	r0, fp
 419 015e 9047     		blx	r2
 420              	.LVL62:
 421              		.loc 1 251 0 discriminator 1
 422 0160 0135     		adds	r5, r5, #1
 423              	.LVL63:
 424 0162 F7D1     		bne	.L51
 425              	.LVL64:
 426              	.L52:
 427              		.loc 1 253 0
 428 0164 BAF1010A 		subs	r10, r10, #1
 429              	.LVL65:
 430 0168 07D4     		bmi	.L54
 431              		.loc 1 254 0
 432 016a DBF80020 		ldr	r2, [fp]
 433 016e 14F8011B 		ldrb	r1, [r4], #1	@ zero_extendqisi2
 434              	.LVL66:
 435 0172 9268     		ldr	r2, [r2, #8]
 436 0174 5846     		mov	r0, fp
 437 0176 9047     		blx	r2
 438              	.LVL67:
 439 0178 F4E7     		b	.L52
 440              	.LVL68:
 441              	.L54:
 442              		.loc 1 256 0
 443 017a 002D     		cmp	r5, #0
 444 017c 3FF457AF 		beq	.L12
 445              		.loc 1 257 0
 446 0180 DBF80030 		ldr	r3, [fp]
 447 0184 4146     		mov	r1, r8
 448 0186 9B68     		ldr	r3, [r3, #8]
 449 0188 5846     		mov	r0, fp
 450 018a 9847     		blx	r3
 451              	.LVL69:
 452              		.loc 1 258 0
 453 018c 013D     		subs	r5, r5, #1
 454              	.LVL70:
 455 018e F4E7     		b	.L54
 456              	.LVL71:
ARM GAS  /var/folders/_2/42wyrlld3p52fkcpt1lv6gxh0000gp/T//ccTBrFyl.s 			page 9


 457              	.L56:
 458              		.loc 1 179 0
 459 0190 6F2B     		cmp	r3, #111
 460 0192 01D1     		bne	.L181
 461              	.L30:
 462              	.LVL72:
 463              		.loc 1 227 0
 464 0194 0822     		movs	r2, #8
 465 0196 03E0     		b	.L46
 466              	.LVL73:
 467              	.L181:
 468              		.loc 1 179 0
 469 0198 0ED9     		bls	.L182
 470 019a 752B     		cmp	r3, #117
 471 019c 08D1     		bne	.L183
 472              	.L33:
 473              	.LVL74:
 474              		.loc 1 223 0
 475 019e 0A22     		movs	r2, #10
 476              	.LVL75:
 477              	.L46:
 478              		.loc 1 232 0
 479 01a0 3B68     		ldr	r3, [r7]
 480              	.LBB11:
 481              	.LBB10:
 482              		.loc 1 71 0
 483 01a2 381D     		adds	r0, r7, #4
 484              	.LVL76:
 485              	.LBE10:
 486              	.LBE11:
 487              		.loc 1 232 0
 488 01a4 191D     		adds	r1, r3, #4
 489 01a6 3960     		str	r1, [r7]
 490 01a8 1968     		ldr	r1, [r3]
 491              	.LVL77:
 492 01aa B7E7     		b	.L160
 493              	.LVL78:
 494              	.L180:
 495              		.loc 1 179 0
 496 01ac 492B     		cmp	r3, #73
 497 01ae 06E0     		b	.L159
 498              	.L183:
 499 01b0 782B     		cmp	r3, #120
 500 01b2 06D1     		bne	.L184
 501              	.L34:
 502              	.L67:
 503              		.loc 1 219 0
 504 01b4 1022     		movs	r2, #16
 505              	.LVL79:
 506 01b6 F3E7     		b	.L46
 507              	.LVL80:
 508              	.L182:
 509              		.loc 1 179 0
 510 01b8 642B     		cmp	r3, #100
 511 01ba A2D0     		beq	.L42
 512 01bc 692B     		cmp	r3, #105
 513              	.L159:
ARM GAS  /var/folders/_2/42wyrlld3p52fkcpt1lv6gxh0000gp/T//ccTBrFyl.s 			page 10


 514 01be A0D0     		beq	.L42
 515 01c0 97E7     		b	.L27
 516              	.L184:
 517 01c2 732B     		cmp	r3, #115
 518 01c4 95D1     		bne	.L27
 519              	.LVL81:
 520              		.loc 1 186 0
 521 01c6 3B68     		ldr	r3, [r7]
 522              	.LVL82:
 523 01c8 191D     		adds	r1, r3, #4
 524 01ca 1C68     		ldr	r4, [r3]
 525              	.LVL83:
 526              		.loc 1 187 0
 527 01cc 0D4B     		ldr	r3, .L185
 528              		.loc 1 186 0
 529 01ce 3960     		str	r1, [r7]
 530              		.loc 1 187 0
 531 01d0 002C     		cmp	r4, #0
 532 01d2 08BF     		it	eq
 533 01d4 1C46     		moveq	r4, r3
 534              	.LVL84:
 535              		.loc 1 189 0
 536 01d6 47F6FF73 		movw	r3, #32767
 537 01da 002A     		cmp	r2, #0
 538 01dc 08BF     		it	eq
 539 01de 1A46     		moveq	r2, r3
 540 01e0 2046     		mov	r0, r4
 541 01e2 2244     		add	r2, r2, r4
 542              	.LVL85:
 543              	.L40:
 544              		.loc 1 190 0 discriminator 1
 545 01e4 0378     		ldrb	r3, [r0]	@ zero_extendqisi2
 546 01e6 1BB1     		cbz	r3, .L63
 547              		.loc 1 190 0 is_stmt 0 discriminator 3
 548 01e8 9042     		cmp	r0, r2
 549 01ea 01D0     		beq	.L63
 550              		.loc 1 190 0 discriminator 4
 551 01ec 0130     		adds	r0, r0, #1
 552              	.LVL86:
 553 01ee F9E7     		b	.L40
 554              	.L63:
 555              		.loc 1 185 0 is_stmt 1
 556 01f0 4FF02008 		mov	r8, #32
 557 01f4 95E7     		b	.L37
 558              	.LVL87:
 559              	.L156:
 560              		.loc 1 261 0
 561 01f6 1037     		adds	r7, r7, #16
 562              	.LCFI6:
 563              		.cfi_def_cfa_offset 48
 564 01f8 BD46     		mov	sp, r7
 565              	.LCFI7:
 566              		.cfi_def_cfa_register 13
 567              		@ sp needed
 568 01fa BDE8F04F 		pop	{r4, r5, r6, r7, r8, r9, r10, fp, lr}
 569              	.LCFI8:
 570              		.cfi_restore 14
ARM GAS  /var/folders/_2/42wyrlld3p52fkcpt1lv6gxh0000gp/T//ccTBrFyl.s 			page 11


 571              		.cfi_restore 11
 572              		.cfi_restore 10
 573              		.cfi_restore 9
 574              		.cfi_restore 8
 575              		.cfi_restore 7
 576              		.cfi_restore 6
 577              		.cfi_restore 5
 578              		.cfi_restore 4
 579              		.cfi_def_cfa_offset 12
 580              	.LVL88:
 581 01fe 03B0     		add	sp, sp, #12
 582              	.LCFI9:
 583              		.cfi_restore 3
 584              		.cfi_restore 2
 585              		.cfi_restore 1
 586              		.cfi_def_cfa_offset 0
 587 0200 7047     		bx	lr
 588              	.L186:
 589 0202 00BF     		.align	2
 590              	.L185:
 591 0204 00000000 		.word	.LC0
 592              		.cfi_endproc
 593              	.LFE9:
 594              		.size	chprintf, .-chprintf
 595              		.section	.rodata.str1.1,"aMS",%progbits,1
 596              	.LC0:
 597 0000 286E756C 		.ascii	"(null)\000"
 597      6C2900
 598              		.text
 599              	.Letext0:
 600              		.file 2 "/Users/ARS/Applications/Eclipse.app/Contents/gcc-arm-none-eabi-5_3-2016q1/lib/gcc/arm-non
 601              		.file 3 "/Users/ARS/Applications/Eclipse.app/Contents/gcc-arm-none-eabi-5_3-2016q1/lib/gcc/arm-non
 602              		.file 4 "/Users/ARS/Applications/Eclipse.app/Contents/gcc-arm-none-eabi-5_3-2016q1/arm-none-eabi/i
 603              		.file 5 "/Users/ARS/Applications/Eclipse.app/Contents/gcc-arm-none-eabi-5_3-2016q1/arm-none-eabi/i
 604              		.file 6 "chibios/os/ports/GCC/ARMCMx/chtypes.h"
 605              		.file 7 "<built-in>"
 606              		.file 8 "chibios/os/kernel/include/chstreams.h"