ARM GAS  /var/folders/_2/42wyrlld3p52fkcpt1lv6gxh0000gp/T//ccHkn4Oj.s 			page 1


   1              		.syntax unified
   2              		.cpu cortex-m3
   3              		.fpu softvfp
   4              		.eabi_attribute 20, 1
   5              		.eabi_attribute 21, 1
   6              		.eabi_attribute 23, 3
   7              		.eabi_attribute 24, 1
   8              		.eabi_attribute 25, 1
   9              		.eabi_attribute 26, 1
  10              		.eabi_attribute 30, 4
  11              		.eabi_attribute 34, 1
  12              		.eabi_attribute 18, 4
  13              		.thumb
  14              		.syntax unified
  15              		.file	"chqueues.c"
  16              		.text
  17              	.Ltext0:
  18              		.cfi_sections	.debug_frame
  19              		.section	.text.qwait,"ax",%progbits
  20              		.align	1
  21              		.thumb
  22              		.thumb_func
  23              		.type	qwait, %function
  24              	qwait:
  25              	.LFB7:
  26              		.file 1 "chibios/os/kernel/src/chqueues.c"
  27              		.loc 1 70 0
  28              		.cfi_startproc
  29              		@ args = 0, pretend = 0, frame = 0
  30              		@ frame_needed = 1, uses_anonymous_args = 0
  31              		@ link register save eliminated.
  32              	.LVL0:
  33 0000 80B4     		push	{r7}
  34              	.LCFI0:
  35              		.cfi_def_cfa_offset 4
  36              		.cfi_offset 7, -4
  37 0002 00AF     		add	r7, sp, #0
  38              	.LCFI1:
  39              		.cfi_def_cfa_register 7
  40              		.loc 1 72 0
  41 0004 61B1     		cbz	r1, .L2
  42              		.loc 1 74 0
  43 0006 094B     		ldr	r3, .L4
  44 0008 9B69     		ldr	r3, [r3, #24]
  45 000a 9862     		str	r0, [r3, #40]
  46              	.LVL1:
  47              	.LBB12:
  48              	.LBB13:
  49              		.file 2 "chibios/os/kernel/include/chinline.h"
  50              		.loc 2 55 0
  51 000c 4268     		ldr	r2, [r0, #4]
  52              		.loc 2 54 0
  53 000e 1860     		str	r0, [r3]
  54              		.loc 2 55 0
  55 0010 5A60     		str	r2, [r3, #4]
  56              		.loc 2 56 0
  57 0012 4360     		str	r3, [r0, #4]
ARM GAS  /var/folders/_2/42wyrlld3p52fkcpt1lv6gxh0000gp/T//ccHkn4Oj.s 			page 2


  58              	.LBE13:
  59              	.LBE12:
  60              		.loc 1 76 0
  61 0014 0D20     		movs	r0, #13
  62              	.LVL2:
  63              	.LBB15:
  64              	.LBB14:
  65              		.loc 2 56 0
  66 0016 1360     		str	r3, [r2]
  67              	.LVL3:
  68              	.LBE14:
  69              	.LBE15:
  70              		.loc 1 77 0
  71 0018 BD46     		mov	sp, r7
  72              	.LCFI2:
  73              		.cfi_remember_state
  74              		.cfi_def_cfa_register 13
  75              		@ sp needed
  76 001a 80BC     		pop	{r7}
  77              	.LCFI3:
  78              		.cfi_restore 7
  79              		.cfi_def_cfa_offset 0
  80              		.loc 1 76 0
  81 001c FFF7FEBF 		b	chSchGoSleepTimeoutS
  82              	.LVL4:
  83              	.L2:
  84              	.LCFI4:
  85              		.cfi_restore_state
  86              		.loc 1 77 0
  87 0020 4FF0FF30 		mov	r0, #-1
  88              	.LVL5:
  89 0024 BD46     		mov	sp, r7
  90              	.LCFI5:
  91              		.cfi_def_cfa_register 13
  92              		@ sp needed
  93 0026 80BC     		pop	{r7}
  94              	.LCFI6:
  95              		.cfi_restore 7
  96              		.cfi_def_cfa_offset 0
  97 0028 7047     		bx	lr
  98              	.L5:
  99 002a 00BF     		.align	2
 100              	.L4:
 101 002c 00000000 		.word	rlist
 102              		.cfi_endproc
 103              	.LFE7:
 104              		.size	qwait, .-qwait
 105              		.section	.text.chIQInit,"ax",%progbits
 106              		.align	1
 107              		.global	chIQInit
 108              		.thumb
 109              		.thumb_func
 110              		.type	chIQInit, %function
 111              	chIQInit:
 112              	.LFB8:
 113              		.loc 1 96 0
 114              		.cfi_startproc
ARM GAS  /var/folders/_2/42wyrlld3p52fkcpt1lv6gxh0000gp/T//ccHkn4Oj.s 			page 3


 115              		@ args = 4, pretend = 0, frame = 0
 116              		@ frame_needed = 1, uses_anonymous_args = 0
 117              	.LVL6:
 118 0000 90B5     		push	{r4, r7, lr}
 119              	.LCFI7:
 120              		.cfi_def_cfa_offset 12
 121              		.cfi_offset 4, -12
 122              		.cfi_offset 7, -8
 123              		.cfi_offset 14, -4
 124 0002 00AF     		add	r7, sp, #0
 125              	.LCFI8:
 126              		.cfi_def_cfa_register 7
 127              		.loc 1 102 0
 128 0004 C361     		str	r3, [r0, #28]
 129              		.loc 1 103 0
 130 0006 FB68     		ldr	r3, [r7, #12]
 131              	.LVL7:
 132              		.loc 1 99 0
 133 0008 0024     		movs	r4, #0
 134              		.loc 1 101 0
 135 000a 0A44     		add	r2, r2, r1
 136              	.LVL8:
 137              		.loc 1 98 0
 138 000c 4060     		str	r0, [r0, #4]
 139 000e 0060     		str	r0, [r0]
 140              		.loc 1 99 0
 141 0010 8460     		str	r4, [r0, #8]
 142              		.loc 1 100 0
 143 0012 4161     		str	r1, [r0, #20]
 144 0014 8161     		str	r1, [r0, #24]
 145 0016 C160     		str	r1, [r0, #12]
 146              		.loc 1 101 0
 147 0018 0261     		str	r2, [r0, #16]
 148              		.loc 1 103 0
 149 001a 0362     		str	r3, [r0, #32]
 150 001c 90BD     		pop	{r4, r7, pc}
 151              		.cfi_endproc
 152              	.LFE8:
 153              		.size	chIQInit, .-chIQInit
 154              		.section	.text.chIQResetI,"ax",%progbits
 155              		.align	1
 156              		.global	chIQResetI
 157              		.thumb
 158              		.thumb_func
 159              		.type	chIQResetI, %function
 160              	chIQResetI:
 161              	.LFB9:
 162              		.loc 1 117 0
 163              		.cfi_startproc
 164              		@ args = 0, pretend = 0, frame = 0
 165              		@ frame_needed = 1, uses_anonymous_args = 0
 166              	.LVL9:
 167 0000 B0B5     		push	{r4, r5, r7, lr}
 168              	.LCFI9:
 169              		.cfi_def_cfa_offset 16
 170              		.cfi_offset 4, -16
 171              		.cfi_offset 5, -12
ARM GAS  /var/folders/_2/42wyrlld3p52fkcpt1lv6gxh0000gp/T//ccHkn4Oj.s 			page 4


 172              		.cfi_offset 7, -8
 173              		.cfi_offset 14, -4
 174 0002 0446     		mov	r4, r0
 175              		.loc 1 121 0
 176 0004 C368     		ldr	r3, [r0, #12]
 177              		.loc 1 117 0
 178 0006 00AF     		add	r7, sp, #0
 179              	.LCFI10:
 180              		.cfi_def_cfa_register 7
 181              		.loc 1 121 0
 182 0008 4361     		str	r3, [r0, #20]
 183 000a 8361     		str	r3, [r0, #24]
 184              		.loc 1 122 0
 185 000c 0023     		movs	r3, #0
 186 000e 8360     		str	r3, [r0, #8]
 187              		.loc 1 124 0
 188 0010 6FF00105 		mvn	r5, #1
 189              	.LVL10:
 190              	.L8:
 191              		.loc 1 123 0
 192 0014 2068     		ldr	r0, [r4]
 193 0016 A042     		cmp	r0, r4
 194 0018 06D0     		beq	.L10
 195              	.LVL11:
 196              	.LBB16:
 197              	.LBB17:
 198              		.loc 2 62 0
 199 001a 0368     		ldr	r3, [r0]
 200 001c 2360     		str	r3, [r4]
 201 001e 5C60     		str	r4, [r3, #4]
 202              	.LVL12:
 203              	.LBE17:
 204              	.LBE16:
 205              		.loc 1 124 0
 206 0020 FFF7FEFF 		bl	chSchReadyI
 207              	.LVL13:
 208 0024 8562     		str	r5, [r0, #40]
 209 0026 F5E7     		b	.L8
 210              	.L10:
 211              		.loc 1 125 0
 212 0028 B0BD     		pop	{r4, r5, r7, pc}
 213              		.cfi_endproc
 214              	.LFE9:
 215              		.size	chIQResetI, .-chIQResetI
 216              		.section	.text.chIQPutI,"ax",%progbits
 217              		.align	1
 218              		.global	chIQPutI
 219              		.thumb
 220              		.thumb_func
 221              		.type	chIQPutI, %function
 222              	chIQPutI:
 223              	.LFB10:
 224              		.loc 1 140 0
 225              		.cfi_startproc
 226              		@ args = 0, pretend = 0, frame = 0
 227              		@ frame_needed = 1, uses_anonymous_args = 0
 228              	.LVL14:
ARM GAS  /var/folders/_2/42wyrlld3p52fkcpt1lv6gxh0000gp/T//ccHkn4Oj.s 			page 5


 229 0000 0346     		mov	r3, r0
 230 0002 80B5     		push	{r7, lr}
 231              	.LCFI11:
 232              		.cfi_def_cfa_offset 8
 233              		.cfi_offset 7, -8
 234              		.cfi_offset 14, -4
 235              		.loc 1 144 0
 236 0004 9A69     		ldr	r2, [r3, #24]
 237 0006 4069     		ldr	r0, [r0, #20]
 238              	.LVL15:
 239              		.loc 1 140 0
 240 0008 00AF     		add	r7, sp, #0
 241              	.LCFI12:
 242              		.cfi_def_cfa_register 7
 243              		.loc 1 144 0
 244 000a 9042     		cmp	r0, r2
 245 000c 9A68     		ldr	r2, [r3, #8]
 246 000e 03D1     		bne	.L12
 247              		.loc 1 144 0 is_stmt 0 discriminator 1
 248 0010 12B1     		cbz	r2, .L12
 249              		.loc 1 145 0 is_stmt 1
 250 0012 6FF00300 		mvn	r0, #3
 251 0016 80BD     		pop	{r7, pc}
 252              	.L12:
 253              		.loc 1 147 0
 254 0018 0132     		adds	r2, r2, #1
 255 001a 9A60     		str	r2, [r3, #8]
 256              		.loc 1 148 0
 257 001c 421C     		adds	r2, r0, #1
 258 001e 5A61     		str	r2, [r3, #20]
 259 0020 0170     		strb	r1, [r0]
 260              		.loc 1 149 0
 261 0022 5969     		ldr	r1, [r3, #20]
 262              	.LVL16:
 263 0024 1A69     		ldr	r2, [r3, #16]
 264 0026 9142     		cmp	r1, r2
 265 0028 01D3     		bcc	.L15
 266              		.loc 1 150 0
 267 002a DA68     		ldr	r2, [r3, #12]
 268 002c 5A61     		str	r2, [r3, #20]
 269              	.LVL17:
 270              	.L15:
 271              		.loc 1 152 0
 272 002e 1868     		ldr	r0, [r3]
 273 0030 9842     		cmp	r0, r3
 274 0032 08D0     		beq	.L17
 275              	.LVL18:
 276              	.LBB18:
 277              	.LBB19:
 278              		.loc 2 62 0
 279 0034 0268     		ldr	r2, [r0]
 280 0036 1A60     		str	r2, [r3]
 281 0038 5360     		str	r3, [r2, #4]
 282              	.LVL19:
 283              	.LBE19:
 284              	.LBE18:
 285              		.loc 1 153 0
ARM GAS  /var/folders/_2/42wyrlld3p52fkcpt1lv6gxh0000gp/T//ccHkn4Oj.s 			page 6


 286 003a FFF7FEFF 		bl	chSchReadyI
 287              	.LVL20:
 288 003e 0023     		movs	r3, #0
 289 0040 8362     		str	r3, [r0, #40]
 290              		.loc 1 155 0
 291 0042 1846     		mov	r0, r3
 292 0044 80BD     		pop	{r7, pc}
 293              	.LVL21:
 294              	.L17:
 295 0046 0020     		movs	r0, #0
 296 0048 80BD     		pop	{r7, pc}
 297              		.cfi_endproc
 298              	.LFE10:
 299              		.size	chIQPutI, .-chIQPutI
 300              		.section	.text.chIQGetTimeout,"ax",%progbits
 301              		.align	1
 302              		.global	chIQGetTimeout
 303              		.thumb
 304              		.thumb_func
 305              		.type	chIQGetTimeout, %function
 306              	chIQGetTimeout:
 307              	.LFB11:
 308              		.loc 1 178 0
 309              		.cfi_startproc
 310              		@ args = 0, pretend = 0, frame = 0
 311              		@ frame_needed = 1, uses_anonymous_args = 0
 312              	.LVL22:
 313 0000 F8B5     		push	{r3, r4, r5, r6, r7, lr}
 314              	.LCFI13:
 315              		.cfi_def_cfa_offset 24
 316              		.cfi_offset 3, -24
 317              		.cfi_offset 4, -20
 318              		.cfi_offset 5, -16
 319              		.cfi_offset 6, -12
 320              		.cfi_offset 7, -8
 321              		.cfi_offset 14, -4
 322 0002 0446     		mov	r4, r0
 323 0004 00AF     		add	r7, sp, #0
 324              	.LCFI14:
 325              		.cfi_def_cfa_register 7
 326              		.loc 1 178 0
 327 0006 0E46     		mov	r6, r1
 328              	.LBB20:
 329              		.loc 1 181 0
 330 0008 2023     		movs	r3, #32
 331              		.syntax unified
 332              	@ 181 "chibios/os/kernel/src/chqueues.c" 1
 333 000a 83F31188 		msr     BASEPRI, r3
 334              	@ 0 "" 2
 335              		.thumb
 336              		.syntax unified
 337              	.LBE20:
 338              		.loc 1 182 0
 339 000e C369     		ldr	r3, [r0, #28]
 340 0010 03B1     		cbz	r3, .L21
 341              		.loc 1 183 0
 342 0012 9847     		blx	r3
ARM GAS  /var/folders/_2/42wyrlld3p52fkcpt1lv6gxh0000gp/T//ccHkn4Oj.s 			page 7


 343              	.LVL23:
 344              	.L21:
 345              		.loc 1 185 0
 346 0014 A568     		ldr	r5, [r4, #8]
 347 0016 3DB9     		cbnz	r5, .L30
 348              	.LBB21:
 349              		.loc 1 187 0
 350 0018 3146     		mov	r1, r6
 351 001a 2046     		mov	r0, r4
 352 001c FFF7FEFF 		bl	qwait
 353              	.LVL24:
 354 0020 0028     		cmp	r0, #0
 355 0022 F7DA     		bge	.L21
 356              	.LBB22:
 357              		.loc 1 188 0
 358 0024 2B46     		mov	r3, r5
 359 0026 0BE0     		b	.L29
 360              	.LVL25:
 361              	.L30:
 362              	.LBE22:
 363              	.LBE21:
 364              		.loc 1 194 0
 365 0028 A269     		ldr	r2, [r4, #24]
 366              		.loc 1 193 0
 367 002a 013D     		subs	r5, r5, #1
 368              		.loc 1 194 0
 369 002c 531C     		adds	r3, r2, #1
 370 002e A361     		str	r3, [r4, #24]
 371              		.loc 1 193 0
 372 0030 A560     		str	r5, [r4, #8]
 373              		.loc 1 194 0
 374 0032 1078     		ldrb	r0, [r2]	@ zero_extendqisi2
 375              	.LVL26:
 376              		.loc 1 195 0
 377 0034 2269     		ldr	r2, [r4, #16]
 378 0036 9342     		cmp	r3, r2
 379              		.loc 1 196 0
 380 0038 24BF     		itt	cs
 381 003a E368     		ldrcs	r3, [r4, #12]
 382 003c A361     		strcs	r3, [r4, #24]
 383              	.LBB23:
 384              		.loc 1 198 0
 385 003e 0023     		movs	r3, #0
 386              	.LVL27:
 387              	.L29:
 388              		.syntax unified
 389              	@ 198 "chibios/os/kernel/src/chqueues.c" 1
 390 0040 83F31188 		msr     BASEPRI, r3
 391              	@ 0 "" 2
 392              		.thumb
 393              		.syntax unified
 394              	.LBE23:
 395              		.loc 1 200 0
 396 0044 F8BD     		pop	{r3, r4, r5, r6, r7, pc}
 397              		.cfi_endproc
 398              	.LFE11:
 399              		.size	chIQGetTimeout, .-chIQGetTimeout
ARM GAS  /var/folders/_2/42wyrlld3p52fkcpt1lv6gxh0000gp/T//ccHkn4Oj.s 			page 8


 400              		.section	.text.chIQReadTimeout,"ax",%progbits
 401              		.align	1
 402              		.global	chIQReadTimeout
 403              		.thumb
 404              		.thumb_func
 405              		.type	chIQReadTimeout, %function
 406              	chIQReadTimeout:
 407              	.LFB12:
 408              		.loc 1 227 0
 409              		.cfi_startproc
 410              		@ args = 0, pretend = 0, frame = 0
 411              		@ frame_needed = 1, uses_anonymous_args = 0
 412              	.LVL28:
 413 0000 2DE9F84F 		push	{r3, r4, r5, r6, r7, r8, r9, r10, fp, lr}
 414              	.LCFI15:
 415              		.cfi_def_cfa_offset 40
 416              		.cfi_offset 3, -40
 417              		.cfi_offset 4, -36
 418              		.cfi_offset 5, -32
 419              		.cfi_offset 6, -28
 420              		.cfi_offset 7, -24
 421              		.cfi_offset 8, -20
 422              		.cfi_offset 9, -16
 423              		.cfi_offset 10, -12
 424              		.cfi_offset 11, -8
 425              		.cfi_offset 14, -4
 426 0004 9B46     		mov	fp, r3
 427 0006 00AF     		add	r7, sp, #0
 428              	.LCFI16:
 429              		.cfi_def_cfa_register 7
 430              		.loc 1 227 0
 431 0008 0446     		mov	r4, r0
 432 000a 8946     		mov	r9, r1
 433 000c 9246     		mov	r10, r2
 434              		.loc 1 228 0
 435 000e D0F81C80 		ldr	r8, [r0, #28]
 436              	.LVL29:
 437              	.LBB24:
 438              		.loc 1 233 0
 439 0012 2023     		movs	r3, #32
 440              	.LVL30:
 441              		.syntax unified
 442              	@ 233 "chibios/os/kernel/src/chqueues.c" 1
 443 0014 83F31188 		msr     BASEPRI, r3
 444              	@ 0 "" 2
 445              		.thumb
 446              		.syntax unified
 447              	.LBE24:
 448              		.loc 1 229 0
 449 0018 0025     		movs	r5, #0
 450              	.LVL31:
 451              	.L37:
 452              		.loc 1 235 0
 453 001a B8F1000F 		cmp	r8, #0
 454 001e 01D0     		beq	.L33
 455              		.loc 1 236 0
 456 0020 2046     		mov	r0, r4
ARM GAS  /var/folders/_2/42wyrlld3p52fkcpt1lv6gxh0000gp/T//ccHkn4Oj.s 			page 9


 457 0022 C047     		blx	r8
 458              	.LVL32:
 459              	.L33:
 460              		.loc 1 238 0
 461 0024 A668     		ldr	r6, [r4, #8]
 462 0026 4EB9     		cbnz	r6, .L43
 463              		.loc 1 239 0
 464 0028 5946     		mov	r1, fp
 465 002a 2046     		mov	r0, r4
 466 002c FFF7FEFF 		bl	qwait
 467              	.LVL33:
 468 0030 0028     		cmp	r0, #0
 469 0032 F7D0     		beq	.L33
 470              	.LBB25:
 471              		.loc 1 240 0
 472 0034 3346     		mov	r3, r6
 473              		.syntax unified
 474              	@ 240 "chibios/os/kernel/src/chqueues.c" 1
 475 0036 83F31188 		msr     BASEPRI, r3
 476              	@ 0 "" 2
 477              		.thumb
 478              		.syntax unified
 479              	.LBE25:
 480              		.loc 1 241 0
 481 003a 17E0     		b	.L34
 482              	.L43:
 483              		.loc 1 246 0
 484 003c A369     		ldr	r3, [r4, #24]
 485              		.loc 1 245 0
 486 003e 013E     		subs	r6, r6, #1
 487              		.loc 1 246 0
 488 0040 5A1C     		adds	r2, r3, #1
 489 0042 A261     		str	r2, [r4, #24]
 490              		.loc 1 245 0
 491 0044 A660     		str	r6, [r4, #8]
 492              	.LVL34:
 493              		.loc 1 246 0
 494 0046 1B78     		ldrb	r3, [r3]	@ zero_extendqisi2
 495 0048 09F80530 		strb	r3, [r9, r5]
 496              		.loc 1 247 0
 497 004c 2369     		ldr	r3, [r4, #16]
 498 004e A269     		ldr	r2, [r4, #24]
 499 0050 9A42     		cmp	r2, r3
 500              		.loc 1 248 0
 501 0052 24BF     		itt	cs
 502 0054 E368     		ldrcs	r3, [r4, #12]
 503 0056 A361     		strcs	r3, [r4, #24]
 504              	.LBB26:
 505              		.loc 1 250 0
 506 0058 0023     		movs	r3, #0
 507              		.syntax unified
 508              	@ 250 "chibios/os/kernel/src/chqueues.c" 1
 509 005a 83F31188 		msr     BASEPRI, r3
 510              	@ 0 "" 2
 511              		.thumb
 512              		.syntax unified
 513              	.LBE26:
ARM GAS  /var/folders/_2/42wyrlld3p52fkcpt1lv6gxh0000gp/T//ccHkn4Oj.s 			page 10


 514              		.loc 1 251 0
 515 005e 0135     		adds	r5, r5, #1
 516              	.LVL35:
 517              		.loc 1 252 0
 518 0060 AA45     		cmp	r10, r5
 519 0062 03D0     		beq	.L34
 520              	.LBB27:
 521              		.loc 1 255 0
 522 0064 2023     		movs	r3, #32
 523              		.syntax unified
 524              	@ 255 "chibios/os/kernel/src/chqueues.c" 1
 525 0066 83F31188 		msr     BASEPRI, r3
 526              	@ 0 "" 2
 527              		.thumb
 528              		.syntax unified
 529              	.LBE27:
 530              		.loc 1 256 0
 531 006a D6E7     		b	.L37
 532              	.LVL36:
 533              	.L34:
 534              		.loc 1 257 0
 535 006c 2846     		mov	r0, r5
 536 006e BDE8F88F 		pop	{r3, r4, r5, r6, r7, r8, r9, r10, fp, pc}
 537              		.cfi_endproc
 538              	.LFE12:
 539              		.size	chIQReadTimeout, .-chIQReadTimeout
 540              		.section	.text.chOQInit,"ax",%progbits
 541              		.align	1
 542              		.global	chOQInit
 543              		.thumb
 544              		.thumb_func
 545              		.type	chOQInit, %function
 546              	chOQInit:
 547              	.LFB13:
 548              		.loc 1 276 0
 549              		.cfi_startproc
 550              		@ args = 4, pretend = 0, frame = 0
 551              		@ frame_needed = 1, uses_anonymous_args = 0
 552              	.LVL37:
 553 0000 80B5     		push	{r7, lr}
 554              	.LCFI17:
 555              		.cfi_def_cfa_offset 8
 556              		.cfi_offset 7, -8
 557              		.cfi_offset 14, -4
 558 0002 00AF     		add	r7, sp, #0
 559              	.LCFI18:
 560              		.cfi_def_cfa_register 7
 561              		.loc 1 282 0
 562 0004 C361     		str	r3, [r0, #28]
 563              		.loc 1 283 0
 564 0006 BB68     		ldr	r3, [r7, #8]
 565              	.LVL38:
 566              		.loc 1 279 0
 567 0008 8260     		str	r2, [r0, #8]
 568              		.loc 1 281 0
 569 000a 0A44     		add	r2, r2, r1
 570              	.LVL39:
ARM GAS  /var/folders/_2/42wyrlld3p52fkcpt1lv6gxh0000gp/T//ccHkn4Oj.s 			page 11


 571              		.loc 1 278 0
 572 000c 4060     		str	r0, [r0, #4]
 573 000e 0060     		str	r0, [r0]
 574              		.loc 1 280 0
 575 0010 4161     		str	r1, [r0, #20]
 576 0012 8161     		str	r1, [r0, #24]
 577 0014 C160     		str	r1, [r0, #12]
 578              		.loc 1 281 0
 579 0016 0261     		str	r2, [r0, #16]
 580              		.loc 1 283 0
 581 0018 0362     		str	r3, [r0, #32]
 582 001a 80BD     		pop	{r7, pc}
 583              		.cfi_endproc
 584              	.LFE13:
 585              		.size	chOQInit, .-chOQInit
 586              		.section	.text.chOQResetI,"ax",%progbits
 587              		.align	1
 588              		.global	chOQResetI
 589              		.thumb
 590              		.thumb_func
 591              		.type	chOQResetI, %function
 592              	chOQResetI:
 593              	.LFB14:
 594              		.loc 1 297 0
 595              		.cfi_startproc
 596              		@ args = 0, pretend = 0, frame = 0
 597              		@ frame_needed = 1, uses_anonymous_args = 0
 598              	.LVL40:
 599 0000 B0B5     		push	{r4, r5, r7, lr}
 600              	.LCFI19:
 601              		.cfi_def_cfa_offset 16
 602              		.cfi_offset 4, -16
 603              		.cfi_offset 5, -12
 604              		.cfi_offset 7, -8
 605              		.cfi_offset 14, -4
 606 0002 0446     		mov	r4, r0
 607              		.loc 1 301 0
 608 0004 C268     		ldr	r2, [r0, #12]
 609              		.loc 1 302 0
 610 0006 0369     		ldr	r3, [r0, #16]
 611              		.loc 1 297 0
 612 0008 00AF     		add	r7, sp, #0
 613              	.LCFI20:
 614              		.cfi_def_cfa_register 7
 615              		.loc 1 302 0
 616 000a 9B1A     		subs	r3, r3, r2
 617              		.loc 1 301 0
 618 000c 4261     		str	r2, [r0, #20]
 619 000e 8261     		str	r2, [r0, #24]
 620              		.loc 1 302 0
 621 0010 8360     		str	r3, [r0, #8]
 622              		.loc 1 304 0
 623 0012 6FF00105 		mvn	r5, #1
 624              	.LVL41:
 625              	.L46:
 626              		.loc 1 303 0
 627 0016 2068     		ldr	r0, [r4]
ARM GAS  /var/folders/_2/42wyrlld3p52fkcpt1lv6gxh0000gp/T//ccHkn4Oj.s 			page 12


 628 0018 A042     		cmp	r0, r4
 629 001a 06D0     		beq	.L48
 630              	.LVL42:
 631              	.LBB28:
 632              	.LBB29:
 633              		.loc 2 62 0
 634 001c 0368     		ldr	r3, [r0]
 635 001e 2360     		str	r3, [r4]
 636 0020 5C60     		str	r4, [r3, #4]
 637              	.LVL43:
 638              	.LBE29:
 639              	.LBE28:
 640              		.loc 1 304 0
 641 0022 FFF7FEFF 		bl	chSchReadyI
 642              	.LVL44:
 643 0026 8562     		str	r5, [r0, #40]
 644 0028 F5E7     		b	.L46
 645              	.L48:
 646              		.loc 1 305 0
 647 002a B0BD     		pop	{r4, r5, r7, pc}
 648              		.cfi_endproc
 649              	.LFE14:
 650              		.size	chOQResetI, .-chOQResetI
 651              		.section	.text.chOQPutTimeout,"ax",%progbits
 652              		.align	1
 653              		.global	chOQPutTimeout
 654              		.thumb
 655              		.thumb_func
 656              		.type	chOQPutTimeout, %function
 657              	chOQPutTimeout:
 658              	.LFB15:
 659              		.loc 1 329 0
 660              		.cfi_startproc
 661              		@ args = 0, pretend = 0, frame = 0
 662              		@ frame_needed = 1, uses_anonymous_args = 0
 663              	.LVL45:
 664 0000 2DE9F041 		push	{r4, r5, r6, r7, r8, lr}
 665              	.LCFI21:
 666              		.cfi_def_cfa_offset 24
 667              		.cfi_offset 4, -24
 668              		.cfi_offset 5, -20
 669              		.cfi_offset 6, -16
 670              		.cfi_offset 7, -12
 671              		.cfi_offset 8, -8
 672              		.cfi_offset 14, -4
 673              	.LBB30:
 674              		.loc 1 331 0
 675 0004 2023     		movs	r3, #32
 676              	.LBE30:
 677              		.loc 1 329 0
 678 0006 00AF     		add	r7, sp, #0
 679              	.LCFI22:
 680              		.cfi_def_cfa_register 7
 681              		.loc 1 329 0
 682 0008 0446     		mov	r4, r0
 683 000a 0E46     		mov	r6, r1
 684 000c 9046     		mov	r8, r2
ARM GAS  /var/folders/_2/42wyrlld3p52fkcpt1lv6gxh0000gp/T//ccHkn4Oj.s 			page 13


 685              	.LBB31:
 686              		.loc 1 331 0
 687              		.syntax unified
 688              	@ 331 "chibios/os/kernel/src/chqueues.c" 1
 689 000e 83F31188 		msr     BASEPRI, r3
 690              	@ 0 "" 2
 691              	.LVL46:
 692              		.thumb
 693              		.syntax unified
 694              	.L50:
 695              	.LBE31:
 696              		.loc 1 332 0
 697 0012 A568     		ldr	r5, [r4, #8]
 698 0014 55B9     		cbnz	r5, .L59
 699              	.LBB32:
 700              		.loc 1 335 0
 701 0016 4146     		mov	r1, r8
 702 0018 2046     		mov	r0, r4
 703 001a FFF7FEFF 		bl	qwait
 704              	.LVL47:
 705 001e 0028     		cmp	r0, #0
 706 0020 F7DA     		bge	.L50
 707              	.LBB33:
 708              		.loc 1 336 0
 709 0022 2B46     		mov	r3, r5
 710              		.syntax unified
 711              	@ 336 "chibios/os/kernel/src/chqueues.c" 1
 712 0024 83F31188 		msr     BASEPRI, r3
 713              	@ 0 "" 2
 714              		.thumb
 715              		.syntax unified
 716              	.LBE33:
 717              		.loc 1 337 0
 718 0028 BDE8F081 		pop	{r4, r5, r6, r7, r8, pc}
 719              	.LVL48:
 720              	.L59:
 721              	.LBE32:
 722              		.loc 1 342 0
 723 002c 6369     		ldr	r3, [r4, #20]
 724              		.loc 1 341 0
 725 002e 013D     		subs	r5, r5, #1
 726              		.loc 1 342 0
 727 0030 5A1C     		adds	r2, r3, #1
 728 0032 6261     		str	r2, [r4, #20]
 729              		.loc 1 341 0
 730 0034 A560     		str	r5, [r4, #8]
 731              		.loc 1 342 0
 732 0036 1E70     		strb	r6, [r3]
 733              		.loc 1 343 0
 734 0038 2369     		ldr	r3, [r4, #16]
 735 003a 6269     		ldr	r2, [r4, #20]
 736 003c 9A42     		cmp	r2, r3
 737              		.loc 1 344 0
 738 003e 24BF     		itt	cs
 739 0040 E368     		ldrcs	r3, [r4, #12]
 740 0042 6361     		strcs	r3, [r4, #20]
 741              		.loc 1 346 0
ARM GAS  /var/folders/_2/42wyrlld3p52fkcpt1lv6gxh0000gp/T//ccHkn4Oj.s 			page 14


 742 0044 E369     		ldr	r3, [r4, #28]
 743 0046 0BB1     		cbz	r3, .L54
 744              		.loc 1 347 0
 745 0048 2046     		mov	r0, r4
 746 004a 9847     		blx	r3
 747              	.LVL49:
 748              	.L54:
 749              	.LBB34:
 750              		.loc 1 349 0
 751 004c 0023     		movs	r3, #0
 752              		.syntax unified
 753              	@ 349 "chibios/os/kernel/src/chqueues.c" 1
 754 004e 83F31188 		msr     BASEPRI, r3
 755              	@ 0 "" 2
 756              		.thumb
 757              		.syntax unified
 758              	.LBE34:
 759              		.loc 1 350 0
 760 0052 1846     		mov	r0, r3
 761              		.loc 1 351 0
 762 0054 BDE8F081 		pop	{r4, r5, r6, r7, r8, pc}
 763              		.cfi_endproc
 764              	.LFE15:
 765              		.size	chOQPutTimeout, .-chOQPutTimeout
 766              		.section	.text.chOQGetI,"ax",%progbits
 767              		.align	1
 768              		.global	chOQGetI
 769              		.thumb
 770              		.thumb_func
 771              		.type	chOQGetI, %function
 772              	chOQGetI:
 773              	.LFB16:
 774              		.loc 1 363 0
 775              		.cfi_startproc
 776              		@ args = 0, pretend = 0, frame = 0
 777              		@ frame_needed = 1, uses_anonymous_args = 0
 778              	.LVL50:
 779 0000 98B5     		push	{r3, r4, r7, lr}
 780              	.LCFI23:
 781              		.cfi_def_cfa_offset 16
 782              		.cfi_offset 3, -16
 783              		.cfi_offset 4, -12
 784              		.cfi_offset 7, -8
 785              		.cfi_offset 14, -4
 786              		.loc 1 368 0
 787 0002 4269     		ldr	r2, [r0, #20]
 788 0004 8169     		ldr	r1, [r0, #24]
 789              		.loc 1 363 0
 790 0006 00AF     		add	r7, sp, #0
 791              	.LCFI24:
 792              		.cfi_def_cfa_register 7
 793              		.loc 1 368 0
 794 0008 8A42     		cmp	r2, r1
 795              		.loc 1 363 0
 796 000a 0346     		mov	r3, r0
 797 000c 8268     		ldr	r2, [r0, #8]
 798              		.loc 1 368 0
ARM GAS  /var/folders/_2/42wyrlld3p52fkcpt1lv6gxh0000gp/T//ccHkn4Oj.s 			page 15


 799 000e 03D1     		bne	.L61
 800              		.loc 1 368 0 is_stmt 0 discriminator 1
 801 0010 12B1     		cbz	r2, .L61
 802              		.loc 1 369 0 is_stmt 1
 803 0012 6FF00200 		mvn	r0, #2
 804              	.LVL51:
 805 0016 98BD     		pop	{r3, r4, r7, pc}
 806              	.LVL52:
 807              	.L61:
 808              		.loc 1 371 0
 809 0018 0132     		adds	r2, r2, #1
 810 001a 9A60     		str	r2, [r3, #8]
 811              		.loc 1 372 0
 812 001c 4A1C     		adds	r2, r1, #1
 813 001e 9A61     		str	r2, [r3, #24]
 814 0020 0C78     		ldrb	r4, [r1]	@ zero_extendqisi2
 815              	.LVL53:
 816              		.loc 1 373 0
 817 0022 1969     		ldr	r1, [r3, #16]
 818 0024 8A42     		cmp	r2, r1
 819 0026 01D3     		bcc	.L65
 820              		.loc 1 374 0
 821 0028 DA68     		ldr	r2, [r3, #12]
 822 002a 9A61     		str	r2, [r3, #24]
 823              	.L65:
 824              		.loc 1 376 0
 825 002c 1868     		ldr	r0, [r3]
 826              	.LVL54:
 827 002e 9842     		cmp	r0, r3
 828 0030 06D0     		beq	.L63
 829              	.LVL55:
 830              	.LBB35:
 831              	.LBB36:
 832              		.loc 2 62 0
 833 0032 0268     		ldr	r2, [r0]
 834 0034 1A60     		str	r2, [r3]
 835 0036 5360     		str	r3, [r2, #4]
 836              	.LVL56:
 837              	.LBE36:
 838              	.LBE35:
 839              		.loc 1 377 0
 840 0038 FFF7FEFF 		bl	chSchReadyI
 841              	.LVL57:
 842 003c 0023     		movs	r3, #0
 843 003e 8362     		str	r3, [r0, #40]
 844              	.L63:
 845              		.loc 1 379 0
 846 0040 2046     		mov	r0, r4
 847 0042 98BD     		pop	{r3, r4, r7, pc}
 848              		.cfi_endproc
 849              	.LFE16:
 850              		.size	chOQGetI, .-chOQGetI
 851              		.section	.text.chOQWriteTimeout,"ax",%progbits
 852              		.align	1
 853              		.global	chOQWriteTimeout
 854              		.thumb
 855              		.thumb_func
ARM GAS  /var/folders/_2/42wyrlld3p52fkcpt1lv6gxh0000gp/T//ccHkn4Oj.s 			page 16


 856              		.type	chOQWriteTimeout, %function
 857              	chOQWriteTimeout:
 858              	.LFB17:
 859              		.loc 1 407 0
 860              		.cfi_startproc
 861              		@ args = 0, pretend = 0, frame = 0
 862              		@ frame_needed = 1, uses_anonymous_args = 0
 863              	.LVL58:
 864 0000 2DE9F84F 		push	{r3, r4, r5, r6, r7, r8, r9, r10, fp, lr}
 865              	.LCFI25:
 866              		.cfi_def_cfa_offset 40
 867              		.cfi_offset 3, -40
 868              		.cfi_offset 4, -36
 869              		.cfi_offset 5, -32
 870              		.cfi_offset 6, -28
 871              		.cfi_offset 7, -24
 872              		.cfi_offset 8, -20
 873              		.cfi_offset 9, -16
 874              		.cfi_offset 10, -12
 875              		.cfi_offset 11, -8
 876              		.cfi_offset 14, -4
 877 0004 9A46     		mov	r10, r3
 878 0006 00AF     		add	r7, sp, #0
 879              	.LCFI26:
 880              		.cfi_def_cfa_register 7
 881              		.loc 1 407 0
 882 0008 0446     		mov	r4, r0
 883 000a 0E46     		mov	r6, r1
 884 000c 9046     		mov	r8, r2
 885              		.loc 1 408 0
 886 000e D0F81C90 		ldr	r9, [r0, #28]
 887              	.LVL59:
 888              	.LBB37:
 889              		.loc 1 413 0
 890 0012 2023     		movs	r3, #32
 891              	.LVL60:
 892              		.syntax unified
 893              	@ 413 "chibios/os/kernel/src/chqueues.c" 1
 894 0014 83F31188 		msr     BASEPRI, r3
 895              	@ 0 "" 2
 896              		.thumb
 897              		.syntax unified
 898              	.LBE37:
 899              		.loc 1 409 0
 900 0018 4FF0000B 		mov	fp, #0
 901              	.LVL61:
 902              	.L69:
 903              		.loc 1 415 0
 904 001c A568     		ldr	r5, [r4, #8]
 905 001e 4DB9     		cbnz	r5, .L84
 906              		.loc 1 416 0
 907 0020 5146     		mov	r1, r10
 908 0022 2046     		mov	r0, r4
 909 0024 FFF7FEFF 		bl	qwait
 910              	.LVL62:
 911 0028 0028     		cmp	r0, #0
 912 002a F7D0     		beq	.L69
ARM GAS  /var/folders/_2/42wyrlld3p52fkcpt1lv6gxh0000gp/T//ccHkn4Oj.s 			page 17


 913              	.LBB38:
 914              		.loc 1 417 0
 915 002c 2B46     		mov	r3, r5
 916              		.syntax unified
 917              	@ 417 "chibios/os/kernel/src/chqueues.c" 1
 918 002e 83F31188 		msr     BASEPRI, r3
 919              	@ 0 "" 2
 920              		.thumb
 921              		.syntax unified
 922              	.LBE38:
 923              		.loc 1 418 0
 924 0032 1FE0     		b	.L71
 925              	.L84:
 926              		.loc 1 422 0
 927 0034 6369     		ldr	r3, [r4, #20]
 928              		.loc 1 421 0
 929 0036 013D     		subs	r5, r5, #1
 930              		.loc 1 422 0
 931 0038 5A1C     		adds	r2, r3, #1
 932 003a 6261     		str	r2, [r4, #20]
 933              		.loc 1 421 0
 934 003c A560     		str	r5, [r4, #8]
 935              		.loc 1 422 0
 936 003e 3278     		ldrb	r2, [r6]	@ zero_extendqisi2
 937 0040 751C     		adds	r5, r6, #1
 938              	.LVL63:
 939 0042 1A70     		strb	r2, [r3]
 940              		.loc 1 423 0
 941 0044 2369     		ldr	r3, [r4, #16]
 942 0046 6269     		ldr	r2, [r4, #20]
 943 0048 9A42     		cmp	r2, r3
 944              		.loc 1 424 0
 945 004a 24BF     		itt	cs
 946 004c E368     		ldrcs	r3, [r4, #12]
 947 004e 6361     		strcs	r3, [r4, #20]
 948              		.loc 1 426 0
 949 0050 B9F1000F 		cmp	r9, #0
 950 0054 01D0     		beq	.L74
 951              		.loc 1 427 0
 952 0056 2046     		mov	r0, r4
 953 0058 C847     		blx	r9
 954              	.LVL64:
 955              	.L74:
 956              	.LBB39:
 957              		.loc 1 429 0
 958 005a 0023     		movs	r3, #0
 959              		.syntax unified
 960              	@ 429 "chibios/os/kernel/src/chqueues.c" 1
 961 005c 83F31188 		msr     BASEPRI, r3
 962              	@ 0 "" 2
 963              		.thumb
 964              		.syntax unified
 965              	.LBE39:
 966              		.loc 1 431 0
 967 0060 B8F10108 		subs	r8, r8, #1
 968              	.LVL65:
 969              		.loc 1 430 0
ARM GAS  /var/folders/_2/42wyrlld3p52fkcpt1lv6gxh0000gp/T//ccHkn4Oj.s 			page 18


 970 0064 0BF1010B 		add	fp, fp, #1
 971              	.LVL66:
 972              		.loc 1 431 0
 973 0068 04D0     		beq	.L71
 974              	.LBB40:
 975              		.loc 1 433 0
 976 006a 2023     		movs	r3, #32
 977              		.syntax unified
 978              	@ 433 "chibios/os/kernel/src/chqueues.c" 1
 979 006c 83F31188 		msr     BASEPRI, r3
 980              	@ 0 "" 2
 981              		.thumb
 982              		.syntax unified
 983              	.LBE40:
 984              		.loc 1 422 0
 985 0070 2E46     		mov	r6, r5
 986              		.loc 1 434 0
 987 0072 D3E7     		b	.L69
 988              	.LVL67:
 989              	.L71:
 990              		.loc 1 435 0
 991 0074 5846     		mov	r0, fp
 992 0076 BDE8F88F 		pop	{r3, r4, r5, r6, r7, r8, r9, r10, fp, pc}
 993              		.cfi_endproc
 994              	.LFE17:
 995              		.size	chOQWriteTimeout, .-chOQWriteTimeout
 996              		.text
 997              	.Letext0:
 998              		.file 3 "/Users/ARS/Applications/Eclipse.app/Contents/gcc-arm-none-eabi-5_3-2016q1/lib/gcc/arm-non
 999              		.file 4 "/Users/ARS/Applications/Eclipse.app/Contents/gcc-arm-none-eabi-5_3-2016q1/arm-none-eabi/i
 1000              		.file 5 "/Users/ARS/Applications/Eclipse.app/Contents/gcc-arm-none-eabi-5_3-2016q1/arm-none-eabi/i
 1001              		.file 6 "chibios/os/ports/GCC/ARMCMx/chtypes.h"
 1002              		.file 7 "chibios/os/kernel/include/chlists.h"
 1003              		.file 8 "chibios/os/kernel/include/chthreads.h"
 1004              		.file 9 "chibios/os/ports/GCC/ARMCMx/chcore_v7m.h"
 1005              		.file 10 "chibios/os/kernel/include/chschd.h"
 1006              		.file 11 "chibios/os/kernel/include/chmtx.h"
 1007              		.file 12 "chibios/os/kernel/include/chqueues.h"