ARM GAS  /var/folders/_2/42wyrlld3p52fkcpt1lv6gxh0000gp/T//ccw5xSJv.s 			page 1


   1              		.syntax unified
   2              		.cpu cortex-m3
   3              		.fpu softvfp
   4              		.eabi_attribute 20, 1
   5              		.eabi_attribute 21, 1
   6              		.eabi_attribute 23, 3
   7              		.eabi_attribute 24, 1
   8              		.eabi_attribute 25, 1
   9              		.eabi_attribute 26, 1
  10              		.eabi_attribute 30, 4
  11              		.eabi_attribute 34, 1
  12              		.eabi_attribute 18, 4
  13              		.thumb
  14              		.syntax unified
  15              		.file	"chregistry.c"
  16              		.text
  17              	.Ltext0:
  18              		.cfi_sections	.debug_frame
  19              		.section	.text.chRegFirstThread,"ax",%progbits
  20              		.align	1
  21              		.global	chRegFirstThread
  22              		.thumb
  23              		.thumb_func
  24              		.type	chRegFirstThread, %function
  25              	chRegFirstThread:
  26              	.LFB7:
  27              		.file 1 "chibios/os/kernel/src/chregistry.c"
  28              		.loc 1 117 0
  29              		.cfi_startproc
  30              		@ args = 0, pretend = 0, frame = 0
  31              		@ frame_needed = 1, uses_anonymous_args = 0
  32 0000 80B5     		push	{r7, lr}
  33              	.LCFI0:
  34              		.cfi_def_cfa_offset 8
  35              		.cfi_offset 7, -8
  36              		.cfi_offset 14, -4
  37              	.LBB2:
  38              		.loc 1 120 0
  39 0002 2023     		movs	r3, #32
  40              	.LBE2:
  41              		.loc 1 117 0
  42 0004 00AF     		add	r7, sp, #0
  43              	.LCFI1:
  44              		.cfi_def_cfa_register 7
  45              	.LBB3:
  46              		.loc 1 120 0
  47              		.syntax unified
  48              	@ 120 "chibios/os/kernel/src/chregistry.c" 1
  49 0006 83F31188 		msr     BASEPRI, r3
  50              	@ 0 "" 2
  51              		.thumb
  52              		.syntax unified
  53              	.LBE3:
  54              		.loc 1 121 0
  55 000a 034B     		ldr	r3, .L2
  56 000c 1869     		ldr	r0, [r3, #16]
  57              	.LVL0:
ARM GAS  /var/folders/_2/42wyrlld3p52fkcpt1lv6gxh0000gp/T//ccw5xSJv.s 			page 2


  58              	.LBB4:
  59              		.loc 1 125 0
  60 000e 0023     		movs	r3, #0
  61              		.syntax unified
  62              	@ 125 "chibios/os/kernel/src/chregistry.c" 1
  63 0010 83F31188 		msr     BASEPRI, r3
  64              	@ 0 "" 2
  65              		.thumb
  66              		.syntax unified
  67              	.LBE4:
  68              		.loc 1 127 0
  69 0014 80BD     		pop	{r7, pc}
  70              	.L3:
  71 0016 00BF     		.align	2
  72              	.L2:
  73 0018 00000000 		.word	rlist
  74              		.cfi_endproc
  75              	.LFE7:
  76              		.size	chRegFirstThread, .-chRegFirstThread
  77              		.section	.text.chRegNextThread,"ax",%progbits
  78              		.align	1
  79              		.global	chRegNextThread
  80              		.thumb
  81              		.thumb_func
  82              		.type	chRegNextThread, %function
  83              	chRegNextThread:
  84              	.LFB8:
  85              		.loc 1 140 0
  86              		.cfi_startproc
  87              		@ args = 0, pretend = 0, frame = 0
  88              		@ frame_needed = 1, uses_anonymous_args = 0
  89              	.LVL1:
  90 0000 80B5     		push	{r7, lr}
  91              	.LCFI2:
  92              		.cfi_def_cfa_offset 8
  93              		.cfi_offset 7, -8
  94              		.cfi_offset 14, -4
  95              	.LBB5:
  96              		.loc 1 143 0
  97 0002 2023     		movs	r3, #32
  98              	.LBE5:
  99              		.loc 1 140 0
 100 0004 00AF     		add	r7, sp, #0
 101              	.LCFI3:
 102              		.cfi_def_cfa_register 7
 103              	.LBB6:
 104              		.loc 1 143 0
 105              		.syntax unified
 106              	@ 143 "chibios/os/kernel/src/chregistry.c" 1
 107 0006 83F31188 		msr     BASEPRI, r3
 108              	@ 0 "" 2
 109              		.thumb
 110              		.syntax unified
 111              	.LBE6:
 112              		.loc 1 146 0
 113 000a 044B     		ldr	r3, .L6
 114              		.loc 1 144 0
ARM GAS  /var/folders/_2/42wyrlld3p52fkcpt1lv6gxh0000gp/T//ccw5xSJv.s 			page 3


 115 000c 0069     		ldr	r0, [r0, #16]
 116              	.LVL2:
 117              		.loc 1 146 0
 118 000e 9842     		cmp	r0, r3
 119 0010 08BF     		it	eq
 120 0012 0020     		moveq	r0, #0
 121              	.LVL3:
 122              	.LBB7:
 123              		.loc 1 154 0
 124 0014 0023     		movs	r3, #0
 125              		.syntax unified
 126              	@ 154 "chibios/os/kernel/src/chregistry.c" 1
 127 0016 83F31188 		msr     BASEPRI, r3
 128              	@ 0 "" 2
 129              		.thumb
 130              		.syntax unified
 131              	.LBE7:
 132              		.loc 1 159 0
 133 001a 80BD     		pop	{r7, pc}
 134              	.L7:
 135              		.align	2
 136              	.L6:
 137 001c 00000000 		.word	rlist
 138              		.cfi_endproc
 139              	.LFE8:
 140              		.size	chRegNextThread, .-chRegNextThread
 141              		.global	ch_debug
 142              		.section	.rodata.ch_debug,"a",%progbits
 143              		.align	1
 144              		.type	ch_debug, %object
 145              		.size	ch_debug, 22
 146              	ch_debug:
 147 0000 6D61696E 		.ascii	"main"
 148 0004 00       		.byte	0
 149 0005 16       		.byte	22
 150 0006 8111     		.short	4481
 151 0008 04       		.byte	4
 152 0009 04       		.byte	4
 153 000a 3C       		.byte	60
 154 000b 08       		.byte	8
 155 000c 0C       		.byte	12
 156 000d 10       		.byte	16
 157 000e 14       		.byte	20
 158 000f 18       		.byte	24
 159 0010 1C       		.byte	28
 160 0011 20       		.byte	32
 161 0012 21       		.byte	33
 162 0013 00       		.byte	0
 163 0014 22       		.byte	34
 164 0015 24       		.byte	36
 165              		.text
 166              	.Letext0:
 167              		.file 2 "/Users/ARS/Applications/Eclipse.app/Contents/gcc-arm-none-eabi-5_3-2016q1/lib/gcc/arm-non
 168              		.file 3 "/Users/ARS/Applications/Eclipse.app/Contents/gcc-arm-none-eabi-5_3-2016q1/arm-none-eabi/i
 169              		.file 4 "/Users/ARS/Applications/Eclipse.app/Contents/gcc-arm-none-eabi-5_3-2016q1/arm-none-eabi/i
 170              		.file 5 "chibios/os/ports/GCC/ARMCMx/chtypes.h"
 171              		.file 6 "chibios/os/kernel/include/chlists.h"
ARM GAS  /var/folders/_2/42wyrlld3p52fkcpt1lv6gxh0000gp/T//ccw5xSJv.s 			page 4


 172              		.file 7 "chibios/os/kernel/include/chthreads.h"
 173              		.file 8 "chibios/os/ports/GCC/ARMCMx/chcore_v7m.h"
 174              		.file 9 "chibios/os/kernel/include/chschd.h"
 175              		.file 10 "chibios/os/kernel/include/chmtx.h"
 176              		.file 11 "chibios/os/kernel/include/chregistry.h"