ARM GAS  /var/folders/_2/42wyrlld3p52fkcpt1lv6gxh0000gp/T//ccP7DZnJ.s 			page 1


   1              		.syntax unified
   2              		.cpu cortex-m3
   3              		.fpu softvfp
   4              		.eabi_attribute 20, 1
   5              		.eabi_attribute 21, 1
   6              		.eabi_attribute 23, 3
   7              		.eabi_attribute 24, 1
   8              		.eabi_attribute 25, 1
   9              		.eabi_attribute 26, 1
  10              		.eabi_attribute 30, 4
  11              		.eabi_attribute 34, 1
  12              		.eabi_attribute 18, 4
  13              		.thumb
  14              		.syntax unified
  15              		.file	"chschd.c"
  16              		.text
  17              	.Ltext0:
  18              		.cfi_sections	.debug_frame
  19              		.section	.text._scheduler_init,"ax",%progbits
  20              		.align	1
  21              		.global	_scheduler_init
  22              		.thumb
  23              		.thumb_func
  24              		.type	_scheduler_init, %function
  25              	_scheduler_init:
  26              	.LFB7:
  27              		.file 1 "chibios/os/kernel/src/chschd.c"
  28              		.loc 1 55 0
  29              		.cfi_startproc
  30              		@ args = 0, pretend = 0, frame = 0
  31              		@ frame_needed = 1, uses_anonymous_args = 0
  32 0000 80B5     		push	{r7, lr}
  33              	.LCFI0:
  34              		.cfi_def_cfa_offset 8
  35              		.cfi_offset 7, -8
  36              		.cfi_offset 14, -4
  37              		.loc 1 57 0
  38 0002 044B     		ldr	r3, .L2
  39              		.loc 1 58 0
  40 0004 0022     		movs	r2, #0
  41              		.loc 1 55 0
  42 0006 00AF     		add	r7, sp, #0
  43              	.LCFI1:
  44              		.cfi_def_cfa_register 7
  45              		.loc 1 57 0
  46 0008 5B60     		str	r3, [r3, #4]
  47 000a 1B60     		str	r3, [r3]
  48              		.loc 1 58 0
  49 000c 9A60     		str	r2, [r3, #8]
  50              		.loc 1 60 0
  51 000e 5B61     		str	r3, [r3, #20]
  52 0010 1B61     		str	r3, [r3, #16]
  53 0012 80BD     		pop	{r7, pc}
  54              	.L3:
  55              		.align	2
  56              	.L2:
  57 0014 00000000 		.word	.LANCHOR0
ARM GAS  /var/folders/_2/42wyrlld3p52fkcpt1lv6gxh0000gp/T//ccP7DZnJ.s 			page 2


  58              		.cfi_endproc
  59              	.LFE7:
  60              		.size	_scheduler_init, .-_scheduler_init
  61              		.section	.text.chSchReadyI,"ax",%progbits
  62              		.align	1
  63              		.global	chSchReadyI
  64              		.thumb
  65              		.thumb_func
  66              		.type	chSchReadyI, %function
  67              	chSchReadyI:
  68              	.LFB8:
  69              		.loc 1 81 0
  70              		.cfi_startproc
  71              		@ args = 0, pretend = 0, frame = 0
  72              		@ frame_needed = 1, uses_anonymous_args = 0
  73              	.LVL0:
  74 0000 80B5     		push	{r7, lr}
  75              	.LCFI2:
  76              		.cfi_def_cfa_offset 8
  77              		.cfi_offset 7, -8
  78              		.cfi_offset 14, -4
  79              		.loc 1 92 0
  80 0002 0023     		movs	r3, #0
  81 0004 80F82030 		strb	r3, [r0, #32]
  82              	.LVL1:
  83              		.loc 1 96 0
  84 0008 8268     		ldr	r2, [r0, #8]
  85              		.loc 1 93 0
  86 000a 064B     		ldr	r3, .L8
  87              		.loc 1 81 0
  88 000c 00AF     		add	r7, sp, #0
  89              	.LCFI3:
  90              		.cfi_def_cfa_register 7
  91              	.LVL2:
  92              	.L5:
  93              		.loc 1 95 0 discriminator 1
  94 000e 1B68     		ldr	r3, [r3]
  95              	.LVL3:
  96              		.loc 1 96 0 discriminator 1
  97 0010 9968     		ldr	r1, [r3, #8]
  98 0012 9142     		cmp	r1, r2
  99 0014 FBD2     		bcs	.L5
 100              		.loc 1 99 0
 101 0016 5A68     		ldr	r2, [r3, #4]
 102              		.loc 1 98 0
 103 0018 0360     		str	r3, [r0]
 104              		.loc 1 99 0
 105 001a 4260     		str	r2, [r0, #4]
 106              		.loc 1 100 0
 107 001c 5860     		str	r0, [r3, #4]
 108 001e 1060     		str	r0, [r2]
 109              		.loc 1 102 0
 110 0020 80BD     		pop	{r7, pc}
 111              	.L9:
 112 0022 00BF     		.align	2
 113              	.L8:
 114 0024 00000000 		.word	.LANCHOR0
ARM GAS  /var/folders/_2/42wyrlld3p52fkcpt1lv6gxh0000gp/T//ccP7DZnJ.s 			page 3


 115              		.cfi_endproc
 116              	.LFE8:
 117              		.size	chSchReadyI, .-chSchReadyI
 118              		.section	.text.wakeup,"ax",%progbits
 119              		.align	1
 120              		.thumb
 121              		.thumb_func
 122              		.type	wakeup, %function
 123              	wakeup:
 124              	.LFB10:
 125              		.loc 1 136 0
 126              		.cfi_startproc
 127              		@ args = 0, pretend = 0, frame = 0
 128              		@ frame_needed = 1, uses_anonymous_args = 0
 129              	.LVL4:
 130 0000 80B5     		push	{r7, lr}
 131              	.LCFI4:
 132              		.cfi_def_cfa_offset 8
 133              		.cfi_offset 7, -8
 134              		.cfi_offset 14, -4
 135              	.LBB16:
 136              		.loc 1 139 0
 137 0002 2023     		movs	r3, #32
 138              	.LBE16:
 139              		.loc 1 136 0
 140 0004 00AF     		add	r7, sp, #0
 141              	.LCFI5:
 142              		.cfi_def_cfa_register 7
 143              	.LBB17:
 144              		.loc 1 139 0
 145              		.syntax unified
 146              	@ 139 "chibios/os/kernel/src/chschd.c" 1
 147 0006 83F31188 		msr     BASEPRI, r3
 148              	@ 0 "" 2
 149              		.thumb
 150              		.syntax unified
 151              	.LBE17:
 152              		.loc 1 140 0
 153 000a 90F82030 		ldrb	r3, [r0, #32]	@ zero_extendqisi2
 154 000e 032B     		cmp	r3, #3
 155 0010 03D0     		beq	.L12
 156 0012 0D2B     		cmp	r3, #13
 157 0014 05D0     		beq	.L13
 158 0016 4BB9     		cbnz	r3, .L11
 159 0018 0EE0     		b	.L19
 160              	.L12:
 161              		.loc 1 150 0
 162 001a 826A     		ldr	r2, [r0, #40]
 163 001c 9368     		ldr	r3, [r2, #8]
 164 001e 0133     		adds	r3, r3, #1
 165 0020 9360     		str	r3, [r2, #8]
 166              	.L13:
 167              	.LVL5:
 168              	.LBB18:
 169              	.LBB19:
 170              		.file 2 "chibios/os/kernel/include/chinline.h"
 171              		.loc 2 75 0
ARM GAS  /var/folders/_2/42wyrlld3p52fkcpt1lv6gxh0000gp/T//ccP7DZnJ.s 			page 4


 172 0022 90E80C00 		ldmia	r0, {r2, r3}
 173 0026 1A60     		str	r2, [r3]
 174              		.loc 2 76 0
 175 0028 0268     		ldr	r2, [r0]
 176 002a 5360     		str	r3, [r2, #4]
 177              	.LVL6:
 178              	.L11:
 179              	.LBE19:
 180              	.LBE18:
 181              		.loc 1 163 0
 182 002c 4FF0FF33 		mov	r3, #-1
 183 0030 8362     		str	r3, [r0, #40]
 184              		.loc 1 164 0
 185 0032 FFF7FEFF 		bl	chSchReadyI
 186              	.LVL7:
 187              	.LBB20:
 188              		.loc 1 165 0
 189 0036 0023     		movs	r3, #0
 190              	.L19:
 191              		.syntax unified
 192              	@ 165 "chibios/os/kernel/src/chschd.c" 1
 193 0038 83F31188 		msr     BASEPRI, r3
 194              	@ 0 "" 2
 195              		.thumb
 196              		.syntax unified
 197 003c 80BD     		pop	{r7, pc}
 198              	.LBE20:
 199              		.cfi_endproc
 200              	.LFE10:
 201              		.size	wakeup, .-wakeup
 202              		.section	.text.chSchGoSleepS,"ax",%progbits
 203              		.align	1
 204              		.global	chSchGoSleepS
 205              		.thumb
 206              		.thumb_func
 207              		.type	chSchGoSleepS, %function
 208              	chSchGoSleepS:
 209              	.LFB9:
 210              		.loc 1 115 0
 211              		.cfi_startproc
 212              		@ args = 0, pretend = 0, frame = 0
 213              		@ frame_needed = 1, uses_anonymous_args = 0
 214              	.LVL8:
 215 0000 B0B5     		push	{r4, r5, r7, lr}
 216              	.LCFI6:
 217              		.cfi_def_cfa_offset 16
 218              		.cfi_offset 4, -16
 219              		.cfi_offset 5, -12
 220              		.cfi_offset 7, -8
 221              		.cfi_offset 14, -4
 222              		.loc 1 120 0
 223 0002 114C     		ldr	r4, .L22
 224              		.loc 1 124 0
 225 0004 1423     		movs	r3, #20
 226              		.loc 1 120 0
 227 0006 A569     		ldr	r5, [r4, #24]
 228              	.LVL9:
ARM GAS  /var/folders/_2/42wyrlld3p52fkcpt1lv6gxh0000gp/T//ccP7DZnJ.s 			page 5


 229              		.loc 1 115 0
 230 0008 00AF     		add	r7, sp, #0
 231              	.LCFI7:
 232              		.cfi_def_cfa_register 7
 233              		.loc 1 124 0
 234 000a 85F82230 		strb	r3, [r5, #34]
 235              	.LVL10:
 236              	.LBB21:
 237              	.LBB22:
 238              		.loc 2 60 0
 239 000e 2368     		ldr	r3, [r4]
 240              	.LVL11:
 241              	.LBE22:
 242              	.LBE21:
 243              		.loc 1 120 0
 244 0010 85F82000 		strb	r0, [r5, #32]
 245              	.LBB25:
 246              	.LBB23:
 247              		.loc 2 62 0
 248 0014 1A68     		ldr	r2, [r3]
 249              	.LBE23:
 250              	.LBE25:
 251              		.loc 1 128 0
 252 0016 2846     		mov	r0, r5
 253              	.LVL12:
 254              	.LBB26:
 255              	.LBB24:
 256              		.loc 2 62 0
 257 0018 5460     		str	r4, [r2, #4]
 258              	.LVL13:
 259 001a 2260     		str	r2, [r4]
 260              	.LBE24:
 261              	.LBE26:
 262              		.loc 1 127 0
 263 001c 0122     		movs	r2, #1
 264 001e 83F82020 		strb	r2, [r3, #32]
 265              		.loc 1 126 0
 266 0022 A361     		str	r3, [r4, #24]
 267              		.loc 1 128 0
 268 0024 FFF7FEFF 		bl	dbg_trace
 269              	.LVL14:
 270              	.LBB27:
 271 0028 EA69     		ldr	r2, [r5, #28]
 272 002a ADF12403 		sub	r3, sp, #36
 273 002e 9A42     		cmp	r2, r3
 274 0030 02D9     		bls	.L21
 275              		.loc 1 128 0 is_stmt 0 discriminator 1
 276 0032 0648     		ldr	r0, .L22+4
 277 0034 FFF7FEFF 		bl	chDbgPanic
 278              	.LVL15:
 279              	.L21:
 280              		.loc 1 128 0 discriminator 3
 281 0038 2946     		mov	r1, r5
 282 003a A069     		ldr	r0, [r4, #24]
 283              	.LBE27:
 284              		.loc 1 129 0 is_stmt 1 discriminator 3
 285 003c BD46     		mov	sp, r7
ARM GAS  /var/folders/_2/42wyrlld3p52fkcpt1lv6gxh0000gp/T//ccP7DZnJ.s 			page 6


 286              	.LCFI8:
 287              		.cfi_def_cfa_register 13
 288              		@ sp needed
 289 003e BDE8B040 		pop	{r4, r5, r7, lr}
 290              	.LCFI9:
 291              		.cfi_restore 14
 292              		.cfi_restore 7
 293              		.cfi_restore 5
 294              		.cfi_restore 4
 295              		.cfi_def_cfa_offset 0
 296              	.LVL16:
 297              	.LBB28:
 298              		.loc 1 128 0 discriminator 3
 299 0042 FFF7FEBF 		b	_port_switch
 300              	.LVL17:
 301              	.L23:
 302 0046 00BF     		.align	2
 303              	.L22:
 304 0048 00000000 		.word	.LANCHOR0
 305 004c 00000000 		.word	.LC0
 306              	.LBE28:
 307              		.cfi_endproc
 308              	.LFE9:
 309              		.size	chSchGoSleepS, .-chSchGoSleepS
 310              		.section	.text.chSchGoSleepTimeoutS,"ax",%progbits
 311              		.align	1
 312              		.global	chSchGoSleepTimeoutS
 313              		.thumb
 314              		.thumb_func
 315              		.type	chSchGoSleepTimeoutS, %function
 316              	chSchGoSleepTimeoutS:
 317              	.LFB11:
 318              		.loc 1 189 0
 319              		.cfi_startproc
 320              		@ args = 0, pretend = 0, frame = 24
 321              		@ frame_needed = 1, uses_anonymous_args = 0
 322              	.LVL18:
 323 0000 B0B5     		push	{r4, r5, r7, lr}
 324              	.LCFI10:
 325              		.cfi_def_cfa_offset 16
 326              		.cfi_offset 4, -16
 327              		.cfi_offset 5, -12
 328              		.cfi_offset 7, -8
 329              		.cfi_offset 14, -4
 330              		.loc 1 193 0
 331 0002 4B1C     		adds	r3, r1, #1
 332              		.loc 1 189 0
 333 0004 86B0     		sub	sp, sp, #24
 334              	.LCFI11:
 335              		.cfi_def_cfa_offset 40
 336 0006 0546     		mov	r5, r0
 337 0008 00AF     		add	r7, sp, #0
 338              	.LCFI12:
 339              		.cfi_def_cfa_register 7
 340 000a 0B4C     		ldr	r4, .L31
 341              		.loc 1 193 0
 342 000c 0DD0     		beq	.L25
ARM GAS  /var/folders/_2/42wyrlld3p52fkcpt1lv6gxh0000gp/T//ccP7DZnJ.s 			page 7


 343              	.LBB29:
 344              		.loc 1 196 0
 345 000e A369     		ldr	r3, [r4, #24]
 346 0010 0A4A     		ldr	r2, .L31+4
 347 0012 381D     		adds	r0, r7, #4
 348              	.LVL19:
 349 0014 FFF7FEFF 		bl	chVTSetI
 350              	.LVL20:
 351              		.loc 1 197 0
 352 0018 2846     		mov	r0, r5
 353 001a FFF7FEFF 		bl	chSchGoSleepS
 354              	.LVL21:
 355              		.loc 1 198 0
 356 001e 3B69     		ldr	r3, [r7, #16]
 357 0020 2BB1     		cbz	r3, .L27
 358              		.loc 1 199 0
 359 0022 381D     		adds	r0, r7, #4
 360 0024 FFF7FEFF 		bl	chVTResetI
 361              	.LVL22:
 362 0028 01E0     		b	.L27
 363              	.LVL23:
 364              	.L25:
 365              	.LBE29:
 366              		.loc 1 202 0
 367 002a FFF7FEFF 		bl	chSchGoSleepS
 368              	.LVL24:
 369              	.L27:
 370              		.loc 1 203 0
 371 002e A369     		ldr	r3, [r4, #24]
 372              		.loc 1 204 0
 373 0030 1837     		adds	r7, r7, #24
 374              	.LCFI13:
 375              		.cfi_def_cfa_offset 16
 376 0032 986A     		ldr	r0, [r3, #40]
 377 0034 BD46     		mov	sp, r7
 378              	.LCFI14:
 379              		.cfi_def_cfa_register 13
 380              		@ sp needed
 381 0036 B0BD     		pop	{r4, r5, r7, pc}
 382              	.L32:
 383              		.align	2
 384              	.L31:
 385 0038 00000000 		.word	.LANCHOR0
 386 003c 00000000 		.word	wakeup
 387              		.cfi_endproc
 388              	.LFE11:
 389              		.size	chSchGoSleepTimeoutS, .-chSchGoSleepTimeoutS
 390              		.section	.text.chSchWakeupS,"ax",%progbits
 391              		.align	1
 392              		.global	chSchWakeupS
 393              		.thumb
 394              		.thumb_func
 395              		.type	chSchWakeupS, %function
 396              	chSchWakeupS:
 397              	.LFB12:
 398              		.loc 1 225 0
 399              		.cfi_startproc
ARM GAS  /var/folders/_2/42wyrlld3p52fkcpt1lv6gxh0000gp/T//ccP7DZnJ.s 			page 8


 400              		@ args = 0, pretend = 0, frame = 0
 401              		@ frame_needed = 1, uses_anonymous_args = 0
 402              	.LVL25:
 403 0000 F8B5     		push	{r3, r4, r5, r6, r7, lr}
 404              	.LCFI15:
 405              		.cfi_def_cfa_offset 24
 406              		.cfi_offset 3, -24
 407              		.cfi_offset 4, -20
 408              		.cfi_offset 5, -16
 409              		.cfi_offset 6, -12
 410              		.cfi_offset 7, -8
 411              		.cfi_offset 14, -4
 412              		.loc 1 234 0
 413 0002 134E     		ldr	r6, .L36
 414              		.loc 1 229 0
 415 0004 8162     		str	r1, [r0, #40]
 416              		.loc 1 234 0
 417 0006 B369     		ldr	r3, [r6, #24]
 418 0008 8168     		ldr	r1, [r0, #8]
 419              	.LVL26:
 420 000a 9A68     		ldr	r2, [r3, #8]
 421              		.loc 1 225 0
 422 000c 00AF     		add	r7, sp, #0
 423              	.LCFI16:
 424              		.cfi_def_cfa_register 7
 425              		.loc 1 234 0
 426 000e 9142     		cmp	r1, r2
 427              		.loc 1 225 0
 428 0010 0446     		mov	r4, r0
 429              		.loc 1 234 0
 430 0012 04D8     		bhi	.L34
 431              		.loc 1 242 0
 432 0014 BD46     		mov	sp, r7
 433              	.LCFI17:
 434              		.cfi_remember_state
 435              		.cfi_def_cfa_register 13
 436              		@ sp needed
 437 0016 BDE8F840 		pop	{r3, r4, r5, r6, r7, lr}
 438              	.LCFI18:
 439              		.cfi_restore 14
 440              		.cfi_restore 7
 441              		.cfi_restore 6
 442              		.cfi_restore 5
 443              		.cfi_restore 4
 444              		.cfi_restore 3
 445              		.cfi_def_cfa_offset 0
 446              		.loc 1 235 0
 447 001a FFF7FEBF 		b	chSchReadyI
 448              	.LVL27:
 449              	.L34:
 450              	.LCFI19:
 451              		.cfi_restore_state
 452              	.LBB30:
 453              		.loc 1 237 0
 454 001e 1846     		mov	r0, r3
 455              	.LVL28:
 456 0020 FFF7FEFF 		bl	chSchReadyI
ARM GAS  /var/folders/_2/42wyrlld3p52fkcpt1lv6gxh0000gp/T//ccP7DZnJ.s 			page 9


 457              	.LVL29:
 458 0024 0546     		mov	r5, r0
 459              	.LVL30:
 460              		.loc 1 239 0
 461 0026 0123     		movs	r3, #1
 462 0028 84F82030 		strb	r3, [r4, #32]
 463              		.loc 1 238 0
 464 002c B461     		str	r4, [r6, #24]
 465              		.loc 1 240 0
 466 002e FFF7FEFF 		bl	dbg_trace
 467              	.LVL31:
 468              	.LBB31:
 469 0032 EA69     		ldr	r2, [r5, #28]
 470 0034 ADF12403 		sub	r3, sp, #36
 471 0038 9A42     		cmp	r2, r3
 472 003a 02D9     		bls	.L35
 473              		.loc 1 240 0 is_stmt 0 discriminator 1
 474 003c 0548     		ldr	r0, .L36+4
 475 003e FFF7FEFF 		bl	chDbgPanic
 476              	.LVL32:
 477              	.L35:
 478              		.loc 1 240 0 discriminator 3
 479 0042 2946     		mov	r1, r5
 480 0044 2046     		mov	r0, r4
 481              	.LBE31:
 482              	.LBE30:
 483              		.loc 1 242 0 is_stmt 1 discriminator 3
 484 0046 BD46     		mov	sp, r7
 485              	.LCFI20:
 486              		.cfi_def_cfa_register 13
 487              		@ sp needed
 488 0048 BDE8F840 		pop	{r3, r4, r5, r6, r7, lr}
 489              	.LCFI21:
 490              		.cfi_restore 14
 491              		.cfi_restore 7
 492              		.cfi_restore 6
 493              		.cfi_restore 5
 494              		.cfi_restore 4
 495              		.cfi_restore 3
 496              		.cfi_def_cfa_offset 0
 497              	.LVL33:
 498              	.LBB33:
 499              	.LBB32:
 500              		.loc 1 240 0 discriminator 3
 501 004c FFF7FEBF 		b	_port_switch
 502              	.LVL34:
 503              	.L37:
 504              		.align	2
 505              	.L36:
 506 0050 00000000 		.word	.LANCHOR0
 507 0054 00000000 		.word	.LC0
 508              	.LBE32:
 509              	.LBE33:
 510              		.cfi_endproc
 511              	.LFE12:
 512              		.size	chSchWakeupS, .-chSchWakeupS
 513              		.section	.text.chSchDoRescheduleBehind,"ax",%progbits
ARM GAS  /var/folders/_2/42wyrlld3p52fkcpt1lv6gxh0000gp/T//ccP7DZnJ.s 			page 10


 514              		.align	1
 515              		.global	chSchDoRescheduleBehind
 516              		.thumb
 517              		.thumb_func
 518              		.type	chSchDoRescheduleBehind, %function
 519              	chSchDoRescheduleBehind:
 520              	.LFB14:
 521              		.loc 1 304 0
 522              		.cfi_startproc
 523              		@ args = 0, pretend = 0, frame = 0
 524              		@ frame_needed = 1, uses_anonymous_args = 0
 525 0000 B0B5     		push	{r4, r5, r7, lr}
 526              	.LCFI22:
 527              		.cfi_def_cfa_offset 16
 528              		.cfi_offset 4, -16
 529              		.cfi_offset 5, -12
 530              		.cfi_offset 7, -8
 531              		.cfi_offset 14, -4
 532              		.loc 1 307 0
 533 0002 114C     		ldr	r4, .L40
 534              		.loc 1 304 0
 535 0004 00AF     		add	r7, sp, #0
 536              	.LCFI23:
 537              		.cfi_def_cfa_register 7
 538              	.LBB34:
 539              	.LBB35:
 540              		.loc 2 60 0
 541 0006 2368     		ldr	r3, [r4]
 542              	.LBE35:
 543              	.LBE34:
 544              		.loc 1 307 0
 545 0008 A569     		ldr	r5, [r4, #24]
 546              	.LVL35:
 547              	.LBB38:
 548              	.LBB36:
 549              		.loc 2 62 0
 550 000a 1A68     		ldr	r2, [r3]
 551              	.LBE36:
 552              	.LBE38:
 553              		.loc 1 314 0
 554 000c 2846     		mov	r0, r5
 555              	.LBB39:
 556              	.LBB37:
 557              		.loc 2 62 0
 558 000e 5460     		str	r4, [r2, #4]
 559              	.LVL36:
 560 0010 2260     		str	r2, [r4]
 561              	.LBE37:
 562              	.LBE39:
 563              		.loc 1 310 0
 564 0012 0122     		movs	r2, #1
 565 0014 83F82020 		strb	r2, [r3, #32]
 566              		.loc 1 309 0
 567 0018 A361     		str	r3, [r4, #24]
 568              		.loc 1 312 0
 569 001a 1423     		movs	r3, #20
 570 001c 85F82230 		strb	r3, [r5, #34]
ARM GAS  /var/folders/_2/42wyrlld3p52fkcpt1lv6gxh0000gp/T//ccP7DZnJ.s 			page 11


 571              		.loc 1 314 0
 572 0020 FFF7FEFF 		bl	chSchReadyI
 573              	.LVL37:
 574              		.loc 1 315 0
 575 0024 2846     		mov	r0, r5
 576 0026 FFF7FEFF 		bl	dbg_trace
 577              	.LVL38:
 578              	.LBB40:
 579 002a EA69     		ldr	r2, [r5, #28]
 580 002c ADF12403 		sub	r3, sp, #36
 581 0030 9A42     		cmp	r2, r3
 582 0032 02D9     		bls	.L39
 583              		.loc 1 315 0 is_stmt 0 discriminator 1
 584 0034 0548     		ldr	r0, .L40+4
 585 0036 FFF7FEFF 		bl	chDbgPanic
 586              	.LVL39:
 587              	.L39:
 588              		.loc 1 315 0 discriminator 3
 589 003a 2946     		mov	r1, r5
 590 003c A069     		ldr	r0, [r4, #24]
 591              	.LBE40:
 592              		.loc 1 316 0 is_stmt 1 discriminator 3
 593 003e BD46     		mov	sp, r7
 594              	.LCFI24:
 595              		.cfi_def_cfa_register 13
 596              		@ sp needed
 597 0040 BDE8B040 		pop	{r4, r5, r7, lr}
 598              	.LCFI25:
 599              		.cfi_restore 14
 600              		.cfi_restore 7
 601              		.cfi_restore 5
 602              		.cfi_restore 4
 603              		.cfi_def_cfa_offset 0
 604              	.LVL40:
 605              	.LBB41:
 606              		.loc 1 315 0 discriminator 3
 607 0044 FFF7FEBF 		b	_port_switch
 608              	.LVL41:
 609              	.L41:
 610              		.align	2
 611              	.L40:
 612 0048 00000000 		.word	.LANCHOR0
 613 004c 00000000 		.word	.LC0
 614              	.LBE41:
 615              		.cfi_endproc
 616              	.LFE14:
 617              		.size	chSchDoRescheduleBehind, .-chSchDoRescheduleBehind
 618              		.section	.text.chSchDoRescheduleAhead,"ax",%progbits
 619              		.align	1
 620              		.global	chSchDoRescheduleAhead
 621              		.thumb
 622              		.thumb_func
 623              		.type	chSchDoRescheduleAhead, %function
 624              	chSchDoRescheduleAhead:
 625              	.LFB15:
 626              		.loc 1 329 0
 627              		.cfi_startproc
ARM GAS  /var/folders/_2/42wyrlld3p52fkcpt1lv6gxh0000gp/T//ccP7DZnJ.s 			page 12


 628              		@ args = 0, pretend = 0, frame = 0
 629              		@ frame_needed = 1, uses_anonymous_args = 0
 630              		.loc 1 332 0
 631 0000 154B     		ldr	r3, .L46
 632              		.loc 1 329 0
 633 0002 B0B5     		push	{r4, r5, r7, lr}
 634              	.LCFI26:
 635              		.cfi_def_cfa_offset 16
 636              		.cfi_offset 4, -16
 637              		.cfi_offset 5, -12
 638              		.cfi_offset 7, -8
 639              		.cfi_offset 14, -4
 640 0004 1D46     		mov	r5, r3
 641              	.LBB42:
 642              	.LBB43:
 643              		.loc 2 60 0
 644 0006 1A68     		ldr	r2, [r3]
 645              	.LBE43:
 646              	.LBE42:
 647              		.loc 1 332 0
 648 0008 9C69     		ldr	r4, [r3, #24]
 649              	.LVL42:
 650              	.LBB46:
 651              	.LBB44:
 652              		.loc 2 62 0
 653 000a 1168     		ldr	r1, [r2]
 654              	.LBE44:
 655              	.LBE46:
 656              		.loc 1 329 0
 657 000c 00AF     		add	r7, sp, #0
 658              	.LCFI27:
 659              		.cfi_def_cfa_register 7
 660              	.LBB47:
 661              	.LBB45:
 662              		.loc 2 62 0
 663 000e 4B60     		str	r3, [r1, #4]
 664              	.LVL43:
 665 0010 1960     		str	r1, [r3]
 666              	.LBE45:
 667              	.LBE47:
 668              		.loc 1 335 0
 669 0012 0121     		movs	r1, #1
 670 0014 82F82010 		strb	r1, [r2, #32]
 671              		.loc 1 334 0
 672 0018 9A61     		str	r2, [r3, #24]
 673              		.loc 1 337 0
 674 001a 0022     		movs	r2, #0
 675 001c 84F82020 		strb	r2, [r4, #32]
 676              	.LVL44:
 677              		.loc 1 341 0
 678 0020 A268     		ldr	r2, [r4, #8]
 679              	.LVL45:
 680              	.L43:
 681              		.loc 1 340 0 discriminator 1
 682 0022 1B68     		ldr	r3, [r3]
 683              	.LVL46:
 684              		.loc 1 341 0 discriminator 1
ARM GAS  /var/folders/_2/42wyrlld3p52fkcpt1lv6gxh0000gp/T//ccP7DZnJ.s 			page 13


 685 0024 9968     		ldr	r1, [r3, #8]
 686 0026 9142     		cmp	r1, r2
 687 0028 FBD8     		bhi	.L43
 688              		.loc 1 344 0
 689 002a 5A68     		ldr	r2, [r3, #4]
 690              		.loc 1 343 0
 691 002c 2360     		str	r3, [r4]
 692              		.loc 1 344 0
 693 002e 6260     		str	r2, [r4, #4]
 694              		.loc 1 347 0
 695 0030 2046     		mov	r0, r4
 696              		.loc 1 345 0
 697 0032 5C60     		str	r4, [r3, #4]
 698 0034 1460     		str	r4, [r2]
 699              		.loc 1 347 0
 700 0036 FFF7FEFF 		bl	dbg_trace
 701              	.LVL47:
 702              	.LBB48:
 703 003a E269     		ldr	r2, [r4, #28]
 704 003c ADF12403 		sub	r3, sp, #36
 705 0040 9A42     		cmp	r2, r3
 706 0042 02D9     		bls	.L44
 707              		.loc 1 347 0 is_stmt 0 discriminator 1
 708 0044 0548     		ldr	r0, .L46+4
 709 0046 FFF7FEFF 		bl	chDbgPanic
 710              	.LVL48:
 711              	.L44:
 712              		.loc 1 347 0 discriminator 3
 713 004a 2146     		mov	r1, r4
 714 004c A869     		ldr	r0, [r5, #24]
 715              	.LBE48:
 716              		.loc 1 348 0 is_stmt 1 discriminator 3
 717 004e BD46     		mov	sp, r7
 718              	.LCFI28:
 719              		.cfi_def_cfa_register 13
 720              		@ sp needed
 721 0050 BDE8B040 		pop	{r4, r5, r7, lr}
 722              	.LCFI29:
 723              		.cfi_restore 14
 724              		.cfi_restore 7
 725              		.cfi_restore 5
 726              		.cfi_restore 4
 727              		.cfi_def_cfa_offset 0
 728              	.LVL49:
 729              	.LBB49:
 730              		.loc 1 347 0 discriminator 3
 731 0054 FFF7FEBF 		b	_port_switch
 732              	.LVL50:
 733              	.L47:
 734              		.align	2
 735              	.L46:
 736 0058 00000000 		.word	.LANCHOR0
 737 005c 00000000 		.word	.LC0
 738              	.LBE49:
 739              		.cfi_endproc
 740              	.LFE15:
 741              		.size	chSchDoRescheduleAhead, .-chSchDoRescheduleAhead
ARM GAS  /var/folders/_2/42wyrlld3p52fkcpt1lv6gxh0000gp/T//ccP7DZnJ.s 			page 14


 742              		.section	.text.chSchRescheduleS,"ax",%progbits
 743              		.align	1
 744              		.global	chSchRescheduleS
 745              		.thumb
 746              		.thumb_func
 747              		.type	chSchRescheduleS, %function
 748              	chSchRescheduleS:
 749              	.LFB13:
 750              		.loc 1 253 0
 751              		.cfi_startproc
 752              		@ args = 0, pretend = 0, frame = 0
 753              		@ frame_needed = 1, uses_anonymous_args = 0
 754              		@ link register save eliminated.
 755              		.loc 1 257 0
 756 0000 074B     		ldr	r3, .L50
 757              		.loc 1 253 0
 758 0002 80B4     		push	{r7}
 759              	.LCFI30:
 760              		.cfi_def_cfa_offset 4
 761              		.cfi_offset 7, -4
 762              		.loc 1 257 0
 763 0004 1A68     		ldr	r2, [r3]
 764 0006 9B69     		ldr	r3, [r3, #24]
 765 0008 9268     		ldr	r2, [r2, #8]
 766 000a 9B68     		ldr	r3, [r3, #8]
 767              		.loc 1 253 0
 768 000c 00AF     		add	r7, sp, #0
 769              	.LCFI31:
 770              		.cfi_def_cfa_register 7
 771              		.loc 1 257 0
 772 000e 9A42     		cmp	r2, r3
 773 0010 03D9     		bls	.L48
 774              		.loc 1 259 0
 775 0012 BD46     		mov	sp, r7
 776              	.LCFI32:
 777              		.cfi_remember_state
 778              		.cfi_def_cfa_register 13
 779              		@ sp needed
 780 0014 80BC     		pop	{r7}
 781              	.LCFI33:
 782              		.cfi_restore 7
 783              		.cfi_def_cfa_offset 0
 784              		.loc 1 258 0
 785 0016 FFF7FEBF 		b	chSchDoRescheduleAhead
 786              	.LVL51:
 787              	.L48:
 788              	.LCFI34:
 789              		.cfi_restore_state
 790              		.loc 1 259 0
 791 001a BD46     		mov	sp, r7
 792              	.LCFI35:
 793              		.cfi_def_cfa_register 13
 794              		@ sp needed
 795 001c 80BC     		pop	{r7}
 796              	.LCFI36:
 797              		.cfi_restore 7
 798              		.cfi_def_cfa_offset 0
ARM GAS  /var/folders/_2/42wyrlld3p52fkcpt1lv6gxh0000gp/T//ccP7DZnJ.s 			page 15


 799 001e 7047     		bx	lr
 800              	.L51:
 801              		.align	2
 802              	.L50:
 803 0020 00000000 		.word	.LANCHOR0
 804              		.cfi_endproc
 805              	.LFE13:
 806              		.size	chSchRescheduleS, .-chSchRescheduleS
 807              		.section	.text.chSchDoReschedule,"ax",%progbits
 808              		.align	1
 809              		.global	chSchDoReschedule
 810              		.thumb
 811              		.thumb_func
 812              		.type	chSchDoReschedule, %function
 813              	chSchDoReschedule:
 814              	.LFB16:
 815              		.loc 1 362 0
 816              		.cfi_startproc
 817              		@ args = 0, pretend = 0, frame = 0
 818              		@ frame_needed = 1, uses_anonymous_args = 0
 819              		@ link register save eliminated.
 820 0000 80B4     		push	{r7}
 821              	.LCFI37:
 822              		.cfi_def_cfa_offset 4
 823              		.cfi_offset 7, -4
 824              		.loc 1 367 0
 825 0002 074B     		ldr	r3, .L54
 826              		.loc 1 362 0
 827 0004 00AF     		add	r7, sp, #0
 828              	.LCFI38:
 829              		.cfi_def_cfa_register 7
 830              		.loc 1 367 0
 831 0006 9B69     		ldr	r3, [r3, #24]
 832 0008 93F82230 		ldrb	r3, [r3, #34]	@ zero_extendqisi2
 833 000c 1BB9     		cbnz	r3, .L53
 834              		.loc 1 382 0
 835 000e BD46     		mov	sp, r7
 836              	.LCFI39:
 837              		.cfi_remember_state
 838              		.cfi_def_cfa_register 13
 839              		@ sp needed
 840 0010 80BC     		pop	{r7}
 841              	.LCFI40:
 842              		.cfi_restore 7
 843              		.cfi_def_cfa_offset 0
 844              		.loc 1 370 0
 845 0012 FFF7FEBF 		b	chSchDoRescheduleBehind
 846              	.LVL52:
 847              	.L53:
 848              	.LCFI41:
 849              		.cfi_restore_state
 850              		.loc 1 382 0
 851 0016 BD46     		mov	sp, r7
 852              	.LCFI42:
 853              		.cfi_def_cfa_register 13
 854              		@ sp needed
 855 0018 80BC     		pop	{r7}
ARM GAS  /var/folders/_2/42wyrlld3p52fkcpt1lv6gxh0000gp/T//ccP7DZnJ.s 			page 16


 856              	.LCFI43:
 857              		.cfi_restore 7
 858              		.cfi_def_cfa_offset 0
 859              		.loc 1 375 0
 860 001a FFF7FEBF 		b	chSchDoRescheduleAhead
 861              	.LVL53:
 862              	.L55:
 863 001e 00BF     		.align	2
 864              	.L54:
 865 0020 00000000 		.word	.LANCHOR0
 866              		.cfi_endproc
 867              	.LFE16:
 868              		.size	chSchDoReschedule, .-chSchDoReschedule
 869              		.global	rlist
 870              		.section	.rodata.str1.1,"aMS",%progbits,1
 871              	.LC0:
 872 0000 73746163 		.ascii	"stack overflow\000"
 872      6B206F76 
 872      6572666C 
 872      6F7700
 873              		.section	.bss.rlist,"aw",%nobits
 874              		.align	2
 875              		.set	.LANCHOR0,. + 0
 876              		.type	rlist, %object
 877              		.size	rlist, 28
 878              	rlist:
 879 0000 00000000 		.space	28
 879      00000000 
 879      00000000 
 879      00000000 
 879      00000000 
 880              		.text
 881              	.Letext0:
 882              		.file 3 "/Users/ARS/Applications/Eclipse.app/Contents/gcc-arm-none-eabi-5_3-2016q1/arm-none-eabi/i
 883              		.file 4 "/Users/ARS/Applications/Eclipse.app/Contents/gcc-arm-none-eabi-5_3-2016q1/arm-none-eabi/i
 884              		.file 5 "chibios/os/ports/GCC/ARMCMx/chtypes.h"
 885              		.file 6 "chibios/os/kernel/include/chlists.h"
 886              		.file 7 "chibios/os/kernel/include/chthreads.h"
 887              		.file 8 "chibios/os/ports/GCC/ARMCMx/chcore_v7m.h"
 888              		.file 9 "chibios/os/kernel/include/chvt.h"
 889              		.file 10 "chibios/os/kernel/include/chschd.h"
 890              		.file 11 "chibios/os/kernel/include/chsem.h"
 891              		.file 12 "chibios/os/kernel/include/chmtx.h"
 892              		.file 13 "chibios/os/kernel/include/chdebug.h"