ARM GAS  /var/folders/_2/42wyrlld3p52fkcpt1lv6gxh0000gp/T//ccFZQJZz.s 			page 1


   1              		.syntax unified
   2              		.cpu cortex-m3
   3              		.fpu softvfp
   4              		.eabi_attribute 20, 1
   5              		.eabi_attribute 21, 1
   6              		.eabi_attribute 23, 3
   7              		.eabi_attribute 24, 1
   8              		.eabi_attribute 25, 1
   9              		.eabi_attribute 26, 1
  10              		.eabi_attribute 30, 4
  11              		.eabi_attribute 34, 1
  12              		.eabi_attribute 18, 4
  13              		.thumb
  14              		.syntax unified
  15              		.file	"chsem.c"
  16              		.text
  17              	.Ltext0:
  18              		.cfi_sections	.debug_frame
  19              		.section	.text.chSemInit,"ax",%progbits
  20              		.align	1
  21              		.global	chSemInit
  22              		.thumb
  23              		.thumb_func
  24              		.type	chSemInit, %function
  25              	chSemInit:
  26              	.LFB7:
  27              		.file 1 "chibios/os/kernel/src/chsem.c"
  28              		.loc 1 86 0
  29              		.cfi_startproc
  30              		@ args = 0, pretend = 0, frame = 0
  31              		@ frame_needed = 1, uses_anonymous_args = 0
  32              	.LVL0:
  33 0000 80B5     		push	{r7, lr}
  34              	.LCFI0:
  35              		.cfi_def_cfa_offset 8
  36              		.cfi_offset 7, -8
  37              		.cfi_offset 14, -4
  38              		.loc 1 90 0
  39 0002 4060     		str	r0, [r0, #4]
  40              		.loc 1 86 0
  41 0004 00AF     		add	r7, sp, #0
  42              	.LCFI1:
  43              		.cfi_def_cfa_register 7
  44              		.loc 1 90 0
  45 0006 0060     		str	r0, [r0]
  46              		.loc 1 91 0
  47 0008 8160     		str	r1, [r0, #8]
  48 000a 80BD     		pop	{r7, pc}
  49              		.cfi_endproc
  50              	.LFE7:
  51              		.size	chSemInit, .-chSemInit
  52              		.section	.text.chSemResetI,"ax",%progbits
  53              		.align	1
  54              		.global	chSemResetI
  55              		.thumb
  56              		.thumb_func
  57              		.type	chSemResetI, %function
ARM GAS  /var/folders/_2/42wyrlld3p52fkcpt1lv6gxh0000gp/T//ccFZQJZz.s 			page 2


  58              	chSemResetI:
  59              	.LFB9:
  60              		.loc 1 136 0
  61              		.cfi_startproc
  62              		@ args = 0, pretend = 0, frame = 0
  63              		@ frame_needed = 1, uses_anonymous_args = 0
  64              	.LVL1:
  65 0000 F8B5     		push	{r3, r4, r5, r6, r7, lr}
  66              	.LCFI2:
  67              		.cfi_def_cfa_offset 24
  68              		.cfi_offset 3, -24
  69              		.cfi_offset 4, -20
  70              		.cfi_offset 5, -16
  71              		.cfi_offset 6, -12
  72              		.cfi_offset 7, -8
  73              		.cfi_offset 14, -4
  74 0002 0446     		mov	r4, r0
  75              		.loc 1 141 0
  76 0004 8568     		ldr	r5, [r0, #8]
  77              	.LVL2:
  78              		.loc 1 136 0
  79 0006 00AF     		add	r7, sp, #0
  80              	.LCFI3:
  81              		.cfi_def_cfa_register 7
  82              		.loc 1 147 0
  83 0008 8160     		str	r1, [r0, #8]
  84              		.loc 1 149 0
  85 000a 6FF00106 		mvn	r6, #1
  86              	.LVL3:
  87              	.L3:
  88              		.loc 1 148 0
  89 000e 0135     		adds	r5, r5, #1
  90              	.LVL4:
  91 0010 002D     		cmp	r5, #0
  92 0012 07DC     		bgt	.L6
  93              	.LVL5:
  94              	.LBB21:
  95              	.LBB22:
  96              		.file 2 "chibios/os/kernel/include/chinline.h"
  97              		.loc 2 67 0
  98 0014 6068     		ldr	r0, [r4, #4]
  99              	.LVL6:
 100              		.loc 2 69 0
 101 0016 4368     		ldr	r3, [r0, #4]
 102 0018 6360     		str	r3, [r4, #4]
 103 001a 1C60     		str	r4, [r3]
 104              	.LVL7:
 105              	.LBE22:
 106              	.LBE21:
 107              		.loc 1 149 0
 108 001c FFF7FEFF 		bl	chSchReadyI
 109              	.LVL8:
 110 0020 8662     		str	r6, [r0, #40]
 111 0022 F4E7     		b	.L3
 112              	.L6:
 113              		.loc 1 150 0
 114 0024 F8BD     		pop	{r3, r4, r5, r6, r7, pc}
ARM GAS  /var/folders/_2/42wyrlld3p52fkcpt1lv6gxh0000gp/T//ccFZQJZz.s 			page 3


 115              		.cfi_endproc
 116              	.LFE9:
 117              		.size	chSemResetI, .-chSemResetI
 118              		.section	.text.chSemReset,"ax",%progbits
 119              		.align	1
 120              		.global	chSemReset
 121              		.thumb
 122              		.thumb_func
 123              		.type	chSemReset, %function
 124              	chSemReset:
 125              	.LFB8:
 126              		.loc 1 109 0
 127              		.cfi_startproc
 128              		@ args = 0, pretend = 0, frame = 0
 129              		@ frame_needed = 1, uses_anonymous_args = 0
 130              	.LVL9:
 131 0000 80B5     		push	{r7, lr}
 132              	.LCFI4:
 133              		.cfi_def_cfa_offset 8
 134              		.cfi_offset 7, -8
 135              		.cfi_offset 14, -4
 136              	.LBB23:
 137              		.loc 1 111 0
 138 0002 2023     		movs	r3, #32
 139              	.LBE23:
 140              		.loc 1 109 0
 141 0004 00AF     		add	r7, sp, #0
 142              	.LCFI5:
 143              		.cfi_def_cfa_register 7
 144              	.LBB24:
 145              		.loc 1 111 0
 146              		.syntax unified
 147              	@ 111 "chibios/os/kernel/src/chsem.c" 1
 148 0006 83F31188 		msr     BASEPRI, r3
 149              	@ 0 "" 2
 150              		.thumb
 151              		.syntax unified
 152              	.LBE24:
 153              		.loc 1 112 0
 154 000a FFF7FEFF 		bl	chSemResetI
 155              	.LVL10:
 156              		.loc 1 113 0
 157 000e FFF7FEFF 		bl	chSchRescheduleS
 158              	.LVL11:
 159              	.LBB25:
 160              		.loc 1 114 0
 161 0012 0023     		movs	r3, #0
 162              		.syntax unified
 163              	@ 114 "chibios/os/kernel/src/chsem.c" 1
 164 0014 83F31188 		msr     BASEPRI, r3
 165              	@ 0 "" 2
 166              		.thumb
 167              		.syntax unified
 168 0018 80BD     		pop	{r7, pc}
 169              	.LBE25:
 170              		.cfi_endproc
 171              	.LFE8:
ARM GAS  /var/folders/_2/42wyrlld3p52fkcpt1lv6gxh0000gp/T//ccFZQJZz.s 			page 4


 172              		.size	chSemReset, .-chSemReset
 173              		.section	.text.chSemWaitS,"ax",%progbits
 174              		.align	1
 175              		.global	chSemWaitS
 176              		.thumb
 177              		.thumb_func
 178              		.type	chSemWaitS, %function
 179              	chSemWaitS:
 180              	.LFB11:
 181              		.loc 1 185 0
 182              		.cfi_startproc
 183              		@ args = 0, pretend = 0, frame = 0
 184              		@ frame_needed = 1, uses_anonymous_args = 0
 185              	.LVL12:
 186 0000 98B5     		push	{r3, r4, r7, lr}
 187              	.LCFI6:
 188              		.cfi_def_cfa_offset 16
 189              		.cfi_offset 3, -16
 190              		.cfi_offset 4, -12
 191              		.cfi_offset 7, -8
 192              		.cfi_offset 14, -4
 193              		.loc 1 194 0
 194 0002 8368     		ldr	r3, [r0, #8]
 195              		.loc 1 185 0
 196 0004 00AF     		add	r7, sp, #0
 197              	.LCFI7:
 198              		.cfi_def_cfa_register 7
 199              		.loc 1 194 0
 200 0006 013B     		subs	r3, r3, #1
 201 0008 002B     		cmp	r3, #0
 202 000a 8360     		str	r3, [r0, #8]
 203 000c 0DDA     		bge	.L10
 204              	.LVL13:
 205              	.LBB30:
 206              	.LBB31:
 207              		.loc 1 195 0
 208 000e 084C     		ldr	r4, .L11
 209 0010 A369     		ldr	r3, [r4, #24]
 210 0012 9862     		str	r0, [r3, #40]
 211              	.LVL14:
 212              	.LBB32:
 213              	.LBB33:
 214              		.loc 2 55 0
 215 0014 4268     		ldr	r2, [r0, #4]
 216              		.loc 2 54 0
 217 0016 1860     		str	r0, [r3]
 218              		.loc 2 55 0
 219 0018 5A60     		str	r2, [r3, #4]
 220              		.loc 2 56 0
 221 001a 4360     		str	r3, [r0, #4]
 222 001c 1360     		str	r3, [r2]
 223              	.LVL15:
 224              	.LBE33:
 225              	.LBE32:
 226              		.loc 1 197 0
 227 001e 0320     		movs	r0, #3
 228              	.LVL16:
ARM GAS  /var/folders/_2/42wyrlld3p52fkcpt1lv6gxh0000gp/T//ccFZQJZz.s 			page 5


 229 0020 FFF7FEFF 		bl	chSchGoSleepS
 230              	.LVL17:
 231              		.loc 1 198 0
 232 0024 A369     		ldr	r3, [r4, #24]
 233 0026 986A     		ldr	r0, [r3, #40]
 234              	.LVL18:
 235 0028 98BD     		pop	{r3, r4, r7, pc}
 236              	.LVL19:
 237              	.L10:
 238              	.LBE31:
 239              	.LBE30:
 240              		.loc 1 200 0
 241 002a 0020     		movs	r0, #0
 242              	.LVL20:
 243              		.loc 1 201 0
 244 002c 98BD     		pop	{r3, r4, r7, pc}
 245              	.L12:
 246 002e 00BF     		.align	2
 247              	.L11:
 248 0030 00000000 		.word	rlist
 249              		.cfi_endproc
 250              	.LFE11:
 251              		.size	chSemWaitS, .-chSemWaitS
 252              		.section	.text.chSemWait,"ax",%progbits
 253              		.align	1
 254              		.global	chSemWait
 255              		.thumb
 256              		.thumb_func
 257              		.type	chSemWait, %function
 258              	chSemWait:
 259              	.LFB10:
 260              		.loc 1 164 0
 261              		.cfi_startproc
 262              		@ args = 0, pretend = 0, frame = 0
 263              		@ frame_needed = 1, uses_anonymous_args = 0
 264              	.LVL21:
 265 0000 80B5     		push	{r7, lr}
 266              	.LCFI8:
 267              		.cfi_def_cfa_offset 8
 268              		.cfi_offset 7, -8
 269              		.cfi_offset 14, -4
 270              	.LBB34:
 271              		.loc 1 167 0
 272 0002 2023     		movs	r3, #32
 273              	.LBE34:
 274              		.loc 1 164 0
 275 0004 00AF     		add	r7, sp, #0
 276              	.LCFI9:
 277              		.cfi_def_cfa_register 7
 278              	.LBB35:
 279              		.loc 1 167 0
 280              		.syntax unified
 281              	@ 167 "chibios/os/kernel/src/chsem.c" 1
 282 0006 83F31188 		msr     BASEPRI, r3
 283              	@ 0 "" 2
 284              		.thumb
 285              		.syntax unified
ARM GAS  /var/folders/_2/42wyrlld3p52fkcpt1lv6gxh0000gp/T//ccFZQJZz.s 			page 6


 286              	.LBE35:
 287              		.loc 1 168 0
 288 000a FFF7FEFF 		bl	chSemWaitS
 289              	.LVL22:
 290              	.LBB36:
 291              		.loc 1 169 0
 292 000e 0023     		movs	r3, #0
 293              		.syntax unified
 294              	@ 169 "chibios/os/kernel/src/chsem.c" 1
 295 0010 83F31188 		msr     BASEPRI, r3
 296              	@ 0 "" 2
 297              		.thumb
 298              		.syntax unified
 299              	.LBE36:
 300              		.loc 1 171 0
 301 0014 80BD     		pop	{r7, pc}
 302              		.cfi_endproc
 303              	.LFE10:
 304              		.size	chSemWait, .-chSemWait
 305              		.section	.text.chSemWaitTimeoutS,"ax",%progbits
 306              		.align	1
 307              		.global	chSemWaitTimeoutS
 308              		.thumb
 309              		.thumb_func
 310              		.type	chSemWaitTimeoutS, %function
 311              	chSemWaitTimeoutS:
 312              	.LFB13:
 313              		.loc 1 250 0
 314              		.cfi_startproc
 315              		@ args = 0, pretend = 0, frame = 0
 316              		@ frame_needed = 1, uses_anonymous_args = 0
 317              		@ link register save eliminated.
 318              	.LVL23:
 319 0000 90B4     		push	{r4, r7}
 320              	.LCFI10:
 321              		.cfi_def_cfa_offset 8
 322              		.cfi_offset 4, -8
 323              		.cfi_offset 7, -4
 324              		.loc 1 254 0
 325 0002 8368     		ldr	r3, [r0, #8]
 326              		.loc 1 250 0
 327 0004 00AF     		add	r7, sp, #0
 328              	.LCFI11:
 329              		.cfi_def_cfa_register 7
 330              		.loc 1 259 0
 331 0006 5A1E     		subs	r2, r3, #1
 332 0008 002A     		cmp	r2, #0
 333 000a 8260     		str	r2, [r0, #8]
 334 000c 11DA     		bge	.L17
 335              		.loc 1 260 0
 336 000e 19B9     		cbnz	r1, .L16
 337              		.loc 1 261 0
 338 0010 8360     		str	r3, [r0, #8]
 339              		.loc 1 262 0
 340 0012 4FF0FF30 		mov	r0, #-1
 341              	.LVL24:
 342 0016 0DE0     		b	.L15
ARM GAS  /var/folders/_2/42wyrlld3p52fkcpt1lv6gxh0000gp/T//ccFZQJZz.s 			page 7


 343              	.LVL25:
 344              	.L16:
 345              	.LBB41:
 346              	.LBB42:
 347              		.loc 1 264 0
 348 0018 084B     		ldr	r3, .L18
 349 001a 9B69     		ldr	r3, [r3, #24]
 350 001c 9862     		str	r0, [r3, #40]
 351              	.LVL26:
 352              	.LBB43:
 353              	.LBB44:
 354              		.loc 2 55 0
 355 001e 4268     		ldr	r2, [r0, #4]
 356              		.loc 2 54 0
 357 0020 1860     		str	r0, [r3]
 358              		.loc 2 55 0
 359 0022 5A60     		str	r2, [r3, #4]
 360              		.loc 2 56 0
 361 0024 4360     		str	r3, [r0, #4]
 362              	.LBE44:
 363              	.LBE43:
 364              		.loc 1 266 0
 365 0026 0320     		movs	r0, #3
 366              	.LVL27:
 367              	.LBB46:
 368              	.LBB45:
 369              		.loc 2 56 0
 370 0028 1360     		str	r3, [r2]
 371              	.LVL28:
 372              	.LBE45:
 373              	.LBE46:
 374              	.LBE42:
 375              	.LBE41:
 376              		.loc 1 269 0
 377 002a BD46     		mov	sp, r7
 378              	.LCFI12:
 379              		.cfi_remember_state
 380              		.cfi_def_cfa_register 13
 381              		@ sp needed
 382 002c 90BC     		pop	{r4, r7}
 383              	.LCFI13:
 384              		.cfi_restore 7
 385              		.cfi_restore 4
 386              		.cfi_def_cfa_offset 0
 387              	.LBB48:
 388              	.LBB47:
 389              		.loc 1 266 0
 390 002e FFF7FEBF 		b	chSchGoSleepTimeoutS
 391              	.LVL29:
 392              	.L17:
 393              	.LCFI14:
 394              		.cfi_restore_state
 395              	.LBE47:
 396              	.LBE48:
 397              		.loc 1 268 0
 398 0032 0020     		movs	r0, #0
 399              	.LVL30:
ARM GAS  /var/folders/_2/42wyrlld3p52fkcpt1lv6gxh0000gp/T//ccFZQJZz.s 			page 8


 400              	.L15:
 401              		.loc 1 269 0
 402 0034 BD46     		mov	sp, r7
 403              	.LCFI15:
 404              		.cfi_def_cfa_register 13
 405              		@ sp needed
 406 0036 90BC     		pop	{r4, r7}
 407              	.LCFI16:
 408              		.cfi_restore 7
 409              		.cfi_restore 4
 410              		.cfi_def_cfa_offset 0
 411 0038 7047     		bx	lr
 412              	.L19:
 413 003a 00BF     		.align	2
 414              	.L18:
 415 003c 00000000 		.word	rlist
 416              		.cfi_endproc
 417              	.LFE13:
 418              		.size	chSemWaitTimeoutS, .-chSemWaitTimeoutS
 419              		.section	.text.chSemWaitTimeout,"ax",%progbits
 420              		.align	1
 421              		.global	chSemWaitTimeout
 422              		.thumb
 423              		.thumb_func
 424              		.type	chSemWaitTimeout, %function
 425              	chSemWaitTimeout:
 426              	.LFB12:
 427              		.loc 1 222 0
 428              		.cfi_startproc
 429              		@ args = 0, pretend = 0, frame = 0
 430              		@ frame_needed = 1, uses_anonymous_args = 0
 431              	.LVL31:
 432 0000 80B5     		push	{r7, lr}
 433              	.LCFI17:
 434              		.cfi_def_cfa_offset 8
 435              		.cfi_offset 7, -8
 436              		.cfi_offset 14, -4
 437              	.LBB49:
 438              		.loc 1 225 0
 439 0002 2023     		movs	r3, #32
 440              	.LBE49:
 441              		.loc 1 222 0
 442 0004 00AF     		add	r7, sp, #0
 443              	.LCFI18:
 444              		.cfi_def_cfa_register 7
 445              	.LBB50:
 446              		.loc 1 225 0
 447              		.syntax unified
 448              	@ 225 "chibios/os/kernel/src/chsem.c" 1
 449 0006 83F31188 		msr     BASEPRI, r3
 450              	@ 0 "" 2
 451              		.thumb
 452              		.syntax unified
 453              	.LBE50:
 454              		.loc 1 226 0
 455 000a FFF7FEFF 		bl	chSemWaitTimeoutS
 456              	.LVL32:
ARM GAS  /var/folders/_2/42wyrlld3p52fkcpt1lv6gxh0000gp/T//ccFZQJZz.s 			page 9


 457              	.LBB51:
 458              		.loc 1 227 0
 459 000e 0023     		movs	r3, #0
 460              		.syntax unified
 461              	@ 227 "chibios/os/kernel/src/chsem.c" 1
 462 0010 83F31188 		msr     BASEPRI, r3
 463              	@ 0 "" 2
 464              		.thumb
 465              		.syntax unified
 466              	.LBE51:
 467              		.loc 1 229 0
 468 0014 80BD     		pop	{r7, pc}
 469              		.cfi_endproc
 470              	.LFE12:
 471              		.size	chSemWaitTimeout, .-chSemWaitTimeout
 472              		.section	.text.chSemSignal,"ax",%progbits
 473              		.align	1
 474              		.global	chSemSignal
 475              		.thumb
 476              		.thumb_func
 477              		.type	chSemSignal, %function
 478              	chSemSignal:
 479              	.LFB14:
 480              		.loc 1 278 0
 481              		.cfi_startproc
 482              		@ args = 0, pretend = 0, frame = 0
 483              		@ frame_needed = 1, uses_anonymous_args = 0
 484              	.LVL33:
 485 0000 80B5     		push	{r7, lr}
 486              	.LCFI19:
 487              		.cfi_def_cfa_offset 8
 488              		.cfi_offset 7, -8
 489              		.cfi_offset 14, -4
 490 0002 0246     		mov	r2, r0
 491 0004 00AF     		add	r7, sp, #0
 492              	.LCFI20:
 493              		.cfi_def_cfa_register 7
 494              	.LBB52:
 495              		.loc 1 286 0
 496 0006 2023     		movs	r3, #32
 497              		.syntax unified
 498              	@ 286 "chibios/os/kernel/src/chsem.c" 1
 499 0008 83F31188 		msr     BASEPRI, r3
 500              	@ 0 "" 2
 501              		.thumb
 502              		.syntax unified
 503              	.LBE52:
 504              		.loc 1 287 0
 505 000c 8368     		ldr	r3, [r0, #8]
 506 000e 0133     		adds	r3, r3, #1
 507 0010 002B     		cmp	r3, #0
 508 0012 8360     		str	r3, [r0, #8]
 509 0014 06DC     		bgt	.L22
 510              	.LVL34:
 511              	.LBB53:
 512              	.LBB54:
 513              		.loc 2 60 0
ARM GAS  /var/folders/_2/42wyrlld3p52fkcpt1lv6gxh0000gp/T//ccFZQJZz.s 			page 10


 514 0016 0068     		ldr	r0, [r0]
 515              	.LVL35:
 516              	.LBE54:
 517              	.LBE53:
 518              		.loc 1 288 0
 519 0018 0021     		movs	r1, #0
 520              	.LBB56:
 521              	.LBB55:
 522              		.loc 2 62 0
 523 001a 0368     		ldr	r3, [r0]
 524 001c 1360     		str	r3, [r2]
 525 001e 5A60     		str	r2, [r3, #4]
 526              	.LVL36:
 527              	.LBE55:
 528              	.LBE56:
 529              		.loc 1 288 0
 530 0020 FFF7FEFF 		bl	chSchWakeupS
 531              	.LVL37:
 532              	.L22:
 533              	.LBB57:
 534              		.loc 1 289 0
 535 0024 0023     		movs	r3, #0
 536              		.syntax unified
 537              	@ 289 "chibios/os/kernel/src/chsem.c" 1
 538 0026 83F31188 		msr     BASEPRI, r3
 539              	@ 0 "" 2
 540              		.thumb
 541              		.syntax unified
 542 002a 80BD     		pop	{r7, pc}
 543              	.LBE57:
 544              		.cfi_endproc
 545              	.LFE14:
 546              		.size	chSemSignal, .-chSemSignal
 547              		.section	.text.chSemSignalI,"ax",%progbits
 548              		.align	1
 549              		.global	chSemSignalI
 550              		.thumb
 551              		.thumb_func
 552              		.type	chSemSignalI, %function
 553              	chSemSignalI:
 554              	.LFB15:
 555              		.loc 1 303 0
 556              		.cfi_startproc
 557              		@ args = 0, pretend = 0, frame = 0
 558              		@ frame_needed = 1, uses_anonymous_args = 0
 559              		@ link register save eliminated.
 560              	.LVL38:
 561 0000 80B4     		push	{r7}
 562              	.LCFI21:
 563              		.cfi_def_cfa_offset 4
 564              		.cfi_offset 7, -4
 565              		.loc 1 312 0
 566 0002 8268     		ldr	r2, [r0, #8]
 567              		.loc 1 303 0
 568 0004 00AF     		add	r7, sp, #0
 569              	.LCFI22:
 570              		.cfi_def_cfa_register 7
ARM GAS  /var/folders/_2/42wyrlld3p52fkcpt1lv6gxh0000gp/T//ccFZQJZz.s 			page 11


 571              		.loc 1 312 0
 572 0006 0132     		adds	r2, r2, #1
 573 0008 002A     		cmp	r2, #0
 574              		.loc 1 303 0
 575 000a 0346     		mov	r3, r0
 576              		.loc 1 312 0
 577 000c 8260     		str	r2, [r0, #8]
 578 000e 09DC     		bgt	.L23
 579              	.LVL39:
 580              	.LBB58:
 581              	.LBB59:
 582              	.LBB60:
 583              		.loc 2 60 0
 584 0010 0068     		ldr	r0, [r0]
 585              	.LVL40:
 586              		.loc 2 62 0
 587 0012 0268     		ldr	r2, [r0]
 588 0014 1A60     		str	r2, [r3]
 589 0016 5360     		str	r3, [r2, #4]
 590              	.LVL41:
 591              	.LBE60:
 592              	.LBE59:
 593              		.loc 1 316 0
 594 0018 0023     		movs	r3, #0
 595              	.LVL42:
 596 001a 8362     		str	r3, [r0, #40]
 597              	.LVL43:
 598              	.LBE58:
 599              		.loc 1 319 0
 600 001c BD46     		mov	sp, r7
 601              	.LCFI23:
 602              		.cfi_remember_state
 603              		.cfi_def_cfa_register 13
 604              		@ sp needed
 605 001e 80BC     		pop	{r7}
 606              	.LCFI24:
 607              		.cfi_restore 7
 608              		.cfi_def_cfa_offset 0
 609              	.LBB61:
 610              		.loc 1 317 0
 611 0020 FFF7FEBF 		b	chSchReadyI
 612              	.LVL44:
 613              	.L23:
 614              	.LCFI25:
 615              		.cfi_restore_state
 616              	.LBE61:
 617              		.loc 1 319 0
 618 0024 BD46     		mov	sp, r7
 619              	.LCFI26:
 620              		.cfi_def_cfa_register 13
 621              		@ sp needed
 622 0026 80BC     		pop	{r7}
 623              	.LCFI27:
 624              		.cfi_restore 7
 625              		.cfi_def_cfa_offset 0
 626 0028 7047     		bx	lr
 627              		.cfi_endproc
ARM GAS  /var/folders/_2/42wyrlld3p52fkcpt1lv6gxh0000gp/T//ccFZQJZz.s 			page 12


 628              	.LFE15:
 629              		.size	chSemSignalI, .-chSemSignalI
 630              		.section	.text.chSemAddCounterI,"ax",%progbits
 631              		.align	1
 632              		.global	chSemAddCounterI
 633              		.thumb
 634              		.thumb_func
 635              		.type	chSemAddCounterI, %function
 636              	chSemAddCounterI:
 637              	.LFB16:
 638              		.loc 1 334 0
 639              		.cfi_startproc
 640              		@ args = 0, pretend = 0, frame = 0
 641              		@ frame_needed = 1, uses_anonymous_args = 0
 642              	.LVL45:
 643 0000 F8B5     		push	{r3, r4, r5, r6, r7, lr}
 644              	.LCFI28:
 645              		.cfi_def_cfa_offset 24
 646              		.cfi_offset 3, -24
 647              		.cfi_offset 4, -20
 648              		.cfi_offset 5, -16
 649              		.cfi_offset 6, -12
 650              		.cfi_offset 7, -8
 651              		.cfi_offset 14, -4
 652 0002 0446     		mov	r4, r0
 653 0004 0D46     		mov	r5, r1
 654 0006 00AF     		add	r7, sp, #0
 655              	.LCFI29:
 656              		.cfi_def_cfa_register 7
 657              		.loc 1 345 0
 658 0008 0026     		movs	r6, #0
 659              	.LVL46:
 660              	.L26:
 661              		.loc 1 343 0
 662 000a 002D     		cmp	r5, #0
 663 000c 0DDD     		ble	.L29
 664              		.loc 1 344 0
 665 000e A368     		ldr	r3, [r4, #8]
 666 0010 0133     		adds	r3, r3, #1
 667 0012 002B     		cmp	r3, #0
 668 0014 A360     		str	r3, [r4, #8]
 669 0016 06DC     		bgt	.L27
 670              	.LVL47:
 671              	.LBB62:
 672              	.LBB63:
 673              		.loc 2 60 0
 674 0018 2068     		ldr	r0, [r4]
 675              	.LVL48:
 676              		.loc 2 62 0
 677 001a 0368     		ldr	r3, [r0]
 678 001c 2360     		str	r3, [r4]
 679 001e 5C60     		str	r4, [r3, #4]
 680              	.LVL49:
 681              	.LBE63:
 682              	.LBE62:
 683              		.loc 1 345 0
 684 0020 FFF7FEFF 		bl	chSchReadyI
ARM GAS  /var/folders/_2/42wyrlld3p52fkcpt1lv6gxh0000gp/T//ccFZQJZz.s 			page 13


 685              	.LVL50:
 686 0024 8662     		str	r6, [r0, #40]
 687              	.L27:
 688              		.loc 1 346 0
 689 0026 013D     		subs	r5, r5, #1
 690              	.LVL51:
 691 0028 EFE7     		b	.L26
 692              	.L29:
 693              		.loc 1 348 0
 694 002a F8BD     		pop	{r3, r4, r5, r6, r7, pc}
 695              		.cfi_endproc
 696              	.LFE16:
 697              		.size	chSemAddCounterI, .-chSemAddCounterI
 698              		.text
 699              	.Letext0:
 700              		.file 3 "/Users/ARS/Applications/Eclipse.app/Contents/gcc-arm-none-eabi-5_3-2016q1/arm-none-eabi/i
 701              		.file 4 "/Users/ARS/Applications/Eclipse.app/Contents/gcc-arm-none-eabi-5_3-2016q1/arm-none-eabi/i
 702              		.file 5 "chibios/os/ports/GCC/ARMCMx/chtypes.h"
 703              		.file 6 "chibios/os/kernel/include/chlists.h"
 704              		.file 7 "chibios/os/kernel/include/chthreads.h"
 705              		.file 8 "chibios/os/ports/GCC/ARMCMx/chcore_v7m.h"
 706              		.file 9 "chibios/os/kernel/include/chschd.h"
 707              		.file 10 "chibios/os/kernel/include/chsem.h"
 708              		.file 11 "chibios/os/kernel/include/chmtx.h"