ARM GAS  /var/folders/_2/42wyrlld3p52fkcpt1lv6gxh0000gp/T//cc7LHsnO.s 			page 1


   1              		.syntax unified
   2              		.cpu cortex-m3
   3              		.fpu softvfp
   4              		.eabi_attribute 20, 1
   5              		.eabi_attribute 21, 1
   6              		.eabi_attribute 23, 3
   7              		.eabi_attribute 24, 1
   8              		.eabi_attribute 25, 1
   9              		.eabi_attribute 26, 1
  10              		.eabi_attribute 30, 4
  11              		.eabi_attribute 34, 1
  12              		.eabi_attribute 18, 4
  13              		.thumb
  14              		.syntax unified
  15              		.file	"chsys.c"
  16              		.text
  17              	.Ltext0:
  18              		.cfi_sections	.debug_frame
  19              		.section	.text._idle_thread,"ax",%progbits
  20              		.align	1
  21              		.global	_idle_thread
  22              		.thumb
  23              		.thumb_func
  24              		.type	_idle_thread, %function
  25              	_idle_thread:
  26              	.LFB7:
  27              		.file 1 "chibios/os/kernel/src/chsys.c"
  28              		.loc 1 61 0
  29              		.cfi_startproc
  30              		@ Volatile: function does not return.
  31              		@ args = 0, pretend = 0, frame = 0
  32              		@ frame_needed = 1, uses_anonymous_args = 0
  33              	.LVL0:
  34 0000 80B5     		push	{r7, lr}
  35              	.LCFI0:
  36              		.cfi_def_cfa_offset 8
  37              		.cfi_offset 7, -8
  38              		.cfi_offset 14, -4
  39              		.loc 1 64 0
  40 0002 034B     		ldr	r3, .L4
  41 0004 034A     		ldr	r2, .L4+4
  42 0006 9B69     		ldr	r3, [r3, #24]
  43              		.loc 1 61 0
  44 0008 00AF     		add	r7, sp, #0
  45              	.LCFI1:
  46              		.cfi_def_cfa_register 7
  47              		.loc 1 64 0
  48 000a 9A61     		str	r2, [r3, #24]
  49              	.L2:
  50              		.loc 1 67 0 discriminator 1
  51              		.syntax unified
  52              	@ 67 "chibios/os/kernel/src/chsys.c" 1
  53 000c 30BF     		wfi
  54              	@ 0 "" 2
  55              		.thumb
  56              		.syntax unified
  57 000e FDE7     		b	.L2
ARM GAS  /var/folders/_2/42wyrlld3p52fkcpt1lv6gxh0000gp/T//cc7LHsnO.s 			page 2


  58              	.L5:
  59              		.align	2
  60              	.L4:
  61 0010 00000000 		.word	rlist
  62 0014 00000000 		.word	.LC0
  63              		.cfi_endproc
  64              	.LFE7:
  65              		.size	_idle_thread, .-_idle_thread
  66              		.section	.text.chSysInit,"ax",%progbits
  67              		.align	1
  68              		.global	chSysInit
  69              		.thumb
  70              		.thumb_func
  71              		.type	chSysInit, %function
  72              	chSysInit:
  73              	.LFB8:
  74              		.loc 1 84 0
  75              		.cfi_startproc
  76              		@ args = 0, pretend = 0, frame = 0
  77              		@ frame_needed = 1, uses_anonymous_args = 0
  78 0000 80B5     		push	{r7, lr}
  79              	.LCFI2:
  80              		.cfi_def_cfa_offset 8
  81              		.cfi_offset 7, -8
  82              		.cfi_offset 14, -4
  83 0002 82B0     		sub	sp, sp, #8
  84              	.LCFI3:
  85              		.cfi_def_cfa_offset 16
  86 0004 02AF     		add	r7, sp, #8
  87              	.LCFI4:
  88              		.cfi_def_cfa 7, 8
  89              		.loc 1 90 0
  90 0006 FFF7FEFF 		bl	_port_init
  91              	.LVL1:
  92              		.loc 1 91 0
  93 000a FFF7FEFF 		bl	_scheduler_init
  94              	.LVL2:
  95              		.loc 1 92 0
  96 000e FFF7FEFF 		bl	_vt_init
  97              	.LVL3:
  98              		.loc 1 94 0
  99 0012 FFF7FEFF 		bl	_core_init
 100              	.LVL4:
 101              		.loc 1 97 0
 102 0016 FFF7FEFF 		bl	_heap_init
 103              	.LVL5:
 104              		.loc 1 100 0
 105 001a FFF7FEFF 		bl	_trace_init
 106              	.LVL6:
 107              		.loc 1 104 0
 108 001e 4021     		movs	r1, #64
 109 0020 0C48     		ldr	r0, .L7
 110 0022 FFF7FEFF 		bl	_thread_init
 111              	.LVL7:
 112 0026 0C49     		ldr	r1, .L7+4
 113              		.loc 1 109 0
 114 0028 0C4B     		ldr	r3, .L7+8
ARM GAS  /var/folders/_2/42wyrlld3p52fkcpt1lv6gxh0000gp/T//cc7LHsnO.s 			page 3


 115              		.loc 1 105 0
 116 002a 0122     		movs	r2, #1
 117              		.loc 1 109 0
 118 002c C361     		str	r3, [r0, #28]
 119              		.loc 1 104 0
 120 002e 8861     		str	r0, [r1, #24]
 121              		.loc 1 105 0
 122 0030 80F82020 		strb	r2, [r0, #32]
 123              	.LBB2:
 124              		.loc 1 111 0
 125 0034 0023     		movs	r3, #0
 126              		.syntax unified
 127              	@ 111 "chibios/os/kernel/src/chsys.c" 1
 128 0036 83F31188 		msr     BASEPRI, r3                    
 129 003a 62B6     		cpsie   i
 130              	@ 0 "" 2
 131              		.thumb
 132              		.syntax unified
 133              	.LBE2:
 134              		.loc 1 115 0
 135 003c 0848     		ldr	r0, .L7+12
 136 003e 8969     		ldr	r1, [r1, #24]
 137 0040 8861     		str	r0, [r1, #24]
 138              		.loc 1 121 0
 139 0042 0093     		str	r3, [sp]
 140 0044 B021     		movs	r1, #176
 141 0046 074B     		ldr	r3, .L7+16
 142 0048 0748     		ldr	r0, .L7+20
 143 004a FFF7FEFF 		bl	chThdCreateStatic
 144              	.LVL8:
 145              		.loc 1 124 0
 146 004e BD46     		mov	sp, r7
 147              	.LCFI5:
 148              		.cfi_def_cfa_register 13
 149              		@ sp needed
 150 0050 80BD     		pop	{r7, pc}
 151              	.L8:
 152 0052 00BF     		.align	2
 153              	.L7:
 154 0054 00000000 		.word	.LANCHOR0
 155 0058 00000000 		.word	rlist
 156 005c 00000000 		.word	__main_thread_stack_base__
 157 0060 00000000 		.word	ch_debug
 158 0064 00000000 		.word	_idle_thread
 159 0068 00000000 		.word	.LANCHOR1
 160              		.cfi_endproc
 161              	.LFE8:
 162              		.size	chSysInit, .-chSysInit
 163              		.section	.text.chSysTimerHandlerI,"ax",%progbits
 164              		.align	1
 165              		.global	chSysTimerHandlerI
 166              		.thumb
 167              		.thumb_func
 168              		.type	chSysTimerHandlerI, %function
 169              	chSysTimerHandlerI:
 170              	.LFB9:
 171              		.loc 1 137 0
ARM GAS  /var/folders/_2/42wyrlld3p52fkcpt1lv6gxh0000gp/T//cc7LHsnO.s 			page 4


 172              		.cfi_startproc
 173              		@ args = 0, pretend = 0, frame = 0
 174              		@ frame_needed = 1, uses_anonymous_args = 0
 175 0000 F8B5     		push	{r3, r4, r5, r6, r7, lr}
 176              	.LCFI6:
 177              		.cfi_def_cfa_offset 24
 178              		.cfi_offset 3, -24
 179              		.cfi_offset 4, -20
 180              		.cfi_offset 5, -16
 181              		.cfi_offset 6, -12
 182              		.cfi_offset 7, -8
 183              		.cfi_offset 14, -4
 184              		.loc 1 143 0
 185 0002 144B     		ldr	r3, .L18
 186              		.loc 1 137 0
 187 0004 00AF     		add	r7, sp, #0
 188              	.LCFI7:
 189              		.cfi_def_cfa_register 7
 190              		.loc 1 143 0
 191 0006 9B69     		ldr	r3, [r3, #24]
 192 0008 93F82220 		ldrb	r2, [r3, #34]	@ zero_extendqisi2
 193 000c 12B1     		cbz	r2, .L10
 194              		.loc 1 145 0
 195 000e 013A     		subs	r2, r2, #1
 196 0010 83F82220 		strb	r2, [r3, #34]
 197              	.L10:
 198              		.loc 1 148 0
 199 0014 5A6A     		ldr	r2, [r3, #36]
 200 0016 0132     		adds	r2, r2, #1
 201 0018 5A62     		str	r2, [r3, #36]
 202              		.loc 1 150 0
 203 001a 0F4B     		ldr	r3, .L18+4
 204 001c DA68     		ldr	r2, [r3, #12]
 205 001e 1C46     		mov	r4, r3
 206 0020 0132     		adds	r2, r2, #1
 207 0022 DA60     		str	r2, [r3, #12]
 208 0024 1A68     		ldr	r2, [r3]
 209 0026 9A42     		cmp	r2, r3
 210 0028 13D0     		beq	.L9
 211              	.LBB3:
 212              		.loc 1 150 0 is_stmt 0 discriminator 1
 213 002a 2546     		mov	r5, r4
 214 002c 9368     		ldr	r3, [r2, #8]
 215 002e 013B     		subs	r3, r3, #1
 216 0030 9360     		str	r3, [r2, #8]
 217              	.L12:
 218              		.loc 1 150 0 discriminator 2
 219 0032 2268     		ldr	r2, [r4]
 220              	.LVL9:
 221 0034 9368     		ldr	r3, [r2, #8]
 222 0036 63B9     		cbnz	r3, .L9
 223              	.LBB4:
 224              		.loc 1 150 0 discriminator 4
 225 0038 1168     		ldr	r1, [r2]
 226 003a D668     		ldr	r6, [r2, #12]
 227              	.LVL10:
 228 003c 2960     		str	r1, [r5]
ARM GAS  /var/folders/_2/42wyrlld3p52fkcpt1lv6gxh0000gp/T//cc7LHsnO.s 			page 5


 229 003e D360     		str	r3, [r2, #12]
 230 0040 4D60     		str	r5, [r1, #4]
 231              	.LBB5:
 232              		.syntax unified
 233              	@ 150 "chibios/os/kernel/src/chsys.c" 1
 234 0042 83F31188 		msr     BASEPRI, r3
 235              	@ 0 "" 2
 236              		.thumb
 237              		.syntax unified
 238              	.LBE5:
 239 0046 1069     		ldr	r0, [r2, #16]
 240 0048 B047     		blx	r6
 241              	.LVL11:
 242              	.LBB6:
 243 004a 2023     		movs	r3, #32
 244              		.syntax unified
 245              	@ 150 "chibios/os/kernel/src/chsys.c" 1
 246 004c 83F31188 		msr     BASEPRI, r3
 247              	@ 0 "" 2
 248              		.thumb
 249              		.syntax unified
 250 0050 EFE7     		b	.L12
 251              	.LVL12:
 252              	.L9:
 253 0052 F8BD     		pop	{r3, r4, r5, r6, r7, pc}
 254              	.L19:
 255              		.align	2
 256              	.L18:
 257 0054 00000000 		.word	rlist
 258 0058 00000000 		.word	vtlist
 259              	.LBE6:
 260              	.LBE4:
 261              	.LBE3:
 262              		.cfi_endproc
 263              	.LFE9:
 264              		.size	chSysTimerHandlerI, .-chSysTimerHandlerI
 265              		.global	_idle_thread_wa
 266              		.section	.bss.mainthread.4805,"aw",%nobits
 267              		.align	2
 268              		.set	.LANCHOR0,. + 0
 269              		.type	mainthread.4805, %object
 270              		.size	mainthread.4805, 60
 271              	mainthread.4805:
 272 0000 00000000 		.space	60
 272      00000000 
 272      00000000 
 272      00000000 
 272      00000000 
 273              		.section	.rodata.str1.1,"aMS",%progbits,1
 274              	.LC0:
 275 0000 69646C65 		.ascii	"idle\000"
 275      00
 276              		.section	.bss._idle_thread_wa,"aw",%nobits
 277              		.align	3
 278              		.set	.LANCHOR1,. + 0
 279              		.type	_idle_thread_wa, %object
 280              		.size	_idle_thread_wa, 176
ARM GAS  /var/folders/_2/42wyrlld3p52fkcpt1lv6gxh0000gp/T//cc7LHsnO.s 			page 6


 281              	_idle_thread_wa:
 282 0000 00000000 		.space	176
 282      00000000 
 282      00000000 
 282      00000000 
 282      00000000 
 283              		.text
 284              	.Letext0:
 285              		.file 2 "/Users/ARS/Applications/Eclipse.app/Contents/gcc-arm-none-eabi-5_3-2016q1/arm-none-eabi/i
 286              		.file 3 "/Users/ARS/Applications/Eclipse.app/Contents/gcc-arm-none-eabi-5_3-2016q1/arm-none-eabi/i
 287              		.file 4 "chibios/os/ports/GCC/ARMCMx/chtypes.h"
 288              		.file 5 "chibios/os/kernel/include/chlists.h"
 289              		.file 6 "chibios/os/kernel/include/chthreads.h"
 290              		.file 7 "chibios/os/ports/GCC/ARMCMx/chcore_v7m.h"
 291              		.file 8 "chibios/os/kernel/include/chvt.h"
 292              		.file 9 "chibios/os/kernel/include/chschd.h"
 293              		.file 10 "chibios/os/kernel/include/chmtx.h"
 294              		.file 11 "chibios/os/kernel/include/chregistry.h"
 295              		.file 12 "chibios/os/kernel/include/chmemcore.h"
 296              		.file 13 "chibios/os/kernel/include/chheap.h"
 297              		.file 14 "chibios/os/kernel/include/chdebug.h"