ARM GAS  /var/folders/_2/42wyrlld3p52fkcpt1lv6gxh0000gp/T//ccZnyk2x.s 			page 1


   1              		.syntax unified
   2              		.cpu cortex-m3
   3              		.fpu softvfp
   4              		.eabi_attribute 20, 1
   5              		.eabi_attribute 21, 1
   6              		.eabi_attribute 23, 3
   7              		.eabi_attribute 24, 1
   8              		.eabi_attribute 25, 1
   9              		.eabi_attribute 26, 1
  10              		.eabi_attribute 30, 4
  11              		.eabi_attribute 34, 1
  12              		.eabi_attribute 18, 4
  13              		.thumb
  14              		.syntax unified
  15              		.file	"chthreads.c"
  16              		.text
  17              	.Ltext0:
  18              		.cfi_sections	.debug_frame
  19              		.section	.text._thread_init,"ax",%progbits
  20              		.align	1
  21              		.global	_thread_init
  22              		.thumb
  23              		.thumb_func
  24              		.type	_thread_init, %function
  25              	_thread_init:
  26              	.LFB7:
  27              		.file 1 "chibios/os/kernel/src/chthreads.c"
  28              		.loc 1 76 0
  29              		.cfi_startproc
  30              		@ args = 0, pretend = 0, frame = 0
  31              		@ frame_needed = 1, uses_anonymous_args = 0
  32              	.LVL0:
  33              		.loc 1 79 0
  34 0000 0222     		movs	r2, #2
  35 0002 80F82020 		strb	r2, [r0, #32]
  36              		.loc 1 80 0
  37 0006 0022     		movs	r2, #0
  38 0008 80F82120 		strb	r2, [r0, #33]
  39              		.loc 1 86 0
  40 000c 4263     		str	r2, [r0, #52]
  41              		.loc 1 89 0
  42 000e 0263     		str	r2, [r0, #48]
  43              		.loc 1 92 0
  44 0010 4262     		str	r2, [r0, #36]
  45              		.loc 1 98 0
  46 0012 8261     		str	r2, [r0, #24]
  47              		.loc 1 99 0
  48 0014 094A     		ldr	r2, .L2
  49              		.loc 1 76 0
  50 0016 90B5     		push	{r4, r7, lr}
  51              	.LCFI0:
  52              		.cfi_def_cfa_offset 12
  53              		.cfi_offset 4, -12
  54              		.cfi_offset 7, -8
  55              		.cfi_offset 14, -4
  56              		.loc 1 78 0
  57 0018 8160     		str	r1, [r0, #8]
ARM GAS  /var/folders/_2/42wyrlld3p52fkcpt1lv6gxh0000gp/T//ccZnyk2x.s 			page 2


  58              		.loc 1 85 0
  59 001a 8163     		str	r1, [r0, #56]
  60              		.loc 1 99 0
  61 001c 5169     		ldr	r1, [r2, #20]
  62              	.LVL1:
  63 001e 0261     		str	r2, [r0, #16]
  64 0020 4161     		str	r1, [r0, #20]
  65              		.loc 1 82 0
  66 0022 1424     		movs	r4, #20
  67              		.loc 1 99 0
  68 0024 5061     		str	r0, [r2, #20]
  69              		.loc 1 102 0
  70 0026 00F12C02 		add	r2, r0, #44
  71              		.loc 1 82 0
  72 002a 80F82240 		strb	r4, [r0, #34]
  73              		.loc 1 99 0
  74 002e 0861     		str	r0, [r1, #16]
  75              		.loc 1 102 0
  76 0030 C262     		str	r2, [r0, #44]
  77              		.loc 1 108 0
  78 0032 00F13C02 		add	r2, r0, #60
  79              		.loc 1 76 0
  80 0036 00AF     		add	r7, sp, #0
  81              	.LCFI1:
  82              		.cfi_def_cfa_register 7
  83              		.loc 1 108 0
  84 0038 C261     		str	r2, [r0, #28]
  85              		.loc 1 114 0
  86 003a 90BD     		pop	{r4, r7, pc}
  87              	.L3:
  88              		.align	2
  89              	.L2:
  90 003c 00000000 		.word	rlist
  91              		.cfi_endproc
  92              	.LFE7:
  93              		.size	_thread_init, .-_thread_init
  94              		.section	.text._thread_memfill,"ax",%progbits
  95              		.align	1
  96              		.global	_thread_memfill
  97              		.thumb
  98              		.thumb_func
  99              		.type	_thread_memfill, %function
 100              	_thread_memfill:
 101              	.LFB8:
 102              		.loc 1 126 0
 103              		.cfi_startproc
 104              		@ args = 0, pretend = 0, frame = 0
 105              		@ frame_needed = 1, uses_anonymous_args = 0
 106              	.LVL2:
 107 0000 80B5     		push	{r7, lr}
 108              	.LCFI2:
 109              		.cfi_def_cfa_offset 8
 110              		.cfi_offset 7, -8
 111              		.cfi_offset 14, -4
 112 0002 00AF     		add	r7, sp, #0
 113              	.LCFI3:
 114              		.cfi_def_cfa_register 7
ARM GAS  /var/folders/_2/42wyrlld3p52fkcpt1lv6gxh0000gp/T//ccZnyk2x.s 			page 3


 115              	.LVL3:
 116              	.L5:
 117              		.loc 1 128 0
 118 0004 8842     		cmp	r0, r1
 119 0006 02D2     		bcs	.L8
 120              		.loc 1 129 0
 121 0008 00F8012B 		strb	r2, [r0], #1
 122              	.LVL4:
 123 000c FAE7     		b	.L5
 124              	.LVL5:
 125              	.L8:
 126              		.loc 1 130 0
 127 000e 80BD     		pop	{r7, pc}
 128              		.cfi_endproc
 129              	.LFE8:
 130              		.size	_thread_memfill, .-_thread_memfill
 131              		.section	.text.chThdCreateI,"ax",%progbits
 132              		.align	1
 133              		.global	chThdCreateI
 134              		.thumb
 135              		.thumb_func
 136              		.type	chThdCreateI, %function
 137              	chThdCreateI:
 138              	.LFB9:
 139              		.loc 1 158 0
 140              		.cfi_startproc
 141              		@ args = 4, pretend = 0, frame = 0
 142              		@ frame_needed = 1, uses_anonymous_args = 0
 143              		@ link register save eliminated.
 144              	.LVL6:
 145              		.loc 1 167 0
 146 0000 2439     		subs	r1, r1, #36
 147              	.LVL7:
 148              		.loc 1 158 0
 149 0002 B0B4     		push	{r4, r5, r7}
 150              	.LCFI4:
 151              		.cfi_def_cfa_offset 12
 152              		.cfi_offset 4, -12
 153              		.cfi_offset 5, -8
 154              		.cfi_offset 7, -4
 155              		.loc 1 167 0
 156 0004 4418     		adds	r4, r0, r1
 157 0006 C460     		str	r4, [r0, #12]
 158 0008 4350     		str	r3, [r0, r1]
 159              		.loc 1 168 0
 160 000a 1146     		mov	r1, r2
 161              	.LVL8:
 162              		.loc 1 158 0
 163 000c 00AF     		add	r7, sp, #0
 164              	.LCFI5:
 165              		.cfi_def_cfa_register 7
 166              		.loc 1 167 0
 167 000e FB68     		ldr	r3, [r7, #12]
 168              	.LVL9:
 169 0010 6360     		str	r3, [r4, #4]
 170 0012 034B     		ldr	r3, .L10
 171 0014 2362     		str	r3, [r4, #32]
ARM GAS  /var/folders/_2/42wyrlld3p52fkcpt1lv6gxh0000gp/T//ccZnyk2x.s 			page 4


 172              		.loc 1 169 0
 173 0016 BD46     		mov	sp, r7
 174              	.LCFI6:
 175              		.cfi_def_cfa_register 13
 176              		@ sp needed
 177 0018 B0BC     		pop	{r4, r5, r7}
 178              	.LCFI7:
 179              		.cfi_restore 7
 180              		.cfi_restore 5
 181              		.cfi_restore 4
 182              		.cfi_def_cfa_offset 0
 183              	.LVL10:
 184              		.loc 1 168 0
 185 001a FFF7FEBF 		b	_thread_init
 186              	.LVL11:
 187              	.L11:
 188 001e 00BF     		.align	2
 189              	.L10:
 190 0020 00000000 		.word	_port_thread_start
 191              		.cfi_endproc
 192              	.LFE9:
 193              		.size	chThdCreateI, .-chThdCreateI
 194              		.section	.text.chThdCreateStatic,"ax",%progbits
 195              		.align	1
 196              		.global	chThdCreateStatic
 197              		.thumb
 198              		.thumb_func
 199              		.type	chThdCreateStatic, %function
 200              	chThdCreateStatic:
 201              	.LFB10:
 202              		.loc 1 188 0
 203              		.cfi_startproc
 204              		@ args = 4, pretend = 0, frame = 0
 205              		@ frame_needed = 1, uses_anonymous_args = 0
 206              	.LVL12:
 207 0000 F0B5     		push	{r4, r5, r6, r7, lr}
 208              	.LCFI8:
 209              		.cfi_def_cfa_offset 20
 210              		.cfi_offset 4, -20
 211              		.cfi_offset 5, -16
 212              		.cfi_offset 6, -12
 213              		.cfi_offset 7, -8
 214              		.cfi_offset 14, -4
 215              		.loc 1 192 0
 216 0002 0446     		mov	r4, r0
 217              		.loc 1 188 0
 218 0004 83B0     		sub	sp, sp, #12
 219              	.LCFI9:
 220              		.cfi_def_cfa_offset 32
 221 0006 1D46     		mov	r5, r3
 222 0008 02AF     		add	r7, sp, #8
 223              	.LCFI10:
 224              		.cfi_def_cfa 7, 24
 225              		.loc 1 192 0
 226 000a 00F13C03 		add	r3, r0, #60
 227              	.LVL13:
 228              	.LBB14:
ARM GAS  /var/folders/_2/42wyrlld3p52fkcpt1lv6gxh0000gp/T//ccZnyk2x.s 			page 5


 229              	.LBB15:
 230              		.loc 1 129 0
 231 000e FF26     		movs	r6, #255
 232              	.LVL14:
 233              	.L13:
 234              		.loc 1 128 0
 235 0010 A342     		cmp	r3, r4
 236 0012 02D0     		beq	.L17
 237              		.loc 1 129 0
 238 0014 04F8016B 		strb	r6, [r4], #1
 239              	.LVL15:
 240 0018 FAE7     		b	.L13
 241              	.LVL16:
 242              	.L17:
 243              	.LBE15:
 244              	.LBE14:
 245              		.loc 1 195 0
 246 001a 4418     		adds	r4, r0, r1
 247              	.LVL17:
 248              	.LBB16:
 249              	.LBB17:
 250              		.loc 1 129 0
 251 001c 5526     		movs	r6, #85
 252              	.LVL18:
 253              	.L15:
 254              		.loc 1 128 0
 255 001e 9C42     		cmp	r4, r3
 256 0020 02D9     		bls	.L18
 257              		.loc 1 129 0
 258 0022 03F8016B 		strb	r6, [r3], #1
 259              	.LVL19:
 260 0026 FAE7     		b	.L15
 261              	.LVL20:
 262              	.L18:
 263              	.LBE17:
 264              	.LBE16:
 265              	.LBB18:
 266              		.loc 1 199 0
 267 0028 2023     		movs	r3, #32
 268              		.syntax unified
 269              	@ 199 "chibios/os/kernel/src/chthreads.c" 1
 270 002a 83F31188 		msr     BASEPRI, r3
 271              	@ 0 "" 2
 272              		.thumb
 273              		.syntax unified
 274              	.LBE18:
 275              		.loc 1 200 0
 276 002e BB69     		ldr	r3, [r7, #24]
 277 0030 0093     		str	r3, [sp]
 278 0032 2B46     		mov	r3, r5
 279 0034 FFF7FEFF 		bl	chThdCreateI
 280              	.LVL21:
 281 0038 0021     		movs	r1, #0
 282 003a 0446     		mov	r4, r0
 283              	.LVL22:
 284 003c FFF7FEFF 		bl	chSchWakeupS
 285              	.LVL23:
ARM GAS  /var/folders/_2/42wyrlld3p52fkcpt1lv6gxh0000gp/T//ccZnyk2x.s 			page 6


 286              	.LBB19:
 287              		.loc 1 201 0
 288 0040 0023     		movs	r3, #0
 289              		.syntax unified
 290              	@ 201 "chibios/os/kernel/src/chthreads.c" 1
 291 0042 83F31188 		msr     BASEPRI, r3
 292              	@ 0 "" 2
 293              		.thumb
 294              		.syntax unified
 295              	.LBE19:
 296              		.loc 1 203 0
 297 0046 2046     		mov	r0, r4
 298 0048 0437     		adds	r7, r7, #4
 299              	.LCFI11:
 300              		.cfi_def_cfa_offset 20
 301 004a BD46     		mov	sp, r7
 302              	.LCFI12:
 303              		.cfi_def_cfa_register 13
 304              		@ sp needed
 305 004c F0BD     		pop	{r4, r5, r6, r7, pc}
 306              		.cfi_endproc
 307              	.LFE10:
 308              		.size	chThdCreateStatic, .-chThdCreateStatic
 309              		.section	.text.chThdSetPriority,"ax",%progbits
 310              		.align	1
 311              		.global	chThdSetPriority
 312              		.thumb
 313              		.thumb_func
 314              		.type	chThdSetPriority, %function
 315              	chThdSetPriority:
 316              	.LFB11:
 317              		.loc 1 217 0
 318              		.cfi_startproc
 319              		@ args = 0, pretend = 0, frame = 0
 320              		@ frame_needed = 1, uses_anonymous_args = 0
 321              	.LVL24:
 322 0000 98B5     		push	{r3, r4, r7, lr}
 323              	.LCFI13:
 324              		.cfi_def_cfa_offset 16
 325              		.cfi_offset 3, -16
 326              		.cfi_offset 4, -12
 327              		.cfi_offset 7, -8
 328              		.cfi_offset 14, -4
 329              	.LBB20:
 330              		.loc 1 222 0
 331 0002 2023     		movs	r3, #32
 332              	.LBE20:
 333              		.loc 1 217 0
 334 0004 00AF     		add	r7, sp, #0
 335              	.LCFI14:
 336              		.cfi_def_cfa_register 7
 337              	.LBB21:
 338              		.loc 1 222 0
 339              		.syntax unified
 340              	@ 222 "chibios/os/kernel/src/chthreads.c" 1
 341 0006 83F31188 		msr     BASEPRI, r3
 342              	@ 0 "" 2
ARM GAS  /var/folders/_2/42wyrlld3p52fkcpt1lv6gxh0000gp/T//ccZnyk2x.s 			page 7


 343              		.thumb
 344              		.syntax unified
 345              	.LBE21:
 346              		.loc 1 224 0
 347 000a 084B     		ldr	r3, .L22
 348 000c 9B69     		ldr	r3, [r3, #24]
 349 000e 9C6B     		ldr	r4, [r3, #56]
 350              	.LVL25:
 351              		.loc 1 225 0
 352 0010 9968     		ldr	r1, [r3, #8]
 353 0012 8C42     		cmp	r4, r1
 354 0014 01D0     		beq	.L20
 355              		.loc 1 225 0 is_stmt 0 discriminator 1
 356 0016 8142     		cmp	r1, r0
 357 0018 00D2     		bcs	.L21
 358              	.L20:
 359              		.loc 1 226 0 is_stmt 1
 360 001a 9860     		str	r0, [r3, #8]
 361              	.L21:
 362              		.loc 1 227 0
 363 001c 9863     		str	r0, [r3, #56]
 364              		.loc 1 232 0
 365 001e FFF7FEFF 		bl	chSchRescheduleS
 366              	.LVL26:
 367              	.LBB22:
 368              		.loc 1 233 0
 369 0022 0023     		movs	r3, #0
 370              		.syntax unified
 371              	@ 233 "chibios/os/kernel/src/chthreads.c" 1
 372 0024 83F31188 		msr     BASEPRI, r3
 373              	@ 0 "" 2
 374              		.thumb
 375              		.syntax unified
 376              	.LBE22:
 377              		.loc 1 235 0
 378 0028 2046     		mov	r0, r4
 379 002a 98BD     		pop	{r3, r4, r7, pc}
 380              	.LVL27:
 381              	.L23:
 382              		.align	2
 383              	.L22:
 384 002c 00000000 		.word	rlist
 385              		.cfi_endproc
 386              	.LFE11:
 387              		.size	chThdSetPriority, .-chThdSetPriority
 388              		.section	.text.chThdResume,"ax",%progbits
 389              		.align	1
 390              		.global	chThdResume
 391              		.thumb
 392              		.thumb_func
 393              		.type	chThdResume, %function
 394              	chThdResume:
 395              	.LFB12:
 396              		.loc 1 250 0
 397              		.cfi_startproc
 398              		@ args = 0, pretend = 0, frame = 0
 399              		@ frame_needed = 1, uses_anonymous_args = 0
ARM GAS  /var/folders/_2/42wyrlld3p52fkcpt1lv6gxh0000gp/T//ccZnyk2x.s 			page 8


 400              	.LVL28:
 401 0000 98B5     		push	{r3, r4, r7, lr}
 402              	.LCFI15:
 403              		.cfi_def_cfa_offset 16
 404              		.cfi_offset 3, -16
 405              		.cfi_offset 4, -12
 406              		.cfi_offset 7, -8
 407              		.cfi_offset 14, -4
 408 0002 0446     		mov	r4, r0
 409 0004 00AF     		add	r7, sp, #0
 410              	.LCFI16:
 411              		.cfi_def_cfa_register 7
 412              	.LBB23:
 413              		.loc 1 252 0
 414 0006 2023     		movs	r3, #32
 415              		.syntax unified
 416              	@ 252 "chibios/os/kernel/src/chthreads.c" 1
 417 0008 83F31188 		msr     BASEPRI, r3
 418              	@ 0 "" 2
 419              		.thumb
 420              		.syntax unified
 421              	.LBE23:
 422              		.loc 1 256 0
 423 000c 0021     		movs	r1, #0
 424 000e FFF7FEFF 		bl	chSchWakeupS
 425              	.LVL29:
 426              	.LBB24:
 427              		.loc 1 257 0
 428 0012 0023     		movs	r3, #0
 429              		.syntax unified
 430              	@ 257 "chibios/os/kernel/src/chthreads.c" 1
 431 0014 83F31188 		msr     BASEPRI, r3
 432              	@ 0 "" 2
 433              		.thumb
 434              		.syntax unified
 435              	.LBE24:
 436              		.loc 1 259 0
 437 0018 2046     		mov	r0, r4
 438 001a 98BD     		pop	{r3, r4, r7, pc}
 439              		.cfi_endproc
 440              	.LFE12:
 441              		.size	chThdResume, .-chThdResume
 442              		.section	.text.chThdTerminate,"ax",%progbits
 443              		.align	1
 444              		.global	chThdTerminate
 445              		.thumb
 446              		.thumb_func
 447              		.type	chThdTerminate, %function
 448              	chThdTerminate:
 449              	.LFB13:
 450              		.loc 1 273 0
 451              		.cfi_startproc
 452              		@ args = 0, pretend = 0, frame = 0
 453              		@ frame_needed = 1, uses_anonymous_args = 0
 454              	.LVL30:
 455 0000 80B5     		push	{r7, lr}
 456              	.LCFI17:
ARM GAS  /var/folders/_2/42wyrlld3p52fkcpt1lv6gxh0000gp/T//ccZnyk2x.s 			page 9


 457              		.cfi_def_cfa_offset 8
 458              		.cfi_offset 7, -8
 459              		.cfi_offset 14, -4
 460              	.LBB25:
 461              		.loc 1 275 0
 462 0002 2023     		movs	r3, #32
 463              	.LBE25:
 464              		.loc 1 273 0
 465 0004 00AF     		add	r7, sp, #0
 466              	.LCFI18:
 467              		.cfi_def_cfa_register 7
 468              	.LBB26:
 469              		.loc 1 275 0
 470              		.syntax unified
 471              	@ 275 "chibios/os/kernel/src/chthreads.c" 1
 472 0006 83F31188 		msr     BASEPRI, r3
 473              	@ 0 "" 2
 474              		.thumb
 475              		.syntax unified
 476              	.LBE26:
 477              		.loc 1 276 0
 478 000a 90F82130 		ldrb	r3, [r0, #33]	@ zero_extendqisi2
 479 000e 43F00403 		orr	r3, r3, #4
 480 0012 80F82130 		strb	r3, [r0, #33]
 481              	.LBB27:
 482              		.loc 1 277 0
 483 0016 0023     		movs	r3, #0
 484              		.syntax unified
 485              	@ 277 "chibios/os/kernel/src/chthreads.c" 1
 486 0018 83F31188 		msr     BASEPRI, r3
 487              	@ 0 "" 2
 488              		.thumb
 489              		.syntax unified
 490 001c 80BD     		pop	{r7, pc}
 491              	.LBE27:
 492              		.cfi_endproc
 493              	.LFE13:
 494              		.size	chThdTerminate, .-chThdTerminate
 495              		.section	.text.chThdSleep,"ax",%progbits
 496              		.align	1
 497              		.global	chThdSleep
 498              		.thumb
 499              		.thumb_func
 500              		.type	chThdSleep, %function
 501              	chThdSleep:
 502              	.LFB14:
 503              		.loc 1 292 0
 504              		.cfi_startproc
 505              		@ args = 0, pretend = 0, frame = 0
 506              		@ frame_needed = 1, uses_anonymous_args = 0
 507              	.LVL31:
 508 0000 80B5     		push	{r7, lr}
 509              	.LCFI19:
 510              		.cfi_def_cfa_offset 8
 511              		.cfi_offset 7, -8
 512              		.cfi_offset 14, -4
 513 0002 0146     		mov	r1, r0
ARM GAS  /var/folders/_2/42wyrlld3p52fkcpt1lv6gxh0000gp/T//ccZnyk2x.s 			page 10


 514 0004 00AF     		add	r7, sp, #0
 515              	.LCFI20:
 516              		.cfi_def_cfa_register 7
 517              	.LBB28:
 518              		.loc 1 296 0
 519 0006 2023     		movs	r3, #32
 520              		.syntax unified
 521              	@ 296 "chibios/os/kernel/src/chthreads.c" 1
 522 0008 83F31188 		msr     BASEPRI, r3
 523              	@ 0 "" 2
 524              		.thumb
 525              		.syntax unified
 526              	.LBE28:
 527              		.loc 1 297 0
 528 000c 0620     		movs	r0, #6
 529              	.LVL32:
 530 000e FFF7FEFF 		bl	chSchGoSleepTimeoutS
 531              	.LVL33:
 532              	.LBB29:
 533              		.loc 1 298 0
 534 0012 0023     		movs	r3, #0
 535              		.syntax unified
 536              	@ 298 "chibios/os/kernel/src/chthreads.c" 1
 537 0014 83F31188 		msr     BASEPRI, r3
 538              	@ 0 "" 2
 539              		.thumb
 540              		.syntax unified
 541 0018 80BD     		pop	{r7, pc}
 542              	.LBE29:
 543              		.cfi_endproc
 544              	.LFE14:
 545              		.size	chThdSleep, .-chThdSleep
 546              		.section	.text.chThdSleepUntil,"ax",%progbits
 547              		.align	1
 548              		.global	chThdSleepUntil
 549              		.thumb
 550              		.thumb_func
 551              		.type	chThdSleepUntil, %function
 552              	chThdSleepUntil:
 553              	.LFB15:
 554              		.loc 1 309 0
 555              		.cfi_startproc
 556              		@ args = 0, pretend = 0, frame = 0
 557              		@ frame_needed = 1, uses_anonymous_args = 0
 558              	.LVL34:
 559 0000 80B5     		push	{r7, lr}
 560              	.LCFI21:
 561              		.cfi_def_cfa_offset 8
 562              		.cfi_offset 7, -8
 563              		.cfi_offset 14, -4
 564              	.LBB30:
 565              		.loc 1 311 0
 566 0002 2023     		movs	r3, #32
 567              	.LBE30:
 568              		.loc 1 309 0
 569 0004 00AF     		add	r7, sp, #0
 570              	.LCFI22:
ARM GAS  /var/folders/_2/42wyrlld3p52fkcpt1lv6gxh0000gp/T//ccZnyk2x.s 			page 11


 571              		.cfi_def_cfa_register 7
 572              	.LBB31:
 573              		.loc 1 311 0
 574              		.syntax unified
 575              	@ 311 "chibios/os/kernel/src/chthreads.c" 1
 576 0006 83F31188 		msr     BASEPRI, r3
 577              	@ 0 "" 2
 578              		.thumb
 579              		.syntax unified
 580              	.LBE31:
 581              		.loc 1 312 0
 582 000a 054B     		ldr	r3, .L32
 583 000c D968     		ldr	r1, [r3, #12]
 584              	.LVL35:
 585 000e 411A     		subs	r1, r0, r1
 586              	.LVL36:
 587 0010 02D0     		beq	.L28
 588              		.loc 1 313 0
 589 0012 0620     		movs	r0, #6
 590 0014 FFF7FEFF 		bl	chSchGoSleepTimeoutS
 591              	.LVL37:
 592              	.L28:
 593              	.LBB32:
 594              		.loc 1 314 0
 595 0018 0023     		movs	r3, #0
 596              		.syntax unified
 597              	@ 314 "chibios/os/kernel/src/chthreads.c" 1
 598 001a 83F31188 		msr     BASEPRI, r3
 599              	@ 0 "" 2
 600              		.thumb
 601              		.syntax unified
 602 001e 80BD     		pop	{r7, pc}
 603              	.L33:
 604              		.align	2
 605              	.L32:
 606 0020 00000000 		.word	vtlist
 607              	.LBE32:
 608              		.cfi_endproc
 609              	.LFE15:
 610              		.size	chThdSleepUntil, .-chThdSleepUntil
 611              		.section	.text.chThdYield,"ax",%progbits
 612              		.align	1
 613              		.global	chThdYield
 614              		.thumb
 615              		.thumb_func
 616              		.type	chThdYield, %function
 617              	chThdYield:
 618              	.LFB16:
 619              		.loc 1 324 0
 620              		.cfi_startproc
 621              		@ args = 0, pretend = 0, frame = 0
 622              		@ frame_needed = 1, uses_anonymous_args = 0
 623 0000 80B5     		push	{r7, lr}
 624              	.LCFI23:
 625              		.cfi_def_cfa_offset 8
 626              		.cfi_offset 7, -8
 627              		.cfi_offset 14, -4
ARM GAS  /var/folders/_2/42wyrlld3p52fkcpt1lv6gxh0000gp/T//ccZnyk2x.s 			page 12


 628              	.LBB33:
 629              		.loc 1 326 0
 630 0002 2023     		movs	r3, #32
 631              	.LBE33:
 632              		.loc 1 324 0
 633 0004 00AF     		add	r7, sp, #0
 634              	.LCFI24:
 635              		.cfi_def_cfa_register 7
 636              	.LBB34:
 637              		.loc 1 326 0
 638              		.syntax unified
 639              	@ 326 "chibios/os/kernel/src/chthreads.c" 1
 640 0006 83F31188 		msr     BASEPRI, r3
 641              	@ 0 "" 2
 642              		.thumb
 643              		.syntax unified
 644              	.LBE34:
 645              		.loc 1 327 0
 646 000a 064B     		ldr	r3, .L36
 647 000c 1A68     		ldr	r2, [r3]
 648 000e 9B69     		ldr	r3, [r3, #24]
 649 0010 9268     		ldr	r2, [r2, #8]
 650 0012 9B68     		ldr	r3, [r3, #8]
 651 0014 9A42     		cmp	r2, r3
 652 0016 01D3     		bcc	.L35
 653              		.loc 1 327 0 is_stmt 0 discriminator 1
 654 0018 FFF7FEFF 		bl	chSchDoRescheduleBehind
 655              	.LVL38:
 656              	.L35:
 657              	.LBB35:
 658              		.loc 1 328 0 is_stmt 1
 659 001c 0023     		movs	r3, #0
 660              		.syntax unified
 661              	@ 328 "chibios/os/kernel/src/chthreads.c" 1
 662 001e 83F31188 		msr     BASEPRI, r3
 663              	@ 0 "" 2
 664              		.thumb
 665              		.syntax unified
 666 0022 80BD     		pop	{r7, pc}
 667              	.L37:
 668              		.align	2
 669              	.L36:
 670 0024 00000000 		.word	rlist
 671              	.LBE35:
 672              		.cfi_endproc
 673              	.LFE16:
 674              		.size	chThdYield, .-chThdYield
 675              		.section	.text.chThdExitS,"ax",%progbits
 676              		.align	1
 677              		.global	chThdExitS
 678              		.thumb
 679              		.thumb_func
 680              		.type	chThdExitS, %function
 681              	chThdExitS:
 682              	.LFB18:
 683              		.loc 1 366 0
 684              		.cfi_startproc
ARM GAS  /var/folders/_2/42wyrlld3p52fkcpt1lv6gxh0000gp/T//ccZnyk2x.s 			page 13


 685              		@ args = 0, pretend = 0, frame = 0
 686              		@ frame_needed = 1, uses_anonymous_args = 0
 687              	.LVL39:
 688 0000 B0B5     		push	{r4, r5, r7, lr}
 689              	.LCFI25:
 690              		.cfi_def_cfa_offset 16
 691              		.cfi_offset 4, -16
 692              		.cfi_offset 5, -12
 693              		.cfi_offset 7, -8
 694              		.cfi_offset 14, -4
 695              		.loc 1 367 0
 696 0002 0E4B     		ldr	r3, .L43
 697              		.loc 1 366 0
 698 0004 00AF     		add	r7, sp, #0
 699              	.LCFI26:
 700              		.cfi_def_cfa_register 7
 701              		.loc 1 367 0
 702 0006 9C69     		ldr	r4, [r3, #24]
 703              	.LVL40:
 704              		.loc 1 369 0
 705 0008 A062     		str	r0, [r4, #40]
 706              		.loc 1 374 0
 707 000a 04F12C05 		add	r5, r4, #44
 708              	.LVL41:
 709              	.L39:
 710 000e E06A     		ldr	r0, [r4, #44]
 711 0010 A842     		cmp	r0, r5
 712 0012 04D0     		beq	.L42
 713              	.LVL42:
 714              	.LBB36:
 715              	.LBB37:
 716              		.file 2 "chibios/os/kernel/include/chinline.h"
 717              		.loc 2 89 0
 718 0014 0368     		ldr	r3, [r0]
 719 0016 E362     		str	r3, [r4, #44]
 720              	.LVL43:
 721              	.LBE37:
 722              	.LBE36:
 723              		.loc 1 375 0
 724 0018 FFF7FEFF 		bl	chSchReadyI
 725              	.LVL44:
 726 001c F7E7     		b	.L39
 727              	.L42:
 728              		.loc 1 380 0
 729 001e 94F82130 		ldrb	r3, [r4, #33]	@ zero_extendqisi2
 730 0022 9B07     		lsls	r3, r3, #30
 731 0024 04D1     		bne	.L41
 732              		.loc 1 381 0
 733 0026 2269     		ldr	r2, [r4, #16]
 734 0028 6369     		ldr	r3, [r4, #20]
 735 002a 1A61     		str	r2, [r3, #16]
 736 002c 2269     		ldr	r2, [r4, #16]
 737 002e 5361     		str	r3, [r2, #20]
 738              	.L41:
 739              		.loc 1 383 0
 740 0030 0E20     		movs	r0, #14
 741              		.loc 1 386 0
ARM GAS  /var/folders/_2/42wyrlld3p52fkcpt1lv6gxh0000gp/T//ccZnyk2x.s 			page 14


 742 0032 BD46     		mov	sp, r7
 743              	.LCFI27:
 744              		.cfi_def_cfa_register 13
 745              		@ sp needed
 746 0034 BDE8B040 		pop	{r4, r5, r7, lr}
 747              	.LCFI28:
 748              		.cfi_restore 14
 749              		.cfi_restore 7
 750              		.cfi_restore 5
 751              		.cfi_restore 4
 752              		.cfi_def_cfa_offset 0
 753              	.LVL45:
 754              		.loc 1 383 0
 755 0038 FFF7FEBF 		b	chSchGoSleepS
 756              	.LVL46:
 757              	.L44:
 758              		.align	2
 759              	.L43:
 760 003c 00000000 		.word	rlist
 761              		.cfi_endproc
 762              	.LFE18:
 763              		.size	chThdExitS, .-chThdExitS
 764              		.section	.text.chThdExit,"ax",%progbits
 765              		.align	1
 766              		.global	chThdExit
 767              		.thumb
 768              		.thumb_func
 769              		.type	chThdExit, %function
 770              	chThdExit:
 771              	.LFB17:
 772              		.loc 1 345 0
 773              		.cfi_startproc
 774              		@ args = 0, pretend = 0, frame = 0
 775              		@ frame_needed = 1, uses_anonymous_args = 0
 776              		@ link register save eliminated.
 777              	.LVL47:
 778 0000 80B4     		push	{r7}
 779              	.LCFI29:
 780              		.cfi_def_cfa_offset 4
 781              		.cfi_offset 7, -4
 782              	.LBB38:
 783              		.loc 1 347 0
 784 0002 2023     		movs	r3, #32
 785              	.LBE38:
 786              		.loc 1 345 0
 787 0004 00AF     		add	r7, sp, #0
 788              	.LCFI30:
 789              		.cfi_def_cfa_register 7
 790              	.LBB39:
 791              		.loc 1 347 0
 792              		.syntax unified
 793              	@ 347 "chibios/os/kernel/src/chthreads.c" 1
 794 0006 83F31188 		msr     BASEPRI, r3
 795              	@ 0 "" 2
 796              		.thumb
 797              		.syntax unified
 798              	.LBE39:
ARM GAS  /var/folders/_2/42wyrlld3p52fkcpt1lv6gxh0000gp/T//ccZnyk2x.s 			page 15


 799              		.loc 1 350 0
 800 000a BD46     		mov	sp, r7
 801              	.LCFI31:
 802              		.cfi_def_cfa_register 13
 803              		@ sp needed
 804 000c 80BC     		pop	{r7}
 805              	.LCFI32:
 806              		.cfi_restore 7
 807              		.cfi_def_cfa_offset 0
 808              		.loc 1 348 0
 809 000e FFF7FEBF 		b	chThdExitS
 810              	.LVL48:
 811              		.cfi_endproc
 812              	.LFE17:
 813              		.size	chThdExit, .-chThdExit
 814              		.section	.text.chThdWait,"ax",%progbits
 815              		.align	1
 816              		.global	chThdWait
 817              		.thumb
 818              		.thumb_func
 819              		.type	chThdWait, %function
 820              	chThdWait:
 821              	.LFB19:
 822              		.loc 1 420 0
 823              		.cfi_startproc
 824              		@ args = 0, pretend = 0, frame = 0
 825              		@ frame_needed = 1, uses_anonymous_args = 0
 826              	.LVL49:
 827 0000 98B5     		push	{r3, r4, r7, lr}
 828              	.LCFI33:
 829              		.cfi_def_cfa_offset 16
 830              		.cfi_offset 3, -16
 831              		.cfi_offset 4, -12
 832              		.cfi_offset 7, -8
 833              		.cfi_offset 14, -4
 834 0002 0446     		mov	r4, r0
 835 0004 00AF     		add	r7, sp, #0
 836              	.LCFI34:
 837              		.cfi_def_cfa_register 7
 838              	.LBB40:
 839              		.loc 1 425 0
 840 0006 2023     		movs	r3, #32
 841              		.syntax unified
 842              	@ 425 "chibios/os/kernel/src/chthreads.c" 1
 843 0008 83F31188 		msr     BASEPRI, r3
 844              	@ 0 "" 2
 845              		.thumb
 846              		.syntax unified
 847              	.LBE40:
 848              		.loc 1 430 0
 849 000c 90F82030 		ldrb	r3, [r0, #32]	@ zero_extendqisi2
 850 0010 0E2B     		cmp	r3, #14
 851 0012 07D0     		beq	.L47
 852              		.loc 1 431 0
 853 0014 064B     		ldr	r3, .L51
 854              	.LBB41:
 855              	.LBB42:
ARM GAS  /var/folders/_2/42wyrlld3p52fkcpt1lv6gxh0000gp/T//ccZnyk2x.s 			page 16


 856              		.loc 2 82 0
 857 0016 C26A     		ldr	r2, [r0, #44]
 858              	.LBE42:
 859              	.LBE41:
 860              		.loc 1 431 0
 861 0018 9B69     		ldr	r3, [r3, #24]
 862              	.LVL50:
 863              	.LBB44:
 864              	.LBB43:
 865              		.loc 2 82 0
 866 001a 1A60     		str	r2, [r3]
 867              		.loc 2 83 0
 868 001c C362     		str	r3, [r0, #44]
 869              	.LVL51:
 870              	.LBE43:
 871              	.LBE44:
 872              		.loc 1 432 0
 873 001e 0720     		movs	r0, #7
 874              	.LVL52:
 875 0020 FFF7FEFF 		bl	chSchGoSleepS
 876              	.LVL53:
 877              	.L47:
 878              		.loc 1 434 0
 879 0024 A06A     		ldr	r0, [r4, #40]
 880              	.LVL54:
 881              	.LBB45:
 882              		.loc 1 435 0
 883 0026 0023     		movs	r3, #0
 884              		.syntax unified
 885              	@ 435 "chibios/os/kernel/src/chthreads.c" 1
 886 0028 83F31188 		msr     BASEPRI, r3
 887              	@ 0 "" 2
 888              		.thumb
 889              		.syntax unified
 890              	.LBE45:
 891              		.loc 1 440 0
 892 002c 98BD     		pop	{r3, r4, r7, pc}
 893              	.LVL55:
 894              	.L52:
 895 002e 00BF     		.align	2
 896              	.L51:
 897 0030 00000000 		.word	rlist
 898              		.cfi_endproc
 899              	.LFE19:
 900              		.size	chThdWait, .-chThdWait
 901              		.text
 902              	.Letext0:
 903              		.file 3 "/Users/ARS/Applications/Eclipse.app/Contents/gcc-arm-none-eabi-5_3-2016q1/lib/gcc/arm-non
 904              		.file 4 "/Users/ARS/Applications/Eclipse.app/Contents/gcc-arm-none-eabi-5_3-2016q1/arm-none-eabi/i
 905              		.file 5 "/Users/ARS/Applications/Eclipse.app/Contents/gcc-arm-none-eabi-5_3-2016q1/arm-none-eabi/i
 906              		.file 6 "chibios/os/ports/GCC/ARMCMx/chtypes.h"
 907              		.file 7 "chibios/os/kernel/include/chlists.h"
 908              		.file 8 "chibios/os/kernel/include/chthreads.h"
 909              		.file 9 "chibios/os/ports/GCC/ARMCMx/chcore_v7m.h"
 910              		.file 10 "chibios/os/kernel/include/chvt.h"
 911              		.file 11 "chibios/os/kernel/include/chschd.h"
 912              		.file 12 "chibios/os/kernel/include/chmtx.h"
ARM GAS  /var/folders/_2/42wyrlld3p52fkcpt1lv6gxh0000gp/T//ccZnyk2x.s 			page 17

