ARM GAS  /var/folders/_2/42wyrlld3p52fkcpt1lv6gxh0000gp/T//ccVlyRzt.s 			page 1


   1              		.syntax unified
   2              		.cpu cortex-m3
   3              		.fpu softvfp
   4              		.eabi_attribute 20, 1
   5              		.eabi_attribute 21, 1
   6              		.eabi_attribute 23, 3
   7              		.eabi_attribute 24, 1
   8              		.eabi_attribute 25, 1
   9              		.eabi_attribute 26, 1
  10              		.eabi_attribute 30, 4
  11              		.eabi_attribute 34, 1
  12              		.eabi_attribute 18, 4
  13              		.thumb
  14              		.syntax unified
  15              		.file	"chvt.c"
  16              		.text
  17              	.Ltext0:
  18              		.cfi_sections	.debug_frame
  19              		.section	.text._vt_init,"ax",%progbits
  20              		.align	1
  21              		.global	_vt_init
  22              		.thumb
  23              		.thumb_func
  24              		.type	_vt_init, %function
  25              	_vt_init:
  26              	.LFB7:
  27              		.file 1 "chibios/os/kernel/src/chvt.c"
  28              		.loc 1 50 0
  29              		.cfi_startproc
  30              		@ args = 0, pretend = 0, frame = 0
  31              		@ frame_needed = 1, uses_anonymous_args = 0
  32 0000 80B5     		push	{r7, lr}
  33              	.LCFI0:
  34              		.cfi_def_cfa_offset 8
  35              		.cfi_offset 7, -8
  36              		.cfi_offset 14, -4
  37              		.loc 1 52 0
  38 0002 054B     		ldr	r3, .L2
  39              		.loc 1 53 0
  40 0004 4FF0FF32 		mov	r2, #-1
  41 0008 9A60     		str	r2, [r3, #8]
  42              		.loc 1 54 0
  43 000a 0022     		movs	r2, #0
  44              		.loc 1 50 0
  45 000c 00AF     		add	r7, sp, #0
  46              	.LCFI1:
  47              		.cfi_def_cfa_register 7
  48              		.loc 1 52 0
  49 000e 5B60     		str	r3, [r3, #4]
  50 0010 1B60     		str	r3, [r3]
  51              		.loc 1 54 0
  52 0012 DA60     		str	r2, [r3, #12]
  53 0014 80BD     		pop	{r7, pc}
  54              	.L3:
  55 0016 00BF     		.align	2
  56              	.L2:
  57 0018 00000000 		.word	.LANCHOR0
ARM GAS  /var/folders/_2/42wyrlld3p52fkcpt1lv6gxh0000gp/T//ccVlyRzt.s 			page 2


  58              		.cfi_endproc
  59              	.LFE7:
  60              		.size	_vt_init, .-_vt_init
  61              		.section	.text.chVTSetI,"ax",%progbits
  62              		.align	1
  63              		.global	chVTSetI
  64              		.thumb
  65              		.thumb_func
  66              		.type	chVTSetI, %function
  67              	chVTSetI:
  68              	.LFB8:
  69              		.loc 1 76 0
  70              		.cfi_startproc
  71              		@ args = 0, pretend = 0, frame = 0
  72              		@ frame_needed = 1, uses_anonymous_args = 0
  73              	.LVL0:
  74 0000 90B5     		push	{r4, r7, lr}
  75              	.LCFI2:
  76              		.cfi_def_cfa_offset 12
  77              		.cfi_offset 4, -12
  78              		.cfi_offset 7, -8
  79              		.cfi_offset 14, -4
  80              		.loc 1 84 0
  81 0002 C260     		str	r2, [r0, #12]
  82              		.loc 1 85 0
  83 0004 0A4A     		ldr	r2, .L10
  84              	.LVL1:
  85              		.loc 1 83 0
  86 0006 0361     		str	r3, [r0, #16]
  87              		.loc 1 85 0
  88 0008 1368     		ldr	r3, [r2]
  89              	.LVL2:
  90              		.loc 1 76 0
  91 000a 00AF     		add	r7, sp, #0
  92              	.LCFI3:
  93              		.cfi_def_cfa_register 7
  94              	.L5:
  95              		.loc 1 86 0
  96 000c 9C68     		ldr	r4, [r3, #8]
  97 000e A142     		cmp	r1, r4
  98 0010 02D9     		bls	.L9
  99              		.loc 1 87 0
 100 0012 091B     		subs	r1, r1, r4
 101              	.LVL3:
 102              		.loc 1 88 0
 103 0014 1B68     		ldr	r3, [r3]
 104              	.LVL4:
 105 0016 F9E7     		b	.L5
 106              	.L9:
 107              		.loc 1 91 0
 108 0018 5C68     		ldr	r4, [r3, #4]
 109 001a 0360     		str	r3, [r0]
 110 001c 4460     		str	r4, [r0, #4]
 111              		.loc 1 94 0
 112 001e 9342     		cmp	r3, r2
 113              		.loc 1 92 0
 114 0020 5860     		str	r0, [r3, #4]
ARM GAS  /var/folders/_2/42wyrlld3p52fkcpt1lv6gxh0000gp/T//ccVlyRzt.s 			page 3


 115 0022 2060     		str	r0, [r4]
 116              		.loc 1 93 0
 117 0024 8160     		str	r1, [r0, #8]
 118              		.loc 1 95 0
 119 0026 1EBF     		ittt	ne
 120 0028 9A68     		ldrne	r2, [r3, #8]
 121 002a 511A     		subne	r1, r2, r1
 122              	.LVL5:
 123 002c 9960     		strne	r1, [r3, #8]
 124              	.LVL6:
 125 002e 90BD     		pop	{r4, r7, pc}
 126              	.L11:
 127              		.align	2
 128              	.L10:
 129 0030 00000000 		.word	.LANCHOR0
 130              		.cfi_endproc
 131              	.LFE8:
 132              		.size	chVTSetI, .-chVTSetI
 133              		.section	.text.chVTResetI,"ax",%progbits
 134              		.align	1
 135              		.global	chVTResetI
 136              		.thumb
 137              		.thumb_func
 138              		.type	chVTResetI, %function
 139              	chVTResetI:
 140              	.LFB9:
 141              		.loc 1 106 0
 142              		.cfi_startproc
 143              		@ args = 0, pretend = 0, frame = 0
 144              		@ frame_needed = 1, uses_anonymous_args = 0
 145              	.LVL7:
 146              		.loc 1 114 0
 147 0000 0368     		ldr	r3, [r0]
 148 0002 084A     		ldr	r2, .L14
 149              		.loc 1 106 0
 150 0004 80B5     		push	{r7, lr}
 151              	.LCFI4:
 152              		.cfi_def_cfa_offset 8
 153              		.cfi_offset 7, -8
 154              		.cfi_offset 14, -4
 155              		.loc 1 114 0
 156 0006 9342     		cmp	r3, r2
 157              		.loc 1 115 0
 158 0008 1CBF     		itt	ne
 159 000a 9968     		ldrne	r1, [r3, #8]
 160 000c 8268     		ldrne	r2, [r0, #8]
 161              		.loc 1 106 0
 162 000e 00AF     		add	r7, sp, #0
 163              	.LCFI5:
 164              		.cfi_def_cfa_register 7
 165              		.loc 1 115 0
 166 0010 1CBF     		itt	ne
 167 0012 5218     		addne	r2, r2, r1
 168 0014 9A60     		strne	r2, [r3, #8]
 169              		.loc 1 116 0
 170 0016 4268     		ldr	r2, [r0, #4]
 171 0018 1360     		str	r3, [r2]
ARM GAS  /var/folders/_2/42wyrlld3p52fkcpt1lv6gxh0000gp/T//ccVlyRzt.s 			page 4


 172              		.loc 1 117 0
 173 001a 0368     		ldr	r3, [r0]
 174 001c 5A60     		str	r2, [r3, #4]
 175              		.loc 1 118 0
 176 001e 0023     		movs	r3, #0
 177 0020 C360     		str	r3, [r0, #12]
 178 0022 80BD     		pop	{r7, pc}
 179              	.L15:
 180              		.align	2
 181              	.L14:
 182 0024 00000000 		.word	.LANCHOR0
 183              		.cfi_endproc
 184              	.LFE9:
 185              		.size	chVTResetI, .-chVTResetI
 186              		.section	.text.chTimeIsWithin,"ax",%progbits
 187              		.align	1
 188              		.global	chTimeIsWithin
 189              		.thumb
 190              		.thumb_func
 191              		.type	chTimeIsWithin, %function
 192              	chTimeIsWithin:
 193              	.LFB10:
 194              		.loc 1 134 0
 195              		.cfi_startproc
 196              		@ args = 0, pretend = 0, frame = 0
 197              		@ frame_needed = 1, uses_anonymous_args = 0
 198              	.LVL8:
 199 0000 80B5     		push	{r7, lr}
 200              	.LCFI6:
 201              		.cfi_def_cfa_offset 8
 202              		.cfi_offset 7, -8
 203              		.cfi_offset 14, -4
 204              		.loc 1 136 0
 205 0002 094B     		ldr	r3, .L24
 206              		.loc 1 137 0
 207 0004 8142     		cmp	r1, r0
 208              		.loc 1 134 0
 209 0006 00AF     		add	r7, sp, #0
 210              	.LCFI7:
 211              		.cfi_def_cfa_register 7
 212              		.loc 1 136 0
 213 0008 DB68     		ldr	r3, [r3, #12]
 214              	.LVL9:
 215              		.loc 1 137 0
 216 000a 03D9     		bls	.L17
 217              		.loc 1 137 0 is_stmt 0 discriminator 1
 218 000c 8342     		cmp	r3, r0
 219 000e 03D2     		bcs	.L23
 220              		.loc 1 137 0
 221 0010 0020     		movs	r0, #0
 222              	.LVL10:
 223 0012 80BD     		pop	{r7, pc}
 224              	.LVL11:
 225              	.L17:
 226              		.loc 1 138 0 is_stmt 1
 227 0014 8342     		cmp	r3, r0
 228 0016 04D2     		bcs	.L22
ARM GAS  /var/folders/_2/42wyrlld3p52fkcpt1lv6gxh0000gp/T//ccVlyRzt.s 			page 5


 229              	.L23:
 230              		.loc 1 138 0 is_stmt 0 discriminator 2
 231 0018 8B42     		cmp	r3, r1
 232 001a 2CBF     		ite	cs
 233 001c 0020     		movcs	r0, #0
 234              	.LVL12:
 235 001e 0120     		movcc	r0, #1
 236 0020 80BD     		pop	{r7, pc}
 237              	.LVL13:
 238              	.L22:
 239              		.loc 1 138 0
 240 0022 0120     		movs	r0, #1
 241              	.LVL14:
 242              		.loc 1 139 0 is_stmt 1
 243 0024 80BD     		pop	{r7, pc}
 244              	.L25:
 245 0026 00BF     		.align	2
 246              	.L24:
 247 0028 00000000 		.word	.LANCHOR0
 248              		.cfi_endproc
 249              	.LFE10:
 250              		.size	chTimeIsWithin, .-chTimeIsWithin
 251              		.global	vtlist
 252              		.section	.bss.vtlist,"aw",%nobits
 253              		.align	2
 254              		.set	.LANCHOR0,. + 0
 255              		.type	vtlist, %object
 256              		.size	vtlist, 16
 257              	vtlist:
 258 0000 00000000 		.space	16
 258      00000000 
 258      00000000 
 258      00000000 
 259              		.text
 260              	.Letext0:
 261              		.file 2 "/Users/ARS/Applications/Eclipse.app/Contents/gcc-arm-none-eabi-5_3-2016q1/arm-none-eabi/i
 262              		.file 3 "/Users/ARS/Applications/Eclipse.app/Contents/gcc-arm-none-eabi-5_3-2016q1/arm-none-eabi/i
 263              		.file 4 "chibios/os/ports/GCC/ARMCMx/chtypes.h"
 264              		.file 5 "chibios/os/kernel/include/chvt.h"