ARM GAS  /var/folders/_2/42wyrlld3p52fkcpt1lv6gxh0000gp/T//ccCQ9Hi4.s 			page 1


   1              		.syntax unified
   2              		.cpu cortex-m3
   3              		.fpu softvfp
   4              		.eabi_attribute 20, 1
   5              		.eabi_attribute 21, 1
   6              		.eabi_attribute 23, 3
   7              		.eabi_attribute 24, 1
   8              		.eabi_attribute 25, 1
   9              		.eabi_attribute 26, 1
  10              		.eabi_attribute 30, 4
  11              		.eabi_attribute 34, 1
  12              		.eabi_attribute 18, 4
  13              		.thumb
  14              		.syntax unified
  15              		.file	"crt0.c"
  16              		.text
  17              	.Ltext0:
  18              		.cfi_sections	.debug_frame
  19              		.section	.text.__early_init,"ax",%progbits
  20              		.align	1
  21              		.weak	__early_init
  22              		.thumb
  23              		.thumb_func
  24              		.type	__early_init, %function
  25              	__early_init:
  26              	.LFB5:
  27              		.cfi_startproc
  28              		@ args = 0, pretend = 0, frame = 0
  29              		@ frame_needed = 1, uses_anonymous_args = 0
  30 0000 80B5     		push	{r7, lr}
  31              	.LCFI0:
  32              		.cfi_def_cfa_offset 8
  33              		.cfi_offset 7, -8
  34              		.cfi_offset 14, -4
  35 0002 00AF     		add	r7, sp, #0
  36              	.LCFI1:
  37              		.cfi_def_cfa_register 7
  38 0004 80BD     		pop	{r7, pc}
  39              		.cfi_endproc
  40              	.LFE5:
  41              		.size	__early_init, .-__early_init
  42              		.section	.text.__late_init,"ax",%progbits
  43              		.align	1
  44              		.weak	__late_init
  45              		.thumb
  46              		.thumb_func
  47              		.type	__late_init, %function
  48              	__late_init:
  49              	.LFB1:
  50              		.file 1 "chibios/os/ports/GCC/ARMCMx/crt0.c"
  51              		.loc 1 246 0
  52              		.cfi_startproc
  53              		@ args = 0, pretend = 0, frame = 0
  54              		@ frame_needed = 1, uses_anonymous_args = 0
  55              		.loc 1 246 0
  56 0000 80B5     		push	{r7, lr}
  57              	.LCFI2:
ARM GAS  /var/folders/_2/42wyrlld3p52fkcpt1lv6gxh0000gp/T//ccCQ9Hi4.s 			page 2


  58              		.cfi_def_cfa_offset 8
  59              		.cfi_offset 7, -8
  60              		.cfi_offset 14, -4
  61 0002 00AF     		add	r7, sp, #0
  62              	.LCFI3:
  63              		.cfi_def_cfa_register 7
  64 0004 80BD     		pop	{r7, pc}
  65              		.cfi_endproc
  66              	.LFE1:
  67              		.size	__late_init, .-__late_init
  68              		.section	.text._default_exit,"ax",%progbits
  69              		.align	1
  70              		.weak	_default_exit
  71              		.thumb
  72              		.thumb_func
  73              		.type	_default_exit, %function
  74              	_default_exit:
  75              	.LFB2:
  76              		.loc 1 257 0
  77              		.cfi_startproc
  78              		@ Naked Function: prologue and epilogue provided by programmer.
  79              		@ args = 0, pretend = 0, frame = 0
  80              		@ frame_needed = 1, uses_anonymous_args = 0
  81              	.L4:
  82 0000 FEE7     		b	.L4
  83              		.cfi_endproc
  84              	.LFE2:
  85              		.size	_default_exit, .-_default_exit
  86              		.section	.text.ResetHandler,"ax",%progbits
  87              		.align	1
  88              		.global	ResetHandler
  89              		.thumb
  90              		.thumb_func
  91              		.type	ResetHandler, %function
  92              	ResetHandler:
  93              	.LFB3:
  94              		.loc 1 268 0
  95              		.cfi_startproc
  96              		@ Naked Function: prologue and epilogue provided by programmer.
  97              		@ args = 0, pretend = 0, frame = 0
  98              		@ frame_needed = 1, uses_anonymous_args = 0
  99              		.loc 1 274 0
 100              		.syntax unified
 101              	@ 274 "chibios/os/ports/GCC/ARMCMx/crt0.c" 1
 102 0000 72B6     		cpsid   i
 103              	@ 0 "" 2
 104              	.LVL0:
 105              		.loc 1 276 0
 106              		.thumb
 107              		.syntax unified
 108 0002 214B     		ldr	r3, .L25
 109              		.syntax unified
 110              	@ 276 "chibios/os/ports/GCC/ARMCMx/crt0.c" 1
 111 0004 83F30988 		msr     PSP, r3
 112              	@ 0 "" 2
 113              	.LVL1:
 114              		.loc 1 296 0
ARM GAS  /var/folders/_2/42wyrlld3p52fkcpt1lv6gxh0000gp/T//ccCQ9Hi4.s 			page 3


 115              		.thumb
 116              		.syntax unified
 117 0008 0222     		movs	r2, #2
 118              		.syntax unified
 119              	@ 296 "chibios/os/ports/GCC/ARMCMx/crt0.c" 1
 120 000a 82F31488 		msr     CONTROL, r2
 121              	@ 0 "" 2
 122              		.loc 1 297 0
 123              	@ 297 "chibios/os/ports/GCC/ARMCMx/crt0.c" 1
 124 000e BFF36F8F 		isb
 125              	@ 0 "" 2
 126              	.LVL2:
 127              		.thumb
 128              		.syntax unified
 129              	.LBB2:
 130              		.loc 1 301 0
 131 0012 1E4A     		ldr	r2, .L25+4
 132 0014 1E49     		ldr	r1, .L25+8
 133 0016 4FF05530 		mov	r0, #1431655765
 134              	.LVL3:
 135              	.L6:
 136              		.loc 1 301 0 is_stmt 0 discriminator 1
 137 001a 8A42     		cmp	r2, r1
 138 001c 02D2     		bcs	.L19
 139              		.loc 1 301 0 discriminator 3
 140 001e 42F8040B 		str	r0, [r2], #4
 141              	.LVL4:
 142 0022 FAE7     		b	.L6
 143              	.LVL5:
 144              	.L19:
 145 0024 1B4A     		ldr	r2, .L25+12
 146              	.LVL6:
 147              	.LBE2:
 148              	.LBB3:
 149              		.loc 1 304 0 is_stmt 1 discriminator 1
 150 0026 4FF05531 		mov	r1, #1431655765
 151              	.L8:
 152              	.LVL7:
 153 002a 9A42     		cmp	r2, r3
 154 002c 02D2     		bcs	.L20
 155              		.loc 1 304 0 is_stmt 0 discriminator 3
 156 002e 42F8041B 		str	r1, [r2], #4
 157              	.LVL8:
 158 0032 FAE7     		b	.L8
 159              	.LVL9:
 160              	.L20:
 161              	.LBE3:
 162              		.loc 1 310 0 is_stmt 1
 163 0034 FFF7FEFF 		bl	__early_init
 164              	.LVL10:
 165 0038 174A     		ldr	r2, .L25+16
 166 003a 184B     		ldr	r3, .L25+20
 167              	.LBB4:
 168              		.loc 1 319 0
 169 003c 1849     		ldr	r1, .L25+24
 170              	.LVL11:
 171              	.L10:
ARM GAS  /var/folders/_2/42wyrlld3p52fkcpt1lv6gxh0000gp/T//ccCQ9Hi4.s 			page 4


 172 003e 8B42     		cmp	r3, r1
 173 0040 04D2     		bcs	.L21
 174              	.LVL12:
 175              		.loc 1 320 0
 176 0042 52F8040F 		ldr	r0, [r2, #4]!
 177 0046 43F8040B 		str	r0, [r3], #4
 178              	.LVL13:
 179 004a F8E7     		b	.L10
 180              	.L21:
 181 004c 154B     		ldr	r3, .L25+28
 182              	.LVL14:
 183              	.LBE4:
 184              	.LBB5:
 185              		.loc 1 326 0 discriminator 1
 186 004e 164A     		ldr	r2, .L25+32
 187 0050 0021     		movs	r1, #0
 188              	.L12:
 189              	.LVL15:
 190 0052 9342     		cmp	r3, r2
 191 0054 02D2     		bcs	.L22
 192              		.loc 1 326 0 is_stmt 0 discriminator 3
 193 0056 43F8041B 		str	r1, [r3], #4
 194              	.LVL16:
 195 005a FAE7     		b	.L12
 196              	.LVL17:
 197              	.L22:
 198              	.LBE5:
 199              		.loc 1 330 0 is_stmt 1
 200 005c FFF7FEFF 		bl	__late_init
 201              	.LVL18:
 202              	.LBB6:
 203              		.loc 1 335 0
 204 0060 124C     		ldr	r4, .L25+36
 205              		.loc 1 336 0
 206 0062 134D     		ldr	r5, .L25+40
 207              	.LVL19:
 208              	.L14:
 209 0064 AC42     		cmp	r4, r5
 210 0066 03D2     		bcs	.L23
 211              		.loc 1 337 0
 212 0068 54F8043B 		ldr	r3, [r4], #4
 213              	.LVL20:
 214 006c 9847     		blx	r3
 215              	.LVL21:
 216 006e F9E7     		b	.L14
 217              	.L23:
 218              	.LBE6:
 219              		.loc 1 344 0
 220 0070 FFF7FEFF 		bl	main
 221              	.LVL22:
 222              	.LBB7:
 223              		.loc 1 349 0
 224 0074 0F4C     		ldr	r4, .L25+44
 225              	.LVL23:
 226              		.loc 1 350 0
 227 0076 104D     		ldr	r5, .L25+48
 228              	.LVL24:
ARM GAS  /var/folders/_2/42wyrlld3p52fkcpt1lv6gxh0000gp/T//ccCQ9Hi4.s 			page 5


 229              	.L16:
 230 0078 AC42     		cmp	r4, r5
 231 007a 03D2     		bcs	.L24
 232              		.loc 1 351 0
 233 007c 54F8043B 		ldr	r3, [r4], #4
 234              	.LVL25:
 235 0080 9847     		blx	r3
 236              	.LVL26:
 237 0082 F9E7     		b	.L16
 238              	.L24:
 239              	.LBE7:
 240              		.loc 1 358 0
 241 0084 FFF7FEFF 		bl	_default_exit
 242              	.LVL27:
 243              		.loc 1 359 0
 244              	.L26:
 245              		.align	2
 246              	.L25:
 247 0088 00000000 		.word	__process_stack_end__
 248 008c 00000000 		.word	__main_stack_base__
 249 0090 00000000 		.word	__main_stack_end__
 250 0094 00000000 		.word	__process_stack_base__
 251 0098 FCFFFFFF 		.word	_textdata-4
 252 009c 00000000 		.word	_data
 253 00a0 00000000 		.word	_edata
 254 00a4 00000000 		.word	_bss_start
 255 00a8 00000000 		.word	_bss_end
 256 00ac 00000000 		.word	__init_array_start
 257 00b0 00000000 		.word	__init_array_end
 258 00b4 00000000 		.word	__fini_array_start
 259 00b8 00000000 		.word	__fini_array_end
 260              		.cfi_endproc
 261              	.LFE3:
 262              		.size	ResetHandler, .-ResetHandler
 263              		.text
 264              	.Letext0:
 265              		.file 2 "/Users/ARS/Applications/Eclipse.app/Contents/gcc-arm-none-eabi-5_3-2016q1/arm-none-eabi/i
 266              		.file 3 "/Users/ARS/Applications/Eclipse.app/Contents/gcc-arm-none-eabi-5_3-2016q1/arm-none-eabi/i