ARM GAS  /var/folders/_2/42wyrlld3p52fkcpt1lv6gxh0000gp/T//ccCQ9Hi4.s 			page 1


   1              		.syntax unified
   2              		.cpu cortex-m3
   3              		.fpu softvfp
   4              		.eabi_attribute 20, 1
   5              		.eabi_attribute 21, 1
   6              		.eabi_attribute 23, 3
   7              		.eabi_attribute 24, 1
   8              		.eabi_attribute 25, 1
   9              		.eabi_attribute 26, 1
  10              		.eabi_attribute 30, 4
  11              		.eabi_attribute 34, 1
  12              		.eabi_attribute 18, 4
  13              		.thumb
  14              		.syntax unified
  15              		.file	"crt0.c"
  16              		.text
  17              	.Ltext0:
  18              		.cfi_sections	.debug_frame
  19              		.section	.text.__early_init,"ax",%progbits
  20              		.align	1
  21              		.weak	__early_init
  22              		.thumb
  23              		.thumb_func
  24              		.type	__early_init, %function
  25              	__early_init:
  26              	.LFB5:
  27              		.cfi_startproc
  28              		@ args = 0, pretend = 0, frame = 0
  29              		@ frame_needed = 1, uses_anonymous_args = 0
  30 0000 80B5     		push	{r7, lr}
  31              	.LCFI0:
  32              		.cfi_def_cfa_offset 8
  33              		.cfi_offset 7, -8
  34              		.cfi_offset 14, -4
  35 0002 00AF     		add	r7, sp, #0
  36              	.LCFI1:
  37              		.cfi_def_cfa_register 7
  38 0004 80BD     		pop	{r7, pc}
  39              		.cfi_endproc
  40              	.LFE5:
  41              		.size	__early_init, .-__early_init
  42              		.section	.text.__late_init,"ax",%progbits
  43              		.align	1
  44              		.weak	__late_init
  45              		.thumb
  46              		.thumb_func
  47              		.type	__late_init, %function
  48              	__late_init:
  49              	.LFB1:
  50              		.file 1 "chibios/os/ports/GCC/ARMCMx/crt0.c"
  51              		.loc 1 246 0
  52              		.cfi_startproc
  53              		@ args = 0, pretend = 0, frame = 0
  54              		@ frame_needed = 1, uses_anonymous_args = 0
  55              		.loc 1 246 0
  56 0000 80B5     		push	{r7, lr}
  57              	.LCFI2:
ARM GAS  /var/folders/_2/42wyrlld3p52fkcpt1lv6gxh0000gp/T//ccCQ9Hi4.s 			page 2


  58              		.cfi_def_cfa_offset 8
  59              		.cfi_offset 7, -8
  60              		.cfi_offset 14, -4
  61 0002 00AF     		add	r7, sp, #0
  62              	.LCFI3:
  63              		.cfi_def_cfa_register 7
  64 0004 80BD     		pop	{r7, pc}
  65              		.cfi_endproc
  66              	.LFE1:
  67              		.size	__late_init, .-__late_init
  68              		.section	.text._default_exit,"ax",%progbits
  69              		.align	1
  70              		.weak	_default_exit
  71              		.thumb
  72              		.thumb_func
  73              		.type	_default_exit, %function
  74              	_default_exit:
  75              	.LFB2:
  76              		.loc 1 257 0
  77              		.cfi_startproc
  78              		@ Naked Function: prologue and epilogue provided by programmer.
  79              		@ args = 0, pretend = 0, frame = 0
  80              		@ frame_needed = 1, uses_anonymous_args = 0
  81              	.L4:
  82 0000 FEE7     		b	.L4
  83              		.cfi_endproc
  84              	.LFE2:
  85              		.size	_default_exit, .-_default_exit
  86              		.section	.text.ResetHandler,"ax",%progbits
  87              		.align	1
  88              		.global	ResetHandler
  89              		.thumb
  90              		.thumb_func
  91              		.type	ResetHandler, %function
  92              	ResetHandler:
  93              	.LFB3:
  94              		.loc 1 268 0
  95              		.cfi_startproc
  96              		@ Naked Function: prologue and epilogue provided by programmer.
  97              		@ args = 0, pretend = 0, frame = 0
  98              		@ frame_needed = 1, uses_anonymous_args = 0
  99              		.loc 1 274 0
 100              		.syntax unified
 101              	@ 274 "chibios/os/ports/GCC/ARMCMx/crt0.c" 1
 102 0000 72B6     		cpsid   i
 103              	@ 0 "" 2
 104              	.LVL0:
 105              		.loc 1 276 0
 106              		.thumb
 107              		.syntax unified
 108 0002 214B     		ldr	r3, .L25
 109              		.syntax unified
 110              	@ 276 "chibios/os/ports/GCC/ARMCMx/crt0.c" 1
 111 0004 83F30988 		msr     PSP, r3
 112              	@ 0 "" 2
 113              	.LVL1:
 114              		.loc 1 296 0
ARM GAS  /var/folders/_2/42wyrlld3p52fkcpt1lv6gxh0000gp/T//ccCQ9Hi4.s 			page 3


 115              		.thumb
 116              		.syntax unified
 117 0008 0222     		movs	r2, #2
 118              		.syntax unified
 119              	@ 296 "chibios/os/ports/GCC/ARMCMx/crt0.c" 1
 120 000a 82F31488 		msr     CONTROL, r2
 121              	@ 0 "" 2
 122              		.loc 1 297 0
 123              	@ 297 "chibios/os/ports/GCC/ARMCMx/crt0.c" 1
 124 000e BFF36F8F 		isb
 125              	@ 0 "" 2
 126              	.LVL2:
 127              		.thumb
 128              		.syntax unified
 129              	.LBB2:
 130              		.loc 1 301 0
 131 0012 1E4A     		ldr	r2, .L25+4
 132 0014 1E49     		ldr	r1, .L25+8
 133 0016 4FF05530 		mov	r0, #1431655765
 134              	.LVL3:
 135              	.L6:
 136              		.loc 1 301 0 is_stmt 0 discriminator 1
 137 001a 8A42     		cmp	r2, r1
 138 001c 02D2     		bcs	.L19
 139              		.loc 1 301 0 discriminator 3
 140 001e 42F8040B 		str	r0, [r2], #4
 141              	.LVL4:
 142 0022 FAE7     		b	.L6
 143              	.LVL5:
 144              	.L19:
 145 0024 1B4A     		ldr	r2, .L25+12
 146              	.LVL6:
 147              	.LBE2:
 148              	.LBB3:
 149              		.loc 1 304 0 is_stmt 1 discriminator 1
 150 0026 4FF05531 		mov	r1, #1431655765
 151              	.L8:
 152              	.LVL7:
 153 002a 9A42     		cmp	r2, r3
 154 002c 02D2     		bcs	.L20
 155              		.loc 1 304 0 is_stmt 0 discriminator 3
 156 002e 42F8041B 		str	r1, [r2], #4
 157              	.LVL8:
 158 0032 FAE7     		b	.L8
 159              	.LVL9:
 160              	.L20:
 161              	.LBE3:
 162              		.loc 1 310 0 is_stmt 1
 163 0034 FFF7FEFF 		bl	__early_init
 164              	.LVL10:
 165 0038 174A     		ldr	r2, .L25+16
 166 003a 184B     		ldr	r3, .L25+20
 167              	.LBB4:
 168              		.loc 1 319 0
 169 003c 1849     		ldr	r1, .L25+24
 170              	.LVL11:
 171              	.L10:
ARM GAS  /var/folders/_2/42wyrlld3p52fkcpt1lv6gxh0000gp/T//ccCQ9Hi4.s 			page 4


 172 003e 8B42     		cmp	r3, r1
 173 0040 04D2     		bcs	.L21
 174              	.LVL12:
 175              		.loc 1 320 0
 176 0042 52F8040F 		ldr	r0, [r2, #4]!
 177 0046 43F8040B 		str	r0, [r3], #4
 178              	.LVL13:
 179 004a F8E7     		b	.L10
 180              	.L21:
 181 004c 154B     		ldr	r3, .L25+28
 182              	.LVL14:
 183              	.LBE4:
 184              	.LBB5:
 185              		.loc 1 326 0 discriminator 1
 186 004e 164A     		ldr	r2, .L25+32
 187 0050 0021     		movs	r1, #0
 188              	.L12:
 189              	.LVL15:
 190 0052 9342     		cmp	r3, r2
 191 0054 02D2     		bcs	.L22
 192              		.loc 1 326 0 is_stmt 0 discriminator 3
 193 0056 43F8041B 		str	r1, [r3], #4
 194              	.LVL16:
 195 005a FAE7     		b	.L12
 196              	.LVL17:
 197              	.L22:
 198              	.LBE5:
 199              		.loc 1 330 0 is_stmt 1
 200 005c FFF7FEFF 		bl	__late_init
 201              	.LVL18:
 202              	.LBB6:
 203              		.loc 1 335 0
 204 0060 124C     		ldr	r4, .L25+36
 205              		.loc 1 336 0
 206 0062 134D     		ldr	r5, .L25+40
 207              	.LVL19:
 208              	.L14:
 209 0064 AC42     		cmp	r4, r5
 210 0066 03D2     		bcs	.L23
 211              		.loc 1 337 0
 212 0068 54F8043B 		ldr	r3, [r4], #4
 213              	.LVL20:
 214 006c 9847     		blx	r3
 215              	.LVL21:
 216 006e F9E7     		b	.L14
 217              	.L23:
 218              	.LBE6:
 219              		.loc 1 344 0
 220 0070 FFF7FEFF 		bl	main
 221              	.LVL22:
 222              	.LBB7:
 223              		.loc 1 349 0
 224 0074 0F4C     		ldr	r4, .L25+44
 225              	.LVL23:
 226              		.loc 1 350 0
 227 0076 104D     		ldr	r5, .L25+48
 228              	.LVL24:
ARM GAS  /var/folders/_2/42wyrlld3p52fkcpt1lv6gxh0000gp/T//ccCQ9Hi4.s 			page 5


 229              	.L16:
 230 0078 AC42     		cmp	r4, r5
 231 007a 03D2     		bcs	.L24
 232              		.loc 1 351 0
 233 007c 54F8043B 		ldr	r3, [r4], #4
 234              	.LVL25:
 235 0080 9847     		blx	r3
 236              	.LVL26:
 237 0082 F9E7     		b	.L16
 238              	.L24:
 239              	.LBE7:
 240              		.loc 1 358 0
 241 0084 FFF7FEFF 		bl	_default_exit
 242              	.LVL27:
 243              		.loc 1 359 0
 244              	.L26:
 245              		.align	2
 246              	.L25:
 247 0088 00000000 		.word	__process_stack_end__
 248 008c 00000000 		.word	__main_stack_base__
 249 0090 00000000 		.word	__main_stack_end__
 250 0094 00000000 		.word	__process_stack_base__
 251 0098 FCFFFFFF 		.word	_textdata-4
 252 009c 00000000 		.word	_data
 253 00a0 00000000 		.word	_edata
 254 00a4 00000000 		.word	_bss_start
 255 00a8 00000000 		.word	_bss_end
 256 00ac 00000000 		.word	__init_array_start
 257 00b0 00000000 		.word	__init_array_end
 258 00b4 00000000 		.word	__fini_array_start
 259 00b8 00000000 		.word	__fini_array_end
 260              		.cfi_endproc
 261              	.LFE3:
 262              		.size	ResetHandler, .-ResetHandler
 263              		.text
 264              	.Letext0:
 265              		.file 2 "/Users/ARS/Applications/Eclipse.app/Contents/gcc-arm-none-eabi-5_3-2016q1/arm-none-eabi/i
 266              		.file 3 "/Users/ARS/Applications/Eclipse.app/Contents/gcc-arm-none-eabi-5_3-2016q1/arm-none-eabi/i
 267              		.section	.debug_info,"",%progbits
 268              	.Ldebug_info0:
 269 0000 DE020000 		.4byte	0x2de
 270 0004 0200     		.2byte	0x2
 271 0006 00000000 		.4byte	.Ldebug_abbrev0
 272 000a 04       		.byte	0x4
 273 000b 01       		.uleb128 0x1
 274 000c 3A1A0000 		.4byte	.LASF551
 275 0010 0C       		.byte	0xc
 276 0011 AE320000 		.4byte	.LASF552
 277 0015 61310000 		.4byte	.LASF553
 278 0019 00000000 		.4byte	.Ldebug_ranges0+0
 279 001d 00000000 		.4byte	0
 280 0021 00000000 		.4byte	0
 281 0025 00000000 		.4byte	.Ldebug_line0
 282 0029 00000000 		.4byte	.Ldebug_macro0
 283 002d 02       		.uleb128 0x2
 284 002e 01       		.byte	0x1
 285 002f 06       		.byte	0x6
ARM GAS  /var/folders/_2/42wyrlld3p52fkcpt1lv6gxh0000gp/T//ccCQ9Hi4.s 			page 6


 286 0030 6F320000 		.4byte	.LASF523
 287 0034 03       		.uleb128 0x3
 288 0035 F2290000 		.4byte	.LASF528
 289 0039 02       		.byte	0x2
 290 003a 1D       		.byte	0x1d
 291 003b 3F000000 		.4byte	0x3f
 292 003f 02       		.uleb128 0x2
 293 0040 01       		.byte	0x1
 294 0041 08       		.byte	0x8
 295 0042 932E0000 		.4byte	.LASF524
 296 0046 02       		.uleb128 0x2
 297 0047 02       		.byte	0x2
 298 0048 05       		.byte	0x5
 299 0049 97260000 		.4byte	.LASF525
 300 004d 02       		.uleb128 0x2
 301 004e 02       		.byte	0x2
 302 004f 07       		.byte	0x7
 303 0050 B8230000 		.4byte	.LASF526
 304 0054 02       		.uleb128 0x2
 305 0055 04       		.byte	0x4
 306 0056 05       		.byte	0x5
 307 0057 FF260000 		.4byte	.LASF527
 308 005b 03       		.uleb128 0x3
 309 005c F82E0000 		.4byte	.LASF529
 310 0060 02       		.byte	0x2
 311 0061 41       		.byte	0x41
 312 0062 66000000 		.4byte	0x66
 313 0066 02       		.uleb128 0x2
 314 0067 04       		.byte	0x4
 315 0068 07       		.byte	0x7
 316 0069 692C0000 		.4byte	.LASF530
 317 006d 02       		.uleb128 0x2
 318 006e 08       		.byte	0x8
 319 006f 05       		.byte	0x5
 320 0070 BA1C0000 		.4byte	.LASF531
 321 0074 02       		.uleb128 0x2
 322 0075 08       		.byte	0x8
 323 0076 07       		.byte	0x7
 324 0077 E60D0000 		.4byte	.LASF532
 325 007b 04       		.uleb128 0x4
 326 007c 04       		.byte	0x4
 327 007d 05       		.byte	0x5
 328 007e 696E7400 		.ascii	"int\000"
 329 0082 02       		.uleb128 0x2
 330 0083 04       		.byte	0x4
 331 0084 07       		.byte	0x7
 332 0085 52040000 		.4byte	.LASF533
 333 0089 03       		.uleb128 0x3
 334 008a 09190000 		.4byte	.LASF534
 335 008e 03       		.byte	0x3
 336 008f 14       		.byte	0x14
 337 0090 34000000 		.4byte	0x34
 338 0094 03       		.uleb128 0x3
 339 0095 ED340000 		.4byte	.LASF535
 340 0099 03       		.byte	0x3
 341 009a 20       		.byte	0x20
 342 009b 5B000000 		.4byte	0x5b
ARM GAS  /var/folders/_2/42wyrlld3p52fkcpt1lv6gxh0000gp/T//ccCQ9Hi4.s 			page 7


 343 009f 03       		.uleb128 0x3
 344 00a0 EA290000 		.4byte	.LASF536
 345 00a4 01       		.byte	0x1
 346 00a5 34       		.byte	0x34
 347 00a6 AA000000 		.4byte	0xaa
 348 00aa 05       		.uleb128 0x5
 349 00ab 04       		.byte	0x4
 350 00ac B0000000 		.4byte	0xb0
 351 00b0 06       		.uleb128 0x6
 352 00b1 01       		.byte	0x1
 353 00b2 03       		.uleb128 0x3
 354 00b3 D60E0000 		.4byte	.LASF537
 355 00b7 01       		.byte	0x1
 356 00b8 35       		.byte	0x35
 357 00b9 BD000000 		.4byte	0xbd
 358 00bd 05       		.uleb128 0x5
 359 00be 04       		.byte	0x4
 360 00bf 9F000000 		.4byte	0x9f
 361 00c3 07       		.uleb128 0x7
 362 00c4 01       		.byte	0x1
 363 00c5 4D020000 		.4byte	.LASF554
 364 00c9 01       		.byte	0x1
 365 00ca F6       		.byte	0xf6
 366 00cb 01       		.byte	0x1
 367 00cc 01       		.byte	0x1
 368 00cd 08       		.uleb128 0x8
 369 00ce C3000000 		.4byte	0xc3
 370 00d2 00000000 		.4byte	.LFB1
 371 00d6 06000000 		.4byte	.LFE1
 372 00da 00000000 		.4byte	.LLST0
 373 00de 01       		.byte	0x1
 374 00df 09       		.uleb128 0x9
 375 00e0 01       		.byte	0x1
 376 00e1 CB230000 		.4byte	.LASF555
 377 00e5 01       		.byte	0x1
 378 00e6 0101     		.2byte	0x101
 379 00e8 01       		.byte	0x1
 380 00e9 00000000 		.4byte	.LFB2
 381 00ed 02000000 		.4byte	.LFE2
 382 00f1 02       		.byte	0x2
 383 00f2 7D       		.byte	0x7d
 384 00f3 00       		.sleb128 0
 385 00f4 01       		.byte	0x1
 386 00f5 0A       		.uleb128 0xa
 387 00f6 01       		.byte	0x1
 388 00f7 92210000 		.4byte	.LASF556
 389 00fb 01       		.byte	0x1
 390 00fc 0C01     		.2byte	0x10c
 391 00fe 01       		.byte	0x1
 392 00ff 00000000 		.4byte	.LFB3
 393 0103 BC000000 		.4byte	.LFE3
 394 0107 02       		.byte	0x2
 395 0108 7D       		.byte	0x7d
 396 0109 00       		.sleb128 0
 397 010a 01       		.byte	0x1
 398 010b 25020000 		.4byte	0x225
 399 010f 0B       		.uleb128 0xb
ARM GAS  /var/folders/_2/42wyrlld3p52fkcpt1lv6gxh0000gp/T//ccCQ9Hi4.s 			page 8


 400 0110 70737000 		.ascii	"psp\000"
 401 0114 01       		.byte	0x1
 402 0115 0D01     		.2byte	0x10d
 403 0117 94000000 		.4byte	0x94
 404 011b 0C       		.uleb128 0xc
 405 011c 72656700 		.ascii	"reg\000"
 406 0120 01       		.byte	0x1
 407 0121 0D01     		.2byte	0x10d
 408 0123 94000000 		.4byte	0x94
 409 0127 02       		.byte	0x2
 410 0128 0D       		.uleb128 0xd
 411 0129 12000000 		.4byte	.LBB2
 412 012d 26000000 		.4byte	.LBE2
 413 0131 50010000 		.4byte	0x150
 414 0135 0E       		.uleb128 0xe
 415 0136 703100   		.ascii	"p1\000"
 416 0139 01       		.byte	0x1
 417 013a 2D01     		.2byte	0x12d
 418 013c 25020000 		.4byte	0x225
 419 0140 2C000000 		.4byte	.LLST1
 420 0144 0B       		.uleb128 0xb
 421 0145 703200   		.ascii	"p2\000"
 422 0148 01       		.byte	0x1
 423 0149 2D01     		.2byte	0x12d
 424 014b 25020000 		.4byte	0x225
 425 014f 00       		.byte	0
 426 0150 0D       		.uleb128 0xd
 427 0151 26000000 		.4byte	.LBB3
 428 0155 34000000 		.4byte	.LBE3
 429 0159 78010000 		.4byte	0x178
 430 015d 0E       		.uleb128 0xe
 431 015e 703100   		.ascii	"p1\000"
 432 0161 01       		.byte	0x1
 433 0162 3001     		.2byte	0x130
 434 0164 25020000 		.4byte	0x225
 435 0168 57000000 		.4byte	.LLST2
 436 016c 0B       		.uleb128 0xb
 437 016d 703200   		.ascii	"p2\000"
 438 0170 01       		.byte	0x1
 439 0171 3001     		.2byte	0x130
 440 0173 25020000 		.4byte	0x225
 441 0177 00       		.byte	0
 442 0178 0D       		.uleb128 0xd
 443 0179 3C000000 		.4byte	.LBB4
 444 017d 4E000000 		.4byte	.LBE4
 445 0181 A0010000 		.4byte	0x1a0
 446 0185 0B       		.uleb128 0xb
 447 0186 747000   		.ascii	"tp\000"
 448 0189 01       		.byte	0x1
 449 018a 3B01     		.2byte	0x13b
 450 018c 25020000 		.4byte	0x225
 451 0190 0E       		.uleb128 0xe
 452 0191 647000   		.ascii	"dp\000"
 453 0194 01       		.byte	0x1
 454 0195 3B01     		.2byte	0x13b
 455 0197 25020000 		.4byte	0x225
 456 019b 82000000 		.4byte	.LLST3
ARM GAS  /var/folders/_2/42wyrlld3p52fkcpt1lv6gxh0000gp/T//ccCQ9Hi4.s 			page 9


 457 019f 00       		.byte	0
 458 01a0 0D       		.uleb128 0xd
 459 01a1 4E000000 		.4byte	.LBB5
 460 01a5 5C000000 		.4byte	.LBE5
 461 01a9 C8010000 		.4byte	0x1c8
 462 01ad 0E       		.uleb128 0xe
 463 01ae 703100   		.ascii	"p1\000"
 464 01b1 01       		.byte	0x1
 465 01b2 4601     		.2byte	0x146
 466 01b4 25020000 		.4byte	0x225
 467 01b8 AD000000 		.4byte	.LLST4
 468 01bc 0B       		.uleb128 0xb
 469 01bd 703200   		.ascii	"p2\000"
 470 01c0 01       		.byte	0x1
 471 01c1 4601     		.2byte	0x146
 472 01c3 25020000 		.4byte	0x225
 473 01c7 00       		.byte	0
 474 01c8 0D       		.uleb128 0xd
 475 01c9 60000000 		.4byte	.LBB6
 476 01cd 70000000 		.4byte	.LBE6
 477 01d1 E6010000 		.4byte	0x1e6
 478 01d5 0E       		.uleb128 0xe
 479 01d6 66707000 		.ascii	"fpp\000"
 480 01da 01       		.byte	0x1
 481 01db 4F01     		.2byte	0x14f
 482 01dd B2000000 		.4byte	0xb2
 483 01e1 D8000000 		.4byte	.LLST5
 484 01e5 00       		.byte	0
 485 01e6 0D       		.uleb128 0xd
 486 01e7 74000000 		.4byte	.LBB7
 487 01eb 84000000 		.4byte	.LBE7
 488 01ef 04020000 		.4byte	0x204
 489 01f3 0E       		.uleb128 0xe
 490 01f4 66707000 		.ascii	"fpp\000"
 491 01f8 01       		.byte	0x1
 492 01f9 5D01     		.2byte	0x15d
 493 01fb B2000000 		.4byte	0xb2
 494 01ff 03010000 		.4byte	.LLST6
 495 0203 00       		.byte	0
 496 0204 0F       		.uleb128 0xf
 497 0205 38000000 		.4byte	.LVL10
 498 0209 10       		.uleb128 0x10
 499 020a 60000000 		.4byte	.LVL18
 500 020e C3000000 		.4byte	0xc3
 501 0212 10       		.uleb128 0x10
 502 0213 74000000 		.4byte	.LVL22
 503 0217 D4020000 		.4byte	0x2d4
 504 021b 10       		.uleb128 0x10
 505 021c 88000000 		.4byte	.LVL27
 506 0220 DF000000 		.4byte	0xdf
 507 0224 00       		.byte	0
 508 0225 05       		.uleb128 0x5
 509 0226 04       		.byte	0x4
 510 0227 94000000 		.4byte	0x94
 511 022b 11       		.uleb128 0x11
 512 022c 372C0000 		.4byte	.LASF538
 513 0230 01       		.byte	0x1
ARM GAS  /var/folders/_2/42wyrlld3p52fkcpt1lv6gxh0000gp/T//ccCQ9Hi4.s 			page 10


 514 0231 8B       		.byte	0x8b
 515 0232 94000000 		.4byte	0x94
 516 0236 01       		.byte	0x1
 517 0237 01       		.byte	0x1
 518 0238 11       		.uleb128 0x11
 519 0239 A5330000 		.4byte	.LASF539
 520 023d 01       		.byte	0x1
 521 023e 93       		.byte	0x93
 522 023f 94000000 		.4byte	0x94
 523 0243 01       		.byte	0x1
 524 0244 01       		.byte	0x1
 525 0245 11       		.uleb128 0x11
 526 0246 E12E0000 		.4byte	.LASF540
 527 024a 01       		.byte	0x1
 528 024b 9A       		.byte	0x9a
 529 024c 94000000 		.4byte	0x94
 530 0250 01       		.byte	0x1
 531 0251 01       		.byte	0x1
 532 0252 11       		.uleb128 0x11
 533 0253 D1320000 		.4byte	.LASF541
 534 0257 01       		.byte	0x1
 535 0258 A1       		.byte	0xa1
 536 0259 94000000 		.4byte	0x94
 537 025d 01       		.byte	0x1
 538 025e 01       		.byte	0x1
 539 025f 11       		.uleb128 0x11
 540 0260 0C080000 		.4byte	.LASF542
 541 0264 01       		.byte	0x1
 542 0265 A7       		.byte	0xa7
 543 0266 94000000 		.4byte	0x94
 544 026a 01       		.byte	0x1
 545 026b 01       		.byte	0x1
 546 026c 11       		.uleb128 0x11
 547 026d 6B280000 		.4byte	.LASF543
 548 0271 01       		.byte	0x1
 549 0272 AD       		.byte	0xad
 550 0273 94000000 		.4byte	0x94
 551 0277 01       		.byte	0x1
 552 0278 01       		.byte	0x1
 553 0279 11       		.uleb128 0x11
 554 027a 0D260000 		.4byte	.LASF544
 555 027e 01       		.byte	0x1
 556 027f B3       		.byte	0xb3
 557 0280 94000000 		.4byte	0x94
 558 0284 01       		.byte	0x1
 559 0285 01       		.byte	0x1
 560 0286 11       		.uleb128 0x11
 561 0287 45260000 		.4byte	.LASF545
 562 028b 01       		.byte	0x1
 563 028c B9       		.byte	0xb9
 564 028d 94000000 		.4byte	0x94
 565 0291 01       		.byte	0x1
 566 0292 01       		.byte	0x1
 567 0293 11       		.uleb128 0x11
 568 0294 84120000 		.4byte	.LASF546
 569 0298 01       		.byte	0x1
 570 0299 BF       		.byte	0xbf
ARM GAS  /var/folders/_2/42wyrlld3p52fkcpt1lv6gxh0000gp/T//ccCQ9Hi4.s 			page 11


 571 029a 94000000 		.4byte	0x94
 572 029e 01       		.byte	0x1
 573 029f 01       		.byte	0x1
 574 02a0 11       		.uleb128 0x11
 575 02a1 99180000 		.4byte	.LASF547
 576 02a5 01       		.byte	0x1
 577 02a6 C5       		.byte	0xc5
 578 02a7 9F000000 		.4byte	0x9f
 579 02ab 01       		.byte	0x1
 580 02ac 01       		.byte	0x1
 581 02ad 11       		.uleb128 0x11
 582 02ae 3A0D0000 		.4byte	.LASF548
 583 02b2 01       		.byte	0x1
 584 02b3 CB       		.byte	0xcb
 585 02b4 9F000000 		.4byte	0x9f
 586 02b8 01       		.byte	0x1
 587 02b9 01       		.byte	0x1
 588 02ba 11       		.uleb128 0x11
 589 02bb C7190000 		.4byte	.LASF549
 590 02bf 01       		.byte	0x1
 591 02c0 D1       		.byte	0xd1
 592 02c1 9F000000 		.4byte	0x9f
 593 02c5 01       		.byte	0x1
 594 02c6 01       		.byte	0x1
 595 02c7 11       		.uleb128 0x11
 596 02c8 781E0000 		.4byte	.LASF550
 597 02cc 01       		.byte	0x1
 598 02cd D7       		.byte	0xd7
 599 02ce 9F000000 		.4byte	0x9f
 600 02d2 01       		.byte	0x1
 601 02d3 01       		.byte	0x1
 602 02d4 12       		.uleb128 0x12
 603 02d5 01       		.byte	0x1
 604 02d6 01       		.byte	0x1
 605 02d7 21330000 		.4byte	.LASF557
 606 02db 21330000 		.4byte	.LASF557
 607 02df 01       		.byte	0x1
 608 02e0 DE       		.byte	0xde
 609 02e1 00       		.byte	0
 610              		.section	.debug_abbrev,"",%progbits
 611              	.Ldebug_abbrev0:
 612 0000 01       		.uleb128 0x1
 613 0001 11       		.uleb128 0x11
 614 0002 01       		.byte	0x1
 615 0003 25       		.uleb128 0x25
 616 0004 0E       		.uleb128 0xe
 617 0005 13       		.uleb128 0x13
 618 0006 0B       		.uleb128 0xb
 619 0007 03       		.uleb128 0x3
 620 0008 0E       		.uleb128 0xe
 621 0009 1B       		.uleb128 0x1b
 622 000a 0E       		.uleb128 0xe
 623 000b 55       		.uleb128 0x55
 624 000c 06       		.uleb128 0x6
 625 000d 11       		.uleb128 0x11
 626 000e 01       		.uleb128 0x1
 627 000f 52       		.uleb128 0x52
ARM GAS  /var/folders/_2/42wyrlld3p52fkcpt1lv6gxh0000gp/T//ccCQ9Hi4.s 			page 12


 628 0010 01       		.uleb128 0x1
 629 0011 10       		.uleb128 0x10
 630 0012 06       		.uleb128 0x6
 631 0013 9942     		.uleb128 0x2119
 632 0015 06       		.uleb128 0x6
 633 0016 00       		.byte	0
 634 0017 00       		.byte	0
 635 0018 02       		.uleb128 0x2
 636 0019 24       		.uleb128 0x24
 637 001a 00       		.byte	0
 638 001b 0B       		.uleb128 0xb
 639 001c 0B       		.uleb128 0xb
 640 001d 3E       		.uleb128 0x3e
 641 001e 0B       		.uleb128 0xb
 642 001f 03       		.uleb128 0x3
 643 0020 0E       		.uleb128 0xe
 644 0021 00       		.byte	0
 645 0022 00       		.byte	0
 646 0023 03       		.uleb128 0x3
 647 0024 16       		.uleb128 0x16
 648 0025 00       		.byte	0
 649 0026 03       		.uleb128 0x3
 650 0027 0E       		.uleb128 0xe
 651 0028 3A       		.uleb128 0x3a
 652 0029 0B       		.uleb128 0xb
 653 002a 3B       		.uleb128 0x3b
 654 002b 0B       		.uleb128 0xb
 655 002c 49       		.uleb128 0x49
 656 002d 13       		.uleb128 0x13
 657 002e 00       		.byte	0
 658 002f 00       		.byte	0
 659 0030 04       		.uleb128 0x4
 660 0031 24       		.uleb128 0x24
 661 0032 00       		.byte	0
 662 0033 0B       		.uleb128 0xb
 663 0034 0B       		.uleb128 0xb
 664 0035 3E       		.uleb128 0x3e
 665 0036 0B       		.uleb128 0xb
 666 0037 03       		.uleb128 0x3
 667 0038 08       		.uleb128 0x8
 668 0039 00       		.byte	0
 669 003a 00       		.byte	0
 670 003b 05       		.uleb128 0x5
 671 003c 0F       		.uleb128 0xf
 672 003d 00       		.byte	0
 673 003e 0B       		.uleb128 0xb
 674 003f 0B       		.uleb128 0xb
 675 0040 49       		.uleb128 0x49
 676 0041 13       		.uleb128 0x13
 677 0042 00       		.byte	0
 678 0043 00       		.byte	0
 679 0044 06       		.uleb128 0x6
 680 0045 15       		.uleb128 0x15
 681 0046 00       		.byte	0
 682 0047 27       		.uleb128 0x27
 683 0048 0C       		.uleb128 0xc
 684 0049 00       		.byte	0
ARM GAS  /var/folders/_2/42wyrlld3p52fkcpt1lv6gxh0000gp/T//ccCQ9Hi4.s 			page 13


 685 004a 00       		.byte	0
 686 004b 07       		.uleb128 0x7
 687 004c 2E       		.uleb128 0x2e
 688 004d 00       		.byte	0
 689 004e 3F       		.uleb128 0x3f
 690 004f 0C       		.uleb128 0xc
 691 0050 03       		.uleb128 0x3
 692 0051 0E       		.uleb128 0xe
 693 0052 3A       		.uleb128 0x3a
 694 0053 0B       		.uleb128 0xb
 695 0054 3B       		.uleb128 0x3b
 696 0055 0B       		.uleb128 0xb
 697 0056 27       		.uleb128 0x27
 698 0057 0C       		.uleb128 0xc
 699 0058 20       		.uleb128 0x20
 700 0059 0B       		.uleb128 0xb
 701 005a 00       		.byte	0
 702 005b 00       		.byte	0
 703 005c 08       		.uleb128 0x8
 704 005d 2E       		.uleb128 0x2e
 705 005e 00       		.byte	0
 706 005f 31       		.uleb128 0x31
 707 0060 13       		.uleb128 0x13
 708 0061 11       		.uleb128 0x11
 709 0062 01       		.uleb128 0x1
 710 0063 12       		.uleb128 0x12
 711 0064 01       		.uleb128 0x1
 712 0065 40       		.uleb128 0x40
 713 0066 06       		.uleb128 0x6
 714 0067 9742     		.uleb128 0x2117
 715 0069 0C       		.uleb128 0xc
 716 006a 00       		.byte	0
 717 006b 00       		.byte	0
 718 006c 09       		.uleb128 0x9
 719 006d 2E       		.uleb128 0x2e
 720 006e 00       		.byte	0
 721 006f 3F       		.uleb128 0x3f
 722 0070 0C       		.uleb128 0xc
 723 0071 03       		.uleb128 0x3
 724 0072 0E       		.uleb128 0xe
 725 0073 3A       		.uleb128 0x3a
 726 0074 0B       		.uleb128 0xb
 727 0075 3B       		.uleb128 0x3b
 728 0076 05       		.uleb128 0x5
 729 0077 27       		.uleb128 0x27
 730 0078 0C       		.uleb128 0xc
 731 0079 11       		.uleb128 0x11
 732 007a 01       		.uleb128 0x1
 733 007b 12       		.uleb128 0x12
 734 007c 01       		.uleb128 0x1
 735 007d 40       		.uleb128 0x40
 736 007e 0A       		.uleb128 0xa
 737 007f 9742     		.uleb128 0x2117
 738 0081 0C       		.uleb128 0xc
 739 0082 00       		.byte	0
 740 0083 00       		.byte	0
 741 0084 0A       		.uleb128 0xa
ARM GAS  /var/folders/_2/42wyrlld3p52fkcpt1lv6gxh0000gp/T//ccCQ9Hi4.s 			page 14


 742 0085 2E       		.uleb128 0x2e
 743 0086 01       		.byte	0x1
 744 0087 3F       		.uleb128 0x3f
 745 0088 0C       		.uleb128 0xc
 746 0089 03       		.uleb128 0x3
 747 008a 0E       		.uleb128 0xe
 748 008b 3A       		.uleb128 0x3a
 749 008c 0B       		.uleb128 0xb
 750 008d 3B       		.uleb128 0x3b
 751 008e 05       		.uleb128 0x5
 752 008f 27       		.uleb128 0x27
 753 0090 0C       		.uleb128 0xc
 754 0091 11       		.uleb128 0x11
 755 0092 01       		.uleb128 0x1
 756 0093 12       		.uleb128 0x12
 757 0094 01       		.uleb128 0x1
 758 0095 40       		.uleb128 0x40
 759 0096 0A       		.uleb128 0xa
 760 0097 9642     		.uleb128 0x2116
 761 0099 0C       		.uleb128 0xc
 762 009a 01       		.uleb128 0x1
 763 009b 13       		.uleb128 0x13
 764 009c 00       		.byte	0
 765 009d 00       		.byte	0
 766 009e 0B       		.uleb128 0xb
 767 009f 34       		.uleb128 0x34
 768 00a0 00       		.byte	0
 769 00a1 03       		.uleb128 0x3
 770 00a2 08       		.uleb128 0x8
 771 00a3 3A       		.uleb128 0x3a
 772 00a4 0B       		.uleb128 0xb
 773 00a5 3B       		.uleb128 0x3b
 774 00a6 05       		.uleb128 0x5
 775 00a7 49       		.uleb128 0x49
 776 00a8 13       		.uleb128 0x13
 777 00a9 00       		.byte	0
 778 00aa 00       		.byte	0
 779 00ab 0C       		.uleb128 0xc
 780 00ac 34       		.uleb128 0x34
 781 00ad 00       		.byte	0
 782 00ae 03       		.uleb128 0x3
 783 00af 08       		.uleb128 0x8
 784 00b0 3A       		.uleb128 0x3a
 785 00b1 0B       		.uleb128 0xb
 786 00b2 3B       		.uleb128 0x3b
 787 00b3 05       		.uleb128 0x5
 788 00b4 49       		.uleb128 0x49
 789 00b5 13       		.uleb128 0x13
 790 00b6 1C       		.uleb128 0x1c
 791 00b7 0B       		.uleb128 0xb
 792 00b8 00       		.byte	0
 793 00b9 00       		.byte	0
 794 00ba 0D       		.uleb128 0xd
 795 00bb 0B       		.uleb128 0xb
 796 00bc 01       		.byte	0x1
 797 00bd 11       		.uleb128 0x11
 798 00be 01       		.uleb128 0x1
ARM GAS  /var/folders/_2/42wyrlld3p52fkcpt1lv6gxh0000gp/T//ccCQ9Hi4.s 			page 15


 799 00bf 12       		.uleb128 0x12
 800 00c0 01       		.uleb128 0x1
 801 00c1 01       		.uleb128 0x1
 802 00c2 13       		.uleb128 0x13
 803 00c3 00       		.byte	0
 804 00c4 00       		.byte	0
 805 00c5 0E       		.uleb128 0xe
 806 00c6 34       		.uleb128 0x34
 807 00c7 00       		.byte	0
 808 00c8 03       		.uleb128 0x3
 809 00c9 08       		.uleb128 0x8
 810 00ca 3A       		.uleb128 0x3a
 811 00cb 0B       		.uleb128 0xb
 812 00cc 3B       		.uleb128 0x3b
 813 00cd 05       		.uleb128 0x5
 814 00ce 49       		.uleb128 0x49
 815 00cf 13       		.uleb128 0x13
 816 00d0 02       		.uleb128 0x2
 817 00d1 06       		.uleb128 0x6
 818 00d2 00       		.byte	0
 819 00d3 00       		.byte	0
 820 00d4 0F       		.uleb128 0xf
 821 00d5 898201   		.uleb128 0x4109
 822 00d8 00       		.byte	0
 823 00d9 11       		.uleb128 0x11
 824 00da 01       		.uleb128 0x1
 825 00db 00       		.byte	0
 826 00dc 00       		.byte	0
 827 00dd 10       		.uleb128 0x10
 828 00de 898201   		.uleb128 0x4109
 829 00e1 00       		.byte	0
 830 00e2 11       		.uleb128 0x11
 831 00e3 01       		.uleb128 0x1
 832 00e4 31       		.uleb128 0x31
 833 00e5 13       		.uleb128 0x13
 834 00e6 00       		.byte	0
 835 00e7 00       		.byte	0
 836 00e8 11       		.uleb128 0x11
 837 00e9 34       		.uleb128 0x34
 838 00ea 00       		.byte	0
 839 00eb 03       		.uleb128 0x3
 840 00ec 0E       		.uleb128 0xe
 841 00ed 3A       		.uleb128 0x3a
 842 00ee 0B       		.uleb128 0xb
 843 00ef 3B       		.uleb128 0x3b
 844 00f0 0B       		.uleb128 0xb
 845 00f1 49       		.uleb128 0x49
 846 00f2 13       		.uleb128 0x13
 847 00f3 3F       		.uleb128 0x3f
 848 00f4 0C       		.uleb128 0xc
 849 00f5 3C       		.uleb128 0x3c
 850 00f6 0C       		.uleb128 0xc
 851 00f7 00       		.byte	0
 852 00f8 00       		.byte	0
 853 00f9 12       		.uleb128 0x12
 854 00fa 2E       		.uleb128 0x2e
 855 00fb 00       		.byte	0
ARM GAS  /var/folders/_2/42wyrlld3p52fkcpt1lv6gxh0000gp/T//ccCQ9Hi4.s 			page 16


 856 00fc 3F       		.uleb128 0x3f
 857 00fd 0C       		.uleb128 0xc
 858 00fe 3C       		.uleb128 0x3c
 859 00ff 0C       		.uleb128 0xc
 860 0100 8740     		.uleb128 0x2007
 861 0102 0E       		.uleb128 0xe
 862 0103 03       		.uleb128 0x3
 863 0104 0E       		.uleb128 0xe
 864 0105 3A       		.uleb128 0x3a
 865 0106 0B       		.uleb128 0xb
 866 0107 3B       		.uleb128 0x3b
 867 0108 0B       		.uleb128 0xb
 868 0109 00       		.byte	0
 869 010a 00       		.byte	0
 870 010b 00       		.byte	0
 871              		.section	.debug_loc,"",%progbits
 872              	.Ldebug_loc0:
 873              	.LLST0:
 874 0000 00000000 		.4byte	.LFB1
 875 0004 02000000 		.4byte	.LCFI2
 876 0008 0200     		.2byte	0x2
 877 000a 7D       		.byte	0x7d
 878 000b 00       		.sleb128 0
 879 000c 02000000 		.4byte	.LCFI2
 880 0010 04000000 		.4byte	.LCFI3
 881 0014 0200     		.2byte	0x2
 882 0016 7D       		.byte	0x7d
 883 0017 08       		.sleb128 8
 884 0018 04000000 		.4byte	.LCFI3
 885 001c 06000000 		.4byte	.LFE1
 886 0020 0200     		.2byte	0x2
 887 0022 77       		.byte	0x77
 888 0023 08       		.sleb128 8
 889 0024 00000000 		.4byte	0
 890 0028 00000000 		.4byte	0
 891              	.LLST1:
 892 002c 1A000000 		.4byte	.LVL3
 893 0030 22000000 		.4byte	.LVL4
 894 0034 0100     		.2byte	0x1
 895 0036 52       		.byte	0x52
 896 0037 22000000 		.4byte	.LVL4
 897 003b 24000000 		.4byte	.LVL5
 898 003f 0300     		.2byte	0x3
 899 0041 72       		.byte	0x72
 900 0042 7C       		.sleb128 -4
 901 0043 9F       		.byte	0x9f
 902 0044 24000000 		.4byte	.LVL5
 903 0048 26000000 		.4byte	.LVL6
 904 004c 0100     		.2byte	0x1
 905 004e 52       		.byte	0x52
 906 004f 00000000 		.4byte	0
 907 0053 00000000 		.4byte	0
 908              	.LLST2:
 909 0057 2A000000 		.4byte	.LVL7
 910 005b 32000000 		.4byte	.LVL8
 911 005f 0100     		.2byte	0x1
 912 0061 52       		.byte	0x52
ARM GAS  /var/folders/_2/42wyrlld3p52fkcpt1lv6gxh0000gp/T//ccCQ9Hi4.s 			page 17


 913 0062 32000000 		.4byte	.LVL8
 914 0066 34000000 		.4byte	.LVL9
 915 006a 0300     		.2byte	0x3
 916 006c 72       		.byte	0x72
 917 006d 7C       		.sleb128 -4
 918 006e 9F       		.byte	0x9f
 919 006f 34000000 		.4byte	.LVL9
 920 0073 37000000 		.4byte	.LVL10-1
 921 0077 0100     		.2byte	0x1
 922 0079 52       		.byte	0x52
 923 007a 00000000 		.4byte	0
 924 007e 00000000 		.4byte	0
 925              	.LLST3:
 926 0082 3E000000 		.4byte	.LVL11
 927 0086 42000000 		.4byte	.LVL12
 928 008a 0100     		.2byte	0x1
 929 008c 53       		.byte	0x53
 930 008d 42000000 		.4byte	.LVL12
 931 0091 4A000000 		.4byte	.LVL13
 932 0095 0300     		.2byte	0x3
 933 0097 73       		.byte	0x73
 934 0098 04       		.sleb128 4
 935 0099 9F       		.byte	0x9f
 936 009a 4A000000 		.4byte	.LVL13
 937 009e 4E000000 		.4byte	.LVL14
 938 00a2 0100     		.2byte	0x1
 939 00a4 53       		.byte	0x53
 940 00a5 00000000 		.4byte	0
 941 00a9 00000000 		.4byte	0
 942              	.LLST4:
 943 00ad 52000000 		.4byte	.LVL15
 944 00b1 5A000000 		.4byte	.LVL16
 945 00b5 0100     		.2byte	0x1
 946 00b7 53       		.byte	0x53
 947 00b8 5A000000 		.4byte	.LVL16
 948 00bc 5C000000 		.4byte	.LVL17
 949 00c0 0300     		.2byte	0x3
 950 00c2 73       		.byte	0x73
 951 00c3 7C       		.sleb128 -4
 952 00c4 9F       		.byte	0x9f
 953 00c5 5C000000 		.4byte	.LVL17
 954 00c9 5F000000 		.4byte	.LVL18-1
 955 00cd 0100     		.2byte	0x1
 956 00cf 53       		.byte	0x53
 957 00d0 00000000 		.4byte	0
 958 00d4 00000000 		.4byte	0
 959              	.LLST5:
 960 00d8 64000000 		.4byte	.LVL19
 961 00dc 6C000000 		.4byte	.LVL20
 962 00e0 0100     		.2byte	0x1
 963 00e2 54       		.byte	0x54
 964 00e3 6C000000 		.4byte	.LVL20
 965 00e7 6E000000 		.4byte	.LVL21
 966 00eb 0300     		.2byte	0x3
 967 00ed 74       		.byte	0x74
 968 00ee 7C       		.sleb128 -4
 969 00ef 9F       		.byte	0x9f
ARM GAS  /var/folders/_2/42wyrlld3p52fkcpt1lv6gxh0000gp/T//ccCQ9Hi4.s 			page 18


 970 00f0 6E000000 		.4byte	.LVL21
 971 00f4 76000000 		.4byte	.LVL23
 972 00f8 0100     		.2byte	0x1
 973 00fa 54       		.byte	0x54
 974 00fb 00000000 		.4byte	0
 975 00ff 00000000 		.4byte	0
 976              	.LLST6:
 977 0103 78000000 		.4byte	.LVL24
 978 0107 80000000 		.4byte	.LVL25
 979 010b 0100     		.2byte	0x1
 980 010d 54       		.byte	0x54
 981 010e 80000000 		.4byte	.LVL25
 982 0112 82000000 		.4byte	.LVL26
 983 0116 0300     		.2byte	0x3
 984 0118 74       		.byte	0x74
 985 0119 7C       		.sleb128 -4
 986 011a 9F       		.byte	0x9f
 987 011b 82000000 		.4byte	.LVL26
 988 011f BC000000 		.4byte	.LFE3
 989 0123 0100     		.2byte	0x1
 990 0125 54       		.byte	0x54
 991 0126 00000000 		.4byte	0
 992 012a 00000000 		.4byte	0
 993              		.section	.debug_aranges,"",%progbits
 994 0000 2C000000 		.4byte	0x2c
 995 0004 0200     		.2byte	0x2
 996 0006 00000000 		.4byte	.Ldebug_info0
 997 000a 04       		.byte	0x4
 998 000b 00       		.byte	0
 999 000c 0000     		.2byte	0
 1000 000e 0000     		.2byte	0
 1001 0010 00000000 		.4byte	.LFB1
 1002 0014 06000000 		.4byte	.LFE1-.LFB1
 1003 0018 00000000 		.4byte	.LFB2
 1004 001c 02000000 		.4byte	.LFE2-.LFB2
 1005 0020 00000000 		.4byte	.LFB3
 1006 0024 BC000000 		.4byte	.LFE3-.LFB3
 1007 0028 00000000 		.4byte	0
 1008 002c 00000000 		.4byte	0
 1009              		.section	.debug_ranges,"",%progbits
 1010              	.Ldebug_ranges0:
 1011 0000 00000000 		.4byte	.LFB1
 1012 0004 06000000 		.4byte	.LFE1
 1013 0008 00000000 		.4byte	.LFB2
 1014 000c 02000000 		.4byte	.LFE2
 1015 0010 00000000 		.4byte	.LFB3
 1016 0014 BC000000 		.4byte	.LFE3
 1017 0018 00000000 		.4byte	0
 1018 001c 00000000 		.4byte	0
 1019              		.section	.debug_macro,"",%progbits
 1020              	.Ldebug_macro0:
 1021 0000 0400     		.2byte	0x4
 1022 0002 02       		.byte	0x2
 1023 0003 00000000 		.4byte	.Ldebug_line0
 1024 0007 07       		.byte	0x7
 1025 0008 00000000 		.4byte	.Ldebug_macro1
 1026 000c 03       		.byte	0x3
ARM GAS  /var/folders/_2/42wyrlld3p52fkcpt1lv6gxh0000gp/T//ccCQ9Hi4.s 			page 19


 1027 000d 00       		.uleb128 0
 1028 000e 01       		.uleb128 0x1
 1029              		.file 4 "/Users/ARS/Applications/Eclipse.app/Contents/gcc-arm-none-eabi-5_3-2016q1/lib/gcc/arm-non
 1030 000f 03       		.byte	0x3
 1031 0010 24       		.uleb128 0x24
 1032 0011 04       		.uleb128 0x4
 1033              		.file 5 "/Users/ARS/Applications/Eclipse.app/Contents/gcc-arm-none-eabi-5_3-2016q1/arm-none-eabi/i
 1034 0012 03       		.byte	0x3
 1035 0013 09       		.uleb128 0x9
 1036 0014 05       		.uleb128 0x5
 1037 0015 05       		.byte	0x5
 1038 0016 0A       		.uleb128 0xa
 1039 0017 14260000 		.4byte	.LASF364
 1040 001b 03       		.byte	0x3
 1041 001c 0C       		.uleb128 0xc
 1042 001d 02       		.uleb128 0x2
 1043 001e 05       		.byte	0x5
 1044 001f 06       		.uleb128 0x6
 1045 0020 88040000 		.4byte	.LASF365
 1046              		.file 6 "/Users/ARS/Applications/Eclipse.app/Contents/gcc-arm-none-eabi-5_3-2016q1/arm-none-eabi/i
 1047 0024 03       		.byte	0x3
 1048 0025 08       		.uleb128 0x8
 1049 0026 06       		.uleb128 0x6
 1050 0027 05       		.byte	0x5
 1051 0028 16       		.uleb128 0x16
 1052 0029 D50D0000 		.4byte	.LASF366
 1053              		.file 7 "/Users/ARS/Applications/Eclipse.app/Contents/gcc-arm-none-eabi-5_3-2016q1/arm-none-eabi/i
 1054 002d 03       		.byte	0x3
 1055 002e 1C       		.uleb128 0x1c
 1056 002f 07       		.uleb128 0x7
 1057 0030 07       		.byte	0x7
 1058 0031 00000000 		.4byte	.Ldebug_macro2
 1059 0035 04       		.byte	0x4
 1060 0036 07       		.byte	0x7
 1061 0037 00000000 		.4byte	.Ldebug_macro3
 1062 003b 04       		.byte	0x4
 1063 003c 07       		.byte	0x7
 1064 003d 00000000 		.4byte	.Ldebug_macro4
 1065 0041 04       		.byte	0x4
 1066              		.file 8 "/Users/ARS/Applications/Eclipse.app/Contents/gcc-arm-none-eabi-5_3-2016q1/arm-none-eabi/i
 1067 0042 03       		.byte	0x3
 1068 0043 0D       		.uleb128 0xd
 1069 0044 08       		.uleb128 0x8
 1070 0045 07       		.byte	0x7
 1071 0046 00000000 		.4byte	.Ldebug_macro5
 1072 004a 04       		.byte	0x4
 1073 004b 03       		.byte	0x3
 1074 004c 0E       		.uleb128 0xe
 1075 004d 03       		.uleb128 0x3
 1076 004e 07       		.byte	0x7
 1077 004f 00000000 		.4byte	.Ldebug_macro6
 1078 0053 04       		.byte	0x4
 1079 0054 07       		.byte	0x7
 1080 0055 00000000 		.4byte	.Ldebug_macro7
 1081 0059 04       		.byte	0x4
 1082 005a 05       		.byte	0x5
 1083 005b 0D       		.uleb128 0xd
ARM GAS  /var/folders/_2/42wyrlld3p52fkcpt1lv6gxh0000gp/T//ccCQ9Hi4.s 			page 20


 1084 005c F70A0000 		.4byte	.LASF506
 1085 0060 04       		.byte	0x4
 1086 0061 05       		.byte	0x5
 1087 0062 27       		.uleb128 0x27
 1088 0063 B70A0000 		.4byte	.LASF507
 1089 0067 05       		.byte	0x5
 1090 0068 2B       		.uleb128 0x2b
 1091 0069 96350000 		.4byte	.LASF508
 1092 006d 05       		.byte	0x5
 1093 006e 2E       		.uleb128 0x2e
 1094 006f AA240000 		.4byte	.LASF509
 1095 0073 05       		.byte	0x5
 1096 0074 2F       		.uleb128 0x2f
 1097 0075 5F120000 		.4byte	.LASF510
 1098 0079 05       		.byte	0x5
 1099 007a 30       		.uleb128 0x30
 1100 007b 6A000000 		.4byte	.LASF511
 1101 007f 05       		.byte	0x5
 1102 0080 31       		.uleb128 0x31
 1103 0081 72010000 		.4byte	.LASF512
 1104 0085 05       		.byte	0x5
 1105 0086 32       		.uleb128 0x32
 1106 0087 2C190000 		.4byte	.LASF513
 1107 008b 05       		.byte	0x5
 1108 008c 37       		.uleb128 0x37
 1109 008d 4F070000 		.4byte	.LASF514
 1110 0091 05       		.byte	0x5
 1111 0092 3D       		.uleb128 0x3d
 1112 0093 E81B0000 		.4byte	.LASF515
 1113 0097 05       		.byte	0x5
 1114 0098 51       		.uleb128 0x51
 1115 0099 032B0000 		.4byte	.LASF516
 1116 009d 05       		.byte	0x5
 1117 009e 58       		.uleb128 0x58
 1118 009f DF0E0000 		.4byte	.LASF517
 1119 00a3 05       		.byte	0x5
 1120 00a4 5F       		.uleb128 0x5f
 1121 00a5 DC310000 		.4byte	.LASF518
 1122 00a9 05       		.byte	0x5
 1123 00aa 66       		.uleb128 0x66
 1124 00ab 3B290000 		.4byte	.LASF519
 1125 00af 05       		.byte	0x5
 1126 00b0 6D       		.uleb128 0x6d
 1127 00b1 4F220000 		.4byte	.LASF520
 1128 00b5 05       		.byte	0x5
 1129 00b6 74       		.uleb128 0x74
 1130 00b7 42340000 		.4byte	.LASF521
 1131 00bb 05       		.byte	0x5
 1132 00bc 7B       		.uleb128 0x7b
 1133 00bd FB2F0000 		.4byte	.LASF522
 1134 00c1 04       		.byte	0x4
 1135 00c2 00       		.byte	0
 1136              		.section	.debug_macro,"G",%progbits,wm4.0.35fed72edb16791606a7cdf63e9f7e36,comdat
 1137              	.Ldebug_macro1:
 1138 0000 0400     		.2byte	0x4
 1139 0002 00       		.byte	0
 1140 0003 05       		.byte	0x5
ARM GAS  /var/folders/_2/42wyrlld3p52fkcpt1lv6gxh0000gp/T//ccCQ9Hi4.s 			page 21


 1141 0004 00       		.uleb128 0
 1142 0005 0C1F0000 		.4byte	.LASF0
 1143 0009 05       		.byte	0x5
 1144 000a 00       		.uleb128 0
 1145 000b BB2C0000 		.4byte	.LASF1
 1146 000f 05       		.byte	0x5
 1147 0010 00       		.uleb128 0
 1148 0011 80210000 		.4byte	.LASF2
 1149 0015 05       		.byte	0x5
 1150 0016 00       		.uleb128 0
 1151 0017 3B080000 		.4byte	.LASF3
 1152 001b 05       		.byte	0x5
 1153 001c 00       		.uleb128 0
 1154 001d 672D0000 		.4byte	.LASF4
 1155 0021 05       		.byte	0x5
 1156 0022 00       		.uleb128 0
 1157 0023 54120000 		.4byte	.LASF5
 1158 0027 05       		.byte	0x5
 1159 0028 00       		.uleb128 0
 1160 0029 24040000 		.4byte	.LASF6
 1161 002d 05       		.byte	0x5
 1162 002e 00       		.uleb128 0
 1163 002f A7200000 		.4byte	.LASF7
 1164 0033 05       		.byte	0x5
 1165 0034 00       		.uleb128 0
 1166 0035 B42A0000 		.4byte	.LASF8
 1167 0039 05       		.byte	0x5
 1168 003a 00       		.uleb128 0
 1169 003b 0F090000 		.4byte	.LASF9
 1170 003f 05       		.byte	0x5
 1171 0040 00       		.uleb128 0
 1172 0041 AF060000 		.4byte	.LASF10
 1173 0045 05       		.byte	0x5
 1174 0046 00       		.uleb128 0
 1175 0047 A71E0000 		.4byte	.LASF11
 1176 004b 05       		.byte	0x5
 1177 004c 00       		.uleb128 0
 1178 004d EA050000 		.4byte	.LASF12
 1179 0051 05       		.byte	0x5
 1180 0052 00       		.uleb128 0
 1181 0053 802E0000 		.4byte	.LASF13
 1182 0057 05       		.byte	0x5
 1183 0058 00       		.uleb128 0
 1184 0059 E61D0000 		.4byte	.LASF14
 1185 005d 05       		.byte	0x5
 1186 005e 00       		.uleb128 0
 1187 005f 93300000 		.4byte	.LASF15
 1188 0063 05       		.byte	0x5
 1189 0064 00       		.uleb128 0
 1190 0065 7E130000 		.4byte	.LASF16
 1191 0069 05       		.byte	0x5
 1192 006a 00       		.uleb128 0
 1193 006b 551D0000 		.4byte	.LASF17
 1194 006f 05       		.byte	0x5
 1195 0070 00       		.uleb128 0
 1196 0071 72260000 		.4byte	.LASF18
 1197 0075 05       		.byte	0x5
ARM GAS  /var/folders/_2/42wyrlld3p52fkcpt1lv6gxh0000gp/T//ccCQ9Hi4.s 			page 22


 1198 0076 00       		.uleb128 0
 1199 0077 68060000 		.4byte	.LASF19
 1200 007b 05       		.byte	0x5
 1201 007c 00       		.uleb128 0
 1202 007d 69290000 		.4byte	.LASF20
 1203 0081 05       		.byte	0x5
 1204 0082 00       		.uleb128 0
 1205 0083 D1060000 		.4byte	.LASF21
 1206 0087 05       		.byte	0x5
 1207 0088 00       		.uleb128 0
 1208 0089 F9110000 		.4byte	.LASF22
 1209 008d 05       		.byte	0x5
 1210 008e 00       		.uleb128 0
 1211 008f 93200000 		.4byte	.LASF23
 1212 0093 05       		.byte	0x5
 1213 0094 00       		.uleb128 0
 1214 0095 E4040000 		.4byte	.LASF24
 1215 0099 05       		.byte	0x5
 1216 009a 00       		.uleb128 0
 1217 009b C1040000 		.4byte	.LASF25
 1218 009f 05       		.byte	0x5
 1219 00a0 00       		.uleb128 0
 1220 00a1 C81C0000 		.4byte	.LASF26
 1221 00a5 05       		.byte	0x5
 1222 00a6 00       		.uleb128 0
 1223 00a7 D5120000 		.4byte	.LASF27
 1224 00ab 05       		.byte	0x5
 1225 00ac 00       		.uleb128 0
 1226 00ad 3A130000 		.4byte	.LASF28
 1227 00b1 05       		.byte	0x5
 1228 00b2 00       		.uleb128 0
 1229 00b3 1A050000 		.4byte	.LASF29
 1230 00b7 05       		.byte	0x5
 1231 00b8 00       		.uleb128 0
 1232 00b9 8D250000 		.4byte	.LASF30
 1233 00bd 05       		.byte	0x5
 1234 00be 00       		.uleb128 0
 1235 00bf A4070000 		.4byte	.LASF31
 1236 00c3 05       		.byte	0x5
 1237 00c4 00       		.uleb128 0
 1238 00c5 77220000 		.4byte	.LASF32
 1239 00c9 05       		.byte	0x5
 1240 00ca 00       		.uleb128 0
 1241 00cb 202B0000 		.4byte	.LASF33
 1242 00cf 05       		.byte	0x5
 1243 00d0 00       		.uleb128 0
 1244 00d1 16300000 		.4byte	.LASF34
 1245 00d5 05       		.byte	0x5
 1246 00d6 00       		.uleb128 0
 1247 00d7 FD050000 		.4byte	.LASF35
 1248 00db 05       		.byte	0x5
 1249 00dc 00       		.uleb128 0
 1250 00dd 33200000 		.4byte	.LASF36
 1251 00e1 05       		.byte	0x5
 1252 00e2 00       		.uleb128 0
 1253 00e3 D61F0000 		.4byte	.LASF37
 1254 00e7 05       		.byte	0x5
ARM GAS  /var/folders/_2/42wyrlld3p52fkcpt1lv6gxh0000gp/T//ccCQ9Hi4.s 			page 23


 1255 00e8 00       		.uleb128 0
 1256 00e9 98310000 		.4byte	.LASF38
 1257 00ed 05       		.byte	0x5
 1258 00ee 00       		.uleb128 0
 1259 00ef B92E0000 		.4byte	.LASF39
 1260 00f3 05       		.byte	0x5
 1261 00f4 00       		.uleb128 0
 1262 00f5 70200000 		.4byte	.LASF40
 1263 00f9 05       		.byte	0x5
 1264 00fa 00       		.uleb128 0
 1265 00fb 96230000 		.4byte	.LASF41
 1266 00ff 05       		.byte	0x5
 1267 0100 00       		.uleb128 0
 1268 0101 7E350000 		.4byte	.LASF42
 1269 0105 05       		.byte	0x5
 1270 0106 00       		.uleb128 0
 1271 0107 F0270000 		.4byte	.LASF43
 1272 010b 05       		.byte	0x5
 1273 010c 00       		.uleb128 0
 1274 010d 26060000 		.4byte	.LASF44
 1275 0111 05       		.byte	0x5
 1276 0112 00       		.uleb128 0
 1277 0113 E7260000 		.4byte	.LASF45
 1278 0117 05       		.byte	0x5
 1279 0118 00       		.uleb128 0
 1280 0119 10210000 		.4byte	.LASF46
 1281 011d 05       		.byte	0x5
 1282 011e 00       		.uleb128 0
 1283 011f 8F290000 		.4byte	.LASF47
 1284 0123 05       		.byte	0x5
 1285 0124 00       		.uleb128 0
 1286 0125 36140000 		.4byte	.LASF48
 1287 0129 05       		.byte	0x5
 1288 012a 00       		.uleb128 0
 1289 012b 4B2A0000 		.4byte	.LASF49
 1290 012f 05       		.byte	0x5
 1291 0130 00       		.uleb128 0
 1292 0131 80160000 		.4byte	.LASF50
 1293 0135 05       		.byte	0x5
 1294 0136 00       		.uleb128 0
 1295 0137 D71C0000 		.4byte	.LASF51
 1296 013b 05       		.byte	0x5
 1297 013c 00       		.uleb128 0
 1298 013d 9A190000 		.4byte	.LASF52
 1299 0141 05       		.byte	0x5
 1300 0142 00       		.uleb128 0
 1301 0143 22090000 		.4byte	.LASF53
 1302 0147 05       		.byte	0x5
 1303 0148 00       		.uleb128 0
 1304 0149 0C2A0000 		.4byte	.LASF54
 1305 014d 05       		.byte	0x5
 1306 014e 00       		.uleb128 0
 1307 014f 360A0000 		.4byte	.LASF55
 1308 0153 05       		.byte	0x5
 1309 0154 00       		.uleb128 0
 1310 0155 08150000 		.4byte	.LASF56
 1311 0159 05       		.byte	0x5
ARM GAS  /var/folders/_2/42wyrlld3p52fkcpt1lv6gxh0000gp/T//ccCQ9Hi4.s 			page 24


 1312 015a 00       		.uleb128 0
 1313 015b 4E240000 		.4byte	.LASF57
 1314 015f 05       		.byte	0x5
 1315 0160 00       		.uleb128 0
 1316 0161 A6050000 		.4byte	.LASF58
 1317 0165 05       		.byte	0x5
 1318 0166 00       		.uleb128 0
 1319 0167 660F0000 		.4byte	.LASF59
 1320 016b 05       		.byte	0x5
 1321 016c 00       		.uleb128 0
 1322 016d F6130000 		.4byte	.LASF60
 1323 0171 05       		.byte	0x5
 1324 0172 00       		.uleb128 0
 1325 0173 18310000 		.4byte	.LASF61
 1326 0177 05       		.byte	0x5
 1327 0178 00       		.uleb128 0
 1328 0179 690A0000 		.4byte	.LASF62
 1329 017d 05       		.byte	0x5
 1330 017e 00       		.uleb128 0
 1331 017f BF000000 		.4byte	.LASF63
 1332 0183 05       		.byte	0x5
 1333 0184 00       		.uleb128 0
 1334 0185 BB0F0000 		.4byte	.LASF64
 1335 0189 05       		.byte	0x5
 1336 018a 00       		.uleb128 0
 1337 018b CB2F0000 		.4byte	.LASF65
 1338 018f 05       		.byte	0x5
 1339 0190 00       		.uleb128 0
 1340 0191 EE210000 		.4byte	.LASF66
 1341 0195 05       		.byte	0x5
 1342 0196 00       		.uleb128 0
 1343 0197 FA060000 		.4byte	.LASF67
 1344 019b 05       		.byte	0x5
 1345 019c 00       		.uleb128 0
 1346 019d 390B0000 		.4byte	.LASF68
 1347 01a1 05       		.byte	0x5
 1348 01a2 00       		.uleb128 0
 1349 01a3 CD2D0000 		.4byte	.LASF69
 1350 01a7 05       		.byte	0x5
 1351 01a8 00       		.uleb128 0
 1352 01a9 71020000 		.4byte	.LASF70
 1353 01ad 05       		.byte	0x5
 1354 01ae 00       		.uleb128 0
 1355 01af 9C130000 		.4byte	.LASF71
 1356 01b3 05       		.byte	0x5
 1357 01b4 00       		.uleb128 0
 1358 01b5 84080000 		.4byte	.LASF72
 1359 01b9 05       		.byte	0x5
 1360 01ba 00       		.uleb128 0
 1361 01bb 26250000 		.4byte	.LASF73
 1362 01bf 05       		.byte	0x5
 1363 01c0 00       		.uleb128 0
 1364 01c1 D3050000 		.4byte	.LASF74
 1365 01c5 05       		.byte	0x5
 1366 01c6 00       		.uleb128 0
 1367 01c7 F11F0000 		.4byte	.LASF75
 1368 01cb 05       		.byte	0x5
ARM GAS  /var/folders/_2/42wyrlld3p52fkcpt1lv6gxh0000gp/T//ccCQ9Hi4.s 			page 25


 1369 01cc 00       		.uleb128 0
 1370 01cd D3140000 		.4byte	.LASF76
 1371 01d1 05       		.byte	0x5
 1372 01d2 00       		.uleb128 0
 1373 01d3 4F290000 		.4byte	.LASF77
 1374 01d7 05       		.byte	0x5
 1375 01d8 00       		.uleb128 0
 1376 01d9 F0300000 		.4byte	.LASF78
 1377 01dd 05       		.byte	0x5
 1378 01de 00       		.uleb128 0
 1379 01df 0A280000 		.4byte	.LASF79
 1380 01e3 05       		.byte	0x5
 1381 01e4 00       		.uleb128 0
 1382 01e5 EE030000 		.4byte	.LASF80
 1383 01e9 05       		.byte	0x5
 1384 01ea 00       		.uleb128 0
 1385 01eb 1F0D0000 		.4byte	.LASF81
 1386 01ef 05       		.byte	0x5
 1387 01f0 00       		.uleb128 0
 1388 01f1 68090000 		.4byte	.LASF82
 1389 01f5 05       		.byte	0x5
 1390 01f6 00       		.uleb128 0
 1391 01f7 81100000 		.4byte	.LASF83
 1392 01fb 05       		.byte	0x5
 1393 01fc 00       		.uleb128 0
 1394 01fd C6310000 		.4byte	.LASF84
 1395 0201 05       		.byte	0x5
 1396 0202 00       		.uleb128 0
 1397 0203 0C2D0000 		.4byte	.LASF85
 1398 0207 05       		.byte	0x5
 1399 0208 00       		.uleb128 0
 1400 0209 37070000 		.4byte	.LASF86
 1401 020d 05       		.byte	0x5
 1402 020e 00       		.uleb128 0
 1403 020f 00000000 		.4byte	.LASF87
 1404 0213 05       		.byte	0x5
 1405 0214 00       		.uleb128 0
 1406 0215 10230000 		.4byte	.LASF88
 1407 0219 05       		.byte	0x5
 1408 021a 00       		.uleb128 0
 1409 021b 200E0000 		.4byte	.LASF89
 1410 021f 05       		.byte	0x5
 1411 0220 00       		.uleb128 0
 1412 0221 0A200000 		.4byte	.LASF90
 1413 0225 05       		.byte	0x5
 1414 0226 00       		.uleb128 0
 1415 0227 F3250000 		.4byte	.LASF91
 1416 022b 05       		.byte	0x5
 1417 022c 00       		.uleb128 0
 1418 022d FD0D0000 		.4byte	.LASF92
 1419 0231 05       		.byte	0x5
 1420 0232 00       		.uleb128 0
 1421 0233 86180000 		.4byte	.LASF93
 1422 0237 05       		.byte	0x5
 1423 0238 00       		.uleb128 0
 1424 0239 AC180000 		.4byte	.LASF94
 1425 023d 05       		.byte	0x5
ARM GAS  /var/folders/_2/42wyrlld3p52fkcpt1lv6gxh0000gp/T//ccCQ9Hi4.s 			page 26


 1426 023e 00       		.uleb128 0
 1427 023f 1A220000 		.4byte	.LASF95
 1428 0243 05       		.byte	0x5
 1429 0244 00       		.uleb128 0
 1430 0245 531E0000 		.4byte	.LASF96
 1431 0249 05       		.byte	0x5
 1432 024a 00       		.uleb128 0
 1433 024b 221A0000 		.4byte	.LASF97
 1434 024f 05       		.byte	0x5
 1435 0250 00       		.uleb128 0
 1436 0251 8B0A0000 		.4byte	.LASF98
 1437 0255 05       		.byte	0x5
 1438 0256 00       		.uleb128 0
 1439 0257 4D080000 		.4byte	.LASF99
 1440 025b 05       		.byte	0x5
 1441 025c 00       		.uleb128 0
 1442 025d C2060000 		.4byte	.LASF100
 1443 0261 05       		.byte	0x5
 1444 0262 00       		.uleb128 0
 1445 0263 F6340000 		.4byte	.LASF101
 1446 0267 05       		.byte	0x5
 1447 0268 00       		.uleb128 0
 1448 0269 0F340000 		.4byte	.LASF102
 1449 026d 05       		.byte	0x5
 1450 026e 00       		.uleb128 0
 1451 026f A7170000 		.4byte	.LASF103
 1452 0273 05       		.byte	0x5
 1453 0274 00       		.uleb128 0
 1454 0275 17290000 		.4byte	.LASF104
 1455 0279 05       		.byte	0x5
 1456 027a 00       		.uleb128 0
 1457 027b 48310000 		.4byte	.LASF105
 1458 027f 05       		.byte	0x5
 1459 0280 00       		.uleb128 0
 1460 0281 BB010000 		.4byte	.LASF106
 1461 0285 05       		.byte	0x5
 1462 0286 00       		.uleb128 0
 1463 0287 F0350000 		.4byte	.LASF107
 1464 028b 05       		.byte	0x5
 1465 028c 00       		.uleb128 0
 1466 028d A3040000 		.4byte	.LASF108
 1467 0291 05       		.byte	0x5
 1468 0292 00       		.uleb128 0
 1469 0293 A2270000 		.4byte	.LASF109
 1470 0297 05       		.byte	0x5
 1471 0298 00       		.uleb128 0
 1472 0299 29120000 		.4byte	.LASF110
 1473 029d 05       		.byte	0x5
 1474 029e 00       		.uleb128 0
 1475 029f 9B0E0000 		.4byte	.LASF111
 1476 02a3 05       		.byte	0x5
 1477 02a4 00       		.uleb128 0
 1478 02a5 CF2B0000 		.4byte	.LASF112
 1479 02a9 05       		.byte	0x5
 1480 02aa 00       		.uleb128 0
 1481 02ab FD040000 		.4byte	.LASF113
 1482 02af 05       		.byte	0x5
ARM GAS  /var/folders/_2/42wyrlld3p52fkcpt1lv6gxh0000gp/T//ccCQ9Hi4.s 			page 27


 1483 02b0 00       		.uleb128 0
 1484 02b1 CA1B0000 		.4byte	.LASF114
 1485 02b5 05       		.byte	0x5
 1486 02b6 00       		.uleb128 0
 1487 02b7 891E0000 		.4byte	.LASF115
 1488 02bb 05       		.byte	0x5
 1489 02bc 00       		.uleb128 0
 1490 02bd EC0B0000 		.4byte	.LASF116
 1491 02c1 05       		.byte	0x5
 1492 02c2 00       		.uleb128 0
 1493 02c3 1B130000 		.4byte	.LASF117
 1494 02c7 05       		.byte	0x5
 1495 02c8 00       		.uleb128 0
 1496 02c9 D6160000 		.4byte	.LASF118
 1497 02cd 05       		.byte	0x5
 1498 02ce 00       		.uleb128 0
 1499 02cf D8280000 		.4byte	.LASF119
 1500 02d3 05       		.byte	0x5
 1501 02d4 00       		.uleb128 0
 1502 02d5 AE280000 		.4byte	.LASF120
 1503 02d9 05       		.byte	0x5
 1504 02da 00       		.uleb128 0
 1505 02db B32D0000 		.4byte	.LASF121
 1506 02df 05       		.byte	0x5
 1507 02e0 00       		.uleb128 0
 1508 02e1 5E340000 		.4byte	.LASF122
 1509 02e5 05       		.byte	0x5
 1510 02e6 00       		.uleb128 0
 1511 02e7 D30C0000 		.4byte	.LASF123
 1512 02eb 05       		.byte	0x5
 1513 02ec 00       		.uleb128 0
 1514 02ed 5A1F0000 		.4byte	.LASF124
 1515 02f1 05       		.byte	0x5
 1516 02f2 00       		.uleb128 0
 1517 02f3 68170000 		.4byte	.LASF125
 1518 02f7 05       		.byte	0x5
 1519 02f8 00       		.uleb128 0
 1520 02f9 3D2F0000 		.4byte	.LASF126
 1521 02fd 05       		.byte	0x5
 1522 02fe 00       		.uleb128 0
 1523 02ff C60E0000 		.4byte	.LASF127
 1524 0303 05       		.byte	0x5
 1525 0304 00       		.uleb128 0
 1526 0305 10160000 		.4byte	.LASF128
 1527 0309 05       		.byte	0x5
 1528 030a 00       		.uleb128 0
 1529 030b 140C0000 		.4byte	.LASF129
 1530 030f 05       		.byte	0x5
 1531 0310 00       		.uleb128 0
 1532 0311 8E330000 		.4byte	.LASF130
 1533 0315 05       		.byte	0x5
 1534 0316 00       		.uleb128 0
 1535 0317 D7300000 		.4byte	.LASF131
 1536 031b 05       		.byte	0x5
 1537 031c 00       		.uleb128 0
 1538 031d 6C2E0000 		.4byte	.LASF132
 1539 0321 05       		.byte	0x5
ARM GAS  /var/folders/_2/42wyrlld3p52fkcpt1lv6gxh0000gp/T//ccCQ9Hi4.s 			page 28


 1540 0322 00       		.uleb128 0
 1541 0323 31150000 		.4byte	.LASF133
 1542 0327 05       		.byte	0x5
 1543 0328 00       		.uleb128 0
 1544 0329 CA250000 		.4byte	.LASF134
 1545 032d 05       		.byte	0x5
 1546 032e 00       		.uleb128 0
 1547 032f 29020000 		.4byte	.LASF135
 1548 0333 05       		.byte	0x5
 1549 0334 00       		.uleb128 0
 1550 0335 5D1B0000 		.4byte	.LASF136
 1551 0339 05       		.byte	0x5
 1552 033a 00       		.uleb128 0
 1553 033b 0B0B0000 		.4byte	.LASF137
 1554 033f 05       		.byte	0x5
 1555 0340 00       		.uleb128 0
 1556 0341 23240000 		.4byte	.LASF138
 1557 0345 05       		.byte	0x5
 1558 0346 00       		.uleb128 0
 1559 0347 43360000 		.4byte	.LASF139
 1560 034b 05       		.byte	0x5
 1561 034c 00       		.uleb128 0
 1562 034d FD090000 		.4byte	.LASF140
 1563 0351 05       		.byte	0x5
 1564 0352 00       		.uleb128 0
 1565 0353 30310000 		.4byte	.LASF141
 1566 0357 05       		.byte	0x5
 1567 0358 00       		.uleb128 0
 1568 0359 92050000 		.4byte	.LASF142
 1569 035d 05       		.byte	0x5
 1570 035e 00       		.uleb128 0
 1571 035f F1190000 		.4byte	.LASF143
 1572 0363 05       		.byte	0x5
 1573 0364 00       		.uleb128 0
 1574 0365 59020000 		.4byte	.LASF144
 1575 0369 05       		.byte	0x5
 1576 036a 00       		.uleb128 0
 1577 036b F6160000 		.4byte	.LASF145
 1578 036f 05       		.byte	0x5
 1579 0370 00       		.uleb128 0
 1580 0371 351F0000 		.4byte	.LASF146
 1581 0375 05       		.byte	0x5
 1582 0376 00       		.uleb128 0
 1583 0377 97320000 		.4byte	.LASF147
 1584 037b 05       		.byte	0x5
 1585 037c 00       		.uleb128 0
 1586 037d 90000000 		.4byte	.LASF148
 1587 0381 05       		.byte	0x5
 1588 0382 00       		.uleb128 0
 1589 0383 6F030000 		.4byte	.LASF149
 1590 0387 05       		.byte	0x5
 1591 0388 00       		.uleb128 0
 1592 0389 022E0000 		.4byte	.LASF150
 1593 038d 05       		.byte	0x5
 1594 038e 00       		.uleb128 0
 1595 038f 220C0000 		.4byte	.LASF151
 1596 0393 05       		.byte	0x5
ARM GAS  /var/folders/_2/42wyrlld3p52fkcpt1lv6gxh0000gp/T//ccCQ9Hi4.s 			page 29


 1597 0394 00       		.uleb128 0
 1598 0395 39320000 		.4byte	.LASF152
 1599 0399 05       		.byte	0x5
 1600 039a 00       		.uleb128 0
 1601 039b 7A340000 		.4byte	.LASF153
 1602 039f 05       		.byte	0x5
 1603 03a0 00       		.uleb128 0
 1604 03a1 01310000 		.4byte	.LASF154
 1605 03a5 05       		.byte	0x5
 1606 03a6 00       		.uleb128 0
 1607 03a7 1C0F0000 		.4byte	.LASF155
 1608 03ab 05       		.byte	0x5
 1609 03ac 00       		.uleb128 0
 1610 03ad A31D0000 		.4byte	.LASF156
 1611 03b1 05       		.byte	0x5
 1612 03b2 00       		.uleb128 0
 1613 03b3 58060000 		.4byte	.LASF157
 1614 03b7 05       		.byte	0x5
 1615 03b8 00       		.uleb128 0
 1616 03b9 36220000 		.4byte	.LASF158
 1617 03bd 05       		.byte	0x5
 1618 03be 00       		.uleb128 0
 1619 03bf 6D2A0000 		.4byte	.LASF159
 1620 03c3 05       		.byte	0x5
 1621 03c4 00       		.uleb128 0
 1622 03c5 31270000 		.4byte	.LASF160
 1623 03c9 05       		.byte	0x5
 1624 03ca 00       		.uleb128 0
 1625 03cb 6C230000 		.4byte	.LASF161
 1626 03cf 05       		.byte	0x5
 1627 03d0 00       		.uleb128 0
 1628 03d1 FC330000 		.4byte	.LASF162
 1629 03d5 05       		.byte	0x5
 1630 03d6 00       		.uleb128 0
 1631 03d7 2F1D0000 		.4byte	.LASF163
 1632 03db 05       		.byte	0x5
 1633 03dc 00       		.uleb128 0
 1634 03dd B0210000 		.4byte	.LASF164
 1635 03e1 05       		.byte	0x5
 1636 03e2 00       		.uleb128 0
 1637 03e3 142F0000 		.4byte	.LASF165
 1638 03e7 05       		.byte	0x5
 1639 03e8 00       		.uleb128 0
 1640 03e9 D4100000 		.4byte	.LASF166
 1641 03ed 05       		.byte	0x5
 1642 03ee 00       		.uleb128 0
 1643 03ef DA350000 		.4byte	.LASF167
 1644 03f3 05       		.byte	0x5
 1645 03f4 00       		.uleb128 0
 1646 03f5 D6210000 		.4byte	.LASF168
 1647 03f9 05       		.byte	0x5
 1648 03fa 00       		.uleb128 0
 1649 03fb D7270000 		.4byte	.LASF169
 1650 03ff 05       		.byte	0x5
 1651 0400 00       		.uleb128 0
 1652 0401 D4220000 		.4byte	.LASF170
 1653 0405 05       		.byte	0x5
ARM GAS  /var/folders/_2/42wyrlld3p52fkcpt1lv6gxh0000gp/T//ccCQ9Hi4.s 			page 30


 1654 0406 00       		.uleb128 0
 1655 0407 A12E0000 		.4byte	.LASF171
 1656 040b 05       		.byte	0x5
 1657 040c 00       		.uleb128 0
 1658 040d 3F120000 		.4byte	.LASF172
 1659 0411 05       		.byte	0x5
 1660 0412 00       		.uleb128 0
 1661 0413 BD0C0000 		.4byte	.LASF173
 1662 0417 05       		.byte	0x5
 1663 0418 00       		.uleb128 0
 1664 0419 45190000 		.4byte	.LASF174
 1665 041d 05       		.byte	0x5
 1666 041e 00       		.uleb128 0
 1667 041f 3F060000 		.4byte	.LASF175
 1668 0423 05       		.byte	0x5
 1669 0424 00       		.uleb128 0
 1670 0425 CB070000 		.4byte	.LASF176
 1671 0429 05       		.byte	0x5
 1672 042a 00       		.uleb128 0
 1673 042b 2D360000 		.4byte	.LASF177
 1674 042f 05       		.byte	0x5
 1675 0430 00       		.uleb128 0
 1676 0431 F7220000 		.4byte	.LASF178
 1677 0435 05       		.byte	0x5
 1678 0436 00       		.uleb128 0
 1679 0437 C1260000 		.4byte	.LASF179
 1680 043b 05       		.byte	0x5
 1681 043c 00       		.uleb128 0
 1682 043d 2A350000 		.4byte	.LASF180
 1683 0441 05       		.byte	0x5
 1684 0442 00       		.uleb128 0
 1685 0443 23100000 		.4byte	.LASF181
 1686 0447 05       		.byte	0x5
 1687 0448 00       		.uleb128 0
 1688 0449 39010000 		.4byte	.LASF182
 1689 044d 05       		.byte	0x5
 1690 044e 00       		.uleb128 0
 1691 044f 39000000 		.4byte	.LASF183
 1692 0453 05       		.byte	0x5
 1693 0454 00       		.uleb128 0
 1694 0455 80110000 		.4byte	.LASF184
 1695 0459 05       		.byte	0x5
 1696 045a 00       		.uleb128 0
 1697 045b C4150000 		.4byte	.LASF185
 1698 045f 05       		.byte	0x5
 1699 0460 00       		.uleb128 0
 1700 0461 7E270000 		.4byte	.LASF186
 1701 0465 05       		.byte	0x5
 1702 0466 00       		.uleb128 0
 1703 0467 60050000 		.4byte	.LASF187
 1704 046b 05       		.byte	0x5
 1705 046c 00       		.uleb128 0
 1706 046d B8330000 		.4byte	.LASF188
 1707 0471 05       		.byte	0x5
 1708 0472 00       		.uleb128 0
 1709 0473 510E0000 		.4byte	.LASF189
 1710 0477 05       		.byte	0x5
ARM GAS  /var/folders/_2/42wyrlld3p52fkcpt1lv6gxh0000gp/T//ccCQ9Hi4.s 			page 31


 1711 0478 00       		.uleb128 0
 1712 0479 AC080000 		.4byte	.LASF190
 1713 047d 05       		.byte	0x5
 1714 047e 00       		.uleb128 0
 1715 047f 84230000 		.4byte	.LASF191
 1716 0483 05       		.byte	0x5
 1717 0484 00       		.uleb128 0
 1718 0485 911D0000 		.4byte	.LASF192
 1719 0489 05       		.byte	0x5
 1720 048a 00       		.uleb128 0
 1721 048b 2A110000 		.4byte	.LASF193
 1722 048f 05       		.byte	0x5
 1723 0490 00       		.uleb128 0
 1724 0491 AD0D0000 		.4byte	.LASF194
 1725 0495 05       		.byte	0x5
 1726 0496 00       		.uleb128 0
 1727 0497 032C0000 		.4byte	.LASF195
 1728 049b 05       		.byte	0x5
 1729 049c 00       		.uleb128 0
 1730 049d 04290000 		.4byte	.LASF196
 1731 04a1 05       		.byte	0x5
 1732 04a2 00       		.uleb128 0
 1733 04a3 902F0000 		.4byte	.LASF197
 1734 04a7 05       		.byte	0x5
 1735 04a8 00       		.uleb128 0
 1736 04a9 AE030000 		.4byte	.LASF198
 1737 04ad 05       		.byte	0x5
 1738 04ae 00       		.uleb128 0
 1739 04af 00130000 		.4byte	.LASF199
 1740 04b3 05       		.byte	0x5
 1741 04b4 00       		.uleb128 0
 1742 04b5 81280000 		.4byte	.LASF200
 1743 04b9 05       		.byte	0x5
 1744 04ba 00       		.uleb128 0
 1745 04bb 3B170000 		.4byte	.LASF201
 1746 04bf 05       		.byte	0x5
 1747 04c0 00       		.uleb128 0
 1748 04c1 9F210000 		.4byte	.LASF202
 1749 04c5 05       		.byte	0x5
 1750 04c6 00       		.uleb128 0
 1751 04c7 49100000 		.4byte	.LASF203
 1752 04cb 05       		.byte	0x5
 1753 04cc 00       		.uleb128 0
 1754 04cd F6200000 		.4byte	.LASF204
 1755 04d1 05       		.byte	0x5
 1756 04d2 00       		.uleb128 0
 1757 04d3 4C2D0000 		.4byte	.LASF205
 1758 04d7 05       		.byte	0x5
 1759 04d8 00       		.uleb128 0
 1760 04d9 AC140000 		.4byte	.LASF206
 1761 04dd 05       		.byte	0x5
 1762 04de 00       		.uleb128 0
 1763 04df C2220000 		.4byte	.LASF207
 1764 04e3 05       		.byte	0x5
 1765 04e4 00       		.uleb128 0
 1766 04e5 5F210000 		.4byte	.LASF208
 1767 04e9 05       		.byte	0x5
ARM GAS  /var/folders/_2/42wyrlld3p52fkcpt1lv6gxh0000gp/T//ccCQ9Hi4.s 			page 32


 1768 04ea 00       		.uleb128 0
 1769 04eb 910D0000 		.4byte	.LASF209
 1770 04ef 05       		.byte	0x5
 1771 04f0 00       		.uleb128 0
 1772 04f1 401B0000 		.4byte	.LASF210
 1773 04f5 05       		.byte	0x5
 1774 04f6 00       		.uleb128 0
 1775 04f7 61190000 		.4byte	.LASF211
 1776 04fb 05       		.byte	0x5
 1777 04fc 00       		.uleb128 0
 1778 04fd FA070000 		.4byte	.LASF212
 1779 0501 05       		.byte	0x5
 1780 0502 00       		.uleb128 0
 1781 0503 A3020000 		.4byte	.LASF213
 1782 0507 05       		.byte	0x5
 1783 0508 00       		.uleb128 0
 1784 0509 CD340000 		.4byte	.LASF214
 1785 050d 05       		.byte	0x5
 1786 050e 00       		.uleb128 0
 1787 050f 490F0000 		.4byte	.LASF215
 1788 0513 05       		.byte	0x5
 1789 0514 00       		.uleb128 0
 1790 0515 1F200000 		.4byte	.LASF216
 1791 0519 05       		.byte	0x5
 1792 051a 00       		.uleb128 0
 1793 051b 6C0E0000 		.4byte	.LASF217
 1794 051f 05       		.byte	0x5
 1795 0520 00       		.uleb128 0
 1796 0521 F9150000 		.4byte	.LASF218
 1797 0525 05       		.byte	0x5
 1798 0526 00       		.uleb128 0
 1799 0527 422B0000 		.4byte	.LASF219
 1800 052b 05       		.byte	0x5
 1801 052c 00       		.uleb128 0
 1802 052d 320E0000 		.4byte	.LASF220
 1803 0531 05       		.byte	0x5
 1804 0532 00       		.uleb128 0
 1805 0533 54180000 		.4byte	.LASF221
 1806 0537 05       		.byte	0x5
 1807 0538 00       		.uleb128 0
 1808 0539 58110000 		.4byte	.LASF222
 1809 053d 05       		.byte	0x5
 1810 053e 00       		.uleb128 0
 1811 053f 721F0000 		.4byte	.LASF223
 1812 0543 05       		.byte	0x5
 1813 0544 00       		.uleb128 0
 1814 0545 9B0B0000 		.4byte	.LASF224
 1815 0549 05       		.byte	0x5
 1816 054a 00       		.uleb128 0
 1817 054b 3D230000 		.4byte	.LASF225
 1818 054f 05       		.byte	0x5
 1819 0550 00       		.uleb128 0
 1820 0551 62220000 		.4byte	.LASF226
 1821 0555 05       		.byte	0x5
 1822 0556 00       		.uleb128 0
 1823 0557 F1080000 		.4byte	.LASF227
 1824 055b 05       		.byte	0x5
ARM GAS  /var/folders/_2/42wyrlld3p52fkcpt1lv6gxh0000gp/T//ccCQ9Hi4.s 			page 33


 1825 055c 00       		.uleb128 0
 1826 055d 030F0000 		.4byte	.LASF228
 1827 0561 05       		.byte	0x5
 1828 0562 00       		.uleb128 0
 1829 0563 34050000 		.4byte	.LASF229
 1830 0567 05       		.byte	0x5
 1831 0568 00       		.uleb128 0
 1832 0569 B9350000 		.4byte	.LASF230
 1833 056d 05       		.byte	0x5
 1834 056e 00       		.uleb128 0
 1835 056f DD0F0000 		.4byte	.LASF231
 1836 0573 05       		.byte	0x5
 1837 0574 00       		.uleb128 0
 1838 0575 01110000 		.4byte	.LASF232
 1839 0579 05       		.byte	0x5
 1840 057a 00       		.uleb128 0
 1841 057b 722B0000 		.4byte	.LASF233
 1842 057f 05       		.byte	0x5
 1843 0580 00       		.uleb128 0
 1844 0581 6C1D0000 		.4byte	.LASF234
 1845 0585 05       		.byte	0x5
 1846 0586 00       		.uleb128 0
 1847 0587 C5130000 		.4byte	.LASF235
 1848 058b 05       		.byte	0x5
 1849 058c 00       		.uleb128 0
 1850 058d 6B270000 		.4byte	.LASF236
 1851 0591 05       		.byte	0x5
 1852 0592 00       		.uleb128 0
 1853 0593 10170000 		.4byte	.LASF237
 1854 0597 05       		.byte	0x5
 1855 0598 00       		.uleb128 0
 1856 0599 532F0000 		.4byte	.LASF238
 1857 059d 05       		.byte	0x5
 1858 059e 00       		.uleb128 0
 1859 059f 0C120000 		.4byte	.LASF239
 1860 05a3 05       		.byte	0x5
 1861 05a4 00       		.uleb128 0
 1862 05a5 ED0C0000 		.4byte	.LASF240
 1863 05a9 05       		.byte	0x5
 1864 05aa 00       		.uleb128 0
 1865 05ab E3170000 		.4byte	.LASF241
 1866 05af 05       		.byte	0x5
 1867 05b0 00       		.uleb128 0
 1868 05b1 C2100000 		.4byte	.LASF242
 1869 05b5 05       		.byte	0x5
 1870 05b6 00       		.uleb128 0
 1871 05b7 4F200000 		.4byte	.LASF243
 1872 05bb 05       		.byte	0x5
 1873 05bc 00       		.uleb128 0
 1874 05bd A4220000 		.4byte	.LASF244
 1875 05c1 05       		.byte	0x5
 1876 05c2 00       		.uleb128 0
 1877 05c3 9F1B0000 		.4byte	.LASF245
 1878 05c7 05       		.byte	0x5
 1879 05c8 00       		.uleb128 0
 1880 05c9 171F0000 		.4byte	.LASF246
 1881 05cd 05       		.byte	0x5
ARM GAS  /var/folders/_2/42wyrlld3p52fkcpt1lv6gxh0000gp/T//ccCQ9Hi4.s 			page 34


 1882 05ce 00       		.uleb128 0
 1883 05cf C3160000 		.4byte	.LASF247
 1884 05d3 05       		.byte	0x5
 1885 05d4 00       		.uleb128 0
 1886 05d5 340F0000 		.4byte	.LASF248
 1887 05d9 05       		.byte	0x5
 1888 05da 00       		.uleb128 0
 1889 05db A1260000 		.4byte	.LASF249
 1890 05df 05       		.byte	0x5
 1891 05e0 00       		.uleb128 0
 1892 05e1 A5100000 		.4byte	.LASF250
 1893 05e5 05       		.byte	0x5
 1894 05e6 00       		.uleb128 0
 1895 05e7 181B0000 		.4byte	.LASF251
 1896 05eb 05       		.byte	0x5
 1897 05ec 00       		.uleb128 0
 1898 05ed ED120000 		.4byte	.LASF252
 1899 05f1 05       		.byte	0x5
 1900 05f2 00       		.uleb128 0
 1901 05f3 96090000 		.4byte	.LASF253
 1902 05f7 05       		.byte	0x5
 1903 05f8 00       		.uleb128 0
 1904 05f9 3A250000 		.4byte	.LASF254
 1905 05fd 05       		.byte	0x5
 1906 05fe 00       		.uleb128 0
 1907 05ff E62B0000 		.4byte	.LASF255
 1908 0603 05       		.byte	0x5
 1909 0604 00       		.uleb128 0
 1910 0605 2D210000 		.4byte	.LASF256
 1911 0609 05       		.byte	0x5
 1912 060a 00       		.uleb128 0
 1913 060b 26180000 		.4byte	.LASF257
 1914 060f 05       		.byte	0x5
 1915 0610 00       		.uleb128 0
 1916 0611 E6090000 		.4byte	.LASF258
 1917 0615 05       		.byte	0x5
 1918 0616 00       		.uleb128 0
 1919 0617 670D0000 		.4byte	.LASF259
 1920 061b 05       		.byte	0x5
 1921 061c 00       		.uleb128 0
 1922 061d 53010000 		.4byte	.LASF260
 1923 0621 05       		.byte	0x5
 1924 0622 00       		.uleb128 0
 1925 0623 16350000 		.4byte	.LASF261
 1926 0627 05       		.byte	0x5
 1927 0628 00       		.uleb128 0
 1928 0629 83060000 		.4byte	.LASF262
 1929 062d 05       		.byte	0x5
 1930 062e 00       		.uleb128 0
 1931 062f 57130000 		.4byte	.LASF263
 1932 0633 05       		.byte	0x5
 1933 0634 00       		.uleb128 0
 1934 0635 75150000 		.4byte	.LASF264
 1935 0639 05       		.byte	0x5
 1936 063a 00       		.uleb128 0
 1937 063b 9F150000 		.4byte	.LASF265
 1938 063f 05       		.byte	0x5
ARM GAS  /var/folders/_2/42wyrlld3p52fkcpt1lv6gxh0000gp/T//ccCQ9Hi4.s 			page 35


 1939 0640 00       		.uleb128 0
 1940 0641 41300000 		.4byte	.LASF266
 1941 0645 05       		.byte	0x5
 1942 0646 00       		.uleb128 0
 1943 0647 97080000 		.4byte	.LASF267
 1944 064b 05       		.byte	0x5
 1945 064c 00       		.uleb128 0
 1946 064d DE0A0000 		.4byte	.LASF268
 1947 0651 05       		.byte	0x5
 1948 0652 00       		.uleb128 0
 1949 0653 BA090000 		.4byte	.LASF269
 1950 0657 05       		.byte	0x5
 1951 0658 00       		.uleb128 0
 1952 0659 0C360000 		.4byte	.LASF270
 1953 065d 05       		.byte	0x5
 1954 065e 00       		.uleb128 0
 1955 065f 13330000 		.4byte	.LASF271
 1956 0663 05       		.byte	0x5
 1957 0664 00       		.uleb128 0
 1958 0665 CA010000 		.4byte	.LASF272
 1959 0669 05       		.byte	0x5
 1960 066a 00       		.uleb128 0
 1961 066b 2C290000 		.4byte	.LASF273
 1962 066f 05       		.byte	0x5
 1963 0670 00       		.uleb128 0
 1964 0671 E5230000 		.4byte	.LASF274
 1965 0675 05       		.byte	0x5
 1966 0676 00       		.uleb128 0
 1967 0677 47270000 		.4byte	.LASF275
 1968 067b 05       		.byte	0x5
 1969 067c 00       		.uleb128 0
 1970 067d BC250000 		.4byte	.LASF276
 1971 0681 05       		.byte	0x5
 1972 0682 00       		.uleb128 0
 1973 0683 76240000 		.4byte	.LASF277
 1974 0687 05       		.byte	0x5
 1975 0688 00       		.uleb128 0
 1976 0689 ED2F0000 		.4byte	.LASF278
 1977 068d 05       		.byte	0x5
 1978 068e 00       		.uleb128 0
 1979 068f 71280000 		.4byte	.LASF279
 1980 0693 05       		.byte	0x5
 1981 0694 00       		.uleb128 0
 1982 0695 B81D0000 		.4byte	.LASF280
 1983 0699 05       		.byte	0x5
 1984 069a 00       		.uleb128 0
 1985 069b 50260000 		.4byte	.LASF281
 1986 069f 05       		.byte	0x5
 1987 06a0 00       		.uleb128 0
 1988 06a1 80290000 		.4byte	.LASF282
 1989 06a5 05       		.byte	0x5
 1990 06a6 00       		.uleb128 0
 1991 06a7 D7260000 		.4byte	.LASF283
 1992 06ab 05       		.byte	0x5
 1993 06ac 00       		.uleb128 0
 1994 06ad 9D140000 		.4byte	.LASF284
 1995 06b1 05       		.byte	0x5
ARM GAS  /var/folders/_2/42wyrlld3p52fkcpt1lv6gxh0000gp/T//ccCQ9Hi4.s 			page 36


 1996 06b2 00       		.uleb128 0
 1997 06b3 4B2C0000 		.4byte	.LASF285
 1998 06b7 05       		.byte	0x5
 1999 06b8 00       		.uleb128 0
 2000 06b9 31160000 		.4byte	.LASF286
 2001 06bd 05       		.byte	0x5
 2002 06be 00       		.uleb128 0
 2003 06bf BA1B0000 		.4byte	.LASF287
 2004 06c3 05       		.byte	0x5
 2005 06c4 00       		.uleb128 0
 2006 06c5 D8010000 		.4byte	.LASF288
 2007 06c9 05       		.byte	0x5
 2008 06ca 00       		.uleb128 0
 2009 06cb A91C0000 		.4byte	.LASF289
 2010 06cf 05       		.byte	0x5
 2011 06d0 00       		.uleb128 0
 2012 06d1 7F0E0000 		.4byte	.LASF290
 2013 06d5 05       		.byte	0x5
 2014 06d6 00       		.uleb128 0
 2015 06d7 642B0000 		.4byte	.LASF291
 2016 06db 05       		.byte	0x5
 2017 06dc 00       		.uleb128 0
 2018 06dd 5B2C0000 		.4byte	.LASF292
 2019 06e1 05       		.byte	0x5
 2020 06e2 00       		.uleb128 0
 2021 06e3 8D130000 		.4byte	.LASF293
 2022 06e7 05       		.byte	0x5
 2023 06e8 00       		.uleb128 0
 2024 06e9 8C0B0000 		.4byte	.LASF294
 2025 06ed 05       		.byte	0x5
 2026 06ee 00       		.uleb128 0
 2027 06ef 7E0C0000 		.4byte	.LASF295
 2028 06f3 05       		.byte	0x5
 2029 06f4 00       		.uleb128 0
 2030 06f5 D5040000 		.4byte	.LASF296
 2031 06f9 05       		.byte	0x5
 2032 06fa 00       		.uleb128 0
 2033 06fb 1E000000 		.4byte	.LASF297
 2034 06ff 05       		.byte	0x5
 2035 0700 00       		.uleb128 0
 2036 0701 04330000 		.4byte	.LASF298
 2037 0705 05       		.byte	0x5
 2038 0706 00       		.uleb128 0
 2039 0707 C61D0000 		.4byte	.LASF299
 2040 070b 05       		.byte	0x5
 2041 070c 00       		.uleb128 0
 2042 070d 85240000 		.4byte	.LASF300
 2043 0711 05       		.byte	0x5
 2044 0712 00       		.uleb128 0
 2045 0713 76180000 		.4byte	.LASF301
 2046 0717 05       		.byte	0x5
 2047 0718 00       		.uleb128 0
 2048 0719 48110000 		.4byte	.LASF302
 2049 071d 05       		.byte	0x5
 2050 071e 00       		.uleb128 0
 2051 071f 5C230000 		.4byte	.LASF303
 2052 0723 05       		.byte	0x5
ARM GAS  /var/folders/_2/42wyrlld3p52fkcpt1lv6gxh0000gp/T//ccCQ9Hi4.s 			page 37


 2053 0724 00       		.uleb128 0
 2054 0725 590A0000 		.4byte	.LASF304
 2055 0729 05       		.byte	0x5
 2056 072a 00       		.uleb128 0
 2057 072b 82050000 		.4byte	.LASF305
 2058 072f 05       		.byte	0x5
 2059 0730 00       		.uleb128 0
 2060 0731 A9340000 		.4byte	.LASF306
 2061 0735 05       		.byte	0x5
 2062 0736 00       		.uleb128 0
 2063 0737 0E070000 		.4byte	.LASF307
 2064 073b 05       		.byte	0x5
 2065 073c 00       		.uleb128 0
 2066 073d 0C240000 		.4byte	.LASF308
 2067 0741 05       		.byte	0x5
 2068 0742 00       		.uleb128 0
 2069 0743 DA190000 		.4byte	.LASF309
 2070 0747 05       		.byte	0x5
 2071 0748 00       		.uleb128 0
 2072 0749 12060000 		.4byte	.LASF310
 2073 074d 05       		.byte	0x5
 2074 074e 00       		.uleb128 0
 2075 074f 670B0000 		.4byte	.LASF311
 2076 0753 05       		.byte	0x5
 2077 0754 00       		.uleb128 0
 2078 0755 540C0000 		.4byte	.LASF312
 2079 0759 05       		.byte	0x5
 2080 075a 00       		.uleb128 0
 2081 075b 5B160000 		.4byte	.LASF313
 2082 075f 05       		.byte	0x5
 2083 0760 00       		.uleb128 0
 2084 0761 111D0000 		.4byte	.LASF314
 2085 0765 05       		.byte	0x5
 2086 0766 00       		.uleb128 0
 2087 0767 7F140000 		.4byte	.LASF315
 2088 076b 05       		.byte	0x5
 2089 076c 00       		.uleb128 0
 2090 076d 001A0000 		.4byte	.LASF316
 2091 0771 05       		.byte	0x5
 2092 0772 00       		.uleb128 0
 2093 0773 992C0000 		.4byte	.LASF317
 2094 0777 05       		.byte	0x5
 2095 0778 00       		.uleb128 0
 2096 0779 05180000 		.4byte	.LASF318
 2097 077d 05       		.byte	0x5
 2098 077e 00       		.uleb128 0
 2099 077f 74300000 		.4byte	.LASF319
 2100 0783 05       		.byte	0x5
 2101 0784 00       		.uleb128 0
 2102 0785 64100000 		.4byte	.LASF320
 2103 0789 05       		.byte	0x5
 2104 078a 00       		.uleb128 0
 2105 078b 811B0000 		.4byte	.LASF321
 2106 078f 05       		.byte	0x5
 2107 0790 00       		.uleb128 0
 2108 0791 4D2E0000 		.4byte	.LASF322
 2109 0795 05       		.byte	0x5
ARM GAS  /var/folders/_2/42wyrlld3p52fkcpt1lv6gxh0000gp/T//ccCQ9Hi4.s 			page 38


 2110 0796 00       		.uleb128 0
 2111 0797 131E0000 		.4byte	.LASF323
 2112 079b 05       		.byte	0x5
 2113 079c 00       		.uleb128 0
 2114 079d AE2B0000 		.4byte	.LASF324
 2115 07a1 05       		.byte	0x5
 2116 07a2 00       		.uleb128 0
 2117 07a3 371E0000 		.4byte	.LASF325
 2118 07a7 05       		.byte	0x5
 2119 07a8 00       		.uleb128 0
 2120 07a9 62350000 		.4byte	.LASF326
 2121 07ad 05       		.byte	0x5
 2122 07ae 00       		.uleb128 0
 2123 07af 81090000 		.4byte	.LASF327
 2124 07b3 05       		.byte	0x5
 2125 07b4 00       		.uleb128 0
 2126 07b5 EF020000 		.4byte	.LASF328
 2127 07b9 05       		.byte	0x5
 2128 07ba 00       		.uleb128 0
 2129 07bb 13110000 		.4byte	.LASF329
 2130 07bf 05       		.byte	0x5
 2131 07c0 00       		.uleb128 0
 2132 07c1 A4350000 		.4byte	.LASF330
 2133 07c5 05       		.byte	0x5
 2134 07c6 00       		.uleb128 0
 2135 07c7 B9340000 		.4byte	.LASF331
 2136 07cb 05       		.byte	0x5
 2137 07cc 00       		.uleb128 0
 2138 07cd C7110000 		.4byte	.LASF332
 2139 07d1 05       		.byte	0x5
 2140 07d2 00       		.uleb128 0
 2141 07d3 23070000 		.4byte	.LASF333
 2142 07d7 05       		.byte	0x5
 2143 07d8 00       		.uleb128 0
 2144 07d9 94240000 		.4byte	.LASF334
 2145 07dd 05       		.byte	0x5
 2146 07de 00       		.uleb128 0
 2147 07df BF140000 		.4byte	.LASF335
 2148 07e3 05       		.byte	0x5
 2149 07e4 00       		.uleb128 0
 2150 07e5 8D0C0000 		.4byte	.LASF336
 2151 07e9 05       		.byte	0x5
 2152 07ea 00       		.uleb128 0
 2153 07eb C1020000 		.4byte	.LASF337
 2154 07ef 05       		.byte	0x5
 2155 07f0 00       		.uleb128 0
 2156 07f1 0D100000 		.4byte	.LASF338
 2157 07f5 05       		.byte	0x5
 2158 07f6 00       		.uleb128 0
 2159 07f7 871D0000 		.4byte	.LASF339
 2160 07fb 05       		.byte	0x5
 2161 07fc 00       		.uleb128 0
 2162 07fd 2E080000 		.4byte	.LASF340
 2163 0801 05       		.byte	0x5
 2164 0802 00       		.uleb128 0
 2165 0803 F2310000 		.4byte	.LASF341
 2166 0807 05       		.byte	0x5
ARM GAS  /var/folders/_2/42wyrlld3p52fkcpt1lv6gxh0000gp/T//ccCQ9Hi4.s 			page 39


 2167 0808 00       		.uleb128 0
 2168 0809 C4270000 		.4byte	.LASF342
 2169 080d 05       		.byte	0x5
 2170 080e 00       		.uleb128 0
 2171 080f 990A0000 		.4byte	.LASF343
 2172 0813 05       		.byte	0x5
 2173 0814 00       		.uleb128 0
 2174 0815 681C0000 		.4byte	.LASF344
 2175 0819 05       		.byte	0x5
 2176 081a 00       		.uleb128 0
 2177 081b 2D000000 		.4byte	.LASF345
 2178 081f 05       		.byte	0x5
 2179 0820 00       		.uleb128 0
 2180 0821 8D120000 		.4byte	.LASF346
 2181 0825 05       		.byte	0x5
 2182 0826 00       		.uleb128 0
 2183 0827 F52D0000 		.4byte	.LASF347
 2184 082b 05       		.byte	0x5
 2185 082c 00       		.uleb128 0
 2186 082d 352B0000 		.4byte	.LASF348
 2187 0831 05       		.byte	0x5
 2188 0832 00       		.uleb128 0
 2189 0833 D42C0000 		.4byte	.LASF349
 2190 0837 05       		.byte	0x5
 2191 0838 00       		.uleb128 0
 2192 0839 D9230000 		.4byte	.LASF350
 2193 083d 05       		.byte	0x5
 2194 083e 00       		.uleb128 0
 2195 083f C60D0000 		.4byte	.LASF351
 2196 0843 05       		.byte	0x5
 2197 0844 00       		.uleb128 0
 2198 0845 97110000 		.4byte	.LASF352
 2199 0849 05       		.byte	0x5
 2200 084a 00       		.uleb128 0
 2201 084b 08270000 		.4byte	.LASF353
 2202 084f 05       		.byte	0x5
 2203 0850 00       		.uleb128 0
 2204 0851 35040000 		.4byte	.LASF354
 2205 0855 05       		.byte	0x5
 2206 0856 00       		.uleb128 0
 2207 0857 BD200000 		.4byte	.LASF355
 2208 085b 05       		.byte	0x5
 2209 085c 00       		.uleb128 0
 2210 085d F2330000 		.4byte	.LASF356
 2211 0861 05       		.byte	0x5
 2212 0862 00       		.uleb128 0
 2213 0863 A90C0000 		.4byte	.LASF357
 2214 0867 05       		.byte	0x5
 2215 0868 00       		.uleb128 0
 2216 0869 9F280000 		.4byte	.LASF358
 2217 086d 05       		.byte	0x5
 2218 086e 00       		.uleb128 0
 2219 086f 59140000 		.4byte	.LASF359
 2220 0873 05       		.byte	0x5
 2221 0874 00       		.uleb128 0
 2222 0875 D0170000 		.4byte	.LASF360
 2223 0879 05       		.byte	0x5
ARM GAS  /var/folders/_2/42wyrlld3p52fkcpt1lv6gxh0000gp/T//ccCQ9Hi4.s 			page 40


 2224 087a 00       		.uleb128 0
 2225 087b FC290000 		.4byte	.LASF361
 2226 087f 05       		.byte	0x5
 2227 0880 00       		.uleb128 0
 2228 0881 1F2C0000 		.4byte	.LASF362
 2229 0885 05       		.byte	0x5
 2230 0886 00       		.uleb128 0
 2231 0887 14010000 		.4byte	.LASF363
 2232 088b 00       		.byte	0
 2233              		.section	.debug_macro,"G",%progbits,wm4._newlib_version.h.4.ad342815780c8db09778091a421b5b5b,comda
 2234              	.Ldebug_macro2:
 2235 0000 0400     		.2byte	0x4
 2236 0002 00       		.byte	0
 2237 0003 05       		.byte	0x5
 2238 0004 04       		.uleb128 0x4
 2239 0005 E4060000 		.4byte	.LASF367
 2240 0009 05       		.byte	0x5
 2241 000a 06       		.uleb128 0x6
 2242 000b 7D0F0000 		.4byte	.LASF368
 2243 000f 05       		.byte	0x5
 2244 0010 07       		.uleb128 0x7
 2245 0011 8E0E0000 		.4byte	.LASF369
 2246 0015 05       		.byte	0x5
 2247 0016 08       		.uleb128 0x8
 2248 0017 230A0000 		.4byte	.LASF370
 2249 001b 05       		.byte	0x5
 2250 001c 09       		.uleb128 0x9
 2251 001d 23170000 		.4byte	.LASF371
 2252 0021 00       		.byte	0
 2253              		.section	.debug_macro,"G",%progbits,wm4.features.h.33.863f3be0b2e521e624fcc7d6fa31d2ca,comdat
 2254              	.Ldebug_macro3:
 2255 0000 0400     		.2byte	0x4
 2256 0002 00       		.byte	0
 2257 0003 05       		.byte	0x5
 2258 0004 21       		.uleb128 0x21
 2259 0005 1B030000 		.4byte	.LASF372
 2260 0009 05       		.byte	0x5
 2261 000a 28       		.uleb128 0x28
 2262 000b F0240000 		.4byte	.LASF373
 2263 000f 06       		.byte	0x6
 2264 0010 8001     		.uleb128 0x80
 2265 0012 4A1F0000 		.4byte	.LASF374
 2266 0016 05       		.byte	0x5
 2267 0017 8101     		.uleb128 0x81
 2268 0019 B3130000 		.4byte	.LASF375
 2269 001d 06       		.byte	0x6
 2270 001e 8501     		.uleb128 0x85
 2271 0020 B3040000 		.4byte	.LASF376
 2272 0024 05       		.byte	0x5
 2273 0025 8601     		.uleb128 0x86
 2274 0027 31300000 		.4byte	.LASF377
 2275 002b 06       		.byte	0x6
 2276 002c 8701     		.uleb128 0x87
 2277 002e 9E030000 		.4byte	.LASF378
 2278 0032 05       		.byte	0x5
 2279 0033 8801     		.uleb128 0x88
 2280 0035 E1110000 		.4byte	.LASF379
ARM GAS  /var/folders/_2/42wyrlld3p52fkcpt1lv6gxh0000gp/T//ccCQ9Hi4.s 			page 41


 2281 0039 06       		.byte	0x6
 2282 003a 9B01     		.uleb128 0x9b
 2283 003c 140A0000 		.4byte	.LASF380
 2284 0040 05       		.byte	0x5
 2285 0041 9C01     		.uleb128 0x9c
 2286 0043 A60A0000 		.4byte	.LASF381
 2287 0047 05       		.byte	0x5
 2288 0048 F201     		.uleb128 0xf2
 2289 004a 5F260000 		.4byte	.LASF382
 2290 004e 05       		.byte	0x5
 2291 004f F801     		.uleb128 0xf8
 2292 0051 16080000 		.4byte	.LASF383
 2293 0055 05       		.byte	0x5
 2294 0056 8002     		.uleb128 0x100
 2295 0058 0E140000 		.4byte	.LASF384
 2296 005c 05       		.byte	0x5
 2297 005d 8802     		.uleb128 0x108
 2298 005f A7250000 		.4byte	.LASF385
 2299 0063 05       		.byte	0x5
 2300 0064 9002     		.uleb128 0x110
 2301 0066 55280000 		.4byte	.LASF386
 2302 006a 05       		.byte	0x5
 2303 006b 9402     		.uleb128 0x114
 2304 006d 032F0000 		.4byte	.LASF387
 2305 0071 05       		.byte	0x5
 2306 0072 9A02     		.uleb128 0x11a
 2307 0074 D8020000 		.4byte	.LASF388
 2308 0078 05       		.byte	0x5
 2309 0079 AA02     		.uleb128 0x12a
 2310 007b D51D0000 		.4byte	.LASF389
 2311 007f 05       		.byte	0x5
 2312 0080 BA02     		.uleb128 0x13a
 2313 0082 7F1C0000 		.4byte	.LASF390
 2314 0086 00       		.byte	0
 2315              		.section	.debug_macro,"G",%progbits,wm4._default_types.h.15.933e8edd27a65e0b69af4a865eb623d2,comda
 2316              	.Ldebug_macro4:
 2317 0000 0400     		.2byte	0x4
 2318 0002 00       		.byte	0
 2319 0003 05       		.byte	0x5
 2320 0004 0F       		.uleb128 0xf
 2321 0005 56270000 		.4byte	.LASF391
 2322 0009 05       		.byte	0x5
 2323 000a 21       		.uleb128 0x21
 2324 000b 0B0D0000 		.4byte	.LASF392
 2325 000f 05       		.byte	0x5
 2326 0010 2F       		.uleb128 0x2f
 2327 0011 2B1B0000 		.4byte	.LASF393
 2328 0015 05       		.byte	0x5
 2329 0016 45       		.uleb128 0x45
 2330 0017 E1130000 		.4byte	.LASF394
 2331 001b 05       		.byte	0x5
 2332 001c 5F       		.uleb128 0x5f
 2333 001d 6B110000 		.4byte	.LASF395
 2334 0021 05       		.byte	0x5
 2335 0022 7E       		.uleb128 0x7e
 2336 0023 DF150000 		.4byte	.LASF396
 2337 0027 05       		.byte	0x5
ARM GAS  /var/folders/_2/42wyrlld3p52fkcpt1lv6gxh0000gp/T//ccCQ9Hi4.s 			page 42


 2338 0028 9801     		.uleb128 0x98
 2339 002a 11190000 		.4byte	.LASF397
 2340 002e 05       		.byte	0x5
 2341 002f AE01     		.uleb128 0xae
 2342 0031 40160000 		.4byte	.LASF398
 2343 0035 05       		.byte	0x5
 2344 0036 C001     		.uleb128 0xc0
 2345 0038 4D170000 		.4byte	.LASF399
 2346 003c 06       		.byte	0x6
 2347 003d D601     		.uleb128 0xd6
 2348 003f 56300000 		.4byte	.LASF400
 2349 0043 00       		.byte	0
 2350              		.section	.debug_macro,"G",%progbits,wm4._intsup.h.10.b82bf99f69d6a5c085fc866de0d3eb9b,comdat
 2351              	.Ldebug_macro5:
 2352 0000 0400     		.2byte	0x4
 2353 0002 00       		.byte	0
 2354 0003 05       		.byte	0x5
 2355 0004 0A       		.uleb128 0xa
 2356 0005 F5170000 		.4byte	.LASF401
 2357 0009 05       		.byte	0x5
 2358 000a 10       		.uleb128 0x10
 2359 000b 312E0000 		.4byte	.LASF402
 2360 000f 05       		.byte	0x5
 2361 0010 1A       		.uleb128 0x1a
 2362 0011 6B140000 		.4byte	.LASF403
 2363 0015 05       		.byte	0x5
 2364 0016 21       		.uleb128 0x21
 2365 0017 04010000 		.4byte	.LASF404
 2366 001b 06       		.byte	0x6
 2367 001c 38       		.uleb128 0x38
 2368 001d D0270000 		.4byte	.LASF405
 2369 0021 06       		.byte	0x6
 2370 0022 39       		.uleb128 0x39
 2371 0023 7A060000 		.4byte	.LASF406
 2372 0027 06       		.byte	0x6
 2373 0028 3A       		.uleb128 0x3a
 2374 0029 8B010000 		.4byte	.LASF407
 2375 002d 06       		.byte	0x6
 2376 002e 3B       		.uleb128 0x3b
 2377 002f BE150000 		.4byte	.LASF408
 2378 0033 02       		.byte	0x2
 2379 0034 3C       		.uleb128 0x3c
 2380 0035 696E7400 		.ascii	"int\000"
 2381 0039 06       		.byte	0x6
 2382 003a 3D       		.uleb128 0x3d
 2383 003b F2070000 		.4byte	.LASF409
 2384 003f 06       		.byte	0x6
 2385 0040 3E       		.uleb128 0x3e
 2386 0041 790C0000 		.4byte	.LASF410
 2387 0045 05       		.byte	0x5
 2388 0046 3F       		.uleb128 0x3f
 2389 0047 E30C0000 		.4byte	.LASF411
 2390 004b 05       		.byte	0x5
 2391 004c 40       		.uleb128 0x40
 2392 004d CB300000 		.4byte	.LASF412
 2393 0051 05       		.byte	0x5
 2394 0052 41       		.uleb128 0x41
ARM GAS  /var/folders/_2/42wyrlld3p52fkcpt1lv6gxh0000gp/T//ccCQ9Hi4.s 			page 43


 2395 0053 26080000 		.4byte	.LASF413
 2396 0057 05       		.byte	0x5
 2397 0058 42       		.uleb128 0x42
 2398 0059 79050000 		.4byte	.LASF414
 2399 005d 05       		.byte	0x5
 2400 005e 43       		.uleb128 0x43
 2401 005f 2A1F0000 		.4byte	.LASF415
 2402 0063 05       		.byte	0x5
 2403 0064 44       		.uleb128 0x44
 2404 0065 320B0000 		.4byte	.LASF416
 2405 0069 05       		.byte	0x5
 2406 006a 45       		.uleb128 0x45
 2407 006b 41350000 		.4byte	.LASF417
 2408 006f 05       		.byte	0x5
 2409 0070 4E       		.uleb128 0x4e
 2410 0071 BF0A0000 		.4byte	.LASF418
 2411 0075 05       		.byte	0x5
 2412 0076 55       		.uleb128 0x55
 2413 0077 B6310000 		.4byte	.LASF419
 2414 007b 05       		.byte	0x5
 2415 007c 5D       		.uleb128 0x5d
 2416 007d 74210000 		.4byte	.LASF420
 2417 0081 05       		.byte	0x5
 2418 0082 68       		.uleb128 0x68
 2419 0083 F8280000 		.4byte	.LASF421
 2420 0087 05       		.byte	0x5
 2421 0088 73       		.uleb128 0x73
 2422 0089 96270000 		.4byte	.LASF422
 2423 008d 05       		.byte	0x5
 2424 008e 7C       		.uleb128 0x7c
 2425 008f 24160000 		.4byte	.LASF423
 2426 0093 05       		.byte	0x5
 2427 0094 8301     		.uleb128 0x83
 2428 0096 1D250000 		.4byte	.LASF424
 2429 009a 05       		.byte	0x5
 2430 009b 8C01     		.uleb128 0x8c
 2431 009d 6B150000 		.4byte	.LASF425
 2432 00a1 05       		.byte	0x5
 2433 00a2 9301     		.uleb128 0x93
 2434 00a4 05090000 		.4byte	.LASF426
 2435 00a8 05       		.byte	0x5
 2436 00a9 9E01     		.uleb128 0x9e
 2437 00ab FA140000 		.4byte	.LASF427
 2438 00af 05       		.byte	0x5
 2439 00b0 A201     		.uleb128 0xa2
 2440 00b2 E9220000 		.4byte	.LASF428
 2441 00b6 05       		.byte	0x5
 2442 00b7 AD01     		.uleb128 0xad
 2443 00b9 68180000 		.4byte	.LASF429
 2444 00bd 05       		.byte	0x5
 2445 00be B801     		.uleb128 0xb8
 2446 00c0 B9190000 		.4byte	.LASF430
 2447 00c4 05       		.byte	0x5
 2448 00c5 C101     		.uleb128 0xc1
 2449 00c7 CF0A0000 		.4byte	.LASF431
 2450 00cb 06       		.byte	0x6
 2451 00cc C301     		.uleb128 0xc3
ARM GAS  /var/folders/_2/42wyrlld3p52fkcpt1lv6gxh0000gp/T//ccCQ9Hi4.s 			page 44


 2452 00ce D0270000 		.4byte	.LASF405
 2453 00d2 06       		.byte	0x6
 2454 00d3 C401     		.uleb128 0xc4
 2455 00d5 7A060000 		.4byte	.LASF406
 2456 00d9 06       		.byte	0x6
 2457 00da C501     		.uleb128 0xc5
 2458 00dc 8B010000 		.4byte	.LASF407
 2459 00e0 06       		.byte	0x6
 2460 00e1 C601     		.uleb128 0xc6
 2461 00e3 BE150000 		.4byte	.LASF408
 2462 00e7 02       		.byte	0x2
 2463 00e8 C701     		.uleb128 0xc7
 2464 00ea 696E7400 		.ascii	"int\000"
 2465 00ee 06       		.byte	0x6
 2466 00ef C801     		.uleb128 0xc8
 2467 00f1 790C0000 		.4byte	.LASF410
 2468 00f5 06       		.byte	0x6
 2469 00f6 CD01     		.uleb128 0xcd
 2470 00f8 F2070000 		.4byte	.LASF409
 2471 00fc 00       		.byte	0
 2472              		.section	.debug_macro,"G",%progbits,wm4._stdint.h.10.f76354baea1c7088202064e6f3d4f5e3,comdat
 2473              	.Ldebug_macro6:
 2474 0000 0400     		.2byte	0x4
 2475 0002 00       		.byte	0
 2476 0003 05       		.byte	0x5
 2477 0004 0A       		.uleb128 0xa
 2478 0005 570B0000 		.4byte	.LASF432
 2479 0009 05       		.byte	0x5
 2480 000a 15       		.uleb128 0x15
 2481 000b E0250000 		.4byte	.LASF433
 2482 000f 05       		.byte	0x5
 2483 0010 1B       		.uleb128 0x1b
 2484 0011 83260000 		.4byte	.LASF434
 2485 0015 05       		.byte	0x5
 2486 0016 21       		.uleb128 0x21
 2487 0017 1D270000 		.4byte	.LASF435
 2488 001b 05       		.byte	0x5
 2489 001c 27       		.uleb128 0x27
 2490 001d 9B120000 		.4byte	.LASF436
 2491 0021 00       		.byte	0
 2492              		.section	.debug_macro,"G",%progbits,wm4.stdint.h.23.373a9d32a9e4c2e88fd347156532d281,comdat
 2493              	.Ldebug_macro7:
 2494 0000 0400     		.2byte	0x4
 2495 0002 00       		.byte	0
 2496 0003 05       		.byte	0x5
 2497 0004 17       		.uleb128 0x17
 2498 0005 49350000 		.4byte	.LASF437
 2499 0009 05       		.byte	0x5
 2500 000a 1D       		.uleb128 0x1d
 2501 000b BA1E0000 		.4byte	.LASF438
 2502 000f 05       		.byte	0x5
 2503 0010 23       		.uleb128 0x23
 2504 0011 931F0000 		.4byte	.LASF439
 2505 0015 05       		.byte	0x5
 2506 0016 29       		.uleb128 0x29
 2507 0017 F71C0000 		.4byte	.LASF440
 2508 001b 05       		.byte	0x5
ARM GAS  /var/folders/_2/42wyrlld3p52fkcpt1lv6gxh0000gp/T//ccCQ9Hi4.s 			page 45


 2509 001c 35       		.uleb128 0x35
 2510 001d A7000000 		.4byte	.LASF441
 2511 0021 05       		.byte	0x5
 2512 0022 3F       		.uleb128 0x3f
 2513 0023 F3230000 		.4byte	.LASF442
 2514 0027 05       		.byte	0x5
 2515 0028 49       		.uleb128 0x49
 2516 0029 F31E0000 		.4byte	.LASF443
 2517 002d 05       		.byte	0x5
 2518 002e 53       		.uleb128 0x53
 2519 002f 4F1C0000 		.4byte	.LASF444
 2520 0033 05       		.byte	0x5
 2521 0034 9301     		.uleb128 0x93
 2522 0036 CF240000 		.4byte	.LASF445
 2523 003a 05       		.byte	0x5
 2524 003b 9401     		.uleb128 0x94
 2525 003d 68080000 		.4byte	.LASF446
 2526 0041 05       		.byte	0x5
 2527 0042 9501     		.uleb128 0x95
 2528 0044 41210000 		.4byte	.LASF447
 2529 0048 05       		.byte	0x5
 2530 0049 AB01     		.uleb128 0xab
 2531 004b E7320000 		.4byte	.LASF448
 2532 004f 05       		.byte	0x5
 2533 0050 AC01     		.uleb128 0xac
 2534 0052 1E140000 		.4byte	.LASF449
 2535 0056 05       		.byte	0x5
 2536 0057 AD01     		.uleb128 0xad
 2537 0059 8F340000 		.4byte	.LASF450
 2538 005d 05       		.byte	0x5
 2539 005e B501     		.uleb128 0xb5
 2540 0060 5F040000 		.4byte	.LASF451
 2541 0064 05       		.byte	0x5
 2542 0065 B601     		.uleb128 0xb6
 2543 0067 E0000000 		.4byte	.LASF452
 2544 006b 05       		.byte	0x5
 2545 006c B701     		.uleb128 0xb7
 2546 006e 74190000 		.4byte	.LASF453
 2547 0072 05       		.byte	0x5
 2548 0073 C101     		.uleb128 0xc1
 2549 0075 23340000 		.4byte	.LASF454
 2550 0079 05       		.byte	0x5
 2551 007a C201     		.uleb128 0xc2
 2552 007c 942B0000 		.4byte	.LASF455
 2553 0080 05       		.byte	0x5
 2554 0081 C301     		.uleb128 0xc3
 2555 0083 A7160000 		.4byte	.LASF456
 2556 0087 05       		.byte	0x5
 2557 0088 CB01     		.uleb128 0xcb
 2558 008a 62250000 		.4byte	.LASF457
 2559 008e 05       		.byte	0x5
 2560 008f CC01     		.uleb128 0xcc
 2561 0091 950F0000 		.4byte	.LASF458
 2562 0095 05       		.byte	0x5
 2563 0096 CD01     		.uleb128 0xcd
 2564 0098 A32F0000 		.4byte	.LASF459
 2565 009c 05       		.byte	0x5
ARM GAS  /var/folders/_2/42wyrlld3p52fkcpt1lv6gxh0000gp/T//ccCQ9Hi4.s 			page 46


 2566 009d D701     		.uleb128 0xd7
 2567 009f D41E0000 		.4byte	.LASF460
 2568 00a3 05       		.byte	0x5
 2569 00a4 D801     		.uleb128 0xd8
 2570 00a6 3B280000 		.4byte	.LASF461
 2571 00aa 05       		.byte	0x5
 2572 00ab D901     		.uleb128 0xd9
 2573 00ad 4B0D0000 		.4byte	.LASF462
 2574 00b1 05       		.byte	0x5
 2575 00b2 E701     		.uleb128 0xe7
 2576 00b4 C2180000 		.4byte	.LASF463
 2577 00b8 05       		.byte	0x5
 2578 00b9 E801     		.uleb128 0xe8
 2579 00bb AF120000 		.4byte	.LASF464
 2580 00bf 05       		.byte	0x5
 2581 00c0 E901     		.uleb128 0xe9
 2582 00c2 01020000 		.4byte	.LASF465
 2583 00c6 05       		.byte	0x5
 2584 00c7 F901     		.uleb128 0xf9
 2585 00c9 00320000 		.4byte	.LASF466
 2586 00cd 05       		.byte	0x5
 2587 00ce FA01     		.uleb128 0xfa
 2588 00d0 D0290000 		.4byte	.LASF467
 2589 00d4 05       		.byte	0x5
 2590 00d5 FB01     		.uleb128 0xfb
 2591 00d7 ED180000 		.4byte	.LASF468
 2592 00db 05       		.byte	0x5
 2593 00dc 8902     		.uleb128 0x109
 2594 00de 90010000 		.4byte	.LASF469
 2595 00e2 05       		.byte	0x5
 2596 00e3 8A02     		.uleb128 0x10a
 2597 00e5 E62C0000 		.4byte	.LASF470
 2598 00e9 05       		.byte	0x5
 2599 00ea 8B02     		.uleb128 0x10b
 2600 00ec 40090000 		.4byte	.LASF471
 2601 00f0 05       		.byte	0x5
 2602 00f1 9902     		.uleb128 0x119
 2603 00f3 26330000 		.4byte	.LASF472
 2604 00f7 05       		.byte	0x5
 2605 00f8 9A02     		.uleb128 0x11a
 2606 00fa 4D330000 		.4byte	.LASF473
 2607 00fe 05       		.byte	0x5
 2608 00ff 9B02     		.uleb128 0x11b
 2609 0101 8F2D0000 		.4byte	.LASF474
 2610 0105 05       		.byte	0x5
 2611 0106 A902     		.uleb128 0x129
 2612 0108 AD1F0000 		.4byte	.LASF475
 2613 010c 05       		.byte	0x5
 2614 010d AA02     		.uleb128 0x12a
 2615 010f AC290000 		.4byte	.LASF476
 2616 0113 05       		.byte	0x5
 2617 0114 AB02     		.uleb128 0x12b
 2618 0116 FE030000 		.4byte	.LASF477
 2619 011a 05       		.byte	0x5
 2620 011b B902     		.uleb128 0x139
 2621 011d 7E170000 		.4byte	.LASF478
 2622 0121 05       		.byte	0x5
ARM GAS  /var/folders/_2/42wyrlld3p52fkcpt1lv6gxh0000gp/T//ccCQ9Hi4.s 			page 47


 2623 0122 BA02     		.uleb128 0x13a
 2624 0124 A7300000 		.4byte	.LASF479
 2625 0128 05       		.byte	0x5
 2626 0129 BB02     		.uleb128 0x13b
 2627 012b 1F260000 		.4byte	.LASF480
 2628 012f 05       		.byte	0x5
 2629 0130 C902     		.uleb128 0x149
 2630 0132 C5030000 		.4byte	.LASF481
 2631 0136 05       		.byte	0x5
 2632 0137 CA02     		.uleb128 0x14a
 2633 0139 47150000 		.4byte	.LASF482
 2634 013d 05       		.byte	0x5
 2635 013e CB02     		.uleb128 0x14b
 2636 0140 6A2F0000 		.4byte	.LASF483
 2637 0144 05       		.byte	0x5
 2638 0145 D902     		.uleb128 0x159
 2639 0147 7B320000 		.4byte	.LASF484
 2640 014b 05       		.byte	0x5
 2641 014c DA02     		.uleb128 0x15a
 2642 014e 1C010000 		.4byte	.LASF485
 2643 0152 05       		.byte	0x5
 2644 0153 E202     		.uleb128 0x162
 2645 0155 EF0F0000 		.4byte	.LASF486
 2646 0159 05       		.byte	0x5
 2647 015a EA02     		.uleb128 0x16a
 2648 015c 03030000 		.4byte	.LASF487
 2649 0160 05       		.byte	0x5
 2650 0161 F002     		.uleb128 0x170
 2651 0163 882A0000 		.4byte	.LASF488
 2652 0167 05       		.byte	0x5
 2653 0168 F102     		.uleb128 0x171
 2654 016a C50B0000 		.4byte	.LASF489
 2655 016e 05       		.byte	0x5
 2656 016f F502     		.uleb128 0x175
 2657 0171 7B2C0000 		.4byte	.LASF490
 2658 0175 05       		.byte	0x5
 2659 0176 F902     		.uleb128 0x179
 2660 0178 6F330000 		.4byte	.LASF491
 2661 017c 05       		.byte	0x5
 2662 017d FE02     		.uleb128 0x17e
 2663 017f 322D0000 		.4byte	.LASF492
 2664 0183 05       		.byte	0x5
 2665 0184 8903     		.uleb128 0x189
 2666 0186 3A180000 		.4byte	.LASF493
 2667 018a 05       		.byte	0x5
 2668 018b 9303     		.uleb128 0x193
 2669 018d DE200000 		.4byte	.LASF494
 2670 0191 05       		.byte	0x5
 2671 0192 9803     		.uleb128 0x198
 2672 0194 23280000 		.4byte	.LASF495
 2673 0198 05       		.byte	0x5
 2674 0199 9F03     		.uleb128 0x19f
 2675 019b 792D0000 		.4byte	.LASF496
 2676 019f 05       		.byte	0x5
 2677 01a0 A003     		.uleb128 0x1a0
 2678 01a2 97060000 		.4byte	.LASF497
 2679 01a6 05       		.byte	0x5
ARM GAS  /var/folders/_2/42wyrlld3p52fkcpt1lv6gxh0000gp/T//ccCQ9Hi4.s 			page 48


 2680 01a7 AB03     		.uleb128 0x1ab
 2681 01a9 AF110000 		.4byte	.LASF498
 2682 01ad 05       		.byte	0x5
 2683 01ae AC03     		.uleb128 0x1ac
 2684 01b0 8F1C0000 		.4byte	.LASF499
 2685 01b4 05       		.byte	0x5
 2686 01b5 B703     		.uleb128 0x1b7
 2687 01b7 8C070000 		.4byte	.LASF500
 2688 01bb 05       		.byte	0x5
 2689 01bc B803     		.uleb128 0x1b8
 2690 01be F91D0000 		.4byte	.LASF501
 2691 01c2 05       		.byte	0x5
 2692 01c3 C403     		.uleb128 0x1c4
 2693 01c5 5C300000 		.4byte	.LASF502
 2694 01c9 05       		.byte	0x5
 2695 01ca C503     		.uleb128 0x1c5
 2696 01cc E7010000 		.4byte	.LASF503
 2697 01d0 05       		.byte	0x5
 2698 01d1 D403     		.uleb128 0x1d4
 2699 01d3 1F320000 		.4byte	.LASF504
 2700 01d7 05       		.byte	0x5
 2701 01d8 D503     		.uleb128 0x1d5
 2702 01da 2F2A0000 		.4byte	.LASF505
 2703 01de 00       		.byte	0
 2704              		.section	.debug_line,"",%progbits
 2705              	.Ldebug_line0:
 2706 0000 AC020000 		.section	.debug_str,"MS",%progbits,1
 2706      02003C02 
 2706      00000201 
 2706      FB0E0D00 
 2706      01010101 
 2707              	.LASF87:
 2708 0000 5F5F5349 		.ascii	"__SIG_ATOMIC_MAX__ 0x7fffffff\000"
 2708      475F4154 
 2708      4F4D4943 
 2708      5F4D4158 
 2708      5F5F2030 
 2709              	.LASF297:
 2710 001e 5F5F5441 		.ascii	"__TA_FBIT__ 63\000"
 2710      5F464249 
 2710      545F5F20 
 2710      363300
 2711              	.LASF345:
 2712 002d 5F5F4152 		.ascii	"__ARMEL__ 1\000"
 2712      4D454C5F 
 2712      5F203100 
 2713              	.LASF183:
 2714 0039 5F5F4445 		.ascii	"__DEC64_SUBNORMAL_MIN__ 0.000000000000001E-383DD\000"
 2714      4336345F 
 2714      5355424E 
 2714      4F524D41 
 2714      4C5F4D49 
 2715              	.LASF511:
 2716 006a 5343425F 		.ascii	"SCB_FPDSCR *((uint32_t *)0xE000EF3CU)\000"
 2716      46504453 
 2716      4352202A 
 2716      28287569 
ARM GAS  /var/folders/_2/42wyrlld3p52fkcpt1lv6gxh0000gp/T//ccCQ9Hi4.s 			page 49


 2716      6E743332 
 2717              	.LASF148:
 2718 0090 5F5F4442 		.ascii	"__DBL_DECIMAL_DIG__ 17\000"
 2718      4C5F4445 
 2718      43494D41 
 2718      4C5F4449 
 2718      475F5F20 
 2719              	.LASF441:
 2720 00a7 5F5F696E 		.ascii	"__int_fast8_t_defined 1\000"
 2720      745F6661 
 2720      7374385F 
 2720      745F6465 
 2720      66696E65 
 2721              	.LASF63:
 2722 00bf 5F5F5549 		.ascii	"__UINT_FAST8_TYPE__ unsigned int\000"
 2722      4E545F46 
 2722      41535438 
 2722      5F545950 
 2722      455F5F20 
 2723              	.LASF452:
 2724 00e0 494E545F 		.ascii	"INT_LEAST8_MAX (__INT_LEAST8_MAX__)\000"
 2724      4C454153 
 2724      54385F4D 
 2724      41582028 
 2724      5F5F494E 
 2725              	.LASF404:
 2726 0104 5F5F6861 		.ascii	"__have_long32 1\000"
 2726      76655F6C 
 2726      6F6E6733 
 2726      32203100 
 2727              	.LASF363:
 2728 0114 5448554D 		.ascii	"THUMB 1\000"
 2728      42203100 
 2729              	.LASF485:
 2730 011c 494E544D 		.ascii	"INTMAX_MIN (-INTMAX_MAX - 1)\000"
 2730      41585F4D 
 2730      494E2028 
 2730      2D494E54 
 2730      4D41585F 
 2731              	.LASF182:
 2732 0139 5F5F4445 		.ascii	"__DEC64_EPSILON__ 1E-15DD\000"
 2732      4336345F 
 2732      45505349 
 2732      4C4F4E5F 
 2732      5F203145 
 2733              	.LASF260:
 2734 0153 5F5F554C 		.ascii	"__ULACCUM_EPSILON__ 0x1P-32ULK\000"
 2734      41434355 
 2734      4D5F4550 
 2734      53494C4F 
 2734      4E5F5F20 
 2735              	.LASF512:
 2736 0172 46504343 		.ascii	"FPCCR_ASPEN (0x1U << 31)\000"
 2736      525F4153 
 2736      50454E20 
 2736      28307831 
 2736      55203C3C 
ARM GAS  /var/folders/_2/42wyrlld3p52fkcpt1lv6gxh0000gp/T//ccCQ9Hi4.s 			page 50


 2737              	.LASF407:
 2738 018b 63686172 		.ascii	"char\000"
 2738      00
 2739              	.LASF469:
 2740 0190 494E545F 		.ascii	"INT_LEAST64_MIN (-__INT_LEAST64_MAX__ - 1)\000"
 2740      4C454153 
 2740      5436345F 
 2740      4D494E20 
 2740      282D5F5F 
 2741              	.LASF106:
 2742 01bb 5F5F5549 		.ascii	"__UINT8_C(c) c\000"
 2742      4E54385F 
 2742      43286329 
 2742      206300
 2743              	.LASF272:
 2744 01ca 5F5F5151 		.ascii	"__QQ_IBIT__ 0\000"
 2744      5F494249 
 2744      545F5F20 
 2744      3000
 2745              	.LASF288:
 2746 01d8 5F5F5544 		.ascii	"__UDQ_IBIT__ 0\000"
 2746      515F4942 
 2746      49545F5F 
 2746      203000
 2747              	.LASF503:
 2748 01e7 55494E54 		.ascii	"UINT64_C(x) __UINT64_C(x)\000"
 2748      36345F43 
 2748      28782920 
 2748      5F5F5549 
 2748      4E543634 
 2749              	.LASF465:
 2750 0201 55494E54 		.ascii	"UINT_LEAST32_MAX (__UINT_LEAST32_MAX__)\000"
 2750      5F4C4541 
 2750      53543332 
 2750      5F4D4158 
 2750      20285F5F 
 2751              	.LASF135:
 2752 0229 5F5F464C 		.ascii	"__FLT_MAX__ 3.4028234663852886e+38F\000"
 2752      545F4D41 
 2752      585F5F20 
 2752      332E3430 
 2752      32383233 
 2753              	.LASF554:
 2754 024d 5F5F6C61 		.ascii	"__late_init\000"
 2754      74655F69 
 2754      6E697400 
 2755              	.LASF144:
 2756 0259 5F5F4442 		.ascii	"__DBL_MIN_EXP__ (-1021)\000"
 2756      4C5F4D49 
 2756      4E5F4558 
 2756      505F5F20 
 2756      282D3130 
 2757              	.LASF70:
 2758 0271 5F5F6861 		.ascii	"__has_include_next(STR) __has_include_next__(STR)\000"
 2758      735F696E 
 2758      636C7564 
 2758      655F6E65 
ARM GAS  /var/folders/_2/42wyrlld3p52fkcpt1lv6gxh0000gp/T//ccCQ9Hi4.s 			page 51


 2758      78742853 
 2759              	.LASF213:
 2760 02a3 5F5F4C46 		.ascii	"__LFRACT_MIN__ (-0.5LR-0.5LR)\000"
 2760      52414354 
 2760      5F4D494E 
 2760      5F5F2028 
 2760      2D302E35 
 2761              	.LASF337:
 2762 02c1 5F5F4152 		.ascii	"__ARM_SIZEOF_WCHAR_T 4\000"
 2762      4D5F5349 
 2762      5A454F46 
 2762      5F574348 
 2762      41525F54 
 2763              	.LASF388:
 2764 02d8 5F5F504F 		.ascii	"__POSIX_VISIBLE 200809\000"
 2764      5349585F 
 2764      56495349 
 2764      424C4520 
 2764      32303038 
 2765              	.LASF328:
 2766 02ef 5F5F5349 		.ascii	"__SIZEOF_WINT_T__ 4\000"
 2766      5A454F46 
 2766      5F57494E 
 2766      545F545F 
 2766      5F203400 
 2767              	.LASF487:
 2768 0303 53495A45 		.ascii	"SIZE_MAX (__SIZE_MAX__)\000"
 2768      5F4D4158 
 2768      20285F5F 
 2768      53495A45 
 2768      5F4D4158 
 2769              	.LASF372:
 2770 031b 5F5F474E 		.ascii	"__GNUC_PREREQ(maj,min) ((__GNUC__ << 16) + __GNUC_M"
 2770      55435F50 
 2770      52455245 
 2770      51286D61 
 2770      6A2C6D69 
 2771 034e 494E4F52 		.ascii	"INOR__ >= ((maj) << 16) + (min))\000"
 2771      5F5F203E 
 2771      3D202828 
 2771      6D616A29 
 2771      203C3C20 
 2772              	.LASF149:
 2773 036f 5F5F4442 		.ascii	"__DBL_MAX__ ((double)1.7976931348623157e+308L)\000"
 2773      4C5F4D41 
 2773      585F5F20 
 2773      2828646F 
 2773      75626C65 
 2774              	.LASF378:
 2775 039e 5F504F53 		.ascii	"_POSIX_C_SOURCE\000"
 2775      49585F43 
 2775      5F534F55 
 2775      52434500 
 2776              	.LASF198:
 2777 03ae 5F5F5553 		.ascii	"__USFRACT_MIN__ 0.0UHR\000"
 2777      46524143 
 2777      545F4D49 
ARM GAS  /var/folders/_2/42wyrlld3p52fkcpt1lv6gxh0000gp/T//ccCQ9Hi4.s 			page 52


 2777      4E5F5F20 
 2777      302E3055 
 2778              	.LASF481:
 2779 03c5 494E545F 		.ascii	"INT_FAST64_MIN (-__INT_FAST64_MAX__ - 1)\000"
 2779      46415354 
 2779      36345F4D 
 2779      494E2028 
 2779      2D5F5F49 
 2780              	.LASF80:
 2781 03ee 5F5F5749 		.ascii	"__WINT_MIN__ 0U\000"
 2781      4E545F4D 
 2781      494E5F5F 
 2781      20305500 
 2782              	.LASF477:
 2783 03fe 55494E54 		.ascii	"UINT_FAST16_MAX (__UINT_FAST16_MAX__)\000"
 2783      5F464153 
 2783      5431365F 
 2783      4D415820 
 2783      285F5F55 
 2784              	.LASF6:
 2785 0424 5F5F474E 		.ascii	"__GNUC_MINOR__ 3\000"
 2785      55435F4D 
 2785      494E4F52 
 2785      5F5F2033 
 2785      00
 2786              	.LASF354:
 2787 0435 5F5F4152 		.ascii	"__ARM_ASM_SYNTAX_UNIFIED__ 1\000"
 2787      4D5F4153 
 2787      4D5F5359 
 2787      4E544158 
 2787      5F554E49 
 2788              	.LASF533:
 2789 0452 756E7369 		.ascii	"unsigned int\000"
 2789      676E6564 
 2789      20696E74 
 2789      00
 2790              	.LASF451:
 2791 045f 494E545F 		.ascii	"INT_LEAST8_MIN (-__INT_LEAST8_MAX__ - 1)\000"
 2791      4C454153 
 2791      54385F4D 
 2791      494E2028 
 2791      2D5F5F49 
 2792              	.LASF365:
 2793 0488 5F4D4143 		.ascii	"_MACHINE__DEFAULT_TYPES_H \000"
 2793      48494E45 
 2793      5F5F4445 
 2793      4641554C 
 2793      545F5459 
 2794              	.LASF108:
 2795 04a3 5F5F5549 		.ascii	"__UINT16_C(c) c\000"
 2795      4E543136 
 2795      5F432863 
 2795      29206300 
 2796              	.LASF376:
 2797 04b3 5F504F53 		.ascii	"_POSIX_SOURCE\000"
 2797      49585F53 
 2797      4F555243 
ARM GAS  /var/folders/_2/42wyrlld3p52fkcpt1lv6gxh0000gp/T//ccCQ9Hi4.s 			page 53


 2797      4500
 2798              	.LASF25:
 2799 04c1 5F5F5349 		.ascii	"__SIZEOF_SIZE_T__ 4\000"
 2799      5A454F46 
 2799      5F53495A 
 2799      455F545F 
 2799      5F203400 
 2800              	.LASF296:
 2801 04d5 5F5F4441 		.ascii	"__DA_IBIT__ 32\000"
 2801      5F494249 
 2801      545F5F20 
 2801      333200
 2802              	.LASF24:
 2803 04e4 5F5F5349 		.ascii	"__SIZEOF_LONG_DOUBLE__ 8\000"
 2803      5A454F46 
 2803      5F4C4F4E 
 2803      475F444F 
 2803      55424C45 
 2804              	.LASF113:
 2805 04fd 5F5F494E 		.ascii	"__INT_FAST8_MAX__ 0x7fffffff\000"
 2805      545F4641 
 2805      5354385F 
 2805      4D41585F 
 2805      5F203078 
 2806              	.LASF29:
 2807 051a 5F5F4F52 		.ascii	"__ORDER_BIG_ENDIAN__ 4321\000"
 2807      4445525F 
 2807      4249475F 
 2807      454E4449 
 2807      414E5F5F 
 2808              	.LASF229:
 2809 0534 5F5F554C 		.ascii	"__ULLFRACT_MAX__ 0XFFFFFFFFFFFFFFFFP-64ULLR\000"
 2809      4C465241 
 2809      43545F4D 
 2809      41585F5F 
 2809      20305846 
 2810              	.LASF187:
 2811 0560 5F5F4445 		.ascii	"__DEC128_MIN__ 1E-6143DL\000"
 2811      43313238 
 2811      5F4D494E 
 2811      5F5F2031 
 2811      452D3631 
 2812              	.LASF414:
 2813 0579 73686F72 		.ascii	"short +1\000"
 2813      74202B31 
 2813      00
 2814              	.LASF305:
 2815 0582 5F5F5554 		.ascii	"__UTA_FBIT__ 64\000"
 2815      415F4642 
 2815      49545F5F 
 2815      20363400 
 2816              	.LASF142:
 2817 0592 5F5F4442 		.ascii	"__DBL_MANT_DIG__ 53\000"
 2817      4C5F4D41 
 2817      4E545F44 
 2817      49475F5F 
 2817      20353300 
ARM GAS  /var/folders/_2/42wyrlld3p52fkcpt1lv6gxh0000gp/T//ccCQ9Hi4.s 			page 54


 2818              	.LASF58:
 2819 05a6 5F5F5549 		.ascii	"__UINT_LEAST64_TYPE__ long long unsigned int\000"
 2819      4E545F4C 
 2819      45415354 
 2819      36345F54 
 2819      5950455F 
 2820              	.LASF74:
 2821 05d3 5F5F494E 		.ascii	"__INT_MAX__ 0x7fffffff\000"
 2821      545F4D41 
 2821      585F5F20 
 2821      30783766 
 2821      66666666 
 2822              	.LASF12:
 2823 05ea 5F5F4154 		.ascii	"__ATOMIC_RELEASE 3\000"
 2823      4F4D4943 
 2823      5F52454C 
 2823      45415345 
 2823      203300
 2824              	.LASF35:
 2825 05fd 5F5F5054 		.ascii	"__PTRDIFF_TYPE__ int\000"
 2825      52444946 
 2825      465F5459 
 2825      50455F5F 
 2825      20696E74 
 2826              	.LASF310:
 2827 0612 5F5F4348 		.ascii	"__CHAR_UNSIGNED__ 1\000"
 2827      41525F55 
 2827      4E534947 
 2827      4E45445F 
 2827      5F203100 
 2828              	.LASF44:
 2829 0626 5F5F494E 		.ascii	"__INT16_TYPE__ short int\000"
 2829      5431365F 
 2829      54595045 
 2829      5F5F2073 
 2829      686F7274 
 2830              	.LASF175:
 2831 063f 5F5F4445 		.ascii	"__DEC32_EPSILON__ 1E-6DF\000"
 2831      4333325F 
 2831      45505349 
 2831      4C4F4E5F 
 2831      5F203145 
 2832              	.LASF157:
 2833 0658 5F5F4C44 		.ascii	"__LDBL_DIG__ 15\000"
 2833      424C5F44 
 2833      49475F5F 
 2833      20313500 
 2834              	.LASF19:
 2835 0668 5F5F5349 		.ascii	"__SIZEOF_LONG__ 4\000"
 2835      5A454F46 
 2835      5F4C4F4E 
 2835      475F5F20 
 2835      3400
 2836              	.LASF406:
 2837 067a 756E7369 		.ascii	"unsigned\000"
 2837      676E6564 
 2837      00
ARM GAS  /var/folders/_2/42wyrlld3p52fkcpt1lv6gxh0000gp/T//ccCQ9Hi4.s 			page 55


 2838              	.LASF262:
 2839 0683 5F5F4C4C 		.ascii	"__LLACCUM_IBIT__ 32\000"
 2839      41434355 
 2839      4D5F4942 
 2839      49545F5F 
 2839      20333200 
 2840              	.LASF497:
 2841 0697 55494E54 		.ascii	"UINT8_C(x) __UINT8_C(x)\000"
 2841      385F4328 
 2841      7829205F 
 2841      5F55494E 
 2841      54385F43 
 2842              	.LASF10:
 2843 06af 5F5F4154 		.ascii	"__ATOMIC_SEQ_CST 5\000"
 2843      4F4D4943 
 2843      5F534551 
 2843      5F435354 
 2843      203500
 2844              	.LASF100:
 2845 06c2 5F5F494E 		.ascii	"__INT16_C(c) c\000"
 2845      5431365F 
 2845      43286329 
 2845      206300
 2846              	.LASF21:
 2847 06d1 5F5F5349 		.ascii	"__SIZEOF_SHORT__ 2\000"
 2847      5A454F46 
 2847      5F53484F 
 2847      52545F5F 
 2847      203200
 2848              	.LASF367:
 2849 06e4 5F4E4557 		.ascii	"_NEWLIB_VERSION_H__ 1\000"
 2849      4C49425F 
 2849      56455253 
 2849      494F4E5F 
 2849      485F5F20 
 2850              	.LASF67:
 2851 06fa 5F5F494E 		.ascii	"__INTPTR_TYPE__ int\000"
 2851      54505452 
 2851      5F545950 
 2851      455F5F20 
 2851      696E7400 
 2852              	.LASF307:
 2853 070e 5F5F5245 		.ascii	"__REGISTER_PREFIX__ \000"
 2853      47495354 
 2853      45525F50 
 2853      52454649 
 2853      585F5F20 
 2854              	.LASF333:
 2855 0723 5F5F4152 		.ascii	"__ARM_32BIT_STATE 1\000"
 2855      4D5F3332 
 2855      4249545F 
 2855      53544154 
 2855      45203100 
 2856              	.LASF86:
 2857 0737 5F5F5549 		.ascii	"__UINTMAX_C(c) c ## ULL\000"
 2857      4E544D41 
 2857      585F4328 
ARM GAS  /var/folders/_2/42wyrlld3p52fkcpt1lv6gxh0000gp/T//ccCQ9Hi4.s 			page 56


 2857      63292063 
 2857      20232320 
 2858              	.LASF514:
 2859 074f 53594D56 		.ascii	"SYMVAL(sym) (uint32_t)(((uint8_t *)&(sym)) - ((uint"
 2859      414C2873 
 2859      796D2920 
 2859      2875696E 
 2859      7433325F 
 2860 0782 385F7420 		.ascii	"8_t *)0))\000"
 2860      2A293029 
 2860      2900
 2861              	.LASF500:
 2862 078c 494E5433 		.ascii	"INT32_C(x) __INT32_C(x)\000"
 2862      325F4328 
 2862      7829205F 
 2862      5F494E54 
 2862      33325F43 
 2863              	.LASF31:
 2864 07a4 5F5F4259 		.ascii	"__BYTE_ORDER__ __ORDER_LITTLE_ENDIAN__\000"
 2864      54455F4F 
 2864      52444552 
 2864      5F5F205F 
 2864      5F4F5244 
 2865              	.LASF176:
 2866 07cb 5F5F4445 		.ascii	"__DEC32_SUBNORMAL_MIN__ 0.000001E-95DF\000"
 2866      4333325F 
 2866      5355424E 
 2866      4F524D41 
 2866      4C5F4D49 
 2867              	.LASF409:
 2868 07f2 5F5F696E 		.ascii	"__int20\000"
 2868      74323000 
 2869              	.LASF212:
 2870 07fa 5F5F4C46 		.ascii	"__LFRACT_IBIT__ 0\000"
 2870      52414354 
 2870      5F494249 
 2870      545F5F20 
 2870      3000
 2871              	.LASF542:
 2872 080c 5F746578 		.ascii	"_textdata\000"
 2872      74646174 
 2872      6100
 2873              	.LASF383:
 2874 0816 5F5F4253 		.ascii	"__BSD_VISIBLE 1\000"
 2874      445F5649 
 2874      5349424C 
 2874      45203100 
 2875              	.LASF413:
 2876 0826 63686172 		.ascii	"char +0\000"
 2876      202B3000 
 2877              	.LASF340:
 2878 082e 5F5F4152 		.ascii	"__ARM_ARCH 7\000"
 2878      4D5F4152 
 2878      43482037 
 2878      00
 2879              	.LASF3:
 2880 083b 5F5F5354 		.ascii	"__STDC_UTF_32__ 1\000"
ARM GAS  /var/folders/_2/42wyrlld3p52fkcpt1lv6gxh0000gp/T//ccCQ9Hi4.s 			page 57


 2880      44435F55 
 2880      54465F33 
 2880      325F5F20 
 2880      3100
 2881              	.LASF99:
 2882 084d 5F5F494E 		.ascii	"__INT_LEAST16_MAX__ 0x7fff\000"
 2882      545F4C45 
 2882      41535431 
 2882      365F4D41 
 2882      585F5F20 
 2883              	.LASF446:
 2884 0868 494E5450 		.ascii	"INTPTR_MAX (__INTPTR_MAX__)\000"
 2884      54525F4D 
 2884      41582028 
 2884      5F5F494E 
 2884      54505452 
 2885              	.LASF72:
 2886 0884 5F5F5343 		.ascii	"__SCHAR_MAX__ 0x7f\000"
 2886      4841525F 
 2886      4D41585F 
 2886      5F203078 
 2886      376600
 2887              	.LASF267:
 2888 0897 5F5F554C 		.ascii	"__ULLACCUM_IBIT__ 32\000"
 2888      4C414343 
 2888      554D5F49 
 2888      4249545F 
 2888      5F203332 
 2889              	.LASF190:
 2890 08ac 5F5F4445 		.ascii	"__DEC128_SUBNORMAL_MIN__ 0.000000000000000000000000"
 2890      43313238 
 2890      5F535542 
 2890      4E4F524D 
 2890      414C5F4D 
 2891 08df 30303030 		.ascii	"000000001E-6143DL\000"
 2891      30303030 
 2891      31452D36 
 2891      31343344 
 2891      4C00
 2892              	.LASF227:
 2893 08f1 5F5F554C 		.ascii	"__ULLFRACT_IBIT__ 0\000"
 2893      4C465241 
 2893      43545F49 
 2893      4249545F 
 2893      5F203000 
 2894              	.LASF426:
 2895 0905 5F5F4641 		.ascii	"__FAST32 \000"
 2895      53543332 
 2895      2000
 2896              	.LASF9:
 2897 090f 5F5F4154 		.ascii	"__ATOMIC_RELAXED 0\000"
 2897      4F4D4943 
 2897      5F52454C 
 2897      41584544 
 2897      203000
 2898              	.LASF53:
 2899 0922 5F5F494E 		.ascii	"__INT_LEAST32_TYPE__ long int\000"
ARM GAS  /var/folders/_2/42wyrlld3p52fkcpt1lv6gxh0000gp/T//ccCQ9Hi4.s 			page 58


 2899      545F4C45 
 2899      41535433 
 2899      325F5459 
 2899      50455F5F 
 2900              	.LASF471:
 2901 0940 55494E54 		.ascii	"UINT_LEAST64_MAX (__UINT_LEAST64_MAX__)\000"
 2901      5F4C4541 
 2901      53543634 
 2901      5F4D4158 
 2901      20285F5F 
 2902              	.LASF82:
 2903 0968 5F5F5349 		.ascii	"__SIZE_MAX__ 0xffffffffU\000"
 2903      5A455F4D 
 2903      41585F5F 
 2903      20307866 
 2903      66666666 
 2904              	.LASF327:
 2905 0981 5F5F5349 		.ascii	"__SIZEOF_WCHAR_T__ 4\000"
 2905      5A454F46 
 2905      5F574348 
 2905      41525F54 
 2905      5F5F2034 
 2906              	.LASF253:
 2907 0996 5F5F4C41 		.ascii	"__LACCUM_MIN__ (-0X1P31LK-0X1P31LK)\000"
 2907      4343554D 
 2907      5F4D494E 
 2907      5F5F2028 
 2907      2D305831 
 2908              	.LASF269:
 2909 09ba 5F5F554C 		.ascii	"__ULLACCUM_MAX__ 0XFFFFFFFFFFFFFFFFP-32ULLK\000"
 2909      4C414343 
 2909      554D5F4D 
 2909      41585F5F 
 2909      20305846 
 2910              	.LASF258:
 2911 09e6 5F5F554C 		.ascii	"__ULACCUM_MIN__ 0.0ULK\000"
 2911      41434355 
 2911      4D5F4D49 
 2911      4E5F5F20 
 2911      302E3055 
 2912              	.LASF140:
 2913 09fd 5F5F464C 		.ascii	"__FLT_HAS_INFINITY__ 1\000"
 2913      545F4841 
 2913      535F494E 
 2913      46494E49 
 2913      54595F5F 
 2914              	.LASF380:
 2915 0a14 5F415446 		.ascii	"_ATFILE_SOURCE\000"
 2915      494C455F 
 2915      534F5552 
 2915      434500
 2916              	.LASF370:
 2917 0a23 5F5F4E45 		.ascii	"__NEWLIB_MINOR__ 4\000"
 2917      574C4942 
 2917      5F4D494E 
 2917      4F525F5F 
 2917      203400
ARM GAS  /var/folders/_2/42wyrlld3p52fkcpt1lv6gxh0000gp/T//ccCQ9Hi4.s 			page 59


 2918              	.LASF55:
 2919 0a36 5F5F5549 		.ascii	"__UINT_LEAST8_TYPE__ unsigned char\000"
 2919      4E545F4C 
 2919      45415354 
 2919      385F5459 
 2919      50455F5F 
 2920              	.LASF304:
 2921 0a59 5F5F5544 		.ascii	"__UDA_IBIT__ 32\000"
 2921      415F4942 
 2921      49545F5F 
 2921      20333200 
 2922              	.LASF62:
 2923 0a69 5F5F494E 		.ascii	"__INT_FAST64_TYPE__ long long int\000"
 2923      545F4641 
 2923      53543634 
 2923      5F545950 
 2923      455F5F20 
 2924              	.LASF98:
 2925 0a8b 5F5F494E 		.ascii	"__INT8_C(c) c\000"
 2925      54385F43 
 2925      28632920 
 2925      6300
 2926              	.LASF343:
 2927 0a99 5F5F7468 		.ascii	"__thumb2__ 1\000"
 2927      756D6232 
 2927      5F5F2031 
 2927      00
 2928              	.LASF381:
 2929 0aa6 5F415446 		.ascii	"_ATFILE_SOURCE 1\000"
 2929      494C455F 
 2929      534F5552 
 2929      43452031 
 2929      00
 2930              	.LASF507:
 2931 0ab7 46414C53 		.ascii	"FALSE 0\000"
 2931      45203000 
 2932              	.LASF418:
 2933 0abf 5F494E54 		.ascii	"_INTPTR_EQ_INT \000"
 2933      5054525F 
 2933      45515F49 
 2933      4E542000 
 2934              	.LASF431:
 2935 0acf 5F5F4C45 		.ascii	"__LEAST64 \"ll\"\000"
 2935      41535436 
 2935      3420226C 
 2935      6C2200
 2936              	.LASF268:
 2937 0ade 5F5F554C 		.ascii	"__ULLACCUM_MIN__ 0.0ULLK\000"
 2937      4C414343 
 2937      554D5F4D 
 2937      494E5F5F 
 2937      20302E30 
 2938              	.LASF506:
 2939 0af7 5F474343 		.ascii	"_GCC_WRAP_STDINT_H \000"
 2939      5F575241 
 2939      505F5354 
 2939      44494E54 
ARM GAS  /var/folders/_2/42wyrlld3p52fkcpt1lv6gxh0000gp/T//ccCQ9Hi4.s 			page 60


 2939      5F482000 
 2940              	.LASF137:
 2941 0b0b 5F5F464C 		.ascii	"__FLT_EPSILON__ 1.1920928955078125e-7F\000"
 2941      545F4550 
 2941      53494C4F 
 2941      4E5F5F20 
 2941      312E3139 
 2942              	.LASF416:
 2943 0b32 696E7420 		.ascii	"int +2\000"
 2943      2B3200
 2944              	.LASF68:
 2945 0b39 5F5F5549 		.ascii	"__UINTPTR_TYPE__ unsigned int\000"
 2945      4E545054 
 2945      525F5459 
 2945      50455F5F 
 2945      20756E73 
 2946              	.LASF432:
 2947 0b57 5F535953 		.ascii	"_SYS__STDINT_H \000"
 2947      5F5F5354 
 2947      44494E54 
 2947      5F482000 
 2948              	.LASF311:
 2949 0b67 5F5F4743 		.ascii	"__GCC_HAVE_SYNC_COMPARE_AND_SWAP_1 1\000"
 2949      435F4841 
 2949      56455F53 
 2949      594E435F 
 2949      434F4D50 
 2950              	.LASF294:
 2951 0b8c 5F5F5341 		.ascii	"__SA_IBIT__ 16\000"
 2951      5F494249 
 2951      545F5F20 
 2951      313600
 2952              	.LASF224:
 2953 0b9b 5F5F4C4C 		.ascii	"__LLFRACT_MAX__ 0X7FFFFFFFFFFFFFFFP-63LLR\000"
 2953      46524143 
 2953      545F4D41 
 2953      585F5F20 
 2953      30583746 
 2954              	.LASF489:
 2955 0bc5 5349475F 		.ascii	"SIG_ATOMIC_MAX (__STDINT_EXP(INT_MAX))\000"
 2955      41544F4D 
 2955      49435F4D 
 2955      41582028 
 2955      5F5F5354 
 2956              	.LASF116:
 2957 0bec 5F5F494E 		.ascii	"__INT_FAST64_MAX__ 0x7fffffffffffffffLL\000"
 2957      545F4641 
 2957      53543634 
 2957      5F4D4158 
 2957      5F5F2030 
 2958              	.LASF129:
 2959 0c14 5F5F464C 		.ascii	"__FLT_DIG__ 6\000"
 2959      545F4449 
 2959      475F5F20 
 2959      3600
 2960              	.LASF151:
 2961 0c22 5F5F4442 		.ascii	"__DBL_EPSILON__ ((double)2.2204460492503131e-16L)\000"
ARM GAS  /var/folders/_2/42wyrlld3p52fkcpt1lv6gxh0000gp/T//ccCQ9Hi4.s 			page 61


 2961      4C5F4550 
 2961      53494C4F 
 2961      4E5F5F20 
 2961      2828646F 
 2962              	.LASF312:
 2963 0c54 5F5F4743 		.ascii	"__GCC_HAVE_SYNC_COMPARE_AND_SWAP_2 1\000"
 2963      435F4841 
 2963      56455F53 
 2963      594E435F 
 2963      434F4D50 
 2964              	.LASF410:
 2965 0c79 6C6F6E67 		.ascii	"long\000"
 2965      00
 2966              	.LASF295:
 2967 0c7e 5F5F4441 		.ascii	"__DA_FBIT__ 31\000"
 2967      5F464249 
 2967      545F5F20 
 2967      333100
 2968              	.LASF336:
 2969 0c8d 5F5F4152 		.ascii	"__ARM_SIZEOF_MINIMAL_ENUM 1\000"
 2969      4D5F5349 
 2969      5A454F46 
 2969      5F4D494E 
 2969      494D414C 
 2970              	.LASF357:
 2971 0ca9 5F5F5553 		.ascii	"__USES_INITFINI__ 1\000"
 2971      45535F49 
 2971      4E495446 
 2971      494E495F 
 2971      5F203100 
 2972              	.LASF173:
 2973 0cbd 5F5F4445 		.ascii	"__DEC32_MIN__ 1E-95DF\000"
 2973      4333325F 
 2973      4D494E5F 
 2973      5F203145 
 2973      2D393544 
 2974              	.LASF123:
 2975 0cd3 5F5F4743 		.ascii	"__GCC_IEC_559 0\000"
 2975      435F4945 
 2975      435F3535 
 2975      39203000 
 2976              	.LASF411:
 2977 0ce3 7369676E 		.ascii	"signed +0\000"
 2977      6564202B 
 2977      3000
 2978              	.LASF240:
 2979 0ced 5F5F5553 		.ascii	"__USACCUM_EPSILON__ 0x1P-8UHK\000"
 2979      41434355 
 2979      4D5F4550 
 2979      53494C4F 
 2979      4E5F5F20 
 2980              	.LASF392:
 2981 0d0b 5F5F5F69 		.ascii	"___int8_t_defined 1\000"
 2981      6E74385F 
 2981      745F6465 
 2981      66696E65 
 2981      64203100 
ARM GAS  /var/folders/_2/42wyrlld3p52fkcpt1lv6gxh0000gp/T//ccCQ9Hi4.s 			page 62


 2982              	.LASF81:
 2983 0d1f 5F5F5054 		.ascii	"__PTRDIFF_MAX__ 0x7fffffff\000"
 2983      52444946 
 2983      465F4D41 
 2983      585F5F20 
 2983      30783766 
 2984              	.LASF548:
 2985 0d3a 5F5F696E 		.ascii	"__init_array_end\000"
 2985      69745F61 
 2985      72726179 
 2985      5F656E64 
 2985      00
 2986              	.LASF462:
 2987 0d4b 55494E54 		.ascii	"UINT32_MAX (__UINT32_MAX__)\000"
 2987      33325F4D 
 2987      41582028 
 2987      5F5F5549 
 2987      4E543332 
 2988              	.LASF259:
 2989 0d67 5F5F554C 		.ascii	"__ULACCUM_MAX__ 0XFFFFFFFFFFFFFFFFP-32ULK\000"
 2989      41434355 
 2989      4D5F4D41 
 2989      585F5F20 
 2989      30584646 
 2990              	.LASF209:
 2991 0d91 5F5F5546 		.ascii	"__UFRACT_MAX__ 0XFFFFP-16UR\000"
 2991      52414354 
 2991      5F4D4158 
 2991      5F5F2030 
 2991      58464646 
 2992              	.LASF194:
 2993 0dad 5F5F5346 		.ascii	"__SFRACT_MAX__ 0X7FP-7HR\000"
 2993      52414354 
 2993      5F4D4158 
 2993      5F5F2030 
 2993      58374650 
 2994              	.LASF351:
 2995 0dc6 5F5F4152 		.ascii	"__ARM_EABI__ 1\000"
 2995      4D5F4541 
 2995      42495F5F 
 2995      203100
 2996              	.LASF366:
 2997 0dd5 5F535953 		.ascii	"_SYS_FEATURES_H \000"
 2997      5F464541 
 2997      54555245 
 2997      535F4820 
 2997      00
 2998              	.LASF532:
 2999 0de6 6C6F6E67 		.ascii	"long long unsigned int\000"
 2999      206C6F6E 
 2999      6720756E 
 2999      7369676E 
 2999      65642069 
 3000              	.LASF92:
 3001 0dfd 5F5F494E 		.ascii	"__INT64_MAX__ 0x7fffffffffffffffLL\000"
 3001      5436345F 
 3001      4D41585F 
ARM GAS  /var/folders/_2/42wyrlld3p52fkcpt1lv6gxh0000gp/T//ccCQ9Hi4.s 			page 63


 3001      5F203078 
 3001      37666666 
 3002              	.LASF89:
 3003 0e20 5F5F494E 		.ascii	"__INT8_MAX__ 0x7f\000"
 3003      54385F4D 
 3003      41585F5F 
 3003      20307837 
 3003      6600
 3004              	.LASF220:
 3005 0e32 5F5F554C 		.ascii	"__ULFRACT_EPSILON__ 0x1P-32ULR\000"
 3005      46524143 
 3005      545F4550 
 3005      53494C4F 
 3005      4E5F5F20 
 3006              	.LASF189:
 3007 0e51 5F5F4445 		.ascii	"__DEC128_EPSILON__ 1E-33DL\000"
 3007      43313238 
 3007      5F455053 
 3007      494C4F4E 
 3007      5F5F2031 
 3008              	.LASF217:
 3009 0e6c 5F5F554C 		.ascii	"__ULFRACT_IBIT__ 0\000"
 3009      46524143 
 3009      545F4942 
 3009      49545F5F 
 3009      203000
 3010              	.LASF290:
 3011 0e7f 5F5F5554 		.ascii	"__UTQ_IBIT__ 0\000"
 3011      515F4942 
 3011      49545F5F 
 3011      203000
 3012              	.LASF369:
 3013 0e8e 5F5F4E45 		.ascii	"__NEWLIB__ 2\000"
 3013      574C4942 
 3013      5F5F2032 
 3013      00
 3014              	.LASF111:
 3015 0e9b 5F5F5549 		.ascii	"__UINT_LEAST64_MAX__ 0xffffffffffffffffULL\000"
 3015      4E545F4C 
 3015      45415354 
 3015      36345F4D 
 3015      41585F5F 
 3016              	.LASF127:
 3017 0ec6 5F5F464C 		.ascii	"__FLT_RADIX__ 2\000"
 3017      545F5241 
 3017      4449585F 
 3017      5F203200 
 3018              	.LASF537:
 3019 0ed6 66756E63 		.ascii	"funcpp_t\000"
 3019      70705F74 
 3019      00
 3020              	.LASF517:
 3021 0edf 43525430 		.ascii	"CRT0_STACKS_FILL_PATTERN 0x55555555\000"
 3021      5F535441 
 3021      434B535F 
 3021      46494C4C 
 3021      5F504154 
ARM GAS  /var/folders/_2/42wyrlld3p52fkcpt1lv6gxh0000gp/T//ccCQ9Hi4.s 			page 64


 3022              	.LASF228:
 3023 0f03 5F5F554C 		.ascii	"__ULLFRACT_MIN__ 0.0ULLR\000"
 3023      4C465241 
 3023      43545F4D 
 3023      494E5F5F 
 3023      20302E30 
 3024              	.LASF155:
 3025 0f1c 5F5F4442 		.ascii	"__DBL_HAS_QUIET_NAN__ 1\000"
 3025      4C5F4841 
 3025      535F5155 
 3025      4945545F 
 3025      4E414E5F 
 3026              	.LASF248:
 3027 0f34 5F5F5541 		.ascii	"__UACCUM_MIN__ 0.0UK\000"
 3027      4343554D 
 3027      5F4D494E 
 3027      5F5F2030 
 3027      2E30554B 
 3028              	.LASF215:
 3029 0f49 5F5F4C46 		.ascii	"__LFRACT_EPSILON__ 0x1P-31LR\000"
 3029      52414354 
 3029      5F455053 
 3029      494C4F4E 
 3029      5F5F2030 
 3030              	.LASF59:
 3031 0f66 5F5F494E 		.ascii	"__INT_FAST8_TYPE__ int\000"
 3031      545F4641 
 3031      5354385F 
 3031      54595045 
 3031      5F5F2069 
 3032              	.LASF368:
 3033 0f7d 5F4E4557 		.ascii	"_NEWLIB_VERSION \"2.4.0\"\000"
 3033      4C49425F 
 3033      56455253 
 3033      494F4E20 
 3033      22322E34 
 3034              	.LASF458:
 3035 0f95 494E545F 		.ascii	"INT_LEAST16_MAX (__INT_LEAST16_MAX__)\000"
 3035      4C454153 
 3035      5431365F 
 3035      4D415820 
 3035      285F5F49 
 3036              	.LASF64:
 3037 0fbb 5F5F5549 		.ascii	"__UINT_FAST16_TYPE__ unsigned int\000"
 3037      4E545F46 
 3037      41535431 
 3037      365F5459 
 3037      50455F5F 
 3038              	.LASF231:
 3039 0fdd 5F5F5341 		.ascii	"__SACCUM_FBIT__ 7\000"
 3039      4343554D 
 3039      5F464249 
 3039      545F5F20 
 3039      3700
 3040              	.LASF486:
 3041 0fef 55494E54 		.ascii	"UINTMAX_MAX (__UINTMAX_MAX__)\000"
 3041      4D41585F 
ARM GAS  /var/folders/_2/42wyrlld3p52fkcpt1lv6gxh0000gp/T//ccCQ9Hi4.s 			page 65


 3041      4D415820 
 3041      285F5F55 
 3041      494E544D 
 3042              	.LASF338:
 3043 100d 5F5F4152 		.ascii	"__ARM_ARCH_PROFILE 77\000"
 3043      4D5F4152 
 3043      43485F50 
 3043      524F4649 
 3043      4C452037 
 3044              	.LASF181:
 3045 1023 5F5F4445 		.ascii	"__DEC64_MAX__ 9.999999999999999E384DD\000"
 3045      4336345F 
 3045      4D41585F 
 3045      5F20392E 
 3045      39393939 
 3046              	.LASF203:
 3047 1049 5F5F4652 		.ascii	"__FRACT_MIN__ (-0.5R-0.5R)\000"
 3047      4143545F 
 3047      4D494E5F 
 3047      5F20282D 
 3047      302E3552 
 3048              	.LASF320:
 3049 1064 5F5F4743 		.ascii	"__GCC_ATOMIC_INT_LOCK_FREE 2\000"
 3049      435F4154 
 3049      4F4D4943 
 3049      5F494E54 
 3049      5F4C4F43 
 3050              	.LASF83:
 3051 1081 5F5F494E 		.ascii	"__INTMAX_MAX__ 0x7fffffffffffffffLL\000"
 3051      544D4158 
 3051      5F4D4158 
 3051      5F5F2030 
 3051      78376666 
 3052              	.LASF250:
 3053 10a5 5F5F5541 		.ascii	"__UACCUM_EPSILON__ 0x1P-16UK\000"
 3053      4343554D 
 3053      5F455053 
 3053      494C4F4E 
 3053      5F5F2030 
 3054              	.LASF242:
 3055 10c2 5F5F4143 		.ascii	"__ACCUM_IBIT__ 16\000"
 3055      43554D5F 
 3055      49424954 
 3055      5F5F2031 
 3055      3600
 3056              	.LASF166:
 3057 10d4 5F5F4C44 		.ascii	"__LDBL_DENORM_MIN__ 4.9406564584124654e-324L\000"
 3057      424C5F44 
 3057      454E4F52 
 3057      4D5F4D49 
 3057      4E5F5F20 
 3058              	.LASF232:
 3059 1101 5F5F5341 		.ascii	"__SACCUM_IBIT__ 8\000"
 3059      4343554D 
 3059      5F494249 
 3059      545F5F20 
 3059      3800
ARM GAS  /var/folders/_2/42wyrlld3p52fkcpt1lv6gxh0000gp/T//ccCQ9Hi4.s 			page 66


 3060              	.LASF329:
 3061 1113 5F5F5349 		.ascii	"__SIZEOF_PTRDIFF_T__ 4\000"
 3061      5A454F46 
 3061      5F505452 
 3061      44494646 
 3061      5F545F5F 
 3062              	.LASF193:
 3063 112a 5F5F5346 		.ascii	"__SFRACT_MIN__ (-0.5HR-0.5HR)\000"
 3063      52414354 
 3063      5F4D494E 
 3063      5F5F2028 
 3063      2D302E35 
 3064              	.LASF302:
 3065 1148 5F5F5553 		.ascii	"__USA_IBIT__ 16\000"
 3065      415F4942 
 3065      49545F5F 
 3065      20313600 
 3066              	.LASF222:
 3067 1158 5F5F4C4C 		.ascii	"__LLFRACT_IBIT__ 0\000"
 3067      46524143 
 3067      545F4942 
 3067      49545F5F 
 3067      203000
 3068              	.LASF395:
 3069 116b 5F5F5F69 		.ascii	"___int64_t_defined 1\000"
 3069      6E743634 
 3069      5F745F64 
 3069      6566696E 
 3069      65642031 
 3070              	.LASF184:
 3071 1180 5F5F4445 		.ascii	"__DEC128_MANT_DIG__ 34\000"
 3071      43313238 
 3071      5F4D414E 
 3071      545F4449 
 3071      475F5F20 
 3072              	.LASF352:
 3073 1197 5F5F4152 		.ascii	"__ARM_ARCH_EXT_IDIV__ 1\000"
 3073      4D5F4152 
 3073      43485F45 
 3073      58545F49 
 3073      4449565F 
 3074              	.LASF498:
 3075 11af 494E5431 		.ascii	"INT16_C(x) __INT16_C(x)\000"
 3075      365F4328 
 3075      7829205F 
 3075      5F494E54 
 3075      31365F43 
 3076              	.LASF332:
 3077 11c7 5F5F4152 		.ascii	"__ARM_FEATURE_UNALIGNED 1\000"
 3077      4D5F4645 
 3077      41545552 
 3077      455F554E 
 3077      414C4947 
 3078              	.LASF379:
 3079 11e1 5F504F53 		.ascii	"_POSIX_C_SOURCE 200809L\000"
 3079      49585F43 
 3079      5F534F55 
ARM GAS  /var/folders/_2/42wyrlld3p52fkcpt1lv6gxh0000gp/T//ccCQ9Hi4.s 			page 67


 3079      52434520 
 3079      32303038 
 3080              	.LASF22:
 3081 11f9 5F5F5349 		.ascii	"__SIZEOF_FLOAT__ 4\000"
 3081      5A454F46 
 3081      5F464C4F 
 3081      41545F5F 
 3081      203400
 3082              	.LASF239:
 3083 120c 5F5F5553 		.ascii	"__USACCUM_MAX__ 0XFFFFP-8UHK\000"
 3083      41434355 
 3083      4D5F4D41 
 3083      585F5F20 
 3083      30584646 
 3084              	.LASF110:
 3085 1229 5F5F5549 		.ascii	"__UINT32_C(c) c ## UL\000"
 3085      4E543332 
 3085      5F432863 
 3085      29206320 
 3085      23232055 
 3086              	.LASF172:
 3087 123f 5F5F4445 		.ascii	"__DEC32_MAX_EXP__ 97\000"
 3087      4333325F 
 3087      4D41585F 
 3087      4558505F 
 3087      5F203937 
 3088              	.LASF5:
 3089 1254 5F5F474E 		.ascii	"__GNUC__ 5\000"
 3089      55435F5F 
 3089      203500
 3090              	.LASF510:
 3091 125f 5343425F 		.ascii	"SCB_FPCCR *((uint32_t *)0xE000EF34U)\000"
 3091      46504343 
 3091      52202A28 
 3091      2875696E 
 3091      7433325F 
 3092              	.LASF546:
 3093 1284 5F627373 		.ascii	"_bss_end\000"
 3093      5F656E64 
 3093      00
 3094              	.LASF346:
 3095 128d 5F5F5448 		.ascii	"__THUMBEL__ 1\000"
 3095      554D4245 
 3095      4C5F5F20 
 3095      3100
 3096              	.LASF436:
 3097 129b 5F5F696E 		.ascii	"__int64_t_defined 1\000"
 3097      7436345F 
 3097      745F6465 
 3097      66696E65 
 3097      64203100 
 3098              	.LASF464:
 3099 12af 494E545F 		.ascii	"INT_LEAST32_MAX (__INT_LEAST32_MAX__)\000"
 3099      4C454153 
 3099      5433325F 
 3099      4D415820 
 3099      285F5F49 
ARM GAS  /var/folders/_2/42wyrlld3p52fkcpt1lv6gxh0000gp/T//ccCQ9Hi4.s 			page 68


 3100              	.LASF27:
 3101 12d5 5F5F4249 		.ascii	"__BIGGEST_ALIGNMENT__ 8\000"
 3101      47474553 
 3101      545F414C 
 3101      49474E4D 
 3101      454E545F 
 3102              	.LASF252:
 3103 12ed 5F5F4C41 		.ascii	"__LACCUM_IBIT__ 32\000"
 3103      4343554D 
 3103      5F494249 
 3103      545F5F20 
 3103      333200
 3104              	.LASF199:
 3105 1300 5F5F5553 		.ascii	"__USFRACT_MAX__ 0XFFP-8UHR\000"
 3105      46524143 
 3105      545F4D41 
 3105      585F5F20 
 3105      30584646 
 3106              	.LASF117:
 3107 131b 5F5F5549 		.ascii	"__UINT_FAST8_MAX__ 0xffffffffU\000"
 3107      4E545F46 
 3107      41535438 
 3107      5F4D4158 
 3107      5F5F2030 
 3108              	.LASF28:
 3109 133a 5F5F4F52 		.ascii	"__ORDER_LITTLE_ENDIAN__ 1234\000"
 3109      4445525F 
 3109      4C495454 
 3109      4C455F45 
 3109      4E444941 
 3110              	.LASF263:
 3111 1357 5F5F4C4C 		.ascii	"__LLACCUM_MIN__ (-0X1P31LLK-0X1P31LLK)\000"
 3111      41434355 
 3111      4D5F4D49 
 3111      4E5F5F20 
 3111      282D3058 
 3112              	.LASF16:
 3113 137e 5F5F4F50 		.ascii	"__OPTIMIZE__ 1\000"
 3113      54494D49 
 3113      5A455F5F 
 3113      203100
 3114              	.LASF293:
 3115 138d 5F5F5341 		.ascii	"__SA_FBIT__ 15\000"
 3115      5F464249 
 3115      545F5F20 
 3115      313500
 3116              	.LASF71:
 3117 139c 5F5F4758 		.ascii	"__GXX_ABI_VERSION 1009\000"
 3117      585F4142 
 3117      495F5645 
 3117      5253494F 
 3117      4E203130 
 3118              	.LASF375:
 3119 13b3 5F444546 		.ascii	"_DEFAULT_SOURCE 1\000"
 3119      41554C54 
 3119      5F534F55 
 3119      52434520 
ARM GAS  /var/folders/_2/42wyrlld3p52fkcpt1lv6gxh0000gp/T//ccCQ9Hi4.s 			page 69


 3119      3100
 3120              	.LASF235:
 3121 13c5 5F5F5341 		.ascii	"__SACCUM_EPSILON__ 0x1P-7HK\000"
 3121      4343554D 
 3121      5F455053 
 3121      494C4F4E 
 3121      5F5F2030 
 3122              	.LASF394:
 3123 13e1 5F5F5F69 		.ascii	"___int32_t_defined 1\000"
 3123      6E743332 
 3123      5F745F64 
 3123      6566696E 
 3123      65642031 
 3124              	.LASF60:
 3125 13f6 5F5F494E 		.ascii	"__INT_FAST16_TYPE__ int\000"
 3125      545F4641 
 3125      53543136 
 3125      5F545950 
 3125      455F5F20 
 3126              	.LASF384:
 3127 140e 5F5F474E 		.ascii	"__GNU_VISIBLE 0\000"
 3127      555F5649 
 3127      5349424C 
 3127      45203000 
 3128              	.LASF449:
 3129 141e 494E5438 		.ascii	"INT8_MAX (__INT8_MAX__)\000"
 3129      5F4D4158 
 3129      20285F5F 
 3129      494E5438 
 3129      5F4D4158 
 3130              	.LASF48:
 3131 1436 5F5F5549 		.ascii	"__UINT16_TYPE__ short unsigned int\000"
 3131      4E543136 
 3131      5F545950 
 3131      455F5F20 
 3131      73686F72 
 3132              	.LASF359:
 3133 1459 45494E4B 		.ascii	"EINK_WRITECOUNT 3\000"
 3133      5F575249 
 3133      5445434F 
 3133      554E5420 
 3133      3300
 3134              	.LASF403:
 3135 146b 5F5F6861 		.ascii	"__have_longlong64 1\000"
 3135      76655F6C 
 3135      6F6E676C 
 3135      6F6E6736 
 3135      34203100 
 3136              	.LASF315:
 3137 147f 5F5F4743 		.ascii	"__GCC_ATOMIC_CHAR_LOCK_FREE 2\000"
 3137      435F4154 
 3137      4F4D4943 
 3137      5F434841 
 3137      525F4C4F 
 3138              	.LASF284:
 3139 149d 5F5F5548 		.ascii	"__UHQ_IBIT__ 0\000"
 3139      515F4942 
ARM GAS  /var/folders/_2/42wyrlld3p52fkcpt1lv6gxh0000gp/T//ccCQ9Hi4.s 			page 70


 3139      49545F5F 
 3139      203000
 3140              	.LASF206:
 3141 14ac 5F5F5546 		.ascii	"__UFRACT_FBIT__ 16\000"
 3141      52414354 
 3141      5F464249 
 3141      545F5F20 
 3141      313600
 3142              	.LASF335:
 3143 14bf 5F5F4152 		.ascii	"__ARM_FEATURE_CLZ 1\000"
 3143      4D5F4645 
 3143      41545552 
 3143      455F434C 
 3143      5A203100 
 3144              	.LASF76:
 3145 14d3 5F5F4C4F 		.ascii	"__LONG_LONG_MAX__ 0x7fffffffffffffffLL\000"
 3145      4E475F4C 
 3145      4F4E475F 
 3145      4D41585F 
 3145      5F203078 
 3146              	.LASF427:
 3147 14fa 5F5F4641 		.ascii	"__FAST64 \"ll\"\000"
 3147      53543634 
 3147      20226C6C 
 3147      2200
 3148              	.LASF56:
 3149 1508 5F5F5549 		.ascii	"__UINT_LEAST16_TYPE__ short unsigned int\000"
 3149      4E545F4C 
 3149      45415354 
 3149      31365F54 
 3149      5950455F 
 3150              	.LASF133:
 3151 1531 5F5F464C 		.ascii	"__FLT_MAX_10_EXP__ 38\000"
 3151      545F4D41 
 3151      585F3130 
 3151      5F455850 
 3151      5F5F2033 
 3152              	.LASF482:
 3153 1547 494E545F 		.ascii	"INT_FAST64_MAX (__INT_FAST64_MAX__)\000"
 3153      46415354 
 3153      36345F4D 
 3153      41582028 
 3153      5F5F494E 
 3154              	.LASF425:
 3155 156b 5F5F4641 		.ascii	"__FAST16 \000"
 3155      53543136 
 3155      2000
 3156              	.LASF264:
 3157 1575 5F5F4C4C 		.ascii	"__LLACCUM_MAX__ 0X7FFFFFFFFFFFFFFFP-31LLK\000"
 3157      41434355 
 3157      4D5F4D41 
 3157      585F5F20 
 3157      30583746 
 3158              	.LASF265:
 3159 159f 5F5F4C4C 		.ascii	"__LLACCUM_EPSILON__ 0x1P-31LLK\000"
 3159      41434355 
 3159      4D5F4550 
ARM GAS  /var/folders/_2/42wyrlld3p52fkcpt1lv6gxh0000gp/T//ccCQ9Hi4.s 			page 71


 3159      53494C4F 
 3159      4E5F5F20 
 3160              	.LASF408:
 3161 15be 73686F72 		.ascii	"short\000"
 3161      7400
 3162              	.LASF185:
 3163 15c4 5F5F4445 		.ascii	"__DEC128_MIN_EXP__ (-6142)\000"
 3163      43313238 
 3163      5F4D494E 
 3163      5F455850 
 3163      5F5F2028 
 3164              	.LASF396:
 3165 15df 5F5F5F69 		.ascii	"___int_least8_t_defined 1\000"
 3165      6E745F6C 
 3165      65617374 
 3165      385F745F 
 3165      64656669 
 3166              	.LASF218:
 3167 15f9 5F5F554C 		.ascii	"__ULFRACT_MIN__ 0.0ULR\000"
 3167      46524143 
 3167      545F4D49 
 3167      4E5F5F20 
 3167      302E3055 
 3168              	.LASF128:
 3169 1610 5F5F464C 		.ascii	"__FLT_MANT_DIG__ 24\000"
 3169      545F4D41 
 3169      4E545F44 
 3169      49475F5F 
 3169      20323400 
 3170              	.LASF423:
 3171 1624 5F5F494E 		.ascii	"__INT64 \"ll\"\000"
 3171      54363420 
 3171      226C6C22 
 3171      00
 3172              	.LASF286:
 3173 1631 5F5F5553 		.ascii	"__USQ_IBIT__ 0\000"
 3173      515F4942 
 3173      49545F5F 
 3173      203000
 3174              	.LASF398:
 3175 1640 5F5F5F69 		.ascii	"___int_least32_t_defined 1\000"
 3175      6E745F6C 
 3175      65617374 
 3175      33325F74 
 3175      5F646566 
 3176              	.LASF313:
 3177 165b 5F5F4743 		.ascii	"__GCC_HAVE_SYNC_COMPARE_AND_SWAP_4 1\000"
 3177      435F4841 
 3177      56455F53 
 3177      594E435F 
 3177      434F4D50 
 3178              	.LASF50:
 3179 1680 5F5F5549 		.ascii	"__UINT64_TYPE__ long long unsigned int\000"
 3179      4E543634 
 3179      5F545950 
 3179      455F5F20 
 3179      6C6F6E67 
ARM GAS  /var/folders/_2/42wyrlld3p52fkcpt1lv6gxh0000gp/T//ccCQ9Hi4.s 			page 72


 3180              	.LASF456:
 3181 16a7 55494E54 		.ascii	"UINT16_MAX (__UINT16_MAX__)\000"
 3181      31365F4D 
 3181      41582028 
 3181      5F5F5549 
 3181      4E543136 
 3182              	.LASF247:
 3183 16c3 5F5F5541 		.ascii	"__UACCUM_IBIT__ 16\000"
 3183      4343554D 
 3183      5F494249 
 3183      545F5F20 
 3183      313600
 3184              	.LASF118:
 3185 16d6 5F5F5549 		.ascii	"__UINT_FAST16_MAX__ 0xffffffffU\000"
 3185      4E545F46 
 3185      41535431 
 3185      365F4D41 
 3185      585F5F20 
 3186              	.LASF145:
 3187 16f6 5F5F4442 		.ascii	"__DBL_MIN_10_EXP__ (-307)\000"
 3187      4C5F4D49 
 3187      4E5F3130 
 3187      5F455850 
 3187      5F5F2028 
 3188              	.LASF237:
 3189 1710 5F5F5553 		.ascii	"__USACCUM_IBIT__ 8\000"
 3189      41434355 
 3189      4D5F4942 
 3189      49545F5F 
 3189      203800
 3190              	.LASF371:
 3191 1723 5F5F4E45 		.ascii	"__NEWLIB_PATCHLEVEL__ 0\000"
 3191      574C4942 
 3191      5F504154 
 3191      43484C45 
 3191      56454C5F 
 3192              	.LASF201:
 3193 173b 5F5F4652 		.ascii	"__FRACT_FBIT__ 15\000"
 3193      4143545F 
 3193      46424954 
 3193      5F5F2031 
 3193      3500
 3194              	.LASF399:
 3195 174d 5F5F5F69 		.ascii	"___int_least64_t_defined 1\000"
 3195      6E745F6C 
 3195      65617374 
 3195      36345F74 
 3195      5F646566 
 3196              	.LASF125:
 3197 1768 5F5F464C 		.ascii	"__FLT_EVAL_METHOD__ 0\000"
 3197      545F4556 
 3197      414C5F4D 
 3197      4554484F 
 3197      445F5F20 
 3198              	.LASF478:
 3199 177e 494E545F 		.ascii	"INT_FAST32_MIN (-__INT_FAST32_MAX__ - 1)\000"
 3199      46415354 
ARM GAS  /var/folders/_2/42wyrlld3p52fkcpt1lv6gxh0000gp/T//ccCQ9Hi4.s 			page 73


 3199      33325F4D 
 3199      494E2028 
 3199      2D5F5F49 
 3200              	.LASF103:
 3201 17a7 5F5F494E 		.ascii	"__INT_LEAST64_MAX__ 0x7fffffffffffffffLL\000"
 3201      545F4C45 
 3201      41535436 
 3201      345F4D41 
 3201      585F5F20 
 3202              	.LASF360:
 3203 17d0 45494E4B 		.ascii	"EINK_NUMBUFFERS 80\000"
 3203      5F4E554D 
 3203      42554646 
 3203      45525320 
 3203      383000
 3204              	.LASF241:
 3205 17e3 5F5F4143 		.ascii	"__ACCUM_FBIT__ 15\000"
 3205      43554D5F 
 3205      46424954 
 3205      5F5F2031 
 3205      3500
 3206              	.LASF401:
 3207 17f5 5F535953 		.ascii	"_SYS__INTSUP_H \000"
 3207      5F5F494E 
 3207      54535550 
 3207      5F482000 
 3208              	.LASF318:
 3209 1805 5F5F4743 		.ascii	"__GCC_ATOMIC_WCHAR_T_LOCK_FREE 2\000"
 3209      435F4154 
 3209      4F4D4943 
 3209      5F574348 
 3209      41525F54 
 3210              	.LASF257:
 3211 1826 5F5F554C 		.ascii	"__ULACCUM_IBIT__ 32\000"
 3211      41434355 
 3211      4D5F4942 
 3211      49545F5F 
 3211      20333200 
 3212              	.LASF493:
 3213 183a 57434841 		.ascii	"WCHAR_MAX (__WCHAR_MAX__)\000"
 3213      525F4D41 
 3213      5820285F 
 3213      5F574348 
 3213      41525F4D 
 3214              	.LASF221:
 3215 1854 5F5F4C4C 		.ascii	"__LLFRACT_FBIT__ 63\000"
 3215      46524143 
 3215      545F4642 
 3215      49545F5F 
 3215      20363300 
 3216              	.LASF429:
 3217 1868 5F5F4C45 		.ascii	"__LEAST16 \"h\"\000"
 3217      41535431 
 3217      36202268 
 3217      2200
 3218              	.LASF301:
 3219 1876 5F5F5553 		.ascii	"__USA_FBIT__ 16\000"
ARM GAS  /var/folders/_2/42wyrlld3p52fkcpt1lv6gxh0000gp/T//ccCQ9Hi4.s 			page 74


 3219      415F4642 
 3219      49545F5F 
 3219      20313600 
 3220              	.LASF93:
 3221 1886 5F5F5549 		.ascii	"__UINT8_MAX__ 0xff\000"
 3221      4E54385F 
 3221      4D41585F 
 3221      5F203078 
 3221      666600
 3222              	.LASF547:
 3223 1899 5F5F696E 		.ascii	"__init_array_start\000"
 3223      69745F61 
 3223      72726179 
 3223      5F737461 
 3223      727400
 3224              	.LASF94:
 3225 18ac 5F5F5549 		.ascii	"__UINT16_MAX__ 0xffff\000"
 3225      4E543136 
 3225      5F4D4158 
 3225      5F5F2030 
 3225      78666666 
 3226              	.LASF463:
 3227 18c2 494E545F 		.ascii	"INT_LEAST32_MIN (-__INT_LEAST32_MAX__ - 1)\000"
 3227      4C454153 
 3227      5433325F 
 3227      4D494E20 
 3227      282D5F5F 
 3228              	.LASF468:
 3229 18ed 55494E54 		.ascii	"UINT64_MAX (__UINT64_MAX__)\000"
 3229      36345F4D 
 3229      41582028 
 3229      5F5F5549 
 3229      4E543634 
 3230              	.LASF534:
 3231 1909 75696E74 		.ascii	"uint8_t\000"
 3231      385F7400 
 3232              	.LASF397:
 3233 1911 5F5F5F69 		.ascii	"___int_least16_t_defined 1\000"
 3233      6E745F6C 
 3233      65617374 
 3233      31365F74 
 3233      5F646566 
 3234              	.LASF513:
 3235 192c 46504343 		.ascii	"FPCCR_LSPEN (0x1U << 30)\000"
 3235      525F4C53 
 3235      50454E20 
 3235      28307831 
 3235      55203C3C 
 3236              	.LASF174:
 3237 1945 5F5F4445 		.ascii	"__DEC32_MAX__ 9.999999E96DF\000"
 3237      4333325F 
 3237      4D41585F 
 3237      5F20392E 
 3237      39393939 
 3238              	.LASF211:
 3239 1961 5F5F4C46 		.ascii	"__LFRACT_FBIT__ 31\000"
 3239      52414354 
ARM GAS  /var/folders/_2/42wyrlld3p52fkcpt1lv6gxh0000gp/T//ccCQ9Hi4.s 			page 75


 3239      5F464249 
 3239      545F5F20 
 3239      333100
 3240              	.LASF453:
 3241 1974 55494E54 		.ascii	"UINT_LEAST8_MAX (__UINT_LEAST8_MAX__)\000"
 3241      5F4C4541 
 3241      5354385F 
 3241      4D415820 
 3241      285F5F55 
 3242              	.LASF52:
 3243 199a 5F5F494E 		.ascii	"__INT_LEAST16_TYPE__ short int\000"
 3243      545F4C45 
 3243      41535431 
 3243      365F5459 
 3243      50455F5F 
 3244              	.LASF430:
 3245 19b9 5F5F4C45 		.ascii	"__LEAST32 \"l\"\000"
 3245      41535433 
 3245      3220226C 
 3245      2200
 3246              	.LASF549:
 3247 19c7 5F5F6669 		.ascii	"__fini_array_start\000"
 3247      6E695F61 
 3247      72726179 
 3247      5F737461 
 3247      727400
 3248              	.LASF309:
 3249 19da 5F5F474E 		.ascii	"__GNUC_STDC_INLINE__ 1\000"
 3249      55435F53 
 3249      5444435F 
 3249      494E4C49 
 3249      4E455F5F 
 3250              	.LASF143:
 3251 19f1 5F5F4442 		.ascii	"__DBL_DIG__ 15\000"
 3251      4C5F4449 
 3251      475F5F20 
 3251      313500
 3252              	.LASF316:
 3253 1a00 5F5F4743 		.ascii	"__GCC_ATOMIC_CHAR16_T_LOCK_FREE 2\000"
 3253      435F4154 
 3253      4F4D4943 
 3253      5F434841 
 3253      5231365F 
 3254              	.LASF97:
 3255 1a22 5F5F494E 		.ascii	"__INT_LEAST8_MAX__ 0x7f\000"
 3255      545F4C45 
 3255      41535438 
 3255      5F4D4158 
 3255      5F5F2030 
 3256              	.LASF551:
 3257 1a3a 474E5520 		.ascii	"GNU C99 5.3.1 20160307 (release) [ARM/embedded-5-br"
 3257      43393920 
 3257      352E332E 
 3257      31203230 
 3257      31363033 
 3258 1a6d 616E6368 		.ascii	"anch revision 234589] -mcpu=cortex-m3 -mno-thumb-in"
 3258      20726576 
ARM GAS  /var/folders/_2/42wyrlld3p52fkcpt1lv6gxh0000gp/T//ccCQ9Hi4.s 			page 76


 3258      6973696F 
 3258      6E203233 
 3258      34353839 
 3259 1aa0 74657277 		.ascii	"terwork -mthumb -g -gdwarf-2 -g3 -Os -std=gnu99 -fn"
 3259      6F726B20 
 3259      2D6D7468 
 3259      756D6220 
 3259      2D67202D 
 3260 1ad3 6F2D6F6D 		.ascii	"o-omit-frame-pointer -ffunction-sections -fdata-sec"
 3260      69742D66 
 3260      72616D65 
 3260      2D706F69 
 3260      6E746572 
 3261 1b06 74696F6E 		.ascii	"tions -fno-common\000"
 3261      73202D66 
 3261      6E6F2D63 
 3261      6F6D6D6F 
 3261      6E00
 3262              	.LASF251:
 3263 1b18 5F5F4C41 		.ascii	"__LACCUM_FBIT__ 31\000"
 3263      4343554D 
 3263      5F464249 
 3263      545F5F20 
 3263      333100
 3264              	.LASF393:
 3265 1b2b 5F5F5F69 		.ascii	"___int16_t_defined 1\000"
 3265      6E743136 
 3265      5F745F64 
 3265      6566696E 
 3265      65642031 
 3266              	.LASF210:
 3267 1b40 5F5F5546 		.ascii	"__UFRACT_EPSILON__ 0x1P-16UR\000"
 3267      52414354 
 3267      5F455053 
 3267      494C4F4E 
 3267      5F5F2030 
 3268              	.LASF136:
 3269 1b5d 5F5F464C 		.ascii	"__FLT_MIN__ 1.1754943508222875e-38F\000"
 3269      545F4D49 
 3269      4E5F5F20 
 3269      312E3137 
 3269      35343934 
 3270              	.LASF321:
 3271 1b81 5F5F4743 		.ascii	"__GCC_ATOMIC_LONG_LOCK_FREE 2\000"
 3271      435F4154 
 3271      4F4D4943 
 3271      5F4C4F4E 
 3271      475F4C4F 
 3272              	.LASF245:
 3273 1b9f 5F5F4143 		.ascii	"__ACCUM_EPSILON__ 0x1P-15K\000"
 3273      43554D5F 
 3273      45505349 
 3273      4C4F4E5F 
 3273      5F203078 
 3274              	.LASF287:
 3275 1bba 5F5F5544 		.ascii	"__UDQ_FBIT__ 64\000"
 3275      515F4642 
ARM GAS  /var/folders/_2/42wyrlld3p52fkcpt1lv6gxh0000gp/T//ccCQ9Hi4.s 			page 77


 3275      49545F5F 
 3275      20363400 
 3276              	.LASF114:
 3277 1bca 5F5F494E 		.ascii	"__INT_FAST16_MAX__ 0x7fffffff\000"
 3277      545F4641 
 3277      53543136 
 3277      5F4D4158 
 3277      5F5F2030 
 3278              	.LASF515:
 3279 1be8 66696C6C 		.ascii	"fill32(start,end,filler) { uint32_t *p1 = start; ui"
 3279      33322873 
 3279      74617274 
 3279      2C656E64 
 3279      2C66696C 
 3280 1c1b 6E743332 		.ascii	"nt32_t *p2 = end; while (p1 < p2) *p1++ = filler; }"
 3280      5F74202A 
 3280      7032203D 
 3280      20656E64 
 3280      3B207768 
 3281 1c4e 00       		.ascii	"\000"
 3282              	.LASF444:
 3283 1c4f 5F5F696E 		.ascii	"__int_fast64_t_defined 1\000"
 3283      745F6661 
 3283      73743634 
 3283      5F745F64 
 3283      6566696E 
 3284              	.LASF344:
 3285 1c68 5F5F4152 		.ascii	"__ARM_ARCH_ISA_THUMB 2\000"
 3285      4D5F4152 
 3285      43485F49 
 3285      53415F54 
 3285      48554D42 
 3286              	.LASF390:
 3287 1c7f 5F5F5853 		.ascii	"__XSI_VISIBLE 0\000"
 3287      495F5649 
 3287      5349424C 
 3287      45203000 
 3288              	.LASF499:
 3289 1c8f 55494E54 		.ascii	"UINT16_C(x) __UINT16_C(x)\000"
 3289      31365F43 
 3289      28782920 
 3289      5F5F5549 
 3289      4E543136 
 3290              	.LASF289:
 3291 1ca9 5F5F5554 		.ascii	"__UTQ_FBIT__ 128\000"
 3291      515F4642 
 3291      49545F5F 
 3291      20313238 
 3291      00
 3292              	.LASF531:
 3293 1cba 6C6F6E67 		.ascii	"long long int\000"
 3293      206C6F6E 
 3293      6720696E 
 3293      7400
 3294              	.LASF26:
 3295 1cc8 5F5F4348 		.ascii	"__CHAR_BIT__ 8\000"
 3295      41525F42 
ARM GAS  /var/folders/_2/42wyrlld3p52fkcpt1lv6gxh0000gp/T//ccCQ9Hi4.s 			page 78


 3295      49545F5F 
 3295      203800
 3296              	.LASF51:
 3297 1cd7 5F5F494E 		.ascii	"__INT_LEAST8_TYPE__ signed char\000"
 3297      545F4C45 
 3297      41535438 
 3297      5F545950 
 3297      455F5F20 
 3298              	.LASF440:
 3299 1cf7 5F5F696E 		.ascii	"__int_least64_t_defined 1\000"
 3299      745F6C65 
 3299      61737436 
 3299      345F745F 
 3299      64656669 
 3300              	.LASF314:
 3301 1d11 5F5F4743 		.ascii	"__GCC_ATOMIC_BOOL_LOCK_FREE 2\000"
 3301      435F4154 
 3301      4F4D4943 
 3301      5F424F4F 
 3301      4C5F4C4F 
 3302              	.LASF163:
 3303 1d2f 5F5F4C44 		.ascii	"__LDBL_MAX__ 1.7976931348623157e+308L\000"
 3303      424C5F4D 
 3303      41585F5F 
 3303      20312E37 
 3303      39373639 
 3304              	.LASF17:
 3305 1d55 5F5F4649 		.ascii	"__FINITE_MATH_ONLY__ 0\000"
 3305      4E495445 
 3305      5F4D4154 
 3305      485F4F4E 
 3305      4C595F5F 
 3306              	.LASF234:
 3307 1d6c 5F5F5341 		.ascii	"__SACCUM_MAX__ 0X7FFFP-7HK\000"
 3307      4343554D 
 3307      5F4D4158 
 3307      5F5F2030 
 3307      58374646 
 3308              	.LASF339:
 3309 1d87 5F5F6172 		.ascii	"__arm__ 1\000"
 3309      6D5F5F20 
 3309      3100
 3310              	.LASF192:
 3311 1d91 5F5F5346 		.ascii	"__SFRACT_IBIT__ 0\000"
 3311      52414354 
 3311      5F494249 
 3311      545F5F20 
 3311      3000
 3312              	.LASF156:
 3313 1da3 5F5F4C44 		.ascii	"__LDBL_MANT_DIG__ 53\000"
 3313      424C5F4D 
 3313      414E545F 
 3313      4449475F 
 3313      5F203533 
 3314              	.LASF280:
 3315 1db8 5F5F5451 		.ascii	"__TQ_IBIT__ 0\000"
 3315      5F494249 
ARM GAS  /var/folders/_2/42wyrlld3p52fkcpt1lv6gxh0000gp/T//ccCQ9Hi4.s 			page 79


 3315      545F5F20 
 3315      3000
 3316              	.LASF299:
 3317 1dc6 5F5F5548 		.ascii	"__UHA_FBIT__ 8\000"
 3317      415F4642 
 3317      49545F5F 
 3317      203800
 3318              	.LASF389:
 3319 1dd5 5F5F5356 		.ascii	"__SVID_VISIBLE 1\000"
 3319      49445F56 
 3319      49534942 
 3319      4C452031 
 3319      00
 3320              	.LASF14:
 3321 1de6 5F5F4154 		.ascii	"__ATOMIC_CONSUME 1\000"
 3321      4F4D4943 
 3321      5F434F4E 
 3321      53554D45 
 3321      203100
 3322              	.LASF501:
 3323 1df9 55494E54 		.ascii	"UINT32_C(x) __UINT32_C(x)\000"
 3323      33325F43 
 3323      28782920 
 3323      5F5F5549 
 3323      4E543332 
 3324              	.LASF323:
 3325 1e13 5F5F4743 		.ascii	"__GCC_ATOMIC_TEST_AND_SET_TRUEVAL 1\000"
 3325      435F4154 
 3325      4F4D4943 
 3325      5F544553 
 3325      545F414E 
 3326              	.LASF325:
 3327 1e37 5F5F4743 		.ascii	"__GCC_HAVE_DWARF2_CFI_ASM 1\000"
 3327      435F4841 
 3327      56455F44 
 3327      57415246 
 3327      325F4346 
 3328              	.LASF96:
 3329 1e53 5F5F5549 		.ascii	"__UINT64_MAX__ 0xffffffffffffffffULL\000"
 3329      4E543634 
 3329      5F4D4158 
 3329      5F5F2030 
 3329      78666666 
 3330              	.LASF550:
 3331 1e78 5F5F6669 		.ascii	"__fini_array_end\000"
 3331      6E695F61 
 3331      72726179 
 3331      5F656E64 
 3331      00
 3332              	.LASF115:
 3333 1e89 5F5F494E 		.ascii	"__INT_FAST32_MAX__ 0x7fffffff\000"
 3333      545F4641 
 3333      53543332 
 3333      5F4D4158 
 3333      5F5F2030 
 3334              	.LASF11:
 3335 1ea7 5F5F4154 		.ascii	"__ATOMIC_ACQUIRE 2\000"
ARM GAS  /var/folders/_2/42wyrlld3p52fkcpt1lv6gxh0000gp/T//ccCQ9Hi4.s 			page 80


 3335      4F4D4943 
 3335      5F414351 
 3335      55495245 
 3335      203200
 3336              	.LASF438:
 3337 1eba 5F5F696E 		.ascii	"__int_least16_t_defined 1\000"
 3337      745F6C65 
 3337      61737431 
 3337      365F745F 
 3337      64656669 
 3338              	.LASF460:
 3339 1ed4 494E5433 		.ascii	"INT32_MIN (-__INT32_MAX__ - 1)\000"
 3339      325F4D49 
 3339      4E20282D 
 3339      5F5F494E 
 3339      5433325F 
 3340              	.LASF443:
 3341 1ef3 5F5F696E 		.ascii	"__int_fast32_t_defined 1\000"
 3341      745F6661 
 3341      73743332 
 3341      5F745F64 
 3341      6566696E 
 3342              	.LASF0:
 3343 1f0c 5F5F5354 		.ascii	"__STDC__ 1\000"
 3343      44435F5F 
 3343      203100
 3344              	.LASF246:
 3345 1f17 5F5F5541 		.ascii	"__UACCUM_FBIT__ 16\000"
 3345      4343554D 
 3345      5F464249 
 3345      545F5F20 
 3345      313600
 3346              	.LASF415:
 3347 1f2a 5F5F696E 		.ascii	"__int20 +2\000"
 3347      74323020 
 3347      2B3200
 3348              	.LASF146:
 3349 1f35 5F5F4442 		.ascii	"__DBL_MAX_EXP__ 1024\000"
 3349      4C5F4D41 
 3349      585F4558 
 3349      505F5F20 
 3349      31303234 
 3350              	.LASF374:
 3351 1f4a 5F444546 		.ascii	"_DEFAULT_SOURCE\000"
 3351      41554C54 
 3351      5F534F55 
 3351      52434500 
 3352              	.LASF124:
 3353 1f5a 5F5F4743 		.ascii	"__GCC_IEC_559_COMPLEX 0\000"
 3353      435F4945 
 3353      435F3535 
 3353      395F434F 
 3353      4D504C45 
 3354              	.LASF223:
 3355 1f72 5F5F4C4C 		.ascii	"__LLFRACT_MIN__ (-0.5LLR-0.5LLR)\000"
 3355      46524143 
 3355      545F4D49 
ARM GAS  /var/folders/_2/42wyrlld3p52fkcpt1lv6gxh0000gp/T//ccCQ9Hi4.s 			page 81


 3355      4E5F5F20 
 3355      282D302E 
 3356              	.LASF439:
 3357 1f93 5F5F696E 		.ascii	"__int_least32_t_defined 1\000"
 3357      745F6C65 
 3357      61737433 
 3357      325F745F 
 3357      64656669 
 3358              	.LASF475:
 3359 1fad 494E545F 		.ascii	"INT_FAST16_MIN (-__INT_FAST16_MAX__ - 1)\000"
 3359      46415354 
 3359      31365F4D 
 3359      494E2028 
 3359      2D5F5F49 
 3360              	.LASF37:
 3361 1fd6 5F5F5749 		.ascii	"__WINT_TYPE__ unsigned int\000"
 3361      4E545F54 
 3361      5950455F 
 3361      5F20756E 
 3361      7369676E 
 3362              	.LASF75:
 3363 1ff1 5F5F4C4F 		.ascii	"__LONG_MAX__ 0x7fffffffL\000"
 3363      4E475F4D 
 3363      41585F5F 
 3363      20307837 
 3363      66666666 
 3364              	.LASF90:
 3365 200a 5F5F494E 		.ascii	"__INT16_MAX__ 0x7fff\000"
 3365      5431365F 
 3365      4D41585F 
 3365      5F203078 
 3365      37666666 
 3366              	.LASF216:
 3367 201f 5F5F554C 		.ascii	"__ULFRACT_FBIT__ 32\000"
 3367      46524143 
 3367      545F4642 
 3367      49545F5F 
 3367      20333200 
 3368              	.LASF36:
 3369 2033 5F5F5743 		.ascii	"__WCHAR_TYPE__ unsigned int\000"
 3369      4841525F 
 3369      54595045 
 3369      5F5F2075 
 3369      6E736967 
 3370              	.LASF243:
 3371 204f 5F5F4143 		.ascii	"__ACCUM_MIN__ (-0X1P15K-0X1P15K)\000"
 3371      43554D5F 
 3371      4D494E5F 
 3371      5F20282D 
 3371      30583150 
 3372              	.LASF40:
 3373 2070 5F5F4348 		.ascii	"__CHAR16_TYPE__ short unsigned int\000"
 3373      41523136 
 3373      5F545950 
 3373      455F5F20 
 3373      73686F72 
 3374              	.LASF23:
ARM GAS  /var/folders/_2/42wyrlld3p52fkcpt1lv6gxh0000gp/T//ccCQ9Hi4.s 			page 82


 3375 2093 5F5F5349 		.ascii	"__SIZEOF_DOUBLE__ 8\000"
 3375      5A454F46 
 3375      5F444F55 
 3375      424C455F 
 3375      5F203800 
 3376              	.LASF7:
 3377 20a7 5F5F474E 		.ascii	"__GNUC_PATCHLEVEL__ 1\000"
 3377      55435F50 
 3377      41544348 
 3377      4C455645 
 3377      4C5F5F20 
 3378              	.LASF355:
 3379 20bd 5F5F4758 		.ascii	"__GXX_TYPEINFO_EQUALITY_INLINE 0\000"
 3379      585F5459 
 3379      5045494E 
 3379      464F5F45 
 3379      5155414C 
 3380              	.LASF494:
 3381 20de 57494E54 		.ascii	"WINT_MAX (__WINT_MAX__)\000"
 3381      5F4D4158 
 3381      20285F5F 
 3381      57494E54 
 3381      5F4D4158 
 3382              	.LASF204:
 3383 20f6 5F5F4652 		.ascii	"__FRACT_MAX__ 0X7FFFP-15R\000"
 3383      4143545F 
 3383      4D41585F 
 3383      5F203058 
 3383      37464646 
 3384              	.LASF46:
 3385 2110 5F5F494E 		.ascii	"__INT64_TYPE__ long long int\000"
 3385      5436345F 
 3385      54595045 
 3385      5F5F206C 
 3385      6F6E6720 
 3386              	.LASF256:
 3387 212d 5F5F554C 		.ascii	"__ULACCUM_FBIT__ 32\000"
 3387      41434355 
 3387      4D5F4642 
 3387      49545F5F 
 3387      20333200 
 3388              	.LASF447:
 3389 2141 55494E54 		.ascii	"UINTPTR_MAX (__UINTPTR_MAX__)\000"
 3389      5054525F 
 3389      4D415820 
 3389      285F5F55 
 3389      494E5450 
 3390              	.LASF208:
 3391 215f 5F5F5546 		.ascii	"__UFRACT_MIN__ 0.0UR\000"
 3391      52414354 
 3391      5F4D494E 
 3391      5F5F2030 
 3391      2E305552 
 3392              	.LASF420:
 3393 2174 5F5F494E 		.ascii	"__INT8 \"hh\"\000"
 3393      54382022 
 3393      68682200 
ARM GAS  /var/folders/_2/42wyrlld3p52fkcpt1lv6gxh0000gp/T//ccCQ9Hi4.s 			page 83


 3394              	.LASF2:
 3395 2180 5F5F5354 		.ascii	"__STDC_UTF_16__ 1\000"
 3395      44435F55 
 3395      54465F31 
 3395      365F5F20 
 3395      3100
 3396              	.LASF556:
 3397 2192 52657365 		.ascii	"ResetHandler\000"
 3397      7448616E 
 3397      646C6572 
 3397      00
 3398              	.LASF202:
 3399 219f 5F5F4652 		.ascii	"__FRACT_IBIT__ 0\000"
 3399      4143545F 
 3399      49424954 
 3399      5F5F2030 
 3399      00
 3400              	.LASF164:
 3401 21b0 5F5F4C44 		.ascii	"__LDBL_MIN__ 2.2250738585072014e-308L\000"
 3401      424C5F4D 
 3401      494E5F5F 
 3401      20322E32 
 3401      32353037 
 3402              	.LASF168:
 3403 21d6 5F5F4C44 		.ascii	"__LDBL_HAS_INFINITY__ 1\000"
 3403      424C5F48 
 3403      41535F49 
 3403      4E46494E 
 3403      4954595F 
 3404              	.LASF66:
 3405 21ee 5F5F5549 		.ascii	"__UINT_FAST64_TYPE__ long long unsigned int\000"
 3405      4E545F46 
 3405      41535436 
 3405      345F5459 
 3405      50455F5F 
 3406              	.LASF95:
 3407 221a 5F5F5549 		.ascii	"__UINT32_MAX__ 0xffffffffUL\000"
 3407      4E543332 
 3407      5F4D4158 
 3407      5F5F2030 
 3407      78666666 
 3408              	.LASF158:
 3409 2236 5F5F4C44 		.ascii	"__LDBL_MIN_EXP__ (-1021)\000"
 3409      424C5F4D 
 3409      494E5F45 
 3409      58505F5F 
 3409      20282D31 
 3410              	.LASF520:
 3411 224f 43525430 		.ascii	"CRT0_INIT_BSS TRUE\000"
 3411      5F494E49 
 3411      545F4253 
 3411      53205452 
 3411      554500
 3412              	.LASF226:
 3413 2262 5F5F554C 		.ascii	"__ULLFRACT_FBIT__ 64\000"
 3413      4C465241 
 3413      43545F46 
ARM GAS  /var/folders/_2/42wyrlld3p52fkcpt1lv6gxh0000gp/T//ccCQ9Hi4.s 			page 84


 3413      4249545F 
 3413      5F203634 
 3414              	.LASF32:
 3415 2277 5F5F464C 		.ascii	"__FLOAT_WORD_ORDER__ __ORDER_LITTLE_ENDIAN__\000"
 3415      4F41545F 
 3415      574F5244 
 3415      5F4F5244 
 3415      45525F5F 
 3416              	.LASF244:
 3417 22a4 5F5F4143 		.ascii	"__ACCUM_MAX__ 0X7FFFFFFFP-15K\000"
 3417      43554D5F 
 3417      4D41585F 
 3417      5F203058 
 3417      37464646 
 3418              	.LASF207:
 3419 22c2 5F5F5546 		.ascii	"__UFRACT_IBIT__ 0\000"
 3419      52414354 
 3419      5F494249 
 3419      545F5F20 
 3419      3000
 3420              	.LASF170:
 3421 22d4 5F5F4445 		.ascii	"__DEC32_MANT_DIG__ 7\000"
 3421      4333325F 
 3421      4D414E54 
 3421      5F444947 
 3421      5F5F2037 
 3422              	.LASF428:
 3423 22e9 5F5F4C45 		.ascii	"__LEAST8 \"hh\"\000"
 3423      41535438 
 3423      20226868 
 3423      2200
 3424              	.LASF178:
 3425 22f7 5F5F4445 		.ascii	"__DEC64_MIN_EXP__ (-382)\000"
 3425      4336345F 
 3425      4D494E5F 
 3425      4558505F 
 3425      5F20282D 
 3426              	.LASF88:
 3427 2310 5F5F5349 		.ascii	"__SIG_ATOMIC_MIN__ (-__SIG_ATOMIC_MAX__ - 1)\000"
 3427      475F4154 
 3427      4F4D4943 
 3427      5F4D494E 
 3427      5F5F2028 
 3428              	.LASF225:
 3429 233d 5F5F4C4C 		.ascii	"__LLFRACT_EPSILON__ 0x1P-63LLR\000"
 3429      46524143 
 3429      545F4550 
 3429      53494C4F 
 3429      4E5F5F20 
 3430              	.LASF303:
 3431 235c 5F5F5544 		.ascii	"__UDA_FBIT__ 32\000"
 3431      415F4642 
 3431      49545F5F 
 3431      20333200 
 3432              	.LASF161:
 3433 236c 5F5F4C44 		.ascii	"__LDBL_MAX_10_EXP__ 308\000"
 3433      424C5F4D 
ARM GAS  /var/folders/_2/42wyrlld3p52fkcpt1lv6gxh0000gp/T//ccCQ9Hi4.s 			page 85


 3433      41585F31 
 3433      305F4558 
 3433      505F5F20 
 3434              	.LASF191:
 3435 2384 5F5F5346 		.ascii	"__SFRACT_FBIT__ 7\000"
 3435      52414354 
 3435      5F464249 
 3435      545F5F20 
 3435      3700
 3436              	.LASF41:
 3437 2396 5F5F4348 		.ascii	"__CHAR32_TYPE__ long unsigned int\000"
 3437      41523332 
 3437      5F545950 
 3437      455F5F20 
 3437      6C6F6E67 
 3438              	.LASF526:
 3439 23b8 73686F72 		.ascii	"short unsigned int\000"
 3439      7420756E 
 3439      7369676E 
 3439      65642069 
 3439      6E7400
 3440              	.LASF555:
 3441 23cb 5F646566 		.ascii	"_default_exit\000"
 3441      61756C74 
 3441      5F657869 
 3441      7400
 3442              	.LASF350:
 3443 23d9 5F5F4152 		.ascii	"__ARM_PCS 1\000"
 3443      4D5F5043 
 3443      53203100 
 3444              	.LASF274:
 3445 23e5 5F5F4851 		.ascii	"__HQ_IBIT__ 0\000"
 3445      5F494249 
 3445      545F5F20 
 3445      3000
 3446              	.LASF442:
 3447 23f3 5F5F696E 		.ascii	"__int_fast16_t_defined 1\000"
 3447      745F6661 
 3447      73743136 
 3447      5F745F64 
 3447      6566696E 
 3448              	.LASF308:
 3449 240c 5F5F5553 		.ascii	"__USER_LABEL_PREFIX__ \000"
 3449      45525F4C 
 3449      4142454C 
 3449      5F505245 
 3449      4649585F 
 3450              	.LASF138:
 3451 2423 5F5F464C 		.ascii	"__FLT_DENORM_MIN__ 1.4012984643248171e-45F\000"
 3451      545F4445 
 3451      4E4F524D 
 3451      5F4D494E 
 3451      5F5F2031 
 3452              	.LASF57:
 3453 244e 5F5F5549 		.ascii	"__UINT_LEAST32_TYPE__ long unsigned int\000"
 3453      4E545F4C 
 3453      45415354 
ARM GAS  /var/folders/_2/42wyrlld3p52fkcpt1lv6gxh0000gp/T//ccCQ9Hi4.s 			page 86


 3453      33325F54 
 3453      5950455F 
 3454              	.LASF277:
 3455 2476 5F5F4451 		.ascii	"__DQ_FBIT__ 63\000"
 3455      5F464249 
 3455      545F5F20 
 3455      363300
 3456              	.LASF300:
 3457 2485 5F5F5548 		.ascii	"__UHA_IBIT__ 8\000"
 3457      415F4942 
 3457      49545F5F 
 3457      203800
 3458              	.LASF334:
 3459 2494 5F5F4152 		.ascii	"__ARM_FEATURE_LDREX 7\000"
 3459      4D5F4645 
 3459      41545552 
 3459      455F4C44 
 3459      52455820 
 3460              	.LASF509:
 3461 24aa 5343425F 		.ascii	"SCB_CPACR *((uint32_t *)0xE000ED88U)\000"
 3461      43504143 
 3461      52202A28 
 3461      2875696E 
 3461      7433325F 
 3462              	.LASF445:
 3463 24cf 494E5450 		.ascii	"INTPTR_MIN (-__INTPTR_MAX__ - 1)\000"
 3463      54525F4D 
 3463      494E2028 
 3463      2D5F5F49 
 3463      4E545054 
 3464              	.LASF373:
 3465 24f0 5F5F474E 		.ascii	"__GNUC_PREREQ__(ma,mi) __GNUC_PREREQ(ma, mi)\000"
 3465      55435F50 
 3465      52455245 
 3465      515F5F28 
 3465      6D612C6D 
 3466              	.LASF424:
 3467 251d 5F5F4641 		.ascii	"__FAST8 \000"
 3467      53543820 
 3467      00
 3468              	.LASF73:
 3469 2526 5F5F5348 		.ascii	"__SHRT_MAX__ 0x7fff\000"
 3469      52545F4D 
 3469      41585F5F 
 3469      20307837 
 3469      66666600 
 3470              	.LASF254:
 3471 253a 5F5F4C41 		.ascii	"__LACCUM_MAX__ 0X7FFFFFFFFFFFFFFFP-31LK\000"
 3471      4343554D 
 3471      5F4D4158 
 3471      5F5F2030 
 3471      58374646 
 3472              	.LASF457:
 3473 2562 494E545F 		.ascii	"INT_LEAST16_MIN (-__INT_LEAST16_MAX__ - 1)\000"
 3473      4C454153 
 3473      5431365F 
 3473      4D494E20 
ARM GAS  /var/folders/_2/42wyrlld3p52fkcpt1lv6gxh0000gp/T//ccCQ9Hi4.s 			page 87


 3473      282D5F5F 
 3474              	.LASF30:
 3475 258d 5F5F4F52 		.ascii	"__ORDER_PDP_ENDIAN__ 3412\000"
 3475      4445525F 
 3475      5044505F 
 3475      454E4449 
 3475      414E5F5F 
 3476              	.LASF385:
 3477 25a7 5F5F4953 		.ascii	"__ISO_C_VISIBLE 1999\000"
 3477      4F5F435F 
 3477      56495349 
 3477      424C4520 
 3477      31393939 
 3478              	.LASF276:
 3479 25bc 5F5F5351 		.ascii	"__SQ_IBIT__ 0\000"
 3479      5F494249 
 3479      545F5F20 
 3479      3000
 3480              	.LASF134:
 3481 25ca 5F5F464C 		.ascii	"__FLT_DECIMAL_DIG__ 9\000"
 3481      545F4445 
 3481      43494D41 
 3481      4C5F4449 
 3481      475F5F20 
 3482              	.LASF433:
 3483 25e0 5F5F696E 		.ascii	"__int8_t_defined 1\000"
 3483      74385F74 
 3483      5F646566 
 3483      696E6564 
 3483      203100
 3484              	.LASF91:
 3485 25f3 5F5F494E 		.ascii	"__INT32_MAX__ 0x7fffffffL\000"
 3485      5433325F 
 3485      4D41585F 
 3485      5F203078 
 3485      37666666 
 3486              	.LASF544:
 3487 260d 5F656461 		.ascii	"_edata\000"
 3487      746100
 3488              	.LASF364:
 3489 2614 5F535444 		.ascii	"_STDINT_H \000"
 3489      494E545F 
 3489      482000
 3490              	.LASF480:
 3491 261f 55494E54 		.ascii	"UINT_FAST32_MAX (__UINT_FAST32_MAX__)\000"
 3491      5F464153 
 3491      5433325F 
 3491      4D415820 
 3491      285F5F55 
 3492              	.LASF545:
 3493 2645 5F627373 		.ascii	"_bss_start\000"
 3493      5F737461 
 3493      727400
 3494              	.LASF281:
 3495 2650 5F5F5551 		.ascii	"__UQQ_FBIT__ 8\000"
 3495      515F4642 
 3495      49545F5F 
ARM GAS  /var/folders/_2/42wyrlld3p52fkcpt1lv6gxh0000gp/T//ccCQ9Hi4.s 			page 88


 3495      203800
 3496              	.LASF382:
 3497 265f 5F5F4154 		.ascii	"__ATFILE_VISIBLE 1\000"
 3497      46494C45 
 3497      5F564953 
 3497      49424C45 
 3497      203100
 3498              	.LASF18:
 3499 2672 5F5F5349 		.ascii	"__SIZEOF_INT__ 4\000"
 3499      5A454F46 
 3499      5F494E54 
 3499      5F5F2034 
 3499      00
 3500              	.LASF434:
 3501 2683 5F5F696E 		.ascii	"__int16_t_defined 1\000"
 3501      7431365F 
 3501      745F6465 
 3501      66696E65 
 3501      64203100 
 3502              	.LASF525:
 3503 2697 73686F72 		.ascii	"short int\000"
 3503      7420696E 
 3503      7400
 3504              	.LASF249:
 3505 26a1 5F5F5541 		.ascii	"__UACCUM_MAX__ 0XFFFFFFFFP-16UK\000"
 3505      4343554D 
 3505      5F4D4158 
 3505      5F5F2030 
 3505      58464646 
 3506              	.LASF179:
 3507 26c1 5F5F4445 		.ascii	"__DEC64_MAX_EXP__ 385\000"
 3507      4336345F 
 3507      4D41585F 
 3507      4558505F 
 3507      5F203338 
 3508              	.LASF283:
 3509 26d7 5F5F5548 		.ascii	"__UHQ_FBIT__ 16\000"
 3509      515F4642 
 3509      49545F5F 
 3509      20313600 
 3510              	.LASF45:
 3511 26e7 5F5F494E 		.ascii	"__INT32_TYPE__ long int\000"
 3511      5433325F 
 3511      54595045 
 3511      5F5F206C 
 3511      6F6E6720 
 3512              	.LASF527:
 3513 26ff 6C6F6E67 		.ascii	"long int\000"
 3513      20696E74 
 3513      00
 3514              	.LASF353:
 3515 2708 5F5F4152 		.ascii	"__ARM_FEATURE_IDIV 1\000"
 3515      4D5F4645 
 3515      41545552 
 3515      455F4944 
 3515      49562031 
 3516              	.LASF435:
ARM GAS  /var/folders/_2/42wyrlld3p52fkcpt1lv6gxh0000gp/T//ccCQ9Hi4.s 			page 89


 3517 271d 5F5F696E 		.ascii	"__int32_t_defined 1\000"
 3517      7433325F 
 3517      745F6465 
 3517      66696E65 
 3517      64203100 
 3518              	.LASF160:
 3519 2731 5F5F4C44 		.ascii	"__LDBL_MAX_EXP__ 1024\000"
 3519      424C5F4D 
 3519      41585F45 
 3519      58505F5F 
 3519      20313032 
 3520              	.LASF275:
 3521 2747 5F5F5351 		.ascii	"__SQ_FBIT__ 31\000"
 3521      5F464249 
 3521      545F5F20 
 3521      333100
 3522              	.LASF391:
 3523 2756 5F5F4558 		.ascii	"__EXP(x) __ ##x ##__\000"
 3523      50287829 
 3523      205F5F20 
 3523      23237820 
 3523      23235F5F 
 3524              	.LASF236:
 3525 276b 5F5F5553 		.ascii	"__USACCUM_FBIT__ 8\000"
 3525      41434355 
 3525      4D5F4642 
 3525      49545F5F 
 3525      203800
 3526              	.LASF186:
 3527 277e 5F5F4445 		.ascii	"__DEC128_MAX_EXP__ 6145\000"
 3527      43313238 
 3527      5F4D4158 
 3527      5F455850 
 3527      5F5F2036 
 3528              	.LASF422:
 3529 2796 5F5F494E 		.ascii	"__INT32 \"l\"\000"
 3529      54333220 
 3529      226C2200 
 3530              	.LASF109:
 3531 27a2 5F5F5549 		.ascii	"__UINT_LEAST32_MAX__ 0xffffffffUL\000"
 3531      4E545F4C 
 3531      45415354 
 3531      33325F4D 
 3531      41585F5F 
 3532              	.LASF342:
 3533 27c4 5F5F7468 		.ascii	"__thumb__ 1\000"
 3533      756D625F 
 3533      5F203100 
 3534              	.LASF405:
 3535 27d0 7369676E 		.ascii	"signed\000"
 3535      656400
 3536              	.LASF169:
 3537 27d7 5F5F4C44 		.ascii	"__LDBL_HAS_QUIET_NAN__ 1\000"
 3537      424C5F48 
 3537      41535F51 
 3537      55494554 
 3537      5F4E414E 
ARM GAS  /var/folders/_2/42wyrlld3p52fkcpt1lv6gxh0000gp/T//ccCQ9Hi4.s 			page 90


 3538              	.LASF43:
 3539 27f0 5F5F494E 		.ascii	"__INT8_TYPE__ signed char\000"
 3539      54385F54 
 3539      5950455F 
 3539      5F207369 
 3539      676E6564 
 3540              	.LASF79:
 3541 280a 5F5F5749 		.ascii	"__WINT_MAX__ 0xffffffffU\000"
 3541      4E545F4D 
 3541      41585F5F 
 3541      20307866 
 3541      66666666 
 3542              	.LASF495:
 3543 2823 57494E54 		.ascii	"WINT_MIN (__WINT_MIN__)\000"
 3543      5F4D494E 
 3543      20285F5F 
 3543      57494E54 
 3543      5F4D494E 
 3544              	.LASF461:
 3545 283b 494E5433 		.ascii	"INT32_MAX (__INT32_MAX__)\000"
 3545      325F4D41 
 3545      5820285F 
 3545      5F494E54 
 3545      33325F4D 
 3546              	.LASF386:
 3547 2855 5F5F4C41 		.ascii	"__LARGEFILE_VISIBLE 0\000"
 3547      52474546 
 3547      494C455F 
 3547      56495349 
 3547      424C4520 
 3548              	.LASF543:
 3549 286b 5F646174 		.ascii	"_data\000"
 3549      6100
 3550              	.LASF279:
 3551 2871 5F5F5451 		.ascii	"__TQ_FBIT__ 127\000"
 3551      5F464249 
 3551      545F5F20 
 3551      31323700 
 3552              	.LASF200:
 3553 2881 5F5F5553 		.ascii	"__USFRACT_EPSILON__ 0x1P-8UHR\000"
 3553      46524143 
 3553      545F4550 
 3553      53494C4F 
 3553      4E5F5F20 
 3554              	.LASF358:
 3555 289f 454E4142 		.ascii	"ENABLE_DEBUG 0\000"
 3555      4C455F44 
 3555      45425547 
 3555      203000
 3556              	.LASF120:
 3557 28ae 5F5F5549 		.ascii	"__UINT_FAST64_MAX__ 0xffffffffffffffffULL\000"
 3557      4E545F46 
 3557      41535436 
 3557      345F4D41 
 3557      585F5F20 
 3558              	.LASF119:
 3559 28d8 5F5F5549 		.ascii	"__UINT_FAST32_MAX__ 0xffffffffU\000"
ARM GAS  /var/folders/_2/42wyrlld3p52fkcpt1lv6gxh0000gp/T//ccCQ9Hi4.s 			page 91


 3559      4E545F46 
 3559      41535433 
 3559      325F4D41 
 3559      585F5F20 
 3560              	.LASF421:
 3561 28f8 5F5F494E 		.ascii	"__INT16 \"h\"\000"
 3561      54313620 
 3561      22682200 
 3562              	.LASF196:
 3563 2904 5F5F5553 		.ascii	"__USFRACT_FBIT__ 8\000"
 3563      46524143 
 3563      545F4642 
 3563      49545F5F 
 3563      203800
 3564              	.LASF104:
 3565 2917 5F5F494E 		.ascii	"__INT64_C(c) c ## LL\000"
 3565      5436345F 
 3565      43286329 
 3565      20632023 
 3565      23204C4C 
 3566              	.LASF273:
 3567 292c 5F5F4851 		.ascii	"__HQ_FBIT__ 15\000"
 3567      5F464249 
 3567      545F5F20 
 3567      313500
 3568              	.LASF519:
 3569 293b 43525430 		.ascii	"CRT0_INIT_DATA TRUE\000"
 3569      5F494E49 
 3569      545F4441 
 3569      54412054 
 3569      52554500 
 3570              	.LASF77:
 3571 294f 5F5F5743 		.ascii	"__WCHAR_MAX__ 0xffffffffU\000"
 3571      4841525F 
 3571      4D41585F 
 3571      5F203078 
 3571      66666666 
 3572              	.LASF20:
 3573 2969 5F5F5349 		.ascii	"__SIZEOF_LONG_LONG__ 8\000"
 3573      5A454F46 
 3573      5F4C4F4E 
 3573      475F4C4F 
 3573      4E475F5F 
 3574              	.LASF282:
 3575 2980 5F5F5551 		.ascii	"__UQQ_IBIT__ 0\000"
 3575      515F4942 
 3575      49545F5F 
 3575      203000
 3576              	.LASF47:
 3577 298f 5F5F5549 		.ascii	"__UINT8_TYPE__ unsigned char\000"
 3577      4E54385F 
 3577      54595045 
 3577      5F5F2075 
 3577      6E736967 
 3578              	.LASF476:
 3579 29ac 494E545F 		.ascii	"INT_FAST16_MAX (__INT_FAST16_MAX__)\000"
 3579      46415354 
ARM GAS  /var/folders/_2/42wyrlld3p52fkcpt1lv6gxh0000gp/T//ccCQ9Hi4.s 			page 92


 3579      31365F4D 
 3579      41582028 
 3579      5F5F494E 
 3580              	.LASF467:
 3581 29d0 494E5436 		.ascii	"INT64_MAX (__INT64_MAX__)\000"
 3581      345F4D41 
 3581      5820285F 
 3581      5F494E54 
 3581      36345F4D 
 3582              	.LASF536:
 3583 29ea 66756E63 		.ascii	"funcp_t\000"
 3583      705F7400 
 3584              	.LASF528:
 3585 29f2 5F5F7569 		.ascii	"__uint8_t\000"
 3585      6E74385F 
 3585      7400
 3586              	.LASF361:
 3587 29fc 5448554D 		.ascii	"THUMB_PRESENT 1\000"
 3587      425F5052 
 3587      4553454E 
 3587      54203100 
 3588              	.LASF54:
 3589 2a0c 5F5F494E 		.ascii	"__INT_LEAST64_TYPE__ long long int\000"
 3589      545F4C45 
 3589      41535436 
 3589      345F5459 
 3589      50455F5F 
 3590              	.LASF505:
 3591 2a2f 55494E54 		.ascii	"UINTMAX_C(x) __UINTMAX_C(x)\000"
 3591      4D41585F 
 3591      43287829 
 3591      205F5F55 
 3591      494E544D 
 3592              	.LASF49:
 3593 2a4b 5F5F5549 		.ascii	"__UINT32_TYPE__ long unsigned int\000"
 3593      4E543332 
 3593      5F545950 
 3593      455F5F20 
 3593      6C6F6E67 
 3594              	.LASF159:
 3595 2a6d 5F5F4C44 		.ascii	"__LDBL_MIN_10_EXP__ (-307)\000"
 3595      424C5F4D 
 3595      494E5F31 
 3595      305F4558 
 3595      505F5F20 
 3596              	.LASF488:
 3597 2a88 5349475F 		.ascii	"SIG_ATOMIC_MIN (-__STDINT_EXP(INT_MAX) - 1)\000"
 3597      41544F4D 
 3597      49435F4D 
 3597      494E2028 
 3597      2D5F5F53 
 3598              	.LASF8:
 3599 2ab4 5F5F5645 		.ascii	"__VERSION__ \"5.3.1 20160307 (release) [ARM/embedde"
 3599      5253494F 
 3599      4E5F5F20 
 3599      22352E33 
 3599      2E312032 
ARM GAS  /var/folders/_2/42wyrlld3p52fkcpt1lv6gxh0000gp/T//ccCQ9Hi4.s 			page 93


 3600 2ae6 642D352D 		.ascii	"d-5-branch revision 234589]\"\000"
 3600      6272616E 
 3600      63682072 
 3600      65766973 
 3600      696F6E20 
 3601              	.LASF516:
 3602 2b03 43525430 		.ascii	"CRT0_CONTROL_INIT 0x00000002\000"
 3602      5F434F4E 
 3602      54524F4C 
 3602      5F494E49 
 3602      54203078 
 3603              	.LASF33:
 3604 2b20 5F5F5349 		.ascii	"__SIZEOF_POINTER__ 4\000"
 3604      5A454F46 
 3604      5F504F49 
 3604      4E544552 
 3604      5F5F2034 
 3605              	.LASF348:
 3606 2b35 5F5F5646 		.ascii	"__VFP_FP__ 1\000"
 3606      505F4650 
 3606      5F5F2031 
 3606      00
 3607              	.LASF219:
 3608 2b42 5F5F554C 		.ascii	"__ULFRACT_MAX__ 0XFFFFFFFFP-32ULR\000"
 3608      46524143 
 3608      545F4D41 
 3608      585F5F20 
 3608      30584646 
 3609              	.LASF291:
 3610 2b64 5F5F4841 		.ascii	"__HA_FBIT__ 7\000"
 3610      5F464249 
 3610      545F5F20 
 3610      3700
 3611              	.LASF233:
 3612 2b72 5F5F5341 		.ascii	"__SACCUM_MIN__ (-0X1P7HK-0X1P7HK)\000"
 3612      4343554D 
 3612      5F4D494E 
 3612      5F5F2028 
 3612      2D305831 
 3613              	.LASF455:
 3614 2b94 494E5431 		.ascii	"INT16_MAX (__INT16_MAX__)\000"
 3614      365F4D41 
 3614      5820285F 
 3614      5F494E54 
 3614      31365F4D 
 3615              	.LASF324:
 3616 2bae 5F5F4743 		.ascii	"__GCC_ATOMIC_POINTER_LOCK_FREE 2\000"
 3616      435F4154 
 3616      4F4D4943 
 3616      5F504F49 
 3616      4E544552 
 3617              	.LASF112:
 3618 2bcf 5F5F5549 		.ascii	"__UINT64_C(c) c ## ULL\000"
 3618      4E543634 
 3618      5F432863 
 3618      29206320 
 3618      23232055 
ARM GAS  /var/folders/_2/42wyrlld3p52fkcpt1lv6gxh0000gp/T//ccCQ9Hi4.s 			page 94


 3619              	.LASF255:
 3620 2be6 5F5F4C41 		.ascii	"__LACCUM_EPSILON__ 0x1P-31LK\000"
 3620      4343554D 
 3620      5F455053 
 3620      494C4F4E 
 3620      5F5F2030 
 3621              	.LASF195:
 3622 2c03 5F5F5346 		.ascii	"__SFRACT_EPSILON__ 0x1P-7HR\000"
 3622      52414354 
 3622      5F455053 
 3622      494C4F4E 
 3622      5F5F2030 
 3623              	.LASF362:
 3624 2c1f 5448554D 		.ascii	"THUMB_NO_INTERWORKING 1\000"
 3624      425F4E4F 
 3624      5F494E54 
 3624      4552574F 
 3624      524B494E 
 3625              	.LASF538:
 3626 2c37 5F5F6D61 		.ascii	"__main_stack_base__\000"
 3626      696E5F73 
 3626      7461636B 
 3626      5F626173 
 3626      655F5F00 
 3627              	.LASF285:
 3628 2c4b 5F5F5553 		.ascii	"__USQ_FBIT__ 32\000"
 3628      515F4642 
 3628      49545F5F 
 3628      20333200 
 3629              	.LASF292:
 3630 2c5b 5F5F4841 		.ascii	"__HA_IBIT__ 8\000"
 3630      5F494249 
 3630      545F5F20 
 3630      3800
 3631              	.LASF530:
 3632 2c69 6C6F6E67 		.ascii	"long unsigned int\000"
 3632      20756E73 
 3632      69676E65 
 3632      6420696E 
 3632      7400
 3633              	.LASF490:
 3634 2c7b 50545244 		.ascii	"PTRDIFF_MAX (__PTRDIFF_MAX__)\000"
 3634      4946465F 
 3634      4D415820 
 3634      285F5F50 
 3634      54524449 
 3635              	.LASF317:
 3636 2c99 5F5F4743 		.ascii	"__GCC_ATOMIC_CHAR32_T_LOCK_FREE 2\000"
 3636      435F4154 
 3636      4F4D4943 
 3636      5F434841 
 3636      5233325F 
 3637              	.LASF1:
 3638 2cbb 5F5F5354 		.ascii	"__STDC_VERSION__ 199901L\000"
 3638      44435F56 
 3638      45525349 
 3638      4F4E5F5F 
ARM GAS  /var/folders/_2/42wyrlld3p52fkcpt1lv6gxh0000gp/T//ccCQ9Hi4.s 			page 95


 3638      20313939 
 3639              	.LASF349:
 3640 2cd4 5F5F4152 		.ascii	"__ARM_ARCH_7M__ 1\000"
 3640      4D5F4152 
 3640      43485F37 
 3640      4D5F5F20 
 3640      3100
 3641              	.LASF470:
 3642 2ce6 494E545F 		.ascii	"INT_LEAST64_MAX (__INT_LEAST64_MAX__)\000"
 3642      4C454153 
 3642      5436345F 
 3642      4D415820 
 3642      285F5F49 
 3643              	.LASF85:
 3644 2d0c 5F5F5549 		.ascii	"__UINTMAX_MAX__ 0xffffffffffffffffULL\000"
 3644      4E544D41 
 3644      585F4D41 
 3644      585F5F20 
 3644      30786666 
 3645              	.LASF492:
 3646 2d32 57434841 		.ascii	"WCHAR_MIN (__WCHAR_MIN__)\000"
 3646      525F4D49 
 3646      4E20285F 
 3646      5F574348 
 3646      41525F4D 
 3647              	.LASF205:
 3648 2d4c 5F5F4652 		.ascii	"__FRACT_EPSILON__ 0x1P-15R\000"
 3648      4143545F 
 3648      45505349 
 3648      4C4F4E5F 
 3648      5F203078 
 3649              	.LASF4:
 3650 2d67 5F5F5354 		.ascii	"__STDC_HOSTED__ 1\000"
 3650      44435F48 
 3650      4F535445 
 3650      445F5F20 
 3650      3100
 3651              	.LASF496:
 3652 2d79 494E5438 		.ascii	"INT8_C(x) __INT8_C(x)\000"
 3652      5F432878 
 3652      29205F5F 
 3652      494E5438 
 3652      5F432878 
 3653              	.LASF474:
 3654 2d8f 55494E54 		.ascii	"UINT_FAST8_MAX (__UINT_FAST8_MAX__)\000"
 3654      5F464153 
 3654      54385F4D 
 3654      41582028 
 3654      5F5F5549 
 3655              	.LASF121:
 3656 2db3 5F5F494E 		.ascii	"__INTPTR_MAX__ 0x7fffffff\000"
 3656      54505452 
 3656      5F4D4158 
 3656      5F5F2030 
 3656      78376666 
 3657              	.LASF69:
 3658 2dcd 5F5F6861 		.ascii	"__has_include(STR) __has_include__(STR)\000"
ARM GAS  /var/folders/_2/42wyrlld3p52fkcpt1lv6gxh0000gp/T//ccCQ9Hi4.s 			page 96


 3658      735F696E 
 3658      636C7564 
 3658      65285354 
 3658      5229205F 
 3659              	.LASF347:
 3660 2df5 5F5F534F 		.ascii	"__SOFTFP__ 1\000"
 3660      46544650 
 3660      5F5F2031 
 3660      00
 3661              	.LASF150:
 3662 2e02 5F5F4442 		.ascii	"__DBL_MIN__ ((double)2.2250738585072014e-308L)\000"
 3662      4C5F4D49 
 3662      4E5F5F20 
 3662      2828646F 
 3662      75626C65 
 3663              	.LASF402:
 3664 2e31 5F5F5354 		.ascii	"__STDINT_EXP(x) __ ##x ##__\000"
 3664      44494E54 
 3664      5F455850 
 3664      28782920 
 3664      5F5F2023 
 3665              	.LASF322:
 3666 2e4d 5F5F4743 		.ascii	"__GCC_ATOMIC_LLONG_LOCK_FREE 1\000"
 3666      435F4154 
 3666      4F4D4943 
 3666      5F4C4C4F 
 3666      4E475F4C 
 3667              	.LASF132:
 3668 2e6c 5F5F464C 		.ascii	"__FLT_MAX_EXP__ 128\000"
 3668      545F4D41 
 3668      585F4558 
 3668      505F5F20 
 3668      31323800 
 3669              	.LASF13:
 3670 2e80 5F5F4154 		.ascii	"__ATOMIC_ACQ_REL 4\000"
 3670      4F4D4943 
 3670      5F414351 
 3670      5F52454C 
 3670      203400
 3671              	.LASF524:
 3672 2e93 756E7369 		.ascii	"unsigned char\000"
 3672      676E6564 
 3672      20636861 
 3672      7200
 3673              	.LASF171:
 3674 2ea1 5F5F4445 		.ascii	"__DEC32_MIN_EXP__ (-94)\000"
 3674      4333325F 
 3674      4D494E5F 
 3674      4558505F 
 3674      5F20282D 
 3675              	.LASF39:
 3676 2eb9 5F5F5549 		.ascii	"__UINTMAX_TYPE__ long long unsigned int\000"
 3676      4E544D41 
 3676      585F5459 
 3676      50455F5F 
 3676      206C6F6E 
 3677              	.LASF540:
ARM GAS  /var/folders/_2/42wyrlld3p52fkcpt1lv6gxh0000gp/T//ccCQ9Hi4.s 			page 97


 3678 2ee1 5F5F7072 		.ascii	"__process_stack_base__\000"
 3678      6F636573 
 3678      735F7374 
 3678      61636B5F 
 3678      62617365 
 3679              	.LASF529:
 3680 2ef8 5F5F7569 		.ascii	"__uint32_t\000"
 3680      6E743332 
 3680      5F7400
 3681              	.LASF387:
 3682 2f03 5F5F4D49 		.ascii	"__MISC_VISIBLE 1\000"
 3682      53435F56 
 3682      49534942 
 3682      4C452031 
 3682      00
 3683              	.LASF165:
 3684 2f14 5F5F4C44 		.ascii	"__LDBL_EPSILON__ 2.2204460492503131e-16L\000"
 3684      424C5F45 
 3684      5053494C 
 3684      4F4E5F5F 
 3684      20322E32 
 3685              	.LASF126:
 3686 2f3d 5F5F4445 		.ascii	"__DEC_EVAL_METHOD__ 2\000"
 3686      435F4556 
 3686      414C5F4D 
 3686      4554484F 
 3686      445F5F20 
 3687              	.LASF238:
 3688 2f53 5F5F5553 		.ascii	"__USACCUM_MIN__ 0.0UHK\000"
 3688      41434355 
 3688      4D5F4D49 
 3688      4E5F5F20 
 3688      302E3055 
 3689              	.LASF483:
 3690 2f6a 55494E54 		.ascii	"UINT_FAST64_MAX (__UINT_FAST64_MAX__)\000"
 3690      5F464153 
 3690      5436345F 
 3690      4D415820 
 3690      285F5F55 
 3691              	.LASF197:
 3692 2f90 5F5F5553 		.ascii	"__USFRACT_IBIT__ 0\000"
 3692      46524143 
 3692      545F4942 
 3692      49545F5F 
 3692      203000
 3693              	.LASF459:
 3694 2fa3 55494E54 		.ascii	"UINT_LEAST16_MAX (__UINT_LEAST16_MAX__)\000"
 3694      5F4C4541 
 3694      53543136 
 3694      5F4D4158 
 3694      20285F5F 
 3695              	.LASF65:
 3696 2fcb 5F5F5549 		.ascii	"__UINT_FAST32_TYPE__ unsigned int\000"
 3696      4E545F46 
 3696      41535433 
 3696      325F5459 
 3696      50455F5F 
ARM GAS  /var/folders/_2/42wyrlld3p52fkcpt1lv6gxh0000gp/T//ccCQ9Hi4.s 			page 98


 3697              	.LASF278:
 3698 2fed 5F5F4451 		.ascii	"__DQ_IBIT__ 0\000"
 3698      5F494249 
 3698      545F5F20 
 3698      3000
 3699              	.LASF522:
 3700 2ffb 43525430 		.ascii	"CRT0_CALL_DESTRUCTORS TRUE\000"
 3700      5F43414C 
 3700      4C5F4445 
 3700      53545255 
 3700      43544F52 
 3701              	.LASF34:
 3702 3016 5F5F5349 		.ascii	"__SIZE_TYPE__ unsigned int\000"
 3702      5A455F54 
 3702      5950455F 
 3702      5F20756E 
 3702      7369676E 
 3703              	.LASF377:
 3704 3031 5F504F53 		.ascii	"_POSIX_SOURCE 1\000"
 3704      49585F53 
 3704      4F555243 
 3704      45203100 
 3705              	.LASF266:
 3706 3041 5F5F554C 		.ascii	"__ULLACCUM_FBIT__ 32\000"
 3706      4C414343 
 3706      554D5F46 
 3706      4249545F 
 3706      5F203332 
 3707              	.LASF400:
 3708 3056 5F5F4558 		.ascii	"__EXP\000"
 3708      5000
 3709              	.LASF502:
 3710 305c 494E5436 		.ascii	"INT64_C(x) __INT64_C(x)\000"
 3710      345F4328 
 3710      7829205F 
 3710      5F494E54 
 3710      36345F43 
 3711              	.LASF319:
 3712 3074 5F5F4743 		.ascii	"__GCC_ATOMIC_SHORT_LOCK_FREE 2\000"
 3712      435F4154 
 3712      4F4D4943 
 3712      5F53484F 
 3712      52545F4C 
 3713              	.LASF15:
 3714 3093 5F5F4F50 		.ascii	"__OPTIMIZE_SIZE__ 1\000"
 3714      54494D49 
 3714      5A455F53 
 3714      495A455F 
 3714      5F203100 
 3715              	.LASF479:
 3716 30a7 494E545F 		.ascii	"INT_FAST32_MAX (__INT_FAST32_MAX__)\000"
 3716      46415354 
 3716      33325F4D 
 3716      41582028 
 3716      5F5F494E 
 3717              	.LASF412:
 3718 30cb 756E7369 		.ascii	"unsigned +0\000"
ARM GAS  /var/folders/_2/42wyrlld3p52fkcpt1lv6gxh0000gp/T//ccCQ9Hi4.s 			page 99


 3718      676E6564 
 3718      202B3000 
 3719              	.LASF131:
 3720 30d7 5F5F464C 		.ascii	"__FLT_MIN_10_EXP__ (-37)\000"
 3720      545F4D49 
 3720      4E5F3130 
 3720      5F455850 
 3720      5F5F2028 
 3721              	.LASF78:
 3722 30f0 5F5F5743 		.ascii	"__WCHAR_MIN__ 0U\000"
 3722      4841525F 
 3722      4D494E5F 
 3722      5F203055 
 3722      00
 3723              	.LASF154:
 3724 3101 5F5F4442 		.ascii	"__DBL_HAS_INFINITY__ 1\000"
 3724      4C5F4841 
 3724      535F494E 
 3724      46494E49 
 3724      54595F5F 
 3725              	.LASF61:
 3726 3118 5F5F494E 		.ascii	"__INT_FAST32_TYPE__ int\000"
 3726      545F4641 
 3726      53543332 
 3726      5F545950 
 3726      455F5F20 
 3727              	.LASF141:
 3728 3130 5F5F464C 		.ascii	"__FLT_HAS_QUIET_NAN__ 1\000"
 3728      545F4841 
 3728      535F5155 
 3728      4945545F 
 3728      4E414E5F 
 3729              	.LASF105:
 3730 3148 5F5F5549 		.ascii	"__UINT_LEAST8_MAX__ 0xff\000"
 3730      4E545F4C 
 3730      45415354 
 3730      385F4D41 
 3730      585F5F20 
 3731              	.LASF553:
 3732 3161 2F557365 		.ascii	"/Users/ARS/Software/ChibiStudio/workspace/receiver_"
 3732      72732F41 
 3732      52532F53 
 3732      6F667477 
 3732      6172652F 
 3733 3194 73772F00 		.ascii	"sw/\000"
 3734              	.LASF38:
 3735 3198 5F5F494E 		.ascii	"__INTMAX_TYPE__ long long int\000"
 3735      544D4158 
 3735      5F545950 
 3735      455F5F20 
 3735      6C6F6E67 
 3736              	.LASF419:
 3737 31b6 5F494E54 		.ascii	"_INT32_EQ_LONG \000"
 3737      33325F45 
 3737      515F4C4F 
 3737      4E472000 
 3738              	.LASF84:
ARM GAS  /var/folders/_2/42wyrlld3p52fkcpt1lv6gxh0000gp/T//ccCQ9Hi4.s 			page 100


 3739 31c6 5F5F494E 		.ascii	"__INTMAX_C(c) c ## LL\000"
 3739      544D4158 
 3739      5F432863 
 3739      29206320 
 3739      2323204C 
 3740              	.LASF518:
 3741 31dc 43525430 		.ascii	"CRT0_INIT_STACKS TRUE\000"
 3741      5F494E49 
 3741      545F5354 
 3741      41434B53 
 3741      20545255 
 3742              	.LASF341:
 3743 31f2 5F5F4150 		.ascii	"__APCS_32__ 1\000"
 3743      43535F33 
 3743      325F5F20 
 3743      3100
 3744              	.LASF466:
 3745 3200 494E5436 		.ascii	"INT64_MIN (-__INT64_MAX__ - 1)\000"
 3745      345F4D49 
 3745      4E20282D 
 3745      5F5F494E 
 3745      5436345F 
 3746              	.LASF504:
 3747 321f 494E544D 		.ascii	"INTMAX_C(x) __INTMAX_C(x)\000"
 3747      41585F43 
 3747      28782920 
 3747      5F5F494E 
 3747      544D4158 
 3748              	.LASF152:
 3749 3239 5F5F4442 		.ascii	"__DBL_DENORM_MIN__ ((double)4.9406564584124654e-324"
 3749      4C5F4445 
 3749      4E4F524D 
 3749      5F4D494E 
 3749      5F5F2028 
 3750 326c 4C2900   		.ascii	"L)\000"
 3751              	.LASF523:
 3752 326f 7369676E 		.ascii	"signed char\000"
 3752      65642063 
 3752      68617200 
 3753              	.LASF484:
 3754 327b 494E544D 		.ascii	"INTMAX_MAX (__INTMAX_MAX__)\000"
 3754      41585F4D 
 3754      41582028 
 3754      5F5F494E 
 3754      544D4158 
 3755              	.LASF147:
 3756 3297 5F5F4442 		.ascii	"__DBL_MAX_10_EXP__ 308\000"
 3756      4C5F4D41 
 3756      585F3130 
 3756      5F455850 
 3756      5F5F2033 
 3757              	.LASF552:
 3758 32ae 63686962 		.ascii	"chibios/os/ports/GCC/ARMCMx/crt0.c\000"
 3758      696F732F 
 3758      6F732F70 
 3758      6F727473 
 3758      2F474343 
ARM GAS  /var/folders/_2/42wyrlld3p52fkcpt1lv6gxh0000gp/T//ccCQ9Hi4.s 			page 101


 3759              	.LASF541:
 3760 32d1 5F5F7072 		.ascii	"__process_stack_end__\000"
 3760      6F636573 
 3760      735F7374 
 3760      61636B5F 
 3760      656E645F 
 3761              	.LASF448:
 3762 32e7 494E5438 		.ascii	"INT8_MIN (-__INT8_MAX__ - 1)\000"
 3762      5F4D494E 
 3762      20282D5F 
 3762      5F494E54 
 3762      385F4D41 
 3763              	.LASF298:
 3764 3304 5F5F5441 		.ascii	"__TA_IBIT__ 64\000"
 3764      5F494249 
 3764      545F5F20 
 3764      363400
 3765              	.LASF271:
 3766 3313 5F5F5151 		.ascii	"__QQ_FBIT__ 7\000"
 3766      5F464249 
 3766      545F5F20 
 3766      3700
 3767              	.LASF557:
 3768 3321 6D61696E 		.ascii	"main\000"
 3768      00
 3769              	.LASF472:
 3770 3326 494E545F 		.ascii	"INT_FAST8_MIN (-__INT_FAST8_MAX__ - 1)\000"
 3770      46415354 
 3770      385F4D49 
 3770      4E20282D 
 3770      5F5F494E 
 3771              	.LASF473:
 3772 334d 494E545F 		.ascii	"INT_FAST8_MAX (__INT_FAST8_MAX__)\000"
 3772      46415354 
 3772      385F4D41 
 3772      5820285F 
 3772      5F494E54 
 3773              	.LASF491:
 3774 336f 50545244 		.ascii	"PTRDIFF_MIN (-PTRDIFF_MAX - 1)\000"
 3774      4946465F 
 3774      4D494E20 
 3774      282D5054 
 3774      52444946 
 3775              	.LASF130:
 3776 338e 5F5F464C 		.ascii	"__FLT_MIN_EXP__ (-125)\000"
 3776      545F4D49 
 3776      4E5F4558 
 3776      505F5F20 
 3776      282D3132 
 3777              	.LASF539:
 3778 33a5 5F5F6D61 		.ascii	"__main_stack_end__\000"
 3778      696E5F73 
 3778      7461636B 
 3778      5F656E64 
 3778      5F5F00
 3779              	.LASF188:
 3780 33b8 5F5F4445 		.ascii	"__DEC128_MAX__ 9.999999999999999999999999999999999E"
ARM GAS  /var/folders/_2/42wyrlld3p52fkcpt1lv6gxh0000gp/T//ccCQ9Hi4.s 			page 102


 3780      43313238 
 3780      5F4D4158 
 3780      5F5F2039 
 3780      2E393939 
 3781 33eb 36313434 		.ascii	"6144DL\000"
 3781      444C00
 3782              	.LASF356:
 3783 33f2 5F5F454C 		.ascii	"__ELF__ 1\000"
 3783      465F5F20 
 3783      3100
 3784              	.LASF162:
 3785 33fc 5F5F4445 		.ascii	"__DECIMAL_DIG__ 17\000"
 3785      43494D41 
 3785      4C5F4449 
 3785      475F5F20 
 3785      313700
 3786              	.LASF102:
 3787 340f 5F5F494E 		.ascii	"__INT32_C(c) c ## L\000"
 3787      5433325F 
 3787      43286329 
 3787      20632023 
 3787      23204C00 
 3788              	.LASF454:
 3789 3423 494E5431 		.ascii	"INT16_MIN (-__INT16_MAX__ - 1)\000"
 3789      365F4D49 
 3789      4E20282D 
 3789      5F5F494E 
 3789      5431365F 
 3790              	.LASF521:
 3791 3442 43525430 		.ascii	"CRT0_CALL_CONSTRUCTORS TRUE\000"
 3791      5F43414C 
 3791      4C5F434F 
 3791      4E535452 
 3791      5543544F 
 3792              	.LASF122:
 3793 345e 5F5F5549 		.ascii	"__UINTPTR_MAX__ 0xffffffffU\000"
 3793      4E545054 
 3793      525F4D41 
 3793      585F5F20 
 3793      30786666 
 3794              	.LASF153:
 3795 347a 5F5F4442 		.ascii	"__DBL_HAS_DENORM__ 1\000"
 3795      4C5F4841 
 3795      535F4445 
 3795      4E4F524D 
 3795      5F5F2031 
 3796              	.LASF450:
 3797 348f 55494E54 		.ascii	"UINT8_MAX (__UINT8_MAX__)\000"
 3797      385F4D41 
 3797      5820285F 
 3797      5F55494E 
 3797      54385F4D 
 3798              	.LASF306:
 3799 34a9 5F5F5554 		.ascii	"__UTA_IBIT__ 64\000"
 3799      415F4942 
 3799      49545F5F 
 3799      20363400 
ARM GAS  /var/folders/_2/42wyrlld3p52fkcpt1lv6gxh0000gp/T//ccCQ9Hi4.s 			page 103


 3800              	.LASF331:
 3801 34b9 5F5F4152 		.ascii	"__ARM_FEATURE_SAT 1\000"
 3801      4D5F4645 
 3801      41545552 
 3801      455F5341 
 3801      54203100 
 3802              	.LASF214:
 3803 34cd 5F5F4C46 		.ascii	"__LFRACT_MAX__ 0X7FFFFFFFP-31LR\000"
 3803      52414354 
 3803      5F4D4158 
 3803      5F5F2030 
 3803      58374646 
 3804              	.LASF535:
 3805 34ed 75696E74 		.ascii	"uint32_t\000"
 3805      33325F74 
 3805      00
 3806              	.LASF101:
 3807 34f6 5F5F494E 		.ascii	"__INT_LEAST32_MAX__ 0x7fffffffL\000"
 3807      545F4C45 
 3807      41535433 
 3807      325F4D41 
 3807      585F5F20 
 3808              	.LASF261:
 3809 3516 5F5F4C4C 		.ascii	"__LLACCUM_FBIT__ 31\000"
 3809      41434355 
 3809      4D5F4642 
 3809      49545F5F 
 3809      20333100 
 3810              	.LASF180:
 3811 352a 5F5F4445 		.ascii	"__DEC64_MIN__ 1E-383DD\000"
 3811      4336345F 
 3811      4D494E5F 
 3811      5F203145 
 3811      2D333833 
 3812              	.LASF417:
 3813 3541 6C6F6E67 		.ascii	"long +4\000"
 3813      202B3400 
 3814              	.LASF437:
 3815 3549 5F5F696E 		.ascii	"__int_least8_t_defined 1\000"
 3815      745F6C65 
 3815      61737438 
 3815      5F745F64 
 3815      6566696E 
 3816              	.LASF326:
 3817 3562 5F5F5052 		.ascii	"__PRAGMA_REDEFINE_EXTNAME 1\000"
 3817      41474D41 
 3817      5F524544 
 3817      4546494E 
 3817      455F4558 
 3818              	.LASF42:
 3819 357e 5F5F5349 		.ascii	"__SIG_ATOMIC_TYPE__ int\000"
 3819      475F4154 
 3819      4F4D4943 
 3819      5F545950 
 3819      455F5F20 
 3820              	.LASF508:
 3821 3596 54525545 		.ascii	"TRUE (!FALSE)\000"
ARM GAS  /var/folders/_2/42wyrlld3p52fkcpt1lv6gxh0000gp/T//ccCQ9Hi4.s 			page 104


 3821      20282146 
 3821      414C5345 
 3821      2900
 3822              	.LASF330:
 3823 35a4 5F5F4152 		.ascii	"__ARM_FEATURE_QBIT 1\000"
 3823      4D5F4645 
 3823      41545552 
 3823      455F5142 
 3823      49542031 
 3824              	.LASF230:
 3825 35b9 5F5F554C 		.ascii	"__ULLFRACT_EPSILON__ 0x1P-64ULLR\000"
 3825      4C465241 
 3825      43545F45 
 3825      5053494C 
 3825      4F4E5F5F 
 3826              	.LASF167:
 3827 35da 5F5F4C44 		.ascii	"__LDBL_HAS_DENORM__ 1\000"
 3827      424C5F48 
 3827      41535F44 
 3827      454E4F52 
 3827      4D5F5F20 
 3828              	.LASF107:
 3829 35f0 5F5F5549 		.ascii	"__UINT_LEAST16_MAX__ 0xffff\000"
 3829      4E545F4C 
 3829      45415354 
 3829      31365F4D 
 3829      41585F5F 
 3830              	.LASF270:
 3831 360c 5F5F554C 		.ascii	"__ULLACCUM_EPSILON__ 0x1P-32ULLK\000"
 3831      4C414343 
 3831      554D5F45 
 3831      5053494C 
 3831      4F4E5F5F 
 3832              	.LASF177:
 3833 362d 5F5F4445 		.ascii	"__DEC64_MANT_DIG__ 16\000"
 3833      4336345F 
 3833      4D414E54 
 3833      5F444947 
 3833      5F5F2031 
 3834              	.LASF139:
 3835 3643 5F5F464C 		.ascii	"__FLT_HAS_DENORM__ 1\000"
 3835      545F4841 
 3835      535F4445 
 3835      4E4F524D 
 3835      5F5F2031 
 3836              		.ident	"GCC: (GNU Tools for ARM Embedded Processors) 5.3.1 20160307 (release) [ARM/embedded-5-bran
ARM GAS  /var/folders/_2/42wyrlld3p52fkcpt1lv6gxh0000gp/T//ccCQ9Hi4.s 			page 105


DEFINED SYMBOLS
                            *ABS*:0000000000000000 crt0.c
/var/folders/_2/42wyrlld3p52fkcpt1lv6gxh0000gp/T//ccCQ9Hi4.s:20     .text.__early_init:0000000000000000 $t
/var/folders/_2/42wyrlld3p52fkcpt1lv6gxh0000gp/T//ccCQ9Hi4.s:25     .text.__early_init:0000000000000000 __early_init
/var/folders/_2/42wyrlld3p52fkcpt1lv6gxh0000gp/T//ccCQ9Hi4.s:43     .text.__late_init:0000000000000000 $t
/var/folders/_2/42wyrlld3p52fkcpt1lv6gxh0000gp/T//ccCQ9Hi4.s:48     .text.__late_init:0000000000000000 __late_init
/var/folders/_2/42wyrlld3p52fkcpt1lv6gxh0000gp/T//ccCQ9Hi4.s:69     .text._default_exit:0000000000000000 $t
/var/folders/_2/42wyrlld3p52fkcpt1lv6gxh0000gp/T//ccCQ9Hi4.s:74     .text._default_exit:0000000000000000 _default_exit
/var/folders/_2/42wyrlld3p52fkcpt1lv6gxh0000gp/T//ccCQ9Hi4.s:87     .text.ResetHandler:0000000000000000 $t
/var/folders/_2/42wyrlld3p52fkcpt1lv6gxh0000gp/T//ccCQ9Hi4.s:92     .text.ResetHandler:0000000000000000 ResetHandler
/var/folders/_2/42wyrlld3p52fkcpt1lv6gxh0000gp/T//ccCQ9Hi4.s:247    .text.ResetHandler:0000000000000088 $d
                     .debug_frame:0000000000000010 $d
                           .group:0000000000000000 wm4.0.35fed72edb16791606a7cdf63e9f7e36
                           .group:0000000000000000 wm4._newlib_version.h.4.ad342815780c8db09778091a421b5b5b
                           .group:0000000000000000 wm4.features.h.33.863f3be0b2e521e624fcc7d6fa31d2ca
                           .group:0000000000000000 wm4._default_types.h.15.933e8edd27a65e0b69af4a865eb623d2
                           .group:0000000000000000 wm4._intsup.h.10.b82bf99f69d6a5c085fc866de0d3eb9b
                           .group:0000000000000000 wm4._stdint.h.10.f76354baea1c7088202064e6f3d4f5e3
                           .group:0000000000000000 wm4.stdint.h.23.373a9d32a9e4c2e88fd347156532d281

UNDEFINED SYMBOLS
main
__process_stack_end__
__main_stack_base__
__main_stack_end__
__process_stack_base__
_textdata
_data
_edata
_bss_start
_bss_end
__init_array_start
__init_array_end
__fini_array_start
__fini_array_end
