ARM GAS  /var/folders/_2/42wyrlld3p52fkcpt1lv6gxh0000gp/T//ccyEin0Z.s 			page 1


   1              		.syntax unified
   2              		.cpu cortex-m3
   3              		.fpu softvfp
   4              		.eabi_attribute 20, 1
   5              		.eabi_attribute 21, 1
   6              		.eabi_attribute 23, 3
   7              		.eabi_attribute 24, 1
   8              		.eabi_attribute 25, 1
   9              		.eabi_attribute 26, 1
  10              		.eabi_attribute 30, 4
  11              		.eabi_attribute 34, 1
  12              		.eabi_attribute 18, 4
  13              		.thumb
  14              		.syntax unified
  15              		.file	"debug.c"
  16              		.text
  17              	.Ltext0:
  18              		.cfi_sections	.debug_frame
  19              		.section	.text.usart1_putstring,"ax",%progbits
  20              		.align	1
  21              		.global	usart1_putstring
  22              		.thumb
  23              		.thumb_func
  24              		.type	usart1_putstring, %function
  25              	usart1_putstring:
  26              	.LFB56:
  27              		.file 1 "src/debug.c"
  28              		.loc 1 4 0
  29              		.cfi_startproc
  30              		@ args = 0, pretend = 0, frame = 0
  31              		@ frame_needed = 1, uses_anonymous_args = 0
  32              	.LVL0:
  33              		.loc 1 7 0
  34 0000 074A     		ldr	r2, .L9
  35              		.loc 1 4 0
  36 0002 90B5     		push	{r4, r7, lr}
  37              	.LCFI0:
  38              		.cfi_def_cfa_offset 12
  39              		.cfi_offset 4, -12
  40              		.cfi_offset 7, -8
  41              		.cfi_offset 14, -4
  42              		.loc 1 7 0
  43 0004 1146     		mov	r1, r2
  44              		.loc 1 4 0
  45 0006 00AF     		add	r7, sp, #0
  46              	.LCFI1:
  47              		.cfi_def_cfa_register 7
  48 0008 0138     		subs	r0, r0, #1
  49              	.LVL1:
  50              	.L2:
  51              		.loc 1 5 0
  52 000a 10F8013F 		ldrb	r3, [r0, #1]!	@ zero_extendqisi2
  53              	.LVL2:
  54 000e 2BB1     		cbz	r3, .L8
  55              	.L5:
  56              		.loc 1 7 0 discriminator 1
  57 0010 1488     		ldrh	r4, [r2]
ARM GAS  /var/folders/_2/42wyrlld3p52fkcpt1lv6gxh0000gp/T//ccyEin0Z.s 			page 2


  58 0012 2406     		lsls	r4, r4, #24
  59 0014 FCD5     		bpl	.L5
  60              		.loc 1 8 0
  61 0016 9BB2     		uxth	r3, r3
  62 0018 8B80     		strh	r3, [r1, #4]	@ movhi
  63              	.LVL3:
  64 001a F6E7     		b	.L2
  65              	.LVL4:
  66              	.L8:
  67              		.loc 1 11 0
  68 001c 90BD     		pop	{r4, r7, pc}
  69              	.L10:
  70 001e 00BF     		.align	2
  71              	.L9:
  72 0020 00380140 		.word	1073821696
  73              		.cfi_endproc
  74              	.LFE56:
  75              		.size	usart1_putstring, .-usart1_putstring
  76              		.section	.text.reboot,"ax",%progbits
  77              		.align	1
  78              		.global	reboot
  79              		.thumb
  80              		.thumb_func
  81              		.type	reboot, %function
  82              	reboot:
  83              	.LFB57:
  84              		.loc 1 14 0
  85              		.cfi_startproc
  86              		@ args = 0, pretend = 0, frame = 0
  87              		@ frame_needed = 1, uses_anonymous_args = 0
  88 0000 80B5     		push	{r7, lr}
  89              	.LCFI2:
  90              		.cfi_def_cfa_offset 8
  91              		.cfi_offset 7, -8
  92              		.cfi_offset 14, -4
  93              		.loc 1 15 0
  94 0002 024A     		ldr	r2, .L12
  95 0004 024B     		ldr	r3, .L12+4
  96              		.loc 1 14 0
  97 0006 00AF     		add	r7, sp, #0
  98              	.LCFI3:
  99              		.cfi_def_cfa_register 7
 100              		.loc 1 15 0
 101 0008 DA60     		str	r2, [r3, #12]
 102 000a 80BD     		pop	{r7, pc}
 103              	.L13:
 104              		.align	2
 105              	.L12:
 106 000c 0400FA05 		.word	100270084
 107 0010 00ED00E0 		.word	-536810240
 108              		.cfi_endproc
 109              	.LFE57:
 110              		.size	reboot, .-reboot
 111              		.section	.text.HardFaultVector,"ax",%progbits
 112              		.align	1
 113              		.global	HardFaultVector
 114              		.thumb
ARM GAS  /var/folders/_2/42wyrlld3p52fkcpt1lv6gxh0000gp/T//ccyEin0Z.s 			page 3


 115              		.thumb_func
 116              		.type	HardFaultVector, %function
 117              	HardFaultVector:
 118              	.LFB58:
 119              		.loc 1 22 0
 120              		.cfi_startproc
 121              		@ Naked Function: prologue and epilogue provided by programmer.
 122              		@ args = 0, pretend = 0, frame = 0
 123              		@ frame_needed = 1, uses_anonymous_args = 0
 124              		.loc 1 24 0
 125 0000 064C     		ldr	r4, .L15
 126              		.loc 1 25 0
 127 0002 0748     		ldr	r0, .L15+4
 128              		.loc 1 24 0
 129              		.syntax unified
 130              	@ 24 "src/debug.c" 1
 131 0004 EFF30983 		mrs r3, psp
 132              	@ 0 "" 2
 133              		.thumb
 134              		.syntax unified
 135 0008 2360     		str	r3, [r4]
 136              		.loc 1 25 0
 137 000a FFF7FEFF 		bl	usart1_putstring
 138              	.LVL5:
 139              		.loc 1 26 0
 140 000e 054B     		ldr	r3, .L15+8
 141              		.loc 1 28 0
 142 0010 D4F800D0 		ldr	sp, [r4]
 143              		.loc 1 26 0
 144 0014 DA6A     		ldr	r2, [r3, #44]
 145              	.LBB4:
 146              	.LBB5:
 147              		.loc 1 15 0
 148 0016 044A     		ldr	r2, .L15+12
 149 0018 DA60     		str	r2, [r3, #12]
 150              	.LBE5:
 151              	.LBE4:
 152              		.loc 1 30 0
 153              	.L16:
 154 001a 00BF     		.align	2
 155              	.L15:
 156 001c 00000000 		.word	.LANCHOR0
 157 0020 00000000 		.word	.LC0
 158 0024 00ED00E0 		.word	-536810240
 159 0028 0400FA05 		.word	100270084
 160              		.cfi_endproc
 161              	.LFE58:
 162              		.size	HardFaultVector, .-HardFaultVector
 163              		.global	UsageFaultVector
 164              		.thumb_set UsageFaultVector,HardFaultVector
 165              		.global	BusFaultVector
 166              		.thumb_set BusFaultVector,HardFaultVector
 167              		.global	MemManageVector
 168              		.thumb_set MemManageVector,HardFaultVector
 169              		.global	NMIVector
 170              		.thumb_set NMIVector,HardFaultVector
 171              		.global	HARDFAULT_PSP
ARM GAS  /var/folders/_2/42wyrlld3p52fkcpt1lv6gxh0000gp/T//ccyEin0Z.s 			page 4


 172              		.section	.bss.HARDFAULT_PSP,"aw",%nobits
 173              		.align	2
 174              		.set	.LANCHOR0,. + 0
 175              		.type	HARDFAULT_PSP, %object
 176              		.size	HARDFAULT_PSP, 4
 177              	HARDFAULT_PSP:
 178 0000 00000000 		.space	4
 179              		.section	.rodata.str1.1,"aMS",%progbits,1
 180              	.LC0:
 181 0000 0D0A4841 		.ascii	"\015\012HARDFAULT\015\012\000"
 181      52444641 
 181      554C540D 
 181      0A00
 182              		.text
 183              	.Letext0:
 184              		.file 2 "/Users/ARS/Applications/Eclipse.app/Contents/gcc-arm-none-eabi-5_3-2016q1/arm-none-eabi/i
 185              		.file 3 "/Users/ARS/Applications/Eclipse.app/Contents/gcc-arm-none-eabi-5_3-2016q1/arm-none-eabi/i
 186              		.file 4 "chibios/os/ports/common/ARMCMx/CMSIS/include/core_cm3.h"
 187              		.file 5 "chibios/os/hal/platforms/STM32L1xx/stm32l1xx.h"