ARM GAS  /var/folders/_2/42wyrlld3p52fkcpt1lv6gxh0000gp/T//cc2mz8bk.s 			page 1


   1              		.syntax unified
   2              		.cpu cortex-m3
   3              		.fpu softvfp
   4              		.eabi_attribute 20, 1
   5              		.eabi_attribute 21, 1
   6              		.eabi_attribute 23, 3
   7              		.eabi_attribute 24, 1
   8              		.eabi_attribute 25, 1
   9              		.eabi_attribute 26, 1
  10              		.eabi_attribute 30, 4
  11              		.eabi_attribute 34, 1
  12              		.eabi_attribute 18, 4
  13              		.thumb
  14              		.syntax unified
  15              		.file	"display.c"
  16              		.text
  17              	.Ltext0:
  18              		.cfi_sections	.debug_frame
  19              		.section	.text.draw_temp_digit,"ax",%progbits
  20              		.align	1
  21              		.thumb
  22              		.thumb_func
  23              		.type	draw_temp_digit, %function
  24              	draw_temp_digit:
  25              	.LFB90:
  26              		.file 1 "src/display.c"
  27              		.loc 1 387 0
  28              		.cfi_startproc
  29              		@ args = 0, pretend = 0, frame = 16
  30              		@ frame_needed = 1, uses_anonymous_args = 0
  31              	.LVL0:
  32 0000 F0B5     		push	{r4, r5, r6, r7, lr}
  33              	.LCFI0:
  34              		.cfi_def_cfa_offset 20
  35              		.cfi_offset 4, -20
  36              		.cfi_offset 5, -16
  37              		.cfi_offset 6, -12
  38              		.cfi_offset 7, -8
  39              		.cfi_offset 14, -4
  40 0002 87B0     		sub	sp, sp, #28
  41              	.LCFI1:
  42              		.cfi_def_cfa_offset 48
  43 0004 0346     		mov	r3, r0
  44              		.loc 1 389 0
  45 0006 134A     		ldr	r2, .L2
  46              		.loc 1 387 0
  47 0008 02AF     		add	r7, sp, #8
  48              	.LCFI2:
  49              		.cfi_def_cfa 7, 40
  50              		.loc 1 389 0
  51 000a 1068     		ldr	r0, [r2]	@ unaligned
  52              	.LVL1:
  53 000c 1279     		ldrb	r2, [r2, #4]	@ zero_extendqisi2
  54 000e B860     		str	r0, [r7, #8]	@ unaligned
  55 0010 3A73     		strb	r2, [r7, #12]
  56              		.loc 1 390 0
  57 0012 07F11002 		add	r2, r7, #16
ARM GAS  /var/folders/_2/42wyrlld3p52fkcpt1lv6gxh0000gp/T//cc2mz8bk.s 			page 2


  58 0016 1344     		add	r3, r3, r2
  59              	.LVL2:
  60 0018 13F8084C 		ldrb	r4, [r3, #-8]	@ zero_extendqisi2
  61              	.LVL3:
  62              		.loc 1 394 0
  63 001c 0E4D     		ldr	r5, .L2+4
  64 001e 0634     		adds	r4, r4, #6
  65              	.LVL4:
  66 0020 6422     		movs	r2, #100
  67 0022 0123     		movs	r3, #1
  68 0024 8DE80C00 		stmia	sp, {r2, r3}
  69              		.loc 1 392 0
  70 0028 3971     		strb	r1, [r7, #4]
  71 002a 0026     		movs	r6, #0
  72              		.loc 1 394 0
  73 002c 2146     		mov	r1, r4
  74              	.LVL5:
  75 002e 2868     		ldr	r0, [r5]
  76 0030 4823     		movs	r3, #72
  77 0032 DB22     		movs	r2, #219
  78              		.loc 1 392 0
  79 0034 7E71     		strb	r6, [r7, #5]
  80              		.loc 1 394 0
  81 0036 FFF7FEFF 		bl	gdispGFillArea
  82              	.LVL6:
  83              		.loc 1 395 0
  84 003a 084B     		ldr	r3, .L2+8
  85 003c 0196     		str	r6, [sp, #4]
  86 003e 1B68     		ldr	r3, [r3]
  87 0040 DC22     		movs	r2, #220
  88 0042 0093     		str	r3, [sp]
  89 0044 2146     		mov	r1, r4
  90 0046 3B1D     		adds	r3, r7, #4
  91 0048 2868     		ldr	r0, [r5]
  92 004a FFF7FEFF 		bl	gdispGDrawString
  93              	.LVL7:
  94              		.loc 1 398 0
  95 004e 1437     		adds	r7, r7, #20
  96              	.LCFI3:
  97              		.cfi_def_cfa_offset 20
  98 0050 BD46     		mov	sp, r7
  99              	.LCFI4:
 100              		.cfi_def_cfa_register 13
 101              		@ sp needed
 102 0052 F0BD     		pop	{r4, r5, r6, r7, pc}
 103              	.LVL8:
 104              	.L3:
 105              		.align	2
 106              	.L2:
 107 0054 00000000 		.word	.LANCHOR0
 108 0058 00000000 		.word	GDISP
 109 005c 00000000 		.word	.LANCHOR1
 110              		.cfi_endproc
 111              	.LFE90:
 112              		.size	draw_temp_digit, .-draw_temp_digit
 113              		.section	.text.draw_gsr_digit,"ax",%progbits
 114              		.align	1
ARM GAS  /var/folders/_2/42wyrlld3p52fkcpt1lv6gxh0000gp/T//cc2mz8bk.s 			page 3


 115              		.thumb
 116              		.thumb_func
 117              		.type	draw_gsr_digit, %function
 118              	draw_gsr_digit:
 119              	.LFB91:
 120              		.loc 1 401 0
 121              		.cfi_startproc
 122              		@ args = 0, pretend = 0, frame = 8
 123              		@ frame_needed = 1, uses_anonymous_args = 0
 124              	.LVL9:
 125 0000 F0B5     		push	{r4, r5, r6, r7, lr}
 126              	.LCFI5:
 127              		.cfi_def_cfa_offset 20
 128              		.cfi_offset 4, -20
 129              		.cfi_offset 5, -16
 130              		.cfi_offset 6, -12
 131              		.cfi_offset 7, -8
 132              		.cfi_offset 14, -4
 133 0002 85B0     		sub	sp, sp, #20
 134              	.LCFI6:
 135              		.cfi_def_cfa_offset 40
 136 0004 0346     		mov	r3, r0
 137              		.loc 1 403 0
 138 0006 144A     		ldr	r2, .L5
 139              		.loc 1 401 0
 140 0008 02AF     		add	r7, sp, #8
 141              	.LCFI7:
 142              		.cfi_def_cfa 7, 32
 143              		.loc 1 403 0
 144 000a 1068     		ldr	r0, [r2]	@ unaligned
 145              	.LVL10:
 146              		.loc 1 404 0
 147 000c 07F10802 		add	r2, r7, #8
 148              		.loc 1 403 0
 149 0010 7860     		str	r0, [r7, #4]	@ unaligned
 150              		.loc 1 404 0
 151 0012 02EB4303 		add	r3, r2, r3, lsl #1
 152              	.LVL11:
 153 0016 33F8044C 		ldrh	r4, [r3, #-4]
 154              		.loc 1 409 0
 155 001a 104D     		ldr	r5, .L5+4
 156              		.loc 1 404 0
 157 001c 0634     		adds	r4, r4, #6
 158              	.LVL12:
 159              		.loc 1 409 0
 160 001e 24B2     		sxth	r4, r4
 161              	.LVL13:
 162 0020 2822     		movs	r2, #40
 163 0022 0123     		movs	r3, #1
 164              	.LVL14:
 165 0024 8DE80C00 		stmia	sp, {r2, r3}
 166              		.loc 1 407 0
 167 0028 3970     		strb	r1, [r7]
 168 002a 0026     		movs	r6, #0
 169              		.loc 1 409 0
 170 002c 2146     		mov	r1, r4
 171              	.LVL15:
ARM GAS  /var/folders/_2/42wyrlld3p52fkcpt1lv6gxh0000gp/T//cc2mz8bk.s 			page 4


 172 002e 2868     		ldr	r0, [r5]
 173 0030 1E23     		movs	r3, #30
 174 0032 40F23A22 		movw	r2, #570
 175              		.loc 1 407 0
 176 0036 7E70     		strb	r6, [r7, #1]
 177              		.loc 1 409 0
 178 0038 FFF7FEFF 		bl	gdispGFillArea
 179              	.LVL16:
 180              		.loc 1 410 0
 181 003c 084B     		ldr	r3, .L5+8
 182 003e 0196     		str	r6, [sp, #4]
 183              	.LVL17:
 184 0040 1B68     		ldr	r3, [r3]
 185 0042 40F23A22 		movw	r2, #570
 186 0046 0093     		str	r3, [sp]
 187 0048 2146     		mov	r1, r4
 188 004a 3B46     		mov	r3, r7
 189 004c 2868     		ldr	r0, [r5]
 190 004e FFF7FEFF 		bl	gdispGDrawString
 191              	.LVL18:
 192              		.loc 1 413 0
 193 0052 0C37     		adds	r7, r7, #12
 194              	.LCFI8:
 195              		.cfi_def_cfa_offset 20
 196 0054 BD46     		mov	sp, r7
 197              	.LCFI9:
 198              		.cfi_def_cfa_register 13
 199              		@ sp needed
 200 0056 F0BD     		pop	{r4, r5, r6, r7, pc}
 201              	.L6:
 202              		.align	2
 203              	.L5:
 204 0058 06000000 		.word	.LANCHOR0+6
 205 005c 00000000 		.word	GDISP
 206 0060 00000000 		.word	.LANCHOR2
 207              		.cfi_endproc
 208              	.LFE91:
 209              		.size	draw_gsr_digit, .-draw_gsr_digit
 210              		.section	.text.draw_pulse_digit2,"ax",%progbits
 211              		.align	1
 212              		.thumb
 213              		.thumb_func
 214              		.type	draw_pulse_digit2, %function
 215              	draw_pulse_digit2:
 216              	.LFB93:
 217              		.loc 1 435 0
 218              		.cfi_startproc
 219              		@ args = 0, pretend = 0, frame = 16
 220              		@ frame_needed = 1, uses_anonymous_args = 0
 221              	.LVL19:
 222 0000 2DE9F043 		push	{r4, r5, r6, r7, r8, r9, lr}
 223              	.LCFI10:
 224              		.cfi_def_cfa_offset 28
 225              		.cfi_offset 4, -28
 226              		.cfi_offset 5, -24
 227              		.cfi_offset 6, -20
 228              		.cfi_offset 7, -16
ARM GAS  /var/folders/_2/42wyrlld3p52fkcpt1lv6gxh0000gp/T//cc2mz8bk.s 			page 5


 229              		.cfi_offset 8, -12
 230              		.cfi_offset 9, -8
 231              		.cfi_offset 14, -4
 232 0004 87B0     		sub	sp, sp, #28
 233              	.LCFI11:
 234              		.cfi_def_cfa_offset 56
 235 0006 0346     		mov	r3, r0
 236              		.loc 1 437 0
 237 0008 274A     		ldr	r2, .L8
 238              		.loc 1 435 0
 239 000a 02AF     		add	r7, sp, #8
 240              	.LCFI12:
 241              		.cfi_def_cfa 7, 48
 242              		.loc 1 437 0
 243 000c 52F80A0F 		ldr	r0, [r2, #10]!	@ unaligned
 244              	.LVL20:
 245              		.loc 1 441 0
 246 0010 264D     		ldr	r5, .L8+4
 247              		.loc 1 437 0
 248 0012 9288     		ldrh	r2, [r2, #4]	@ unaligned
 249 0014 B860     		str	r0, [r7, #8]	@ unaligned
 250 0016 BA81     		strh	r2, [r7, #12]	@ unaligned
 251              		.loc 1 438 0
 252 0018 07F11002 		add	r2, r7, #16
 253 001c 02EB4303 		add	r3, r2, r3, lsl #1
 254              	.LVL21:
 255 0020 33F8084C 		ldrh	r4, [r3, #-8]
 256              		.loc 1 441 0
 257 0024 6426     		movs	r6, #100
 258              		.loc 1 438 0
 259 0026 0634     		adds	r4, r4, #6
 260              	.LVL22:
 261              		.loc 1 441 0
 262 0028 24B2     		sxth	r4, r4
 263              	.LVL23:
 264 002a 4FF00108 		mov	r8, #1
 265 002e 3971     		strb	r1, [r7, #4]
 266 0030 4FF00009 		mov	r9, #0
 267 0034 2146     		mov	r1, r4
 268              	.LVL24:
 269 0036 2868     		ldr	r0, [r5]
 270 0038 8DE84001 		stmia	sp, {r6, r8}
 271 003c 4823     		movs	r3, #72
 272              	.LVL25:
 273 003e DB22     		movs	r2, #219
 274              	.LVL26:
 275 0040 87F80590 		strb	r9, [r7, #5]
 276 0044 FFF7FEFF 		bl	gdispGFillArea
 277              	.LVL27:
 278              		.loc 1 442 0
 279 0048 2146     		mov	r1, r4
 280 004a 2868     		ldr	r0, [r5]
 281 004c 8DE84001 		stmia	sp, {r6, r8}
 282              	.LVL28:
 283 0050 4823     		movs	r3, #72
 284 0052 DB22     		movs	r2, #219
 285 0054 FFF7FEFF 		bl	gdispGFillArea
ARM GAS  /var/folders/_2/42wyrlld3p52fkcpt1lv6gxh0000gp/T//cc2mz8bk.s 			page 6


 286              	.LVL29:
 287              		.loc 1 443 0
 288 0058 2146     		mov	r1, r4
 289 005a 2868     		ldr	r0, [r5]
 290 005c 8DE84001 		stmia	sp, {r6, r8}
 291 0060 4823     		movs	r3, #72
 292 0062 DB22     		movs	r2, #219
 293 0064 FFF7FEFF 		bl	gdispGFillArea
 294              	.LVL30:
 295              		.loc 1 444 0
 296 0068 2146     		mov	r1, r4
 297 006a 2868     		ldr	r0, [r5]
 298 006c 8DE84001 		stmia	sp, {r6, r8}
 299 0070 4823     		movs	r3, #72
 300 0072 DB22     		movs	r2, #219
 301 0074 FFF7FEFF 		bl	gdispGFillArea
 302              	.LVL31:
 303              		.loc 1 446 0
 304 0078 2146     		mov	r1, r4
 305 007a 2868     		ldr	r0, [r5]
 306 007c 8DE84001 		stmia	sp, {r6, r8}
 307 0080 4823     		movs	r3, #72
 308 0082 DB22     		movs	r2, #219
 309 0084 FFF7FEFF 		bl	gdispGFillArea
 310              	.LVL32:
 311              		.loc 1 447 0
 312 0088 094B     		ldr	r3, .L8+8
 313 008a CDF80490 		str	r9, [sp, #4]
 314 008e 1B68     		ldr	r3, [r3]
 315 0090 DC22     		movs	r2, #220
 316 0092 0093     		str	r3, [sp]
 317 0094 2146     		mov	r1, r4
 318 0096 3B1D     		adds	r3, r7, #4
 319 0098 2868     		ldr	r0, [r5]
 320 009a FFF7FEFF 		bl	gdispGDrawString
 321              	.LVL33:
 322              		.loc 1 450 0
 323 009e 1437     		adds	r7, r7, #20
 324              	.LCFI13:
 325              		.cfi_def_cfa_offset 28
 326 00a0 BD46     		mov	sp, r7
 327              	.LCFI14:
 328              		.cfi_def_cfa_register 13
 329              		@ sp needed
 330 00a2 BDE8F083 		pop	{r4, r5, r6, r7, r8, r9, pc}
 331              	.L9:
 332 00a6 00BF     		.align	2
 333              	.L8:
 334 00a8 00000000 		.word	.LANCHOR0
 335 00ac 00000000 		.word	GDISP
 336 00b0 00000000 		.word	.LANCHOR1
 337              		.cfi_endproc
 338              	.LFE93:
 339              		.size	draw_pulse_digit2, .-draw_pulse_digit2
 340              		.section	.text.draw_pulse_digit,"ax",%progbits
 341              		.align	1
 342              		.thumb
ARM GAS  /var/folders/_2/42wyrlld3p52fkcpt1lv6gxh0000gp/T//cc2mz8bk.s 			page 7


 343              		.thumb_func
 344              		.type	draw_pulse_digit, %function
 345              	draw_pulse_digit:
 346              	.LFB92:
 347              		.loc 1 416 0
 348              		.cfi_startproc
 349              		@ args = 0, pretend = 0, frame = 16
 350              		@ frame_needed = 1, uses_anonymous_args = 0
 351              	.LVL34:
 352              		.loc 1 418 0
 353 0000 40F28F23 		movw	r3, #655
 354              		.loc 1 416 0
 355 0004 2DE9F043 		push	{r4, r5, r6, r7, r8, r9, lr}
 356              	.LCFI15:
 357              		.cfi_def_cfa_offset 28
 358              		.cfi_offset 4, -28
 359              		.cfi_offset 5, -24
 360              		.cfi_offset 6, -20
 361              		.cfi_offset 7, -16
 362              		.cfi_offset 8, -12
 363              		.cfi_offset 9, -8
 364              		.cfi_offset 14, -4
 365 0008 87B0     		sub	sp, sp, #28
 366              	.LCFI16:
 367              		.cfi_def_cfa_offset 56
 368 000a 02AF     		add	r7, sp, #8
 369              	.LCFI17:
 370              		.cfi_def_cfa 7, 48
 371              		.loc 1 418 0
 372 000c 3B81     		strh	r3, [r7, #8]	@ movhi
 373 000e 40F2DF23 		movw	r3, #735
 374 0012 4FF00009 		mov	r9, #0
 375 0016 7B81     		strh	r3, [r7, #10]	@ movhi
 376              		.loc 1 419 0
 377 0018 07F11003 		add	r3, r7, #16
 378              		.loc 1 418 0
 379 001c A7F80C90 		strh	r9, [r7, #12]	@ movhi
 380              		.loc 1 419 0
 381 0020 03EB4000 		add	r0, r3, r0, lsl #1
 382              	.LVL35:
 383 0024 30F8084C 		ldrh	r4, [r0, #-8]
 384              		.loc 1 423 0
 385 0028 1F4D     		ldr	r5, .L11
 386              		.loc 1 419 0
 387 002a 0634     		adds	r4, r4, #6
 388              	.LVL36:
 389              		.loc 1 423 0
 390 002c 24B2     		sxth	r4, r4
 391              	.LVL37:
 392 002e 6426     		movs	r6, #100
 393 0030 4FF00108 		mov	r8, #1
 394              		.loc 1 422 0
 395 0034 3971     		strb	r1, [r7, #4]
 396              		.loc 1 423 0
 397 0036 2868     		ldr	r0, [r5]
 398              	.LVL38:
 399 0038 2146     		mov	r1, r4
ARM GAS  /var/folders/_2/42wyrlld3p52fkcpt1lv6gxh0000gp/T//cc2mz8bk.s 			page 8


 400              	.LVL39:
 401 003a 8DE84001 		stmia	sp, {r6, r8}
 402 003e 4823     		movs	r3, #72
 403              	.LVL40:
 404 0040 DB22     		movs	r2, #219
 405              		.loc 1 422 0
 406 0042 87F80590 		strb	r9, [r7, #5]
 407              		.loc 1 423 0
 408 0046 FFF7FEFF 		bl	gdispGFillArea
 409              	.LVL41:
 410              		.loc 1 424 0
 411 004a 2146     		mov	r1, r4
 412 004c 2868     		ldr	r0, [r5]
 413 004e 8DE84001 		stmia	sp, {r6, r8}
 414              	.LVL42:
 415 0052 4823     		movs	r3, #72
 416 0054 DB22     		movs	r2, #219
 417 0056 FFF7FEFF 		bl	gdispGFillArea
 418              	.LVL43:
 419              		.loc 1 425 0
 420 005a 2146     		mov	r1, r4
 421 005c 2868     		ldr	r0, [r5]
 422 005e 8DE84001 		stmia	sp, {r6, r8}
 423 0062 4823     		movs	r3, #72
 424 0064 DB22     		movs	r2, #219
 425 0066 FFF7FEFF 		bl	gdispGFillArea
 426              	.LVL44:
 427              		.loc 1 426 0
 428 006a 2146     		mov	r1, r4
 429 006c 2868     		ldr	r0, [r5]
 430 006e 8DE84001 		stmia	sp, {r6, r8}
 431 0072 4823     		movs	r3, #72
 432 0074 DB22     		movs	r2, #219
 433 0076 FFF7FEFF 		bl	gdispGFillArea
 434              	.LVL45:
 435              		.loc 1 428 0
 436 007a 2146     		mov	r1, r4
 437 007c 2868     		ldr	r0, [r5]
 438 007e 8DE84001 		stmia	sp, {r6, r8}
 439 0082 4823     		movs	r3, #72
 440 0084 DB22     		movs	r2, #219
 441 0086 FFF7FEFF 		bl	gdispGFillArea
 442              	.LVL46:
 443              		.loc 1 429 0
 444 008a 084B     		ldr	r3, .L11+4
 445 008c CDF80490 		str	r9, [sp, #4]
 446 0090 1B68     		ldr	r3, [r3]
 447 0092 DC22     		movs	r2, #220
 448 0094 0093     		str	r3, [sp]
 449 0096 2146     		mov	r1, r4
 450 0098 3B1D     		adds	r3, r7, #4
 451 009a 2868     		ldr	r0, [r5]
 452 009c FFF7FEFF 		bl	gdispGDrawString
 453              	.LVL47:
 454              		.loc 1 432 0
 455 00a0 1437     		adds	r7, r7, #20
 456              	.LCFI18:
ARM GAS  /var/folders/_2/42wyrlld3p52fkcpt1lv6gxh0000gp/T//cc2mz8bk.s 			page 9


 457              		.cfi_def_cfa_offset 28
 458 00a2 BD46     		mov	sp, r7
 459              	.LCFI19:
 460              		.cfi_def_cfa_register 13
 461              		@ sp needed
 462 00a4 BDE8F083 		pop	{r4, r5, r6, r7, r8, r9, pc}
 463              	.L12:
 464              		.align	2
 465              	.L11:
 466 00a8 00000000 		.word	GDISP
 467 00ac 00000000 		.word	.LANCHOR1
 468              		.cfi_endproc
 469              	.LFE92:
 470              		.size	draw_pulse_digit, .-draw_pulse_digit
 471              		.section	.text.display_samplecount,"ax",%progbits
 472              		.align	1
 473              		.global	display_samplecount
 474              		.thumb
 475              		.thumb_func
 476              		.type	display_samplecount, %function
 477              	display_samplecount:
 478              	.LFB81:
 479              		.loc 1 103 0
 480              		.cfi_startproc
 481              		@ args = 0, pretend = 0, frame = 0
 482              		@ frame_needed = 1, uses_anonymous_args = 0
 483 0000 80B5     		push	{r7, lr}
 484              	.LCFI20:
 485              		.cfi_def_cfa_offset 8
 486              		.cfi_offset 7, -8
 487              		.cfi_offset 14, -4
 488              		.loc 1 105 0
 489 0002 024B     		ldr	r3, .L14
 490              		.loc 1 103 0
 491 0004 00AF     		add	r7, sp, #0
 492              	.LCFI21:
 493              		.cfi_def_cfa_register 7
 494              		.loc 1 105 0
 495 0006 986B     		ldr	r0, [r3, #56]
 496 0008 80BD     		pop	{r7, pc}
 497              	.L15:
 498 000a 00BF     		.align	2
 499              	.L14:
 500 000c 00000000 		.word	.LANCHOR3
 501              		.cfi_endproc
 502              	.LFE81:
 503              		.size	display_samplecount, .-display_samplecount
 504              		.section	.text.display_export_csv,"ax",%progbits
 505              		.align	1
 506              		.global	display_export_csv
 507              		.thumb
 508              		.thumb_func
 509              		.type	display_export_csv, %function
 510              	display_export_csv:
 511              	.LFB82:
 512              		.loc 1 108 0
 513              		.cfi_startproc
ARM GAS  /var/folders/_2/42wyrlld3p52fkcpt1lv6gxh0000gp/T//cc2mz8bk.s 			page 10


 514              		@ args = 0, pretend = 0, frame = 0
 515              		@ frame_needed = 1, uses_anonymous_args = 0
 516              	.LVL48:
 517 0000 F8B5     		push	{r3, r4, r5, r6, r7, lr}
 518              	.LCFI22:
 519              		.cfi_def_cfa_offset 24
 520              		.cfi_offset 3, -24
 521              		.cfi_offset 4, -20
 522              		.cfi_offset 5, -16
 523              		.cfi_offset 6, -12
 524              		.cfi_offset 7, -8
 525              		.cfi_offset 14, -4
 526              		.loc 1 109 0
 527 0002 094B     		ldr	r3, .L21
 528              		.loc 1 108 0
 529 0004 00AF     		add	r7, sp, #0
 530              	.LCFI23:
 531              		.cfi_def_cfa_register 7
 532              		.loc 1 111 0
 533 0006 0949     		ldr	r1, .L21+4
 534              		.loc 1 108 0
 535 0008 0646     		mov	r6, r0
 536              		.loc 1 109 0
 537 000a 9D6B     		ldr	r5, [r3, #56]
 538              	.LVL49:
 539              		.loc 1 111 0
 540 000c FFF7FEFF 		bl	chprintf
 541              	.LVL50:
 542              	.LBB5:
 543              		.loc 1 113 0
 544 0010 0024     		movs	r4, #0
 545              	.LVL51:
 546              	.L17:
 547              		.loc 1 113 0 is_stmt 0 discriminator 1
 548 0012 AC42     		cmp	r4, r5
 549 0014 07DA     		bge	.L20
 550              		.loc 1 115 0 is_stmt 1 discriminator 3
 551 0016 0023     		movs	r3, #0
 552 0018 1A46     		mov	r2, r3
 553 001a 0549     		ldr	r1, .L21+8
 554 001c 3046     		mov	r0, r6
 555 001e FFF7FEFF 		bl	chprintf
 556              	.LVL52:
 557              		.loc 1 113 0 discriminator 3
 558 0022 0134     		adds	r4, r4, #1
 559              	.LVL53:
 560 0024 F5E7     		b	.L17
 561              	.L20:
 562              	.LBE5:
 563              		.loc 1 117 0
 564 0026 F8BD     		pop	{r3, r4, r5, r6, r7, pc}
 565              	.LVL54:
 566              	.L22:
 567              		.align	2
 568              	.L21:
 569 0028 00000000 		.word	.LANCHOR3
 570 002c 00000000 		.word	.LC3
ARM GAS  /var/folders/_2/42wyrlld3p52fkcpt1lv6gxh0000gp/T//cc2mz8bk.s 			page 11


 571 0030 1D000000 		.word	.LC4
 572              		.cfi_endproc
 573              	.LFE82:
 574              		.size	display_export_csv, .-display_export_csv
 575              		.global	__aeabi_f2iz
 576              		.section	.text.display_update_temperature,"ax",%progbits
 577              		.align	1
 578              		.global	display_update_temperature
 579              		.thumb
 580              		.thumb_func
 581              		.type	display_update_temperature, %function
 582              	display_update_temperature:
 583              	.LFB83:
 584              		.loc 1 120 0
 585              		.cfi_startproc
 586              		@ args = 0, pretend = 0, frame = 16
 587              		@ frame_needed = 1, uses_anonymous_args = 0
 588              	.LVL55:
 589 0000 F0B5     		push	{r4, r5, r6, r7, lr}
 590              	.LCFI24:
 591              		.cfi_def_cfa_offset 20
 592              		.cfi_offset 4, -20
 593              		.cfi_offset 5, -16
 594              		.cfi_offset 6, -12
 595              		.cfi_offset 7, -8
 596              		.cfi_offset 14, -4
 597 0002 85B0     		sub	sp, sp, #20
 598              	.LCFI25:
 599              		.cfi_def_cfa_offset 40
 600 0004 00AF     		add	r7, sp, #0
 601              	.LCFI26:
 602              		.cfi_def_cfa_register 7
 603              		.loc 1 127 0
 604 0006 07F10C02 		add	r2, r7, #12
 605 000a 07F10801 		add	r1, r7, #8
 606 000e 381D     		adds	r0, r7, #4
 607 0010 FFF7FEFF 		bl	pass_heart_temp
 608              	.LVL56:
 609              		.loc 1 134 0
 610 0014 F868     		ldr	r0, [r7, #12]	@ float
 611 0016 FFF7FEFF 		bl	__aeabi_f2iz
 612              	.LVL57:
 613 001a 0646     		mov	r6, r0
 614              	.LVL58:
 615              	.LBB6:
 616              		.loc 1 152 0
 617 001c 174C     		ldr	r4, .L26
 618 001e 2223     		movs	r3, #34
 619 0020 174A     		ldr	r2, .L26+4
 620 0022 0821     		movs	r1, #8
 621 0024 04F11400 		add	r0, r4, #20
 622              	.LVL59:
 623 0028 FFF7FEFF 		bl	snprintf
 624              	.LVL60:
 625              		.loc 1 168 0
 626 002c 154D     		ldr	r5, .L26+8
 627              		.loc 1 154 0
ARM GAS  /var/folders/_2/42wyrlld3p52fkcpt1lv6gxh0000gp/T//cc2mz8bk.s 			page 12


 628 002e 0023     		movs	r3, #0
 629 0030 A375     		strb	r3, [r4, #22]
 630              		.loc 1 158 0
 631 0032 134A     		ldr	r2, .L26+4
 632 0034 3346     		mov	r3, r6
 633 0036 0421     		movs	r1, #4
 634 0038 04F11000 		add	r0, r4, #16
 635 003c FFF7FEFF 		bl	snprintf
 636              	.LVL61:
 637              		.loc 1 168 0
 638 0040 2B68     		ldr	r3, [r5]
 639 0042 4BB9     		cbnz	r3, .L24
 640              		.loc 1 170 0
 641 0044 4A23     		movs	r3, #74
 642 0046 0E4A     		ldr	r2, .L26+4
 643 0048 0421     		movs	r1, #4
 644 004a 04F10C00 		add	r0, r4, #12
 645 004e FFF7FEFF 		bl	snprintf
 646              	.LVL62:
 647              		.loc 1 173 0
 648 0052 0D4B     		ldr	r3, .L26+12
 649 0054 0122     		movs	r2, #1
 650 0056 1A60     		str	r2, [r3]
 651              	.L24:
 652              		.loc 1 175 0
 653 0058 2B68     		ldr	r3, [r5]
 654              	.LBE6:
 655              		.loc 1 238 0
 656 005a 1437     		adds	r7, r7, #20
 657              	.LCFI27:
 658              		.cfi_def_cfa_offset 20
 659              	.LBB7:
 660              		.loc 1 175 0
 661 005c 4633     		adds	r3, r3, #70
 662 005e 2B60     		str	r3, [r5]
 663              		.loc 1 176 0
 664 0060 2B68     		ldr	r3, [r5]
 665 0062 B3F5967F 		cmp	r3, #300
 666              		.loc 1 177 0
 667 0066 82BF     		ittt	hi
 668 0068 064B     		ldrhi	r3, .L26+8
 669 006a 0022     		movhi	r2, #0
 670 006c 1A60     		strhi	r2, [r3]
 671              		.loc 1 187 0
 672 006e 2223     		movs	r3, #34
 673              		.loc 1 188 0
 674 0070 84E84800 		stmia	r4, {r3, r6}
 675              		.loc 1 189 0
 676 0074 4B23     		movs	r3, #75
 677 0076 A360     		str	r3, [r4, #8]
 678              	.LBE7:
 679              		.loc 1 238 0
 680 0078 BD46     		mov	sp, r7
 681              	.LCFI28:
 682              		.cfi_def_cfa_register 13
 683              		@ sp needed
 684 007a F0BD     		pop	{r4, r5, r6, r7, pc}
ARM GAS  /var/folders/_2/42wyrlld3p52fkcpt1lv6gxh0000gp/T//cc2mz8bk.s 			page 13


 685              	.LVL63:
 686              	.L27:
 687              		.align	2
 688              	.L26:
 689 007c 00000000 		.word	.LANCHOR3
 690 0080 28000000 		.word	.LC5
 691 0084 00000000 		.word	.LANCHOR4
 692 0088 00000000 		.word	.LANCHOR5
 693              		.cfi_endproc
 694              	.LFE83:
 695              		.size	display_update_temperature, .-display_update_temperature
 696              		.section	.text.display_clear,"ax",%progbits
 697              		.align	1
 698              		.global	display_clear
 699              		.thumb
 700              		.thumb_func
 701              		.type	display_clear, %function
 702              	display_clear:
 703              	.LFB80:
 704              		.loc 1 84 0
 705              		.cfi_startproc
 706              		@ args = 0, pretend = 0, frame = 0
 707              		@ frame_needed = 1, uses_anonymous_args = 0
 708 0000 80B5     		push	{r7, lr}
 709              	.LCFI29:
 710              		.cfi_def_cfa_offset 8
 711              		.cfi_offset 7, -8
 712              		.cfi_offset 14, -4
 713 0002 00AF     		add	r7, sp, #0
 714              	.LCFI30:
 715              		.cfi_def_cfa_register 7
 716              		.loc 1 85 0
 717 0004 FFF7FEFF 		bl	display_update_temperature
 718              	.LVL64:
 719              		.loc 1 92 0
 720 0008 024B     		ldr	r3, .L29
 721 000a 0122     		movs	r2, #1
 722 000c 83F84020 		strb	r2, [r3, #64]
 723 0010 80BD     		pop	{r7, pc}
 724              	.L30:
 725 0012 00BF     		.align	2
 726              	.L29:
 727 0014 00000000 		.word	.LANCHOR3
 728              		.cfi_endproc
 729              	.LFE80:
 730              		.size	display_clear, .-display_clear
 731              		.section	.text.display_init,"ax",%progbits
 732              		.align	1
 733              		.global	display_init
 734              		.thumb
 735              		.thumb_func
 736              		.type	display_init, %function
 737              	display_init:
 738              	.LFB79:
 739              		.loc 1 76 0
 740              		.cfi_startproc
 741              		@ args = 0, pretend = 0, frame = 0
ARM GAS  /var/folders/_2/42wyrlld3p52fkcpt1lv6gxh0000gp/T//cc2mz8bk.s 			page 14


 742              		@ frame_needed = 1, uses_anonymous_args = 0
 743 0000 80B5     		push	{r7, lr}
 744              	.LCFI31:
 745              		.cfi_def_cfa_offset 8
 746              		.cfi_offset 7, -8
 747              		.cfi_offset 14, -4
 748              		.loc 1 77 0
 749 0002 0848     		ldr	r0, .L32
 750              		.loc 1 76 0
 751 0004 00AF     		add	r7, sp, #0
 752              	.LCFI32:
 753              		.cfi_def_cfa_register 7
 754              		.loc 1 77 0
 755 0006 FFF7FEFF 		bl	gdispOpenFont
 756              	.LVL65:
 757 000a 074B     		ldr	r3, .L32+4
 758 000c 1860     		str	r0, [r3]
 759              		.loc 1 78 0
 760 000e 0748     		ldr	r0, .L32+8
 761 0010 FFF7FEFF 		bl	gdispOpenFont
 762              	.LVL66:
 763 0014 064B     		ldr	r3, .L32+12
 764 0016 1860     		str	r0, [r3]
 765              		.loc 1 81 0
 766 0018 BD46     		mov	sp, r7
 767              	.LCFI33:
 768              		.cfi_def_cfa_register 13
 769              		@ sp needed
 770 001a BDE88040 		pop	{r7, lr}
 771              	.LCFI34:
 772              		.cfi_restore 14
 773              		.cfi_restore 7
 774              		.cfi_def_cfa_offset 0
 775              		.loc 1 80 0
 776 001e FFF7FEBF 		b	display_clear
 777              	.LVL67:
 778              	.L33:
 779 0022 00BF     		.align	2
 780              	.L32:
 781 0024 2C000000 		.word	.LC6
 782 0028 00000000 		.word	.LANCHOR1
 783 002c 34000000 		.word	.LC7
 784 0030 00000000 		.word	.LANCHOR2
 785              		.cfi_endproc
 786              	.LFE79:
 787              		.size	display_init, .-display_init
 788              		.section	.text.display_set_alarm,"ax",%progbits
 789              		.align	1
 790              		.global	display_set_alarm
 791              		.thumb
 792              		.thumb_func
 793              		.type	display_set_alarm, %function
 794              	display_set_alarm:
 795              	.LFB85:
 796              		.loc 1 241 0
 797              		.cfi_startproc
 798              		@ args = 0, pretend = 0, frame = 0
ARM GAS  /var/folders/_2/42wyrlld3p52fkcpt1lv6gxh0000gp/T//cc2mz8bk.s 			page 15


 799              		@ frame_needed = 1, uses_anonymous_args = 0
 800              		@ link register save eliminated.
 801              	.LVL68:
 802 0000 0346     		mov	r3, r0
 803              		.loc 1 242 0
 804 0002 4FF47A72 		mov	r2, #1000
 805              		.loc 1 241 0
 806 0006 80B4     		push	{r7}
 807              	.LCFI35:
 808              		.cfi_def_cfa_offset 4
 809              		.cfi_offset 7, -4
 810              		.loc 1 242 0
 811 0008 5A43     		muls	r2, r3, r2
 812 000a 0548     		ldr	r0, .L35
 813              	.LVL69:
 814              		.loc 1 241 0
 815 000c 00AF     		add	r7, sp, #0
 816              	.LCFI36:
 817              		.cfi_def_cfa_register 7
 818              		.loc 1 242 0
 819 000e 0262     		str	r2, [r0, #32]
 820              		.loc 1 243 0
 821 0010 044A     		ldr	r2, .L35+4
 822 0012 0421     		movs	r1, #4
 823 0014 1C30     		adds	r0, r0, #28
 824              		.loc 1 244 0
 825 0016 BD46     		mov	sp, r7
 826              	.LCFI37:
 827              		.cfi_def_cfa_register 13
 828              		@ sp needed
 829 0018 80BC     		pop	{r7}
 830              	.LCFI38:
 831              		.cfi_restore 7
 832              		.cfi_def_cfa_offset 0
 833              		.loc 1 243 0
 834 001a FFF7FEBF 		b	snprintf
 835              	.LVL70:
 836              	.L36:
 837 001e 00BF     		.align	2
 838              	.L35:
 839 0020 00000000 		.word	.LANCHOR3
 840 0024 3F000000 		.word	.LC8
 841              		.cfi_endproc
 842              	.LFE85:
 843              		.size	display_set_alarm, .-display_set_alarm
 844              		.section	.text.display_full_redraw,"ax",%progbits
 845              		.align	1
 846              		.global	display_full_redraw
 847              		.thumb
 848              		.thumb_func
 849              		.type	display_full_redraw, %function
 850              	display_full_redraw:
 851              	.LFB99:
 852              		.loc 1 534 0
 853              		.cfi_startproc
 854              		@ args = 0, pretend = 0, frame = 16
 855              		@ frame_needed = 1, uses_anonymous_args = 0
ARM GAS  /var/folders/_2/42wyrlld3p52fkcpt1lv6gxh0000gp/T//cc2mz8bk.s 			page 16


 856 0000 2DE9F047 		push	{r4, r5, r6, r7, r8, r9, r10, lr}
 857              	.LCFI39:
 858              		.cfi_def_cfa_offset 32
 859              		.cfi_offset 4, -32
 860              		.cfi_offset 5, -28
 861              		.cfi_offset 6, -24
 862              		.cfi_offset 7, -20
 863              		.cfi_offset 8, -16
 864              		.cfi_offset 9, -12
 865              		.cfi_offset 10, -8
 866              		.cfi_offset 14, -4
 867 0004 86B0     		sub	sp, sp, #24
 868              	.LCFI40:
 869              		.cfi_def_cfa_offset 56
 870              		.loc 1 540 0
 871 0006 C14C     		ldr	r4, .L45
 872              		.loc 1 534 0
 873 0008 02AF     		add	r7, sp, #8
 874              	.LCFI41:
 875              		.cfi_def_cfa 7, 48
 876              		.loc 1 540 0
 877 000a 0322     		movs	r2, #3
 878 000c 0021     		movs	r1, #0
 879 000e 2068     		ldr	r0, [r4]
 880 0010 FFF7FEFF 		bl	gdispGControl
 881              	.LVL71:
 882              		.loc 1 543 0
 883 0014 0121     		movs	r1, #1
 884 0016 2068     		ldr	r0, [r4]
 885 0018 FFF7FEFF 		bl	gdispGClear
 886              	.LVL72:
 887              		.loc 1 544 0
 888 001c 0121     		movs	r1, #1
 889 001e 2068     		ldr	r0, [r4]
 890 0020 FFF7FEFF 		bl	gdispGClear
 891              	.LVL73:
 892              		.loc 1 545 0
 893 0024 0121     		movs	r1, #1
 894 0026 2068     		ldr	r0, [r4]
 895 0028 FFF7FEFF 		bl	gdispGClear
 896              	.LVL74:
 897              	.LBB8:
 898              		.loc 1 571 0
 899 002c DFF81883 		ldr	r8, .L45+60
 900              	.LBE8:
 901              		.loc 1 545 0
 902 0030 0426     		movs	r6, #4
 903              	.LVL75:
 904              	.L38:
 905              	.LBB9:
 906              		.loc 1 568 0 discriminator 3
 907 0032 0025     		movs	r5, #0
 908 0034 FA23     		movs	r3, #250
 909 0036 1A46     		mov	r2, r3
 910 0038 FC21     		movs	r1, #252
 911 003a 2068     		ldr	r0, [r4]
 912 003c 0095     		str	r5, [sp]
ARM GAS  /var/folders/_2/42wyrlld3p52fkcpt1lv6gxh0000gp/T//cc2mz8bk.s 			page 17


 913 003e FFF7FEFF 		bl	gdispGDrawCircle
 914              	.LVL76:
 915              		.loc 1 569 0 discriminator 3
 916 0042 FA23     		movs	r3, #250
 917 0044 1A46     		mov	r2, r3
 918 0046 40F2F221 		movw	r1, #754
 919 004a 2068     		ldr	r0, [r4]
 920 004c 0095     		str	r5, [sp]
 921 004e FFF7FEFF 		bl	gdispGDrawCircle
 922              	.LVL77:
 923              		.loc 1 570 0 discriminator 3
 924 0052 AA23     		movs	r3, #170
 925 0054 4FF41672 		mov	r2, #600
 926 0058 4FF4FA71 		mov	r1, #500
 927 005c 2068     		ldr	r0, [r4]
 928 005e 0095     		str	r5, [sp]
 929 0060 FFF7FEFF 		bl	gdispGDrawCircle
 930              	.LVL78:
 931              		.loc 1 571 0 discriminator 3
 932 0064 0195     		str	r5, [sp, #4]
 933 0066 D8F80030 		ldr	r3, [r8]
 934 006a 5A22     		movs	r2, #90
 935 006c 0093     		str	r3, [sp]
 936 006e AA21     		movs	r1, #170
 937 0070 A74B     		ldr	r3, .L45+4
 938 0072 2068     		ldr	r0, [r4]
 939 0074 FFF7FEFF 		bl	gdispGDrawString
 940              	.LVL79:
 941              		.loc 1 572 0 discriminator 3
 942 0078 0195     		str	r5, [sp, #4]
 943 007a D8F80030 		ldr	r3, [r8]
 944 007e 8C22     		movs	r2, #140
 945 0080 0093     		str	r3, [sp]
 946 0082 4621     		movs	r1, #70
 947 0084 A34B     		ldr	r3, .L45+8
 948 0086 2068     		ldr	r0, [r4]
 949 0088 FFF7FEFF 		bl	gdispGDrawString
 950              	.LVL80:
 951              		.loc 1 573 0 discriminator 3
 952 008c 0195     		str	r5, [sp, #4]
 953 008e D8F80030 		ldr	r3, [r8]
 954 0092 D222     		movs	r2, #210
 955 0094 0093     		str	r3, [sp]
 956 0096 4FF4A071 		mov	r1, #320
 957 009a 9F4B     		ldr	r3, .L45+12
 958 009c 2068     		ldr	r0, [r4]
 959 009e FFF7FEFF 		bl	gdispGDrawString
 960              	.LVL81:
 961              		.loc 1 574 0 discriminator 3
 962 00a2 0195     		str	r5, [sp, #4]
 963 00a4 D8F80030 		ldr	r3, [r8]
 964 00a8 4FF4B472 		mov	r2, #360
 965 00ac 0093     		str	r3, [sp]
 966 00ae 6421     		movs	r1, #100
 967 00b0 9A4B     		ldr	r3, .L45+16
 968 00b2 2068     		ldr	r0, [r4]
 969 00b4 FFF7FEFF 		bl	gdispGDrawString
ARM GAS  /var/folders/_2/42wyrlld3p52fkcpt1lv6gxh0000gp/T//cc2mz8bk.s 			page 18


 970              	.LVL82:
 971              		.loc 1 577 0 discriminator 3
 972 00b8 0195     		str	r5, [sp, #4]
 973 00ba D8F80030 		ldr	r3, [r8]
 974 00be 5A22     		movs	r2, #90
 975 00c0 0093     		str	r3, [sp]
 976 00c2 40F24E21 		movw	r1, #590
 977 00c6 964B     		ldr	r3, .L45+20
 978 00c8 2068     		ldr	r0, [r4]
 979 00ca FFF7FEFF 		bl	gdispGDrawString
 980              	.LVL83:
 981              		.loc 1 578 0 discriminator 3
 982 00ce 0195     		str	r5, [sp, #4]
 983 00d0 D8F80030 		ldr	r3, [r8]
 984 00d4 8C22     		movs	r2, #140
 985 00d6 0093     		str	r3, [sp]
 986 00d8 4FF42F71 		mov	r1, #700
 987 00dc 914B     		ldr	r3, .L45+24
 988 00de 2068     		ldr	r0, [r4]
 989 00e0 FFF7FEFF 		bl	gdispGDrawString
 990              	.LVL84:
 991              		.loc 1 579 0 discriminator 3
 992 00e4 0195     		str	r5, [sp, #4]
 993 00e6 D8F80030 		ldr	r3, [r8]
 994 00ea 4FF4B472 		mov	r2, #360
 995 00ee 0093     		str	r3, [sp]
 996 00f0 4FF40C71 		mov	r1, #560
 997 00f4 8C4B     		ldr	r3, .L45+28
 998 00f6 2068     		ldr	r0, [r4]
 999 00f8 FFF7FEFF 		bl	gdispGDrawString
 1000              	.LVL85:
 1001              		.loc 1 580 0 discriminator 3
 1002 00fc 0195     		str	r5, [sp, #4]
 1003 00fe D8F80030 		ldr	r3, [r8]
 1004 0102 D222     		movs	r2, #210
 1005 0104 0093     		str	r3, [sp]
 1006 0106 40F22A31 		movw	r1, #810
 1007 010a 884B     		ldr	r3, .L45+32
 1008 010c 2068     		ldr	r0, [r4]
 1009 010e FFF7FEFF 		bl	gdispGDrawString
 1010              	.LVL86:
 1011              		.loc 1 583 0 discriminator 3
 1012 0112 0195     		str	r5, [sp, #4]
 1013 0114 D8F80030 		ldr	r3, [r8]
 1014 0118 4FF4E172 		mov	r2, #450
 1015 011c 0093     		str	r3, [sp]
 1016 011e 4FF4C871 		mov	r1, #400
 1017 0122 834B     		ldr	r3, .L45+36
 1018 0124 2068     		ldr	r0, [r4]
 1019 0126 FFF7FEFF 		bl	gdispGDrawString
 1020              	.LVL87:
 1021              		.loc 1 584 0 discriminator 3
 1022 012a 0195     		str	r5, [sp, #4]
 1023 012c D8F80030 		ldr	r3, [r8]
 1024 0130 4FF4FA72 		mov	r2, #500
 1025 0134 0093     		str	r3, [sp]
 1026 0136 4FF4DC71 		mov	r1, #440
ARM GAS  /var/folders/_2/42wyrlld3p52fkcpt1lv6gxh0000gp/T//cc2mz8bk.s 			page 19


 1027 013a 7E4B     		ldr	r3, .L45+40
 1028 013c 2068     		ldr	r0, [r4]
 1029 013e FFF7FEFF 		bl	gdispGDrawString
 1030              	.LVL88:
 1031              		.loc 1 585 0 discriminator 3
 1032 0142 0195     		str	r5, [sp, #4]
 1033 0144 D8F80030 		ldr	r3, [r8]
 1034 0148 4FF42072 		mov	r2, #640
 1035 014c 0093     		str	r3, [sp]
 1036 014e 4FF4C871 		mov	r1, #400
 1037 0152 794B     		ldr	r3, .L45+44
 1038 0154 2068     		ldr	r0, [r4]
 1039 0156 FFF7FEFF 		bl	gdispGDrawString
 1040              	.LVL89:
 1041              		.loc 1 586 0 discriminator 3
 1042 015a 0195     		str	r5, [sp, #4]
 1043 015c D8F80030 		ldr	r3, [r8]
 1044 0160 40F23A22 		movw	r2, #570
 1045 0164 0093     		str	r3, [sp]
 1046 0166 4FF4FA71 		mov	r1, #500
 1047 016a 744B     		ldr	r3, .L45+48
 1048 016c 2068     		ldr	r0, [r4]
 1049 016e FFF7FEFF 		bl	gdispGDrawString
 1050              	.LVL90:
 1051              		.loc 1 566 0 discriminator 3
 1052 0172 013E     		subs	r6, r6, #1
 1053              	.LVL91:
 1054 0174 DFF8D091 		ldr	r9, .L45+60
 1055 0178 7FF45BAF 		bne	.L38
 1056              	.LVL92:
 1057              	.LBE9:
 1058              	.LBB10:
 1059              		.loc 1 593 0 discriminator 1
 1060 017c 704D     		ldr	r5, .L45+52
 1061 017e 3046     		mov	r0, r6
 1062 0180 297D     		ldrb	r1, [r5, #20]	@ zero_extendqisi2
 1063 0182 FFF7FEFF 		bl	draw_temp_digit
 1064              	.LVL93:
 1065 0186 697D     		ldrb	r1, [r5, #21]	@ zero_extendqisi2
 1066 0188 0120     		movs	r0, #1
 1067 018a FFF7FEFF 		bl	draw_temp_digit
 1068              	.LVL94:
 1069              	.LBE10:
 1070              	.LBB11:
 1071              		.loc 1 597 0 discriminator 1
 1072 018e 297C     		ldrb	r1, [r5, #16]	@ zero_extendqisi2
 1073 0190 3046     		mov	r0, r6
 1074 0192 FFF7FEFF 		bl	draw_gsr_digit
 1075              	.LVL95:
 1076 0196 697C     		ldrb	r1, [r5, #17]	@ zero_extendqisi2
 1077 0198 0120     		movs	r0, #1
 1078 019a FFF7FEFF 		bl	draw_gsr_digit
 1079              	.LVL96:
 1080              	.LBE11:
 1081              		.loc 1 601 0 discriminator 1
 1082 019e 07F10C02 		add	r2, r7, #12
 1083 01a2 07F10801 		add	r1, r7, #8
ARM GAS  /var/folders/_2/42wyrlld3p52fkcpt1lv6gxh0000gp/T//cc2mz8bk.s 			page 20


 1084 01a6 381D     		adds	r0, r7, #4
 1085 01a8 FFF7FEFF 		bl	pass_heart_temp
 1086              	.LVL97:
 1087              		.loc 1 603 0 discriminator 1
 1088 01ac 654B     		ldr	r3, .L45+56
 1089 01ae A846     		mov	r8, r5
 1090 01b0 D3F800A0 		ldr	r10, [r3]
 1091 01b4 BAF1020F 		cmp	r10, #2
 1092 01b8 09D1     		bne	.L39
 1093              	.LVL98:
 1094              	.L40:
 1095              	.LBB12:
 1096              		.loc 1 607 0 discriminator 3
 1097 01ba 08EB0603 		add	r3, r8, r6
 1098 01be 3046     		mov	r0, r6
 1099 01c0 197B     		ldrb	r1, [r3, #12]	@ zero_extendqisi2
 1100              		.loc 1 605 0 discriminator 3
 1101 01c2 0136     		adds	r6, r6, #1
 1102              	.LVL99:
 1103              		.loc 1 607 0 discriminator 3
 1104 01c4 FFF7FEFF 		bl	draw_pulse_digit2
 1105              	.LVL100:
 1106              		.loc 1 605 0 discriminator 3
 1107 01c8 032E     		cmp	r6, #3
 1108 01ca F6D1     		bne	.L40
 1109 01cc 0AE0     		b	.L41
 1110              	.LVL101:
 1111              	.L39:
 1112              	.LBE12:
 1113              		.loc 1 610 0
 1114 01ce BAF1010F 		cmp	r10, #1
 1115 01d2 07D1     		bne	.L41
 1116              	.LVL102:
 1117              	.LBB13:
 1118              		.loc 1 615 0 discriminator 1
 1119 01d4 297B     		ldrb	r1, [r5, #12]	@ zero_extendqisi2
 1120 01d6 3046     		mov	r0, r6
 1121 01d8 FFF7FEFF 		bl	draw_pulse_digit
 1122              	.LVL103:
 1123 01dc 697B     		ldrb	r1, [r5, #13]	@ zero_extendqisi2
 1124 01de 5046     		mov	r0, r10
 1125 01e0 FFF7FEFF 		bl	draw_pulse_digit
 1126              	.LVL104:
 1127              	.L41:
 1128              	.LBE13:
 1129              		.loc 1 618 0
 1130 01e4 D9F80030 		ldr	r3, [r9]
 1131 01e8 0025     		movs	r5, #0
 1132 01ea 0093     		str	r3, [sp]
 1133 01ec 2068     		ldr	r0, [r4]
 1134 01ee 0195     		str	r5, [sp, #4]
 1135 01f0 474B     		ldr	r3, .L45+4
 1136 01f2 5A22     		movs	r2, #90
 1137 01f4 AA21     		movs	r1, #170
 1138 01f6 FFF7FEFF 		bl	gdispGDrawString
 1139              	.LVL105:
 1140              		.loc 1 619 0
ARM GAS  /var/folders/_2/42wyrlld3p52fkcpt1lv6gxh0000gp/T//cc2mz8bk.s 			page 21


 1141 01fa D9F80030 		ldr	r3, [r9]
 1142 01fe 2068     		ldr	r0, [r4]
 1143 0200 0093     		str	r3, [sp]
 1144 0202 0195     		str	r5, [sp, #4]
 1145 0204 434B     		ldr	r3, .L45+8
 1146 0206 8C22     		movs	r2, #140
 1147 0208 4621     		movs	r1, #70
 1148 020a FFF7FEFF 		bl	gdispGDrawString
 1149              	.LVL106:
 1150              		.loc 1 620 0
 1151 020e D9F80030 		ldr	r3, [r9]
 1152 0212 2068     		ldr	r0, [r4]
 1153 0214 0093     		str	r3, [sp]
 1154 0216 0195     		str	r5, [sp, #4]
 1155 0218 3F4B     		ldr	r3, .L45+12
 1156 021a D222     		movs	r2, #210
 1157 021c 4FF4A071 		mov	r1, #320
 1158 0220 FFF7FEFF 		bl	gdispGDrawString
 1159              	.LVL107:
 1160              		.loc 1 621 0
 1161 0224 D9F80030 		ldr	r3, [r9]
 1162 0228 2068     		ldr	r0, [r4]
 1163 022a 0093     		str	r3, [sp]
 1164 022c 0195     		str	r5, [sp, #4]
 1165 022e 3B4B     		ldr	r3, .L45+16
 1166 0230 4FF4B472 		mov	r2, #360
 1167 0234 6421     		movs	r1, #100
 1168 0236 FFF7FEFF 		bl	gdispGDrawString
 1169              	.LVL108:
 1170              		.loc 1 624 0
 1171 023a D9F80030 		ldr	r3, [r9]
 1172 023e 2068     		ldr	r0, [r4]
 1173 0240 0093     		str	r3, [sp]
 1174 0242 0195     		str	r5, [sp, #4]
 1175 0244 364B     		ldr	r3, .L45+20
 1176 0246 5A22     		movs	r2, #90
 1177 0248 40F24E21 		movw	r1, #590
 1178 024c FFF7FEFF 		bl	gdispGDrawString
 1179              	.LVL109:
 1180              		.loc 1 625 0
 1181 0250 D9F80030 		ldr	r3, [r9]
 1182 0254 2068     		ldr	r0, [r4]
 1183 0256 0093     		str	r3, [sp]
 1184 0258 0195     		str	r5, [sp, #4]
 1185 025a 324B     		ldr	r3, .L45+24
 1186 025c 8C22     		movs	r2, #140
 1187 025e 4FF42F71 		mov	r1, #700
 1188 0262 FFF7FEFF 		bl	gdispGDrawString
 1189              	.LVL110:
 1190              		.loc 1 626 0
 1191 0266 D9F80030 		ldr	r3, [r9]
 1192 026a 2068     		ldr	r0, [r4]
 1193 026c 0093     		str	r3, [sp]
 1194 026e 0195     		str	r5, [sp, #4]
 1195 0270 2D4B     		ldr	r3, .L45+28
 1196 0272 4FF4B472 		mov	r2, #360
 1197 0276 4FF40C71 		mov	r1, #560
ARM GAS  /var/folders/_2/42wyrlld3p52fkcpt1lv6gxh0000gp/T//cc2mz8bk.s 			page 22


 1198 027a FFF7FEFF 		bl	gdispGDrawString
 1199              	.LVL111:
 1200              		.loc 1 627 0
 1201 027e D9F80030 		ldr	r3, [r9]
 1202 0282 2068     		ldr	r0, [r4]
 1203 0284 0093     		str	r3, [sp]
 1204 0286 0195     		str	r5, [sp, #4]
 1205 0288 284B     		ldr	r3, .L45+32
 1206 028a D222     		movs	r2, #210
 1207 028c 40F22A31 		movw	r1, #810
 1208 0290 FFF7FEFF 		bl	gdispGDrawString
 1209              	.LVL112:
 1210              		.loc 1 630 0
 1211 0294 D9F80030 		ldr	r3, [r9]
 1212 0298 2068     		ldr	r0, [r4]
 1213 029a 0093     		str	r3, [sp]
 1214 029c 0195     		str	r5, [sp, #4]
 1215 029e 244B     		ldr	r3, .L45+36
 1216 02a0 4FF4E172 		mov	r2, #450
 1217 02a4 4FF4C871 		mov	r1, #400
 1218 02a8 FFF7FEFF 		bl	gdispGDrawString
 1219              	.LVL113:
 1220              		.loc 1 631 0
 1221 02ac D9F80030 		ldr	r3, [r9]
 1222 02b0 2068     		ldr	r0, [r4]
 1223 02b2 0093     		str	r3, [sp]
 1224 02b4 0195     		str	r5, [sp, #4]
 1225 02b6 1F4B     		ldr	r3, .L45+40
 1226 02b8 4FF4FA72 		mov	r2, #500
 1227 02bc 4FF4DC71 		mov	r1, #440
 1228 02c0 FFF7FEFF 		bl	gdispGDrawString
 1229              	.LVL114:
 1230              		.loc 1 632 0
 1231 02c4 D9F80030 		ldr	r3, [r9]
 1232 02c8 2068     		ldr	r0, [r4]
 1233 02ca 0093     		str	r3, [sp]
 1234 02cc 0195     		str	r5, [sp, #4]
 1235 02ce 1A4B     		ldr	r3, .L45+44
 1236 02d0 4FF42072 		mov	r2, #640
 1237 02d4 4FF4C871 		mov	r1, #400
 1238 02d8 FFF7FEFF 		bl	gdispGDrawString
 1239              	.LVL115:
 1240              		.loc 1 633 0
 1241 02dc D9F80030 		ldr	r3, [r9]
 1242 02e0 2068     		ldr	r0, [r4]
 1243 02e2 0093     		str	r3, [sp]
 1244 02e4 0195     		str	r5, [sp, #4]
 1245 02e6 154B     		ldr	r3, .L45+48
 1246 02e8 40F23A22 		movw	r2, #570
 1247 02ec 4FF4FA71 		mov	r1, #500
 1248 02f0 FFF7FEFF 		bl	gdispGDrawString
 1249              	.LVL116:
 1250              		.loc 1 656 0
 1251 02f4 2A46     		mov	r2, r5
 1252 02f6 2946     		mov	r1, r5
 1253 02f8 2068     		ldr	r0, [r4]
 1254 02fa FFF7FEFF 		bl	gdispGControl
ARM GAS  /var/folders/_2/42wyrlld3p52fkcpt1lv6gxh0000gp/T//cc2mz8bk.s 			page 23


 1255              	.LVL117:
 1256              		.loc 1 661 0
 1257 02fe 1037     		adds	r7, r7, #16
 1258              	.LCFI42:
 1259              		.cfi_def_cfa_offset 32
 1260              		.loc 1 658 0
 1261 0300 88F84050 		strb	r5, [r8, #64]
 1262              		.loc 1 661 0
 1263 0304 BD46     		mov	sp, r7
 1264              	.LCFI43:
 1265              		.cfi_def_cfa_register 13
 1266              		@ sp needed
 1267 0306 BDE8F087 		pop	{r4, r5, r6, r7, r8, r9, r10, pc}
 1268              	.L46:
 1269 030a 00BF     		.align	2
 1270              	.L45:
 1271 030c 00000000 		.word	GDISP
 1272 0310 42000000 		.word	.LC9
 1273 0314 47000000 		.word	.LC10
 1274 0318 53000000 		.word	.LC11
 1275 031c 57000000 		.word	.LC12
 1276 0320 67000000 		.word	.LC13
 1277 0324 72000000 		.word	.LC14
 1278 0328 77000000 		.word	.LC15
 1279 032c 87000000 		.word	.LC16
 1280 0330 8B000000 		.word	.LC17
 1281 0334 94000000 		.word	.LC18
 1282 0338 99000000 		.word	.LC19
 1283 033c A2000000 		.word	.LC20
 1284 0340 00000000 		.word	.LANCHOR3
 1285 0344 00000000 		.word	.LANCHOR5
 1286 0348 00000000 		.word	.LANCHOR2
 1287              		.cfi_endproc
 1288              	.LFE99:
 1289              		.size	display_full_redraw, .-display_full_redraw
 1290              		.section	.text.display_partial_redraw,"ax",%progbits
 1291              		.align	1
 1292              		.global	display_partial_redraw
 1293              		.thumb
 1294              		.thumb_func
 1295              		.type	display_partial_redraw, %function
 1296              	display_partial_redraw:
 1297              	.LFB100:
 1298              		.loc 1 665 0
 1299              		.cfi_startproc
 1300              		@ args = 0, pretend = 0, frame = 16
 1301              		@ frame_needed = 1, uses_anonymous_args = 0
 1302 0000 2DE9F043 		push	{r4, r5, r6, r7, r8, r9, lr}
 1303              	.LCFI44:
 1304              		.cfi_def_cfa_offset 28
 1305              		.cfi_offset 4, -28
 1306              		.cfi_offset 5, -24
 1307              		.cfi_offset 6, -20
 1308              		.cfi_offset 7, -16
 1309              		.cfi_offset 8, -12
 1310              		.cfi_offset 9, -8
 1311              		.cfi_offset 14, -4
ARM GAS  /var/folders/_2/42wyrlld3p52fkcpt1lv6gxh0000gp/T//cc2mz8bk.s 			page 24


 1312 0004 85B0     		sub	sp, sp, #20
 1313              	.LCFI45:
 1314              		.cfi_def_cfa_offset 48
 1315              		.loc 1 668 0
 1316 0006 294B     		ldr	r3, .L55
 1317              		.loc 1 670 0
 1318 0008 DFF8AC80 		ldr	r8, .L55+12
 1319              		.loc 1 668 0
 1320 000c 4022     		movs	r2, #64
 1321 000e 5A83     		strh	r2, [r3, #26]	@ movhi
 1322              		.loc 1 670 0
 1323 0010 98F84040 		ldrb	r4, [r8, #64]	@ zero_extendqisi2
 1324              		.loc 1 665 0
 1325 0014 00AF     		add	r7, sp, #0
 1326              	.LCFI46:
 1327              		.cfi_def_cfa_register 7
 1328 0016 4546     		mov	r5, r8
 1329              		.loc 1 670 0
 1330 0018 14B1     		cbz	r4, .L48
 1331              		.loc 1 672 0
 1332 001a FFF7FEFF 		bl	display_full_redraw
 1333              	.LVL118:
 1334 001e 41E0     		b	.L47
 1335              	.L48:
 1336              		.loc 1 685 0
 1337 0020 234E     		ldr	r6, .L55+4
 1338 0022 0322     		movs	r2, #3
 1339 0024 2146     		mov	r1, r4
 1340 0026 3068     		ldr	r0, [r6]
 1341 0028 FFF7FEFF 		bl	gdispGControl
 1342              	.LVL119:
 1343              	.LBB14:
 1344              		.loc 1 704 0
 1345 002c 98F81410 		ldrb	r1, [r8, #20]	@ zero_extendqisi2
 1346 0030 2046     		mov	r0, r4
 1347 0032 FFF7FEFF 		bl	draw_temp_digit
 1348              	.LVL120:
 1349 0036 98F81510 		ldrb	r1, [r8, #21]	@ zero_extendqisi2
 1350 003a 0120     		movs	r0, #1
 1351 003c FFF7FEFF 		bl	draw_temp_digit
 1352              	.LVL121:
 1353              	.LBE14:
 1354              	.LBB15:
 1355              		.loc 1 709 0
 1356 0040 98F81010 		ldrb	r1, [r8, #16]	@ zero_extendqisi2
 1357 0044 2046     		mov	r0, r4
 1358 0046 FFF7FEFF 		bl	draw_gsr_digit
 1359              	.LVL122:
 1360 004a 98F81110 		ldrb	r1, [r8, #17]	@ zero_extendqisi2
 1361 004e 0120     		movs	r0, #1
 1362 0050 FFF7FEFF 		bl	draw_gsr_digit
 1363              	.LVL123:
 1364              	.LBE15:
 1365              		.loc 1 715 0
 1366 0054 07F10C02 		add	r2, r7, #12
 1367 0058 07F10801 		add	r1, r7, #8
 1368 005c 381D     		adds	r0, r7, #4
ARM GAS  /var/folders/_2/42wyrlld3p52fkcpt1lv6gxh0000gp/T//cc2mz8bk.s 			page 25


 1369 005e FFF7FEFF 		bl	pass_heart_temp
 1370              	.LVL124:
 1371              		.loc 1 721 0
 1372 0062 144B     		ldr	r3, .L55+8
 1373 0064 D3F80090 		ldr	r9, [r3]
 1374 0068 B9F1020F 		cmp	r9, #2
 1375 006c 08D1     		bne	.L50
 1376              	.LVL125:
 1377              	.L51:
 1378              	.LBB16:
 1379              		.loc 1 725 0 discriminator 3
 1380 006e 2B19     		adds	r3, r5, r4
 1381 0070 2046     		mov	r0, r4
 1382 0072 197B     		ldrb	r1, [r3, #12]	@ zero_extendqisi2
 1383              		.loc 1 723 0 discriminator 3
 1384 0074 0134     		adds	r4, r4, #1
 1385              	.LVL126:
 1386              		.loc 1 725 0 discriminator 3
 1387 0076 FFF7FEFF 		bl	draw_pulse_digit2
 1388              	.LVL127:
 1389              		.loc 1 723 0 discriminator 3
 1390 007a 032C     		cmp	r4, #3
 1391 007c F7D1     		bne	.L51
 1392 007e 0CE0     		b	.L52
 1393              	.LVL128:
 1394              	.L50:
 1395              	.LBE16:
 1396              		.loc 1 728 0
 1397 0080 B9F1010F 		cmp	r9, #1
 1398 0084 09D1     		bne	.L52
 1399              	.LVL129:
 1400              	.LBB17:
 1401              		.loc 1 735 0 discriminator 1
 1402 0086 98F80C10 		ldrb	r1, [r8, #12]	@ zero_extendqisi2
 1403 008a 2046     		mov	r0, r4
 1404 008c FFF7FEFF 		bl	draw_pulse_digit
 1405              	.LVL130:
 1406 0090 98F80D10 		ldrb	r1, [r8, #13]	@ zero_extendqisi2
 1407 0094 4846     		mov	r0, r9
 1408 0096 FFF7FEFF 		bl	draw_pulse_digit
 1409              	.LVL131:
 1410              	.L52:
 1411              	.LBE17:
 1412              		.loc 1 768 0 discriminator 1
 1413 009a 0022     		movs	r2, #0
 1414 009c 1146     		mov	r1, r2
 1415 009e 3068     		ldr	r0, [r6]
 1416 00a0 FFF7FEFF 		bl	gdispGControl
 1417              	.LVL132:
 1418              	.L47:
 1419              		.loc 1 781 0
 1420 00a4 1437     		adds	r7, r7, #20
 1421              	.LCFI47:
 1422              		.cfi_def_cfa_offset 28
 1423 00a6 BD46     		mov	sp, r7
 1424              	.LCFI48:
 1425              		.cfi_def_cfa_register 13
ARM GAS  /var/folders/_2/42wyrlld3p52fkcpt1lv6gxh0000gp/T//cc2mz8bk.s 			page 26


 1426              		@ sp needed
 1427 00a8 BDE8F083 		pop	{r4, r5, r6, r7, r8, r9, pc}
 1428              	.L56:
 1429              		.align	2
 1430              	.L55:
 1431 00ac 00040240 		.word	1073873920
 1432 00b0 00000000 		.word	GDISP
 1433 00b4 00000000 		.word	.LANCHOR5
 1434 00b8 00000000 		.word	.LANCHOR3
 1435              		.cfi_endproc
 1436              	.LFE100:
 1437              		.size	display_partial_redraw, .-display_partial_redraw
 1438              		.global	lastCount
 1439              		.section	.rodata
 1440              		.align	1
 1441              		.set	.LANCHOR0,. + 0
 1442              	.LC0:
 1443 0000 9B       		.byte	-101
 1444 0001 EB       		.byte	-21
 1445 0002 91       		.byte	-111
 1446 0003 DC       		.byte	-36
 1447 0004 FF       		.byte	-1
 1448 0005 00       		.space	1
 1449              	.LC1:
 1450 0006 AE01     		.short	430
 1451 0008 CC01     		.short	460
 1452              	.LC2:
 1453 000a 3F02     		.short	575
 1454 000c 8F02     		.short	655
 1455 000e DF02     		.short	735
 1456              		.section	.bss.bigfont,"aw",%nobits
 1457              		.align	2
 1458              		.set	.LANCHOR1,. + 0
 1459              		.type	bigfont, %object
 1460              		.size	bigfont, 4
 1461              	bigfont:
 1462 0000 00000000 		.space	4
 1463              		.section	.bss.mediumfont,"aw",%nobits
 1464              		.align	2
 1465              		.set	.LANCHOR2,. + 0
 1466              		.type	mediumfont, %object
 1467              		.size	mediumfont, 4
 1468              	mediumfont:
 1469 0000 00000000 		.space	4
 1470              		.section	.bss.sampleCount,"aw",%nobits
 1471              		.align	2
 1472              		.set	.LANCHOR4,. + 0
 1473              		.type	sampleCount, %object
 1474              		.size	sampleCount, 4
 1475              	sampleCount:
 1476 0000 00000000 		.space	4
 1477              		.section	.bss.g_ephemerals,"aw",%nobits
 1478              		.align	2
 1479              		.set	.LANCHOR3,. + 0
 1480              		.type	g_ephemerals, %object
 1481              		.size	g_ephemerals, 96
 1482              	g_ephemerals:
ARM GAS  /var/folders/_2/42wyrlld3p52fkcpt1lv6gxh0000gp/T//cc2mz8bk.s 			page 27


 1483 0000 00000000 		.space	96
 1483      00000000 
 1483      00000000 
 1483      00000000 
 1483      00000000 
 1484              		.section	.rodata.str1.1,"aMS",%progbits,1
 1485              	.LC3:
 1486 0000 23205469 		.ascii	"# Time(s), Temperature(mC)\015\012\000"
 1486      6D652873 
 1486      292C2054 
 1486      656D7065 
 1486      72617475 
 1487              	.LC4:
 1488 001d 2538642C 		.ascii	"%8d, %8d\015\012\000"
 1488      20253864 
 1488      0D0A00
 1489              	.LC5:
 1490 0028 25326400 		.ascii	"%2d\000"
 1491              	.LC6:
 1492 002c 62696766 		.ascii	"bigfont\000"
 1492      6F6E7400 
 1493              	.LC7:
 1494 0034 6D656469 		.ascii	"mediumfont\000"
 1494      756D666F 
 1494      6E7400
 1495              	.LC8:
 1496 003f 256400   		.ascii	"%d\000"
 1497              	.LC9:
 1498 0042 534B494E 		.ascii	"SKIN\000"
 1498      00
 1499              	.LC10:
 1500 0047 54454D50 		.ascii	"TEMPERATURE\000"
 1500      45524154 
 1500      55524500 
 1501              	.LC11:
 1502 0053 C2B04300 		.ascii	"\302\260C\000"
 1503              	.LC12:
 1504 0057 41766572 		.ascii	"Average = 34\302\260C\000"
 1504      61676520 
 1504      3D203334 
 1504      C2B04300 
 1505              	.LC13:
 1506 0067 48454152 		.ascii	"HEART RATE\000"
 1506      54205241 
 1506      544500
 1507              	.LC14:
 1508 0072 2F6D696E 		.ascii	"/min\000"
 1508      00
 1509              	.LC15:
 1510 0077 41766572 		.ascii	"Average = 80bpm\000"
 1510      61676520 
 1510      3D203830 
 1510      62706D00 
 1511              	.LC16:
 1512 0087 62706D00 		.ascii	"bpm\000"
 1513              	.LC17:
 1514 008b 67616C76 		.ascii	"galvanic\000"
ARM GAS  /var/folders/_2/42wyrlld3p52fkcpt1lv6gxh0000gp/T//cc2mz8bk.s 			page 28


 1514      616E6963 
 1514      00
 1515              	.LC18:
 1516 0094 736B696E 		.ascii	"skin\000"
 1516      00
 1517              	.LC19:
 1518 0099 72657370 		.ascii	"response\000"
 1518      6F6E7365 
 1518      00
 1519              	.LC20:
 1520 00a2 6D5600   		.ascii	"mV\000"
 1521              		.section	.bss.lastCount,"aw",%nobits
 1522              		.align	2
 1523              		.type	lastCount, %object
 1524              		.size	lastCount, 4
 1525              	lastCount:
 1526 0000 00000000 		.space	4
 1527              		.section	.bss.flag,"aw",%nobits
 1528              		.align	2
 1529              		.set	.LANCHOR5,. + 0
 1530              		.type	flag, %object
 1531              		.size	flag, 4
 1532              	flag:
 1533 0000 00000000 		.space	4
 1534              		.text
 1535              	.Letext0:
 1536              		.file 2 "/Users/ARS/Applications/Eclipse.app/Contents/gcc-arm-none-eabi-5_3-2016q1/lib/gcc/arm-non
 1537              		.file 3 "/Users/ARS/Applications/Eclipse.app/Contents/gcc-arm-none-eabi-5_3-2016q1/arm-none-eabi/i
 1538              		.file 4 "/Users/ARS/Applications/Eclipse.app/Contents/gcc-arm-none-eabi-5_3-2016q1/arm-none-eabi/i
 1539              		.file 5 "chibios/os/ports/GCC/ARMCMx/chtypes.h"
 1540              		.file 6 "chibios/os/kernel/include/chstreams.h"
 1541              		.file 7 "chibios/os/hal/platforms/STM32/GPIOv2/pal_lld.h"
 1542              		.file 8 "ugfx/src/gdisp/gdisp.h"
 1543              		.file 9 "baselibc/include/stdio.h"
 1544              		.file 10 "chibios/os/ports/common/ARMCMx/CMSIS/include/core_cm3.h"
 1545              		.file 11 "chibios/os/various/chprintf.h"
 1546              		.file 12 "src/sensor_task.h"