ARM GAS  /var/folders/_2/42wyrlld3p52fkcpt1lv6gxh0000gp/T//ccnttScQ.s 			page 1


   1              		.syntax unified
   2              		.cpu cortex-m3
   3              		.fpu softvfp
   4              		.eabi_attribute 20, 1
   5              		.eabi_attribute 21, 1
   6              		.eabi_attribute 23, 3
   7              		.eabi_attribute 24, 1
   8              		.eabi_attribute 25, 1
   9              		.eabi_attribute 26, 1
  10              		.eabi_attribute 30, 4
  11              		.eabi_attribute 34, 1
  12              		.eabi_attribute 18, 4
  13              		.thumb
  14              		.syntax unified
  15              		.file	"evtimer.c"
  16              		.text
  17              	.Ltext0:
  18              		.cfi_sections	.debug_frame
  19              		.section	.text.tmrcb,"ax",%progbits
  20              		.align	1
  21              		.thumb
  22              		.thumb_func
  23              		.type	tmrcb, %function
  24              	tmrcb:
  25              	.LFB7:
  26              		.file 1 "chibios/os/various/evtimer.c"
  27              		.loc 1 28 0
  28              		.cfi_startproc
  29              		@ args = 0, pretend = 0, frame = 0
  30              		@ frame_needed = 1, uses_anonymous_args = 0
  31              	.LVL0:
  32 0000 98B5     		push	{r3, r4, r7, lr}
  33              	.LCFI0:
  34              		.cfi_def_cfa_offset 16
  35              		.cfi_offset 3, -16
  36              		.cfi_offset 4, -12
  37              		.cfi_offset 7, -8
  38              		.cfi_offset 14, -4
  39 0002 0446     		mov	r4, r0
  40 0004 00AF     		add	r7, sp, #0
  41              	.LCFI1:
  42              		.cfi_def_cfa_register 7
  43              	.LBB2:
  44              		.loc 1 31 0
  45 0006 2023     		movs	r3, #32
  46              		.syntax unified
  47              	@ 31 "chibios/os/various/evtimer.c" 1
  48 0008 83F31188 		msr     BASEPRI, r3
  49              	@ 0 "" 2
  50              		.thumb
  51              		.syntax unified
  52              	.LBE2:
  53              		.loc 1 32 0
  54 000c 0021     		movs	r1, #0
  55 000e 1430     		adds	r0, r0, #20
  56              	.LVL1:
  57 0010 FFF7FEFF 		bl	chEvtBroadcastFlagsI
ARM GAS  /var/folders/_2/42wyrlld3p52fkcpt1lv6gxh0000gp/T//ccnttScQ.s 			page 2


  58              	.LVL2:
  59              		.loc 1 33 0
  60 0014 2346     		mov	r3, r4
  61 0016 044A     		ldr	r2, .L2
  62 0018 A169     		ldr	r1, [r4, #24]
  63 001a 2046     		mov	r0, r4
  64 001c FFF7FEFF 		bl	chVTSetI
  65              	.LVL3:
  66              	.LBB3:
  67              		.loc 1 34 0
  68 0020 0023     		movs	r3, #0
  69              		.syntax unified
  70              	@ 34 "chibios/os/various/evtimer.c" 1
  71 0022 83F31188 		msr     BASEPRI, r3
  72              	@ 0 "" 2
  73              		.thumb
  74              		.syntax unified
  75 0026 98BD     		pop	{r3, r4, r7, pc}
  76              	.LVL4:
  77              	.L3:
  78              		.align	2
  79              	.L2:
  80 0028 00000000 		.word	tmrcb
  81              	.LBE3:
  82              		.cfi_endproc
  83              	.LFE7:
  84              		.size	tmrcb, .-tmrcb
  85              		.section	.text.evtStart,"ax",%progbits
  86              		.align	1
  87              		.global	evtStart
  88              		.thumb
  89              		.thumb_func
  90              		.type	evtStart, %function
  91              	evtStart:
  92              	.LFB8:
  93              		.loc 1 43 0
  94              		.cfi_startproc
  95              		@ args = 0, pretend = 0, frame = 0
  96              		@ frame_needed = 1, uses_anonymous_args = 0
  97              	.LVL5:
  98 0000 80B5     		push	{r7, lr}
  99              	.LCFI2:
 100              		.cfi_def_cfa_offset 8
 101              		.cfi_offset 7, -8
 102              		.cfi_offset 14, -4
 103              	.LBB4:
 104              		.loc 1 45 0
 105 0002 2023     		movs	r3, #32
 106              	.LBE4:
 107              		.loc 1 43 0
 108 0004 00AF     		add	r7, sp, #0
 109              	.LCFI3:
 110              		.cfi_def_cfa_register 7
 111              	.LBB5:
 112              		.loc 1 45 0
 113              		.syntax unified
 114              	@ 45 "chibios/os/various/evtimer.c" 1
ARM GAS  /var/folders/_2/42wyrlld3p52fkcpt1lv6gxh0000gp/T//ccnttScQ.s 			page 3


 115 0006 83F31188 		msr     BASEPRI, r3
 116              	@ 0 "" 2
 117              		.thumb
 118              		.syntax unified
 119              	.LBE5:
 120              		.loc 1 47 0
 121 000a C368     		ldr	r3, [r0, #12]
 122 000c 23B9     		cbnz	r3, .L5
 123              		.loc 1 48 0
 124 000e 0346     		mov	r3, r0
 125 0010 034A     		ldr	r2, .L7
 126 0012 8169     		ldr	r1, [r0, #24]
 127 0014 FFF7FEFF 		bl	chVTSetI
 128              	.LVL6:
 129              	.L5:
 130              	.LBB6:
 131              		.loc 1 50 0
 132 0018 0023     		movs	r3, #0
 133              		.syntax unified
 134              	@ 50 "chibios/os/various/evtimer.c" 1
 135 001a 83F31188 		msr     BASEPRI, r3
 136              	@ 0 "" 2
 137              		.thumb
 138              		.syntax unified
 139 001e 80BD     		pop	{r7, pc}
 140              	.L8:
 141              		.align	2
 142              	.L7:
 143 0020 00000000 		.word	tmrcb
 144              	.LBE6:
 145              		.cfi_endproc
 146              	.LFE8:
 147              		.size	evtStart, .-evtStart
 148              		.section	.text.evtStop,"ax",%progbits
 149              		.align	1
 150              		.global	evtStop
 151              		.thumb
 152              		.thumb_func
 153              		.type	evtStop, %function
 154              	evtStop:
 155              	.LFB9:
 156              		.loc 1 59 0
 157              		.cfi_startproc
 158              		@ args = 0, pretend = 0, frame = 0
 159              		@ frame_needed = 1, uses_anonymous_args = 0
 160              	.LVL7:
 161 0000 80B5     		push	{r7, lr}
 162              	.LCFI4:
 163              		.cfi_def_cfa_offset 8
 164              		.cfi_offset 7, -8
 165              		.cfi_offset 14, -4
 166              	.LBB7:
 167              		.loc 1 61 0
 168 0002 2023     		movs	r3, #32
 169              	.LBE7:
 170              		.loc 1 59 0
 171 0004 00AF     		add	r7, sp, #0
ARM GAS  /var/folders/_2/42wyrlld3p52fkcpt1lv6gxh0000gp/T//ccnttScQ.s 			page 4


 172              	.LCFI5:
 173              		.cfi_def_cfa_register 7
 174              	.LBB8:
 175              		.loc 1 61 0
 176              		.syntax unified
 177              	@ 61 "chibios/os/various/evtimer.c" 1
 178 0006 83F31188 		msr     BASEPRI, r3
 179              	@ 0 "" 2
 180              		.thumb
 181              		.syntax unified
 182              	.LBE8:
 183 000a C368     		ldr	r3, [r0, #12]
 184 000c 0BB1     		cbz	r3, .L10
 185              		.loc 1 61 0 is_stmt 0 discriminator 1
 186 000e FFF7FEFF 		bl	chVTResetI
 187              	.LVL8:
 188              	.L10:
 189              	.LBB9:
 190              		.loc 1 61 0 discriminator 3
 191 0012 0023     		movs	r3, #0
 192              		.syntax unified
 193              	@ 61 "chibios/os/various/evtimer.c" 1
 194 0014 83F31188 		msr     BASEPRI, r3
 195              	@ 0 "" 2
 196              		.thumb
 197              		.syntax unified
 198 0018 80BD     		pop	{r7, pc}
 199              	.LBE9:
 200              		.cfi_endproc
 201              	.LFE9:
 202              		.size	evtStop, .-evtStop
 203              		.text
 204              	.Letext0:
 205              		.file 2 "/Users/ARS/Applications/Eclipse.app/Contents/gcc-arm-none-eabi-5_3-2016q1/arm-none-eabi/i
 206              		.file 3 "/Users/ARS/Applications/Eclipse.app/Contents/gcc-arm-none-eabi-5_3-2016q1/arm-none-eabi/i
 207              		.file 4 "chibios/os/ports/GCC/ARMCMx/chtypes.h"
 208              		.file 5 "chibios/os/kernel/include/chlists.h"
 209              		.file 6 "chibios/os/kernel/include/chthreads.h"
 210              		.file 7 "chibios/os/ports/GCC/ARMCMx/chcore_v7m.h"
 211              		.file 8 "chibios/os/kernel/include/chvt.h"
 212              		.file 9 "chibios/os/kernel/include/chmtx.h"
 213              		.file 10 "chibios/os/kernel/include/chevents.h"
 214              		.file 11 "chibios/os/various/evtimer.h"