ARM GAS  /var/folders/_2/42wyrlld3p52fkcpt1lv6gxh0000gp/T//ccKoUAB2.s 			page 1


   1              		.syntax unified
   2              		.cpu cortex-m3
   3              		.fpu softvfp
   4              		.eabi_attribute 20, 1
   5              		.eabi_attribute 21, 1
   6              		.eabi_attribute 23, 3
   7              		.eabi_attribute 24, 1
   8              		.eabi_attribute 25, 1
   9              		.eabi_attribute 26, 1
  10              		.eabi_attribute 30, 4
  11              		.eabi_attribute 34, 1
  12              		.eabi_attribute 18, 4
  13              		.thumb
  14              		.syntax unified
  15              		.file	"ext.c"
  16              		.text
  17              	.Ltext0:
  18              		.cfi_sections	.debug_frame
  19              		.section	.text.extInit,"ax",%progbits
  20              		.align	1
  21              		.global	extInit
  22              		.thumb
  23              		.thumb_func
  24              		.type	extInit, %function
  25              	extInit:
  26              	.LFB63:
  27              		.file 1 "chibios/os/hal/src/ext.c"
  28              		.loc 1 68 0
  29              		.cfi_startproc
  30              		@ args = 0, pretend = 0, frame = 0
  31              		@ frame_needed = 1, uses_anonymous_args = 0
  32              		@ link register save eliminated.
  33 0000 80B4     		push	{r7}
  34              	.LCFI0:
  35              		.cfi_def_cfa_offset 4
  36              		.cfi_offset 7, -4
  37 0002 00AF     		add	r7, sp, #0
  38              	.LCFI1:
  39              		.cfi_def_cfa_register 7
  40              		.loc 1 71 0
  41 0004 BD46     		mov	sp, r7
  42              	.LCFI2:
  43              		.cfi_def_cfa_register 13
  44              		@ sp needed
  45 0006 80BC     		pop	{r7}
  46              	.LCFI3:
  47              		.cfi_restore 7
  48              		.cfi_def_cfa_offset 0
  49              		.loc 1 70 0
  50 0008 FFF7FEBF 		b	ext_lld_init
  51              	.LVL0:
  52              		.cfi_endproc
  53              	.LFE63:
  54              		.size	extInit, .-extInit
  55              		.section	.text.extObjectInit,"ax",%progbits
  56              		.align	1
  57              		.global	extObjectInit
ARM GAS  /var/folders/_2/42wyrlld3p52fkcpt1lv6gxh0000gp/T//ccKoUAB2.s 			page 2


  58              		.thumb
  59              		.thumb_func
  60              		.type	extObjectInit, %function
  61              	extObjectInit:
  62              	.LFB64:
  63              		.loc 1 80 0
  64              		.cfi_startproc
  65              		@ args = 0, pretend = 0, frame = 0
  66              		@ frame_needed = 1, uses_anonymous_args = 0
  67              	.LVL1:
  68 0000 80B5     		push	{r7, lr}
  69              	.LCFI4:
  70              		.cfi_def_cfa_offset 8
  71              		.cfi_offset 7, -8
  72              		.cfi_offset 14, -4
  73              		.loc 1 82 0
  74 0002 0123     		movs	r3, #1
  75 0004 0370     		strb	r3, [r0]
  76              		.loc 1 83 0
  77 0006 0023     		movs	r3, #0
  78              		.loc 1 80 0
  79 0008 00AF     		add	r7, sp, #0
  80              	.LCFI5:
  81              		.cfi_def_cfa_register 7
  82              		.loc 1 83 0
  83 000a 4360     		str	r3, [r0, #4]
  84 000c 80BD     		pop	{r7, pc}
  85              		.cfi_endproc
  86              	.LFE64:
  87              		.size	extObjectInit, .-extObjectInit
  88              		.section	.text.extStart,"ax",%progbits
  89              		.align	1
  90              		.global	extStart
  91              		.thumb
  92              		.thumb_func
  93              		.type	extStart, %function
  94              	extStart:
  95              	.LFB65:
  96              		.loc 1 96 0
  97              		.cfi_startproc
  98              		@ args = 0, pretend = 0, frame = 0
  99              		@ frame_needed = 1, uses_anonymous_args = 0
 100              	.LVL2:
 101 0000 98B5     		push	{r3, r4, r7, lr}
 102              	.LCFI6:
 103              		.cfi_def_cfa_offset 16
 104              		.cfi_offset 3, -16
 105              		.cfi_offset 4, -12
 106              		.cfi_offset 7, -8
 107              		.cfi_offset 14, -4
 108 0002 0446     		mov	r4, r0
 109 0004 00AF     		add	r7, sp, #0
 110              	.LCFI7:
 111              		.cfi_def_cfa_register 7
 112              	.LBB2:
 113              		.loc 1 100 0
 114 0006 2023     		movs	r3, #32
ARM GAS  /var/folders/_2/42wyrlld3p52fkcpt1lv6gxh0000gp/T//ccKoUAB2.s 			page 3


 115              		.syntax unified
 116              	@ 100 "chibios/os/hal/src/ext.c" 1
 117 0008 83F31188 		msr     BASEPRI, r3
 118              	@ 0 "" 2
 119              		.thumb
 120              		.syntax unified
 121              	.LBE2:
 122              		.loc 1 103 0
 123 000c 4160     		str	r1, [r0, #4]
 124              		.loc 1 104 0
 125 000e FFF7FEFF 		bl	ext_lld_start
 126              	.LVL3:
 127              		.loc 1 105 0
 128 0012 0223     		movs	r3, #2
 129 0014 2370     		strb	r3, [r4]
 130              	.LBB3:
 131              		.loc 1 106 0
 132 0016 0023     		movs	r3, #0
 133              		.syntax unified
 134              	@ 106 "chibios/os/hal/src/ext.c" 1
 135 0018 83F31188 		msr     BASEPRI, r3
 136              	@ 0 "" 2
 137              		.thumb
 138              		.syntax unified
 139 001c 98BD     		pop	{r3, r4, r7, pc}
 140              	.LBE3:
 141              		.cfi_endproc
 142              	.LFE65:
 143              		.size	extStart, .-extStart
 144              		.section	.text.extStop,"ax",%progbits
 145              		.align	1
 146              		.global	extStop
 147              		.thumb
 148              		.thumb_func
 149              		.type	extStop, %function
 150              	extStop:
 151              	.LFB66:
 152              		.loc 1 116 0
 153              		.cfi_startproc
 154              		@ args = 0, pretend = 0, frame = 0
 155              		@ frame_needed = 1, uses_anonymous_args = 0
 156              	.LVL4:
 157 0000 98B5     		push	{r3, r4, r7, lr}
 158              	.LCFI8:
 159              		.cfi_def_cfa_offset 16
 160              		.cfi_offset 3, -16
 161              		.cfi_offset 4, -12
 162              		.cfi_offset 7, -8
 163              		.cfi_offset 14, -4
 164 0002 0446     		mov	r4, r0
 165 0004 00AF     		add	r7, sp, #0
 166              	.LCFI9:
 167              		.cfi_def_cfa_register 7
 168              	.LBB4:
 169              		.loc 1 120 0
 170 0006 2023     		movs	r3, #32
 171              		.syntax unified
ARM GAS  /var/folders/_2/42wyrlld3p52fkcpt1lv6gxh0000gp/T//ccKoUAB2.s 			page 4


 172              	@ 120 "chibios/os/hal/src/ext.c" 1
 173 0008 83F31188 		msr     BASEPRI, r3
 174              	@ 0 "" 2
 175              		.thumb
 176              		.syntax unified
 177              	.LBE4:
 178              		.loc 1 123 0
 179 000c FFF7FEFF 		bl	ext_lld_stop
 180              	.LVL5:
 181              		.loc 1 124 0
 182 0010 0123     		movs	r3, #1
 183 0012 2370     		strb	r3, [r4]
 184              	.LBB5:
 185              		.loc 1 125 0
 186 0014 0023     		movs	r3, #0
 187              		.syntax unified
 188              	@ 125 "chibios/os/hal/src/ext.c" 1
 189 0016 83F31188 		msr     BASEPRI, r3
 190              	@ 0 "" 2
 191              		.thumb
 192              		.syntax unified
 193 001a 98BD     		pop	{r3, r4, r7, pc}
 194              	.LBE5:
 195              		.cfi_endproc
 196              	.LFE66:
 197              		.size	extStop, .-extStop
 198              		.section	.text.extChannelEnable,"ax",%progbits
 199              		.align	1
 200              		.global	extChannelEnable
 201              		.thumb
 202              		.thumb_func
 203              		.type	extChannelEnable, %function
 204              	extChannelEnable:
 205              	.LFB67:
 206              		.loc 1 137 0
 207              		.cfi_startproc
 208              		@ args = 0, pretend = 0, frame = 0
 209              		@ frame_needed = 1, uses_anonymous_args = 0
 210              	.LVL6:
 211 0000 80B5     		push	{r7, lr}
 212              	.LCFI10:
 213              		.cfi_def_cfa_offset 8
 214              		.cfi_offset 7, -8
 215              		.cfi_offset 14, -4
 216              	.LBB6:
 217              		.loc 1 142 0
 218 0002 2023     		movs	r3, #32
 219              	.LBE6:
 220              		.loc 1 137 0
 221 0004 00AF     		add	r7, sp, #0
 222              	.LCFI11:
 223              		.cfi_def_cfa_register 7
 224              	.LBB7:
 225              		.loc 1 142 0
 226              		.syntax unified
 227              	@ 142 "chibios/os/hal/src/ext.c" 1
 228 0006 83F31188 		msr     BASEPRI, r3
ARM GAS  /var/folders/_2/42wyrlld3p52fkcpt1lv6gxh0000gp/T//ccKoUAB2.s 			page 5


 229              	@ 0 "" 2
 230              		.thumb
 231              		.syntax unified
 232              	.LBE7:
 233              		.loc 1 147 0
 234 000a FFF7FEFF 		bl	ext_lld_channel_enable
 235              	.LVL7:
 236              	.LBB8:
 237              		.loc 1 148 0
 238 000e 0023     		movs	r3, #0
 239              		.syntax unified
 240              	@ 148 "chibios/os/hal/src/ext.c" 1
 241 0010 83F31188 		msr     BASEPRI, r3
 242              	@ 0 "" 2
 243              		.thumb
 244              		.syntax unified
 245 0014 80BD     		pop	{r7, pc}
 246              	.LBE8:
 247              		.cfi_endproc
 248              	.LFE67:
 249              		.size	extChannelEnable, .-extChannelEnable
 250              		.section	.text.extChannelDisable,"ax",%progbits
 251              		.align	1
 252              		.global	extChannelDisable
 253              		.thumb
 254              		.thumb_func
 255              		.type	extChannelDisable, %function
 256              	extChannelDisable:
 257              	.LFB68:
 258              		.loc 1 160 0
 259              		.cfi_startproc
 260              		@ args = 0, pretend = 0, frame = 0
 261              		@ frame_needed = 1, uses_anonymous_args = 0
 262              	.LVL8:
 263 0000 80B5     		push	{r7, lr}
 264              	.LCFI12:
 265              		.cfi_def_cfa_offset 8
 266              		.cfi_offset 7, -8
 267              		.cfi_offset 14, -4
 268              	.LBB9:
 269              		.loc 1 165 0
 270 0002 2023     		movs	r3, #32
 271              	.LBE9:
 272              		.loc 1 160 0
 273 0004 00AF     		add	r7, sp, #0
 274              	.LCFI13:
 275              		.cfi_def_cfa_register 7
 276              	.LBB10:
 277              		.loc 1 165 0
 278              		.syntax unified
 279              	@ 165 "chibios/os/hal/src/ext.c" 1
 280 0006 83F31188 		msr     BASEPRI, r3
 281              	@ 0 "" 2
 282              		.thumb
 283              		.syntax unified
 284              	.LBE10:
 285              		.loc 1 170 0
ARM GAS  /var/folders/_2/42wyrlld3p52fkcpt1lv6gxh0000gp/T//ccKoUAB2.s 			page 6


 286 000a FFF7FEFF 		bl	ext_lld_channel_disable
 287              	.LVL9:
 288              	.LBB11:
 289              		.loc 1 171 0
 290 000e 0023     		movs	r3, #0
 291              		.syntax unified
 292              	@ 171 "chibios/os/hal/src/ext.c" 1
 293 0010 83F31188 		msr     BASEPRI, r3
 294              	@ 0 "" 2
 295              		.thumb
 296              		.syntax unified
 297 0014 80BD     		pop	{r7, pc}
 298              	.LBE11:
 299              		.cfi_endproc
 300              	.LFE68:
 301              		.size	extChannelDisable, .-extChannelDisable
 302              		.section	.text.extSetChannelModeI,"ax",%progbits
 303              		.align	1
 304              		.global	extSetChannelModeI
 305              		.thumb
 306              		.thumb_func
 307              		.type	extSetChannelModeI, %function
 308              	extSetChannelModeI:
 309              	.LFB69:
 310              		.loc 1 193 0
 311              		.cfi_startproc
 312              		@ args = 0, pretend = 0, frame = 0
 313              		@ frame_needed = 1, uses_anonymous_args = 0
 314              		@ link register save eliminated.
 315              	.LVL10:
 316 0000 B0B4     		push	{r4, r5, r7}
 317              	.LCFI14:
 318              		.cfi_def_cfa_offset 12
 319              		.cfi_offset 4, -12
 320              		.cfi_offset 5, -8
 321              		.cfi_offset 7, -4
 322 0002 0446     		mov	r4, r0
 323 0004 0D46     		mov	r5, r1
 324              		.loc 1 208 0
 325 0006 4368     		ldr	r3, [r0, #4]
 326              		.loc 1 193 0
 327 0008 00AF     		add	r7, sp, #0
 328              	.LCFI15:
 329              		.cfi_def_cfa_register 7
 330              		.loc 1 208 0
 331 000a 03EBC103 		add	r3, r3, r1, lsl #3
 332 000e 92E80300 		ldmia	r2, {r0, r1}
 333              	.LVL11:
 334 0012 83E80300 		stmia	r3, {r0, r1}
 335              	.LVL12:
 336              		.loc 1 209 0
 337 0016 2946     		mov	r1, r5
 338 0018 2046     		mov	r0, r4
 339              		.loc 1 210 0
 340 001a BD46     		mov	sp, r7
 341              	.LCFI16:
 342              		.cfi_def_cfa_register 13
ARM GAS  /var/folders/_2/42wyrlld3p52fkcpt1lv6gxh0000gp/T//ccKoUAB2.s 			page 7


 343              		@ sp needed
 344 001c B0BC     		pop	{r4, r5, r7}
 345              	.LCFI17:
 346              		.cfi_restore 7
 347              		.cfi_restore 5
 348              		.cfi_restore 4
 349              		.cfi_def_cfa_offset 0
 350              	.LVL13:
 351              		.loc 1 209 0
 352 001e FFF7FEBF 		b	ext_lld_channel_enable
 353              	.LVL14:
 354              		.cfi_endproc
 355              	.LFE69:
 356              		.size	extSetChannelModeI, .-extSetChannelModeI
 357              		.text
 358              	.Letext0:
 359              		.file 2 "/Users/ARS/Applications/Eclipse.app/Contents/gcc-arm-none-eabi-5_3-2016q1/arm-none-eabi/i
 360              		.file 3 "/Users/ARS/Applications/Eclipse.app/Contents/gcc-arm-none-eabi-5_3-2016q1/arm-none-eabi/i
 361              		.file 4 "chibios/os/hal/include/ext.h"
 362              		.file 5 "chibios/os/hal/platforms/STM32/ext_lld.h"
 363              		.file 6 "chibios/os/ports/common/ARMCMx/CMSIS/include/core_cm3.h"