ARM GAS  /var/folders/_2/42wyrlld3p52fkcpt1lv6gxh0000gp/T//ccGwFNd0.s 			page 1


   1              		.syntax unified
   2              		.cpu cortex-m3
   3              		.fpu softvfp
   4              		.eabi_attribute 20, 1
   5              		.eabi_attribute 21, 1
   6              		.eabi_attribute 23, 3
   7              		.eabi_attribute 24, 1
   8              		.eabi_attribute 25, 1
   9              		.eabi_attribute 26, 1
  10              		.eabi_attribute 30, 4
  11              		.eabi_attribute 34, 1
  12              		.eabi_attribute 18, 4
  13              		.thumb
  14              		.syntax unified
  15              		.file	"ext_lld_isr.c"
  16              		.text
  17              	.Ltext0:
  18              		.cfi_sections	.debug_frame
  19              		.section	.text.Vector58,"ax",%progbits
  20              		.align	1
  21              		.global	Vector58
  22              		.thumb
  23              		.thumb_func
  24              		.type	Vector58, %function
  25              	Vector58:
  26              	.LFB63:
  27              		.file 1 "chibios/os/hal/platforms/STM32L1xx/ext_lld_isr.c"
  28              		.loc 1 57 0
  29              		.cfi_startproc
  30              		@ args = 0, pretend = 0, frame = 0
  31              		@ frame_needed = 1, uses_anonymous_args = 0
  32 0000 80B5     		push	{r7, lr}
  33              	.LCFI0:
  34              		.cfi_def_cfa_offset 8
  35              		.cfi_offset 7, -8
  36              		.cfi_offset 14, -4
  37              		.loc 1 62 0
  38 0002 0748     		ldr	r0, .L2
  39              		.loc 1 61 0
  40 0004 074B     		ldr	r3, .L2+4
  41 0006 0122     		movs	r2, #1
  42 0008 5A61     		str	r2, [r3, #20]
  43              		.loc 1 62 0
  44 000a 4368     		ldr	r3, [r0, #4]
  45              		.loc 1 57 0
  46 000c 00AF     		add	r7, sp, #0
  47              	.LCFI1:
  48              		.cfi_def_cfa_register 7
  49              		.loc 1 62 0
  50 000e 5B68     		ldr	r3, [r3, #4]
  51 0010 0021     		movs	r1, #0
  52 0012 9847     		blx	r3
  53              	.LVL0:
  54              		.loc 1 65 0
  55 0014 BD46     		mov	sp, r7
  56              	.LCFI2:
  57              		.cfi_def_cfa_register 13
ARM GAS  /var/folders/_2/42wyrlld3p52fkcpt1lv6gxh0000gp/T//ccGwFNd0.s 			page 2


  58              		@ sp needed
  59 0016 BDE88040 		pop	{r7, lr}
  60              	.LCFI3:
  61              		.cfi_restore 14
  62              		.cfi_restore 7
  63              		.cfi_def_cfa_offset 0
  64              		.loc 1 64 0
  65 001a FFF7FEBF 		b	_port_irq_epilogue
  66              	.LVL1:
  67              	.L3:
  68 001e 00BF     		.align	2
  69              	.L2:
  70 0020 00000000 		.word	EXTD1
  71 0024 00040140 		.word	1073808384
  72              		.cfi_endproc
  73              	.LFE63:
  74              		.size	Vector58, .-Vector58
  75              		.section	.text.Vector5C,"ax",%progbits
  76              		.align	1
  77              		.global	Vector5C
  78              		.thumb
  79              		.thumb_func
  80              		.type	Vector5C, %function
  81              	Vector5C:
  82              	.LFB64:
  83              		.loc 1 72 0
  84              		.cfi_startproc
  85              		@ args = 0, pretend = 0, frame = 0
  86              		@ frame_needed = 1, uses_anonymous_args = 0
  87 0000 80B5     		push	{r7, lr}
  88              	.LCFI4:
  89              		.cfi_def_cfa_offset 8
  90              		.cfi_offset 7, -8
  91              		.cfi_offset 14, -4
  92              		.loc 1 77 0
  93 0002 0748     		ldr	r0, .L5
  94              		.loc 1 76 0
  95 0004 074B     		ldr	r3, .L5+4
  96 0006 0222     		movs	r2, #2
  97 0008 5A61     		str	r2, [r3, #20]
  98              		.loc 1 77 0
  99 000a 4368     		ldr	r3, [r0, #4]
 100              		.loc 1 72 0
 101 000c 00AF     		add	r7, sp, #0
 102              	.LCFI5:
 103              		.cfi_def_cfa_register 7
 104              		.loc 1 77 0
 105 000e DB68     		ldr	r3, [r3, #12]
 106 0010 0121     		movs	r1, #1
 107 0012 9847     		blx	r3
 108              	.LVL2:
 109              		.loc 1 80 0
 110 0014 BD46     		mov	sp, r7
 111              	.LCFI6:
 112              		.cfi_def_cfa_register 13
 113              		@ sp needed
 114 0016 BDE88040 		pop	{r7, lr}
ARM GAS  /var/folders/_2/42wyrlld3p52fkcpt1lv6gxh0000gp/T//ccGwFNd0.s 			page 3


 115              	.LCFI7:
 116              		.cfi_restore 14
 117              		.cfi_restore 7
 118              		.cfi_def_cfa_offset 0
 119              		.loc 1 79 0
 120 001a FFF7FEBF 		b	_port_irq_epilogue
 121              	.LVL3:
 122              	.L6:
 123 001e 00BF     		.align	2
 124              	.L5:
 125 0020 00000000 		.word	EXTD1
 126 0024 00040140 		.word	1073808384
 127              		.cfi_endproc
 128              	.LFE64:
 129              		.size	Vector5C, .-Vector5C
 130              		.section	.text.Vector60,"ax",%progbits
 131              		.align	1
 132              		.global	Vector60
 133              		.thumb
 134              		.thumb_func
 135              		.type	Vector60, %function
 136              	Vector60:
 137              	.LFB65:
 138              		.loc 1 87 0
 139              		.cfi_startproc
 140              		@ args = 0, pretend = 0, frame = 0
 141              		@ frame_needed = 1, uses_anonymous_args = 0
 142 0000 80B5     		push	{r7, lr}
 143              	.LCFI8:
 144              		.cfi_def_cfa_offset 8
 145              		.cfi_offset 7, -8
 146              		.cfi_offset 14, -4
 147              		.loc 1 92 0
 148 0002 0748     		ldr	r0, .L8
 149              		.loc 1 91 0
 150 0004 074B     		ldr	r3, .L8+4
 151 0006 0422     		movs	r2, #4
 152 0008 5A61     		str	r2, [r3, #20]
 153              		.loc 1 92 0
 154 000a 4368     		ldr	r3, [r0, #4]
 155              		.loc 1 87 0
 156 000c 00AF     		add	r7, sp, #0
 157              	.LCFI9:
 158              		.cfi_def_cfa_register 7
 159              		.loc 1 92 0
 160 000e 5B69     		ldr	r3, [r3, #20]
 161 0010 0221     		movs	r1, #2
 162 0012 9847     		blx	r3
 163              	.LVL4:
 164              		.loc 1 95 0
 165 0014 BD46     		mov	sp, r7
 166              	.LCFI10:
 167              		.cfi_def_cfa_register 13
 168              		@ sp needed
 169 0016 BDE88040 		pop	{r7, lr}
 170              	.LCFI11:
 171              		.cfi_restore 14
ARM GAS  /var/folders/_2/42wyrlld3p52fkcpt1lv6gxh0000gp/T//ccGwFNd0.s 			page 4


 172              		.cfi_restore 7
 173              		.cfi_def_cfa_offset 0
 174              		.loc 1 94 0
 175 001a FFF7FEBF 		b	_port_irq_epilogue
 176              	.LVL5:
 177              	.L9:
 178 001e 00BF     		.align	2
 179              	.L8:
 180 0020 00000000 		.word	EXTD1
 181 0024 00040140 		.word	1073808384
 182              		.cfi_endproc
 183              	.LFE65:
 184              		.size	Vector60, .-Vector60
 185              		.section	.text.Vector64,"ax",%progbits
 186              		.align	1
 187              		.global	Vector64
 188              		.thumb
 189              		.thumb_func
 190              		.type	Vector64, %function
 191              	Vector64:
 192              	.LFB66:
 193              		.loc 1 102 0
 194              		.cfi_startproc
 195              		@ args = 0, pretend = 0, frame = 0
 196              		@ frame_needed = 1, uses_anonymous_args = 0
 197 0000 80B5     		push	{r7, lr}
 198              	.LCFI12:
 199              		.cfi_def_cfa_offset 8
 200              		.cfi_offset 7, -8
 201              		.cfi_offset 14, -4
 202              		.loc 1 107 0
 203 0002 0748     		ldr	r0, .L11
 204              		.loc 1 106 0
 205 0004 074B     		ldr	r3, .L11+4
 206 0006 0822     		movs	r2, #8
 207 0008 5A61     		str	r2, [r3, #20]
 208              		.loc 1 107 0
 209 000a 4368     		ldr	r3, [r0, #4]
 210              		.loc 1 102 0
 211 000c 00AF     		add	r7, sp, #0
 212              	.LCFI13:
 213              		.cfi_def_cfa_register 7
 214              		.loc 1 107 0
 215 000e DB69     		ldr	r3, [r3, #28]
 216 0010 0321     		movs	r1, #3
 217 0012 9847     		blx	r3
 218              	.LVL6:
 219              		.loc 1 110 0
 220 0014 BD46     		mov	sp, r7
 221              	.LCFI14:
 222              		.cfi_def_cfa_register 13
 223              		@ sp needed
 224 0016 BDE88040 		pop	{r7, lr}
 225              	.LCFI15:
 226              		.cfi_restore 14
 227              		.cfi_restore 7
 228              		.cfi_def_cfa_offset 0
ARM GAS  /var/folders/_2/42wyrlld3p52fkcpt1lv6gxh0000gp/T//ccGwFNd0.s 			page 5


 229              		.loc 1 109 0
 230 001a FFF7FEBF 		b	_port_irq_epilogue
 231              	.LVL7:
 232              	.L12:
 233 001e 00BF     		.align	2
 234              	.L11:
 235 0020 00000000 		.word	EXTD1
 236 0024 00040140 		.word	1073808384
 237              		.cfi_endproc
 238              	.LFE66:
 239              		.size	Vector64, .-Vector64
 240              		.section	.text.Vector68,"ax",%progbits
 241              		.align	1
 242              		.global	Vector68
 243              		.thumb
 244              		.thumb_func
 245              		.type	Vector68, %function
 246              	Vector68:
 247              	.LFB67:
 248              		.loc 1 117 0
 249              		.cfi_startproc
 250              		@ args = 0, pretend = 0, frame = 0
 251              		@ frame_needed = 1, uses_anonymous_args = 0
 252 0000 80B5     		push	{r7, lr}
 253              	.LCFI16:
 254              		.cfi_def_cfa_offset 8
 255              		.cfi_offset 7, -8
 256              		.cfi_offset 14, -4
 257              		.loc 1 122 0
 258 0002 0748     		ldr	r0, .L14
 259              		.loc 1 121 0
 260 0004 074B     		ldr	r3, .L14+4
 261 0006 1022     		movs	r2, #16
 262 0008 5A61     		str	r2, [r3, #20]
 263              		.loc 1 122 0
 264 000a 4368     		ldr	r3, [r0, #4]
 265              		.loc 1 117 0
 266 000c 00AF     		add	r7, sp, #0
 267              	.LCFI17:
 268              		.cfi_def_cfa_register 7
 269              		.loc 1 122 0
 270 000e 5B6A     		ldr	r3, [r3, #36]
 271 0010 0421     		movs	r1, #4
 272 0012 9847     		blx	r3
 273              	.LVL8:
 274              		.loc 1 125 0
 275 0014 BD46     		mov	sp, r7
 276              	.LCFI18:
 277              		.cfi_def_cfa_register 13
 278              		@ sp needed
 279 0016 BDE88040 		pop	{r7, lr}
 280              	.LCFI19:
 281              		.cfi_restore 14
 282              		.cfi_restore 7
 283              		.cfi_def_cfa_offset 0
 284              		.loc 1 124 0
 285 001a FFF7FEBF 		b	_port_irq_epilogue
ARM GAS  /var/folders/_2/42wyrlld3p52fkcpt1lv6gxh0000gp/T//ccGwFNd0.s 			page 6


 286              	.LVL9:
 287              	.L15:
 288 001e 00BF     		.align	2
 289              	.L14:
 290 0020 00000000 		.word	EXTD1
 291 0024 00040140 		.word	1073808384
 292              		.cfi_endproc
 293              	.LFE67:
 294              		.size	Vector68, .-Vector68
 295              		.section	.text.Vector9C,"ax",%progbits
 296              		.align	1
 297              		.global	Vector9C
 298              		.thumb
 299              		.thumb_func
 300              		.type	Vector9C, %function
 301              	Vector9C:
 302              	.LFB68:
 303              		.loc 1 132 0
 304              		.cfi_startproc
 305              		@ args = 0, pretend = 0, frame = 0
 306              		@ frame_needed = 1, uses_anonymous_args = 0
 307 0000 98B5     		push	{r3, r4, r7, lr}
 308              	.LCFI20:
 309              		.cfi_def_cfa_offset 16
 310              		.cfi_offset 3, -16
 311              		.cfi_offset 4, -12
 312              		.cfi_offset 7, -8
 313              		.cfi_offset 14, -4
 314              		.loc 1 137 0
 315 0002 174B     		ldr	r3, .L38
 316              		.loc 1 132 0
 317 0004 00AF     		add	r7, sp, #0
 318              	.LCFI21:
 319              		.cfi_def_cfa_register 7
 320              		.loc 1 137 0
 321 0006 5C69     		ldr	r4, [r3, #20]
 322 0008 04F47872 		and	r2, r4, #992
 323              	.LVL10:
 324              		.loc 1 138 0
 325 000c 5A61     		str	r2, [r3, #20]
 326              		.loc 1 139 0
 327 000e A306     		lsls	r3, r4, #26
 328 0010 04D5     		bpl	.L17
 329              		.loc 1 140 0
 330 0012 1448     		ldr	r0, .L38+4
 331 0014 0521     		movs	r1, #5
 332 0016 4368     		ldr	r3, [r0, #4]
 333 0018 DB6A     		ldr	r3, [r3, #44]
 334 001a 9847     		blx	r3
 335              	.LVL11:
 336              	.L17:
 337              		.loc 1 141 0
 338 001c 6006     		lsls	r0, r4, #25
 339 001e 04D5     		bpl	.L18
 340              		.loc 1 142 0
 341 0020 1048     		ldr	r0, .L38+4
 342 0022 0621     		movs	r1, #6
ARM GAS  /var/folders/_2/42wyrlld3p52fkcpt1lv6gxh0000gp/T//ccGwFNd0.s 			page 7


 343 0024 4368     		ldr	r3, [r0, #4]
 344 0026 5B6B     		ldr	r3, [r3, #52]
 345 0028 9847     		blx	r3
 346              	.LVL12:
 347              	.L18:
 348              		.loc 1 143 0
 349 002a 2106     		lsls	r1, r4, #24
 350 002c 04D5     		bpl	.L19
 351              		.loc 1 144 0
 352 002e 0D48     		ldr	r0, .L38+4
 353 0030 0721     		movs	r1, #7
 354 0032 4368     		ldr	r3, [r0, #4]
 355 0034 DB6B     		ldr	r3, [r3, #60]
 356 0036 9847     		blx	r3
 357              	.LVL13:
 358              	.L19:
 359              		.loc 1 145 0
 360 0038 E205     		lsls	r2, r4, #23
 361 003a 04D5     		bpl	.L20
 362              		.loc 1 146 0
 363 003c 0948     		ldr	r0, .L38+4
 364 003e 0821     		movs	r1, #8
 365 0040 4368     		ldr	r3, [r0, #4]
 366 0042 5B6C     		ldr	r3, [r3, #68]
 367 0044 9847     		blx	r3
 368              	.LVL14:
 369              	.L20:
 370              		.loc 1 147 0
 371 0046 A305     		lsls	r3, r4, #22
 372 0048 04D5     		bpl	.L21
 373              		.loc 1 148 0
 374 004a 0648     		ldr	r0, .L38+4
 375 004c 0921     		movs	r1, #9
 376 004e 4368     		ldr	r3, [r0, #4]
 377 0050 DB6C     		ldr	r3, [r3, #76]
 378 0052 9847     		blx	r3
 379              	.LVL15:
 380              	.L21:
 381              		.loc 1 151 0
 382 0054 BD46     		mov	sp, r7
 383              	.LCFI22:
 384              		.cfi_def_cfa_register 13
 385              		@ sp needed
 386 0056 BDE89840 		pop	{r3, r4, r7, lr}
 387              	.LCFI23:
 388              		.cfi_restore 14
 389              		.cfi_restore 7
 390              		.cfi_restore 4
 391              		.cfi_restore 3
 392              		.cfi_def_cfa_offset 0
 393              	.LVL16:
 394              		.loc 1 150 0
 395 005a FFF7FEBF 		b	_port_irq_epilogue
 396              	.LVL17:
 397              	.L39:
 398 005e 00BF     		.align	2
 399              	.L38:
ARM GAS  /var/folders/_2/42wyrlld3p52fkcpt1lv6gxh0000gp/T//ccGwFNd0.s 			page 8


 400 0060 00040140 		.word	1073808384
 401 0064 00000000 		.word	EXTD1
 402              		.cfi_endproc
 403              	.LFE68:
 404              		.size	Vector9C, .-Vector9C
 405              		.section	.text.VectorE0,"ax",%progbits
 406              		.align	1
 407              		.global	VectorE0
 408              		.thumb
 409              		.thumb_func
 410              		.type	VectorE0, %function
 411              	VectorE0:
 412              	.LFB69:
 413              		.loc 1 158 0
 414              		.cfi_startproc
 415              		@ args = 0, pretend = 0, frame = 0
 416              		@ frame_needed = 1, uses_anonymous_args = 0
 417 0000 98B5     		push	{r3, r4, r7, lr}
 418              	.LCFI24:
 419              		.cfi_def_cfa_offset 16
 420              		.cfi_offset 3, -16
 421              		.cfi_offset 4, -12
 422              		.cfi_offset 7, -8
 423              		.cfi_offset 14, -4
 424              		.loc 1 163 0
 425 0002 1A4B     		ldr	r3, .L65
 426              		.loc 1 158 0
 427 0004 00AF     		add	r7, sp, #0
 428              	.LCFI25:
 429              		.cfi_def_cfa_register 7
 430              		.loc 1 163 0
 431 0006 5C69     		ldr	r4, [r3, #20]
 432 0008 04F47C42 		and	r2, r4, #64512
 433              	.LVL18:
 434              		.loc 1 165 0
 435 000c 5A61     		str	r2, [r3, #20]
 436              		.loc 1 166 0
 437 000e 6205     		lsls	r2, r4, #21
 438              	.LVL19:
 439 0010 04D5     		bpl	.L41
 440              		.loc 1 167 0
 441 0012 1748     		ldr	r0, .L65+4
 442 0014 0A21     		movs	r1, #10
 443 0016 4368     		ldr	r3, [r0, #4]
 444              	.LVL20:
 445 0018 5B6D     		ldr	r3, [r3, #84]
 446 001a 9847     		blx	r3
 447              	.LVL21:
 448              	.L41:
 449              		.loc 1 168 0
 450 001c 2305     		lsls	r3, r4, #20
 451 001e 04D5     		bpl	.L42
 452              		.loc 1 169 0
 453 0020 1348     		ldr	r0, .L65+4
 454 0022 0B21     		movs	r1, #11
 455 0024 4368     		ldr	r3, [r0, #4]
 456 0026 DB6D     		ldr	r3, [r3, #92]
ARM GAS  /var/folders/_2/42wyrlld3p52fkcpt1lv6gxh0000gp/T//ccGwFNd0.s 			page 9


 457 0028 9847     		blx	r3
 458              	.LVL22:
 459              	.L42:
 460              		.loc 1 170 0
 461 002a E004     		lsls	r0, r4, #19
 462 002c 04D5     		bpl	.L43
 463              		.loc 1 171 0
 464 002e 1048     		ldr	r0, .L65+4
 465 0030 0C21     		movs	r1, #12
 466 0032 4368     		ldr	r3, [r0, #4]
 467 0034 5B6E     		ldr	r3, [r3, #100]
 468 0036 9847     		blx	r3
 469              	.LVL23:
 470              	.L43:
 471              		.loc 1 172 0
 472 0038 A104     		lsls	r1, r4, #18
 473 003a 04D5     		bpl	.L44
 474              		.loc 1 173 0
 475 003c 0C48     		ldr	r0, .L65+4
 476 003e 0D21     		movs	r1, #13
 477 0040 4368     		ldr	r3, [r0, #4]
 478 0042 DB6E     		ldr	r3, [r3, #108]
 479 0044 9847     		blx	r3
 480              	.LVL24:
 481              	.L44:
 482              		.loc 1 174 0
 483 0046 6204     		lsls	r2, r4, #17
 484 0048 04D5     		bpl	.L45
 485              		.loc 1 175 0
 486 004a 0948     		ldr	r0, .L65+4
 487 004c 0E21     		movs	r1, #14
 488 004e 4368     		ldr	r3, [r0, #4]
 489 0050 5B6F     		ldr	r3, [r3, #116]
 490 0052 9847     		blx	r3
 491              	.LVL25:
 492              	.L45:
 493              		.loc 1 176 0
 494 0054 2304     		lsls	r3, r4, #16
 495 0056 04D5     		bpl	.L46
 496              		.loc 1 177 0
 497 0058 0548     		ldr	r0, .L65+4
 498 005a 0F21     		movs	r1, #15
 499 005c 4368     		ldr	r3, [r0, #4]
 500 005e DB6F     		ldr	r3, [r3, #124]
 501 0060 9847     		blx	r3
 502              	.LVL26:
 503              	.L46:
 504              		.loc 1 180 0
 505 0062 BD46     		mov	sp, r7
 506              	.LCFI26:
 507              		.cfi_def_cfa_register 13
 508              		@ sp needed
 509 0064 BDE89840 		pop	{r3, r4, r7, lr}
 510              	.LCFI27:
 511              		.cfi_restore 14
 512              		.cfi_restore 7
 513              		.cfi_restore 4
ARM GAS  /var/folders/_2/42wyrlld3p52fkcpt1lv6gxh0000gp/T//ccGwFNd0.s 			page 10


 514              		.cfi_restore 3
 515              		.cfi_def_cfa_offset 0
 516              	.LVL27:
 517              		.loc 1 179 0
 518 0068 FFF7FEBF 		b	_port_irq_epilogue
 519              	.LVL28:
 520              	.L66:
 521              		.align	2
 522              	.L65:
 523 006c 00040140 		.word	1073808384
 524 0070 00000000 		.word	EXTD1
 525              		.cfi_endproc
 526              	.LFE69:
 527              		.size	VectorE0, .-VectorE0
 528              		.section	.text.Vector44,"ax",%progbits
 529              		.align	1
 530              		.global	Vector44
 531              		.thumb
 532              		.thumb_func
 533              		.type	Vector44, %function
 534              	Vector44:
 535              	.LFB70:
 536              		.loc 1 187 0
 537              		.cfi_startproc
 538              		@ args = 0, pretend = 0, frame = 0
 539              		@ frame_needed = 1, uses_anonymous_args = 0
 540 0000 80B5     		push	{r7, lr}
 541              	.LCFI28:
 542              		.cfi_def_cfa_offset 8
 543              		.cfi_offset 7, -8
 544              		.cfi_offset 14, -4
 545              		.loc 1 192 0
 546 0002 0848     		ldr	r0, .L68
 547              		.loc 1 191 0
 548 0004 084B     		ldr	r3, .L68+4
 549 0006 4FF48032 		mov	r2, #65536
 550 000a 5A61     		str	r2, [r3, #20]
 551              		.loc 1 192 0
 552 000c 4368     		ldr	r3, [r0, #4]
 553              		.loc 1 187 0
 554 000e 00AF     		add	r7, sp, #0
 555              	.LCFI29:
 556              		.cfi_def_cfa_register 7
 557              		.loc 1 192 0
 558 0010 D3F88430 		ldr	r3, [r3, #132]
 559 0014 1021     		movs	r1, #16
 560 0016 9847     		blx	r3
 561              	.LVL29:
 562              		.loc 1 195 0
 563 0018 BD46     		mov	sp, r7
 564              	.LCFI30:
 565              		.cfi_def_cfa_register 13
 566              		@ sp needed
 567 001a BDE88040 		pop	{r7, lr}
 568              	.LCFI31:
 569              		.cfi_restore 14
 570              		.cfi_restore 7
ARM GAS  /var/folders/_2/42wyrlld3p52fkcpt1lv6gxh0000gp/T//ccGwFNd0.s 			page 11


 571              		.cfi_def_cfa_offset 0
 572              		.loc 1 194 0
 573 001e FFF7FEBF 		b	_port_irq_epilogue
 574              	.LVL30:
 575              	.L69:
 576 0022 00BF     		.align	2
 577              	.L68:
 578 0024 00000000 		.word	EXTD1
 579 0028 00040140 		.word	1073808384
 580              		.cfi_endproc
 581              	.LFE70:
 582              		.size	Vector44, .-Vector44
 583              		.section	.text.VectorE4,"ax",%progbits
 584              		.align	1
 585              		.global	VectorE4
 586              		.thumb
 587              		.thumb_func
 588              		.type	VectorE4, %function
 589              	VectorE4:
 590              	.LFB71:
 591              		.loc 1 202 0
 592              		.cfi_startproc
 593              		@ args = 0, pretend = 0, frame = 0
 594              		@ frame_needed = 1, uses_anonymous_args = 0
 595 0000 80B5     		push	{r7, lr}
 596              	.LCFI32:
 597              		.cfi_def_cfa_offset 8
 598              		.cfi_offset 7, -8
 599              		.cfi_offset 14, -4
 600              		.loc 1 207 0
 601 0002 0848     		ldr	r0, .L71
 602              		.loc 1 206 0
 603 0004 084B     		ldr	r3, .L71+4
 604 0006 4FF40032 		mov	r2, #131072
 605 000a 5A61     		str	r2, [r3, #20]
 606              		.loc 1 207 0
 607 000c 4368     		ldr	r3, [r0, #4]
 608              		.loc 1 202 0
 609 000e 00AF     		add	r7, sp, #0
 610              	.LCFI33:
 611              		.cfi_def_cfa_register 7
 612              		.loc 1 207 0
 613 0010 D3F88C30 		ldr	r3, [r3, #140]
 614 0014 1121     		movs	r1, #17
 615 0016 9847     		blx	r3
 616              	.LVL31:
 617              		.loc 1 210 0
 618 0018 BD46     		mov	sp, r7
 619              	.LCFI34:
 620              		.cfi_def_cfa_register 13
 621              		@ sp needed
 622 001a BDE88040 		pop	{r7, lr}
 623              	.LCFI35:
 624              		.cfi_restore 14
 625              		.cfi_restore 7
 626              		.cfi_def_cfa_offset 0
 627              		.loc 1 209 0
ARM GAS  /var/folders/_2/42wyrlld3p52fkcpt1lv6gxh0000gp/T//ccGwFNd0.s 			page 12


 628 001e FFF7FEBF 		b	_port_irq_epilogue
 629              	.LVL32:
 630              	.L72:
 631 0022 00BF     		.align	2
 632              	.L71:
 633 0024 00000000 		.word	EXTD1
 634 0028 00040140 		.word	1073808384
 635              		.cfi_endproc
 636              	.LFE71:
 637              		.size	VectorE4, .-VectorE4
 638              		.section	.text.VectorE8,"ax",%progbits
 639              		.align	1
 640              		.global	VectorE8
 641              		.thumb
 642              		.thumb_func
 643              		.type	VectorE8, %function
 644              	VectorE8:
 645              	.LFB72:
 646              		.loc 1 216 0
 647              		.cfi_startproc
 648              		@ args = 0, pretend = 0, frame = 0
 649              		@ frame_needed = 1, uses_anonymous_args = 0
 650 0000 80B5     		push	{r7, lr}
 651              	.LCFI36:
 652              		.cfi_def_cfa_offset 8
 653              		.cfi_offset 7, -8
 654              		.cfi_offset 14, -4
 655              		.loc 1 221 0
 656 0002 0848     		ldr	r0, .L74
 657              		.loc 1 220 0
 658 0004 084B     		ldr	r3, .L74+4
 659 0006 4FF48022 		mov	r2, #262144
 660 000a 5A61     		str	r2, [r3, #20]
 661              		.loc 1 221 0
 662 000c 4368     		ldr	r3, [r0, #4]
 663              		.loc 1 216 0
 664 000e 00AF     		add	r7, sp, #0
 665              	.LCFI37:
 666              		.cfi_def_cfa_register 7
 667              		.loc 1 221 0
 668 0010 D3F89430 		ldr	r3, [r3, #148]
 669 0014 1221     		movs	r1, #18
 670 0016 9847     		blx	r3
 671              	.LVL33:
 672              		.loc 1 224 0
 673 0018 BD46     		mov	sp, r7
 674              	.LCFI38:
 675              		.cfi_def_cfa_register 13
 676              		@ sp needed
 677 001a BDE88040 		pop	{r7, lr}
 678              	.LCFI39:
 679              		.cfi_restore 14
 680              		.cfi_restore 7
 681              		.cfi_def_cfa_offset 0
 682              		.loc 1 223 0
 683 001e FFF7FEBF 		b	_port_irq_epilogue
 684              	.LVL34:
ARM GAS  /var/folders/_2/42wyrlld3p52fkcpt1lv6gxh0000gp/T//ccGwFNd0.s 			page 13


 685              	.L75:
 686 0022 00BF     		.align	2
 687              	.L74:
 688 0024 00000000 		.word	EXTD1
 689 0028 00040140 		.word	1073808384
 690              		.cfi_endproc
 691              	.LFE72:
 692              		.size	VectorE8, .-VectorE8
 693              		.section	.text.Vector48,"ax",%progbits
 694              		.align	1
 695              		.global	Vector48
 696              		.thumb
 697              		.thumb_func
 698              		.type	Vector48, %function
 699              	Vector48:
 700              	.LFB73:
 701              		.loc 1 231 0
 702              		.cfi_startproc
 703              		@ args = 0, pretend = 0, frame = 0
 704              		@ frame_needed = 1, uses_anonymous_args = 0
 705 0000 80B5     		push	{r7, lr}
 706              	.LCFI40:
 707              		.cfi_def_cfa_offset 8
 708              		.cfi_offset 7, -8
 709              		.cfi_offset 14, -4
 710              		.loc 1 236 0
 711 0002 0848     		ldr	r0, .L77
 712              		.loc 1 235 0
 713 0004 084B     		ldr	r3, .L77+4
 714 0006 4FF40022 		mov	r2, #524288
 715 000a 5A61     		str	r2, [r3, #20]
 716              		.loc 1 236 0
 717 000c 4368     		ldr	r3, [r0, #4]
 718              		.loc 1 231 0
 719 000e 00AF     		add	r7, sp, #0
 720              	.LCFI41:
 721              		.cfi_def_cfa_register 7
 722              		.loc 1 236 0
 723 0010 D3F89C30 		ldr	r3, [r3, #156]
 724 0014 1321     		movs	r1, #19
 725 0016 9847     		blx	r3
 726              	.LVL35:
 727              		.loc 1 239 0
 728 0018 BD46     		mov	sp, r7
 729              	.LCFI42:
 730              		.cfi_def_cfa_register 13
 731              		@ sp needed
 732 001a BDE88040 		pop	{r7, lr}
 733              	.LCFI43:
 734              		.cfi_restore 14
 735              		.cfi_restore 7
 736              		.cfi_def_cfa_offset 0
 737              		.loc 1 238 0
 738 001e FFF7FEBF 		b	_port_irq_epilogue
 739              	.LVL36:
 740              	.L78:
 741 0022 00BF     		.align	2
ARM GAS  /var/folders/_2/42wyrlld3p52fkcpt1lv6gxh0000gp/T//ccGwFNd0.s 			page 14


 742              	.L77:
 743 0024 00000000 		.word	EXTD1
 744 0028 00040140 		.word	1073808384
 745              		.cfi_endproc
 746              	.LFE73:
 747              		.size	Vector48, .-Vector48
 748              		.section	.text.Vector4C,"ax",%progbits
 749              		.align	1
 750              		.global	Vector4C
 751              		.thumb
 752              		.thumb_func
 753              		.type	Vector4C, %function
 754              	Vector4C:
 755              	.LFB74:
 756              		.loc 1 246 0
 757              		.cfi_startproc
 758              		@ args = 0, pretend = 0, frame = 0
 759              		@ frame_needed = 1, uses_anonymous_args = 0
 760 0000 80B5     		push	{r7, lr}
 761              	.LCFI44:
 762              		.cfi_def_cfa_offset 8
 763              		.cfi_offset 7, -8
 764              		.cfi_offset 14, -4
 765              		.loc 1 251 0
 766 0002 0848     		ldr	r0, .L80
 767              		.loc 1 250 0
 768 0004 084B     		ldr	r3, .L80+4
 769 0006 4FF48012 		mov	r2, #1048576
 770 000a 5A61     		str	r2, [r3, #20]
 771              		.loc 1 251 0
 772 000c 4368     		ldr	r3, [r0, #4]
 773              		.loc 1 246 0
 774 000e 00AF     		add	r7, sp, #0
 775              	.LCFI45:
 776              		.cfi_def_cfa_register 7
 777              		.loc 1 251 0
 778 0010 D3F8A430 		ldr	r3, [r3, #164]
 779 0014 1421     		movs	r1, #20
 780 0016 9847     		blx	r3
 781              	.LVL37:
 782              		.loc 1 254 0
 783 0018 BD46     		mov	sp, r7
 784              	.LCFI46:
 785              		.cfi_def_cfa_register 13
 786              		@ sp needed
 787 001a BDE88040 		pop	{r7, lr}
 788              	.LCFI47:
 789              		.cfi_restore 14
 790              		.cfi_restore 7
 791              		.cfi_def_cfa_offset 0
 792              		.loc 1 253 0
 793 001e FFF7FEBF 		b	_port_irq_epilogue
 794              	.LVL38:
 795              	.L81:
 796 0022 00BF     		.align	2
 797              	.L80:
 798 0024 00000000 		.word	EXTD1
ARM GAS  /var/folders/_2/42wyrlld3p52fkcpt1lv6gxh0000gp/T//ccGwFNd0.s 			page 15


 799 0028 00040140 		.word	1073808384
 800              		.cfi_endproc
 801              	.LFE74:
 802              		.size	Vector4C, .-Vector4C
 803              		.section	.text.Vector98,"ax",%progbits
 804              		.align	1
 805              		.global	Vector98
 806              		.thumb
 807              		.thumb_func
 808              		.type	Vector98, %function
 809              	Vector98:
 810              	.LFB75:
 811              		.loc 1 261 0
 812              		.cfi_startproc
 813              		@ args = 0, pretend = 0, frame = 0
 814              		@ frame_needed = 1, uses_anonymous_args = 0
 815 0000 98B5     		push	{r3, r4, r7, lr}
 816              	.LCFI48:
 817              		.cfi_def_cfa_offset 16
 818              		.cfi_offset 3, -16
 819              		.cfi_offset 4, -12
 820              		.cfi_offset 7, -8
 821              		.cfi_offset 14, -4
 822              		.loc 1 266 0
 823 0002 0D4B     		ldr	r3, .L91
 824              		.loc 1 261 0
 825 0004 00AF     		add	r7, sp, #0
 826              	.LCFI49:
 827              		.cfi_def_cfa_register 7
 828              		.loc 1 266 0
 829 0006 5C69     		ldr	r4, [r3, #20]
 830 0008 04F4C002 		and	r2, r4, #6291456
 831              	.LVL39:
 832              		.loc 1 267 0
 833 000c 5A61     		str	r2, [r3, #20]
 834              		.loc 1 268 0
 835 000e A202     		lsls	r2, r4, #10
 836              	.LVL40:
 837 0010 05D5     		bpl	.L83
 838              		.loc 1 269 0
 839 0012 0A48     		ldr	r0, .L91+4
 840 0014 1521     		movs	r1, #21
 841 0016 4368     		ldr	r3, [r0, #4]
 842              	.LVL41:
 843 0018 D3F8AC30 		ldr	r3, [r3, #172]
 844 001c 9847     		blx	r3
 845              	.LVL42:
 846              	.L83:
 847              		.loc 1 270 0
 848 001e 6302     		lsls	r3, r4, #9
 849 0020 05D5     		bpl	.L84
 850              		.loc 1 271 0
 851 0022 0648     		ldr	r0, .L91+4
 852 0024 1621     		movs	r1, #22
 853 0026 4368     		ldr	r3, [r0, #4]
 854 0028 D3F8B430 		ldr	r3, [r3, #180]
 855 002c 9847     		blx	r3
ARM GAS  /var/folders/_2/42wyrlld3p52fkcpt1lv6gxh0000gp/T//ccGwFNd0.s 			page 16


 856              	.LVL43:
 857              	.L84:
 858              		.loc 1 274 0
 859 002e BD46     		mov	sp, r7
 860              	.LCFI50:
 861              		.cfi_def_cfa_register 13
 862              		@ sp needed
 863 0030 BDE89840 		pop	{r3, r4, r7, lr}
 864              	.LCFI51:
 865              		.cfi_restore 14
 866              		.cfi_restore 7
 867              		.cfi_restore 4
 868              		.cfi_restore 3
 869              		.cfi_def_cfa_offset 0
 870              	.LVL44:
 871              		.loc 1 273 0
 872 0034 FFF7FEBF 		b	_port_irq_epilogue
 873              	.LVL45:
 874              	.L92:
 875              		.align	2
 876              	.L91:
 877 0038 00040140 		.word	1073808384
 878 003c 00000000 		.word	EXTD1
 879              		.cfi_endproc
 880              	.LFE75:
 881              		.size	Vector98, .-Vector98
 882              		.section	.text.ext_lld_exti_irq_enable,"ax",%progbits
 883              		.align	1
 884              		.global	ext_lld_exti_irq_enable
 885              		.thumb
 886              		.thumb_func
 887              		.type	ext_lld_exti_irq_enable, %function
 888              	ext_lld_exti_irq_enable:
 889              	.LFB76:
 890              		.loc 1 285 0
 891              		.cfi_startproc
 892              		@ args = 0, pretend = 0, frame = 0
 893              		@ frame_needed = 1, uses_anonymous_args = 0
 894 0000 80B5     		push	{r7, lr}
 895              	.LCFI52:
 896              		.cfi_def_cfa_offset 8
 897              		.cfi_offset 7, -8
 898              		.cfi_offset 14, -4
 899              		.loc 1 287 0
 900 0002 6021     		movs	r1, #96
 901              		.loc 1 285 0
 902 0004 00AF     		add	r7, sp, #0
 903              	.LCFI53:
 904              		.cfi_def_cfa_register 7
 905              		.loc 1 287 0
 906 0006 0620     		movs	r0, #6
 907 0008 FFF7FEFF 		bl	nvicEnableVector
 908              	.LVL46:
 909              		.loc 1 289 0
 910 000c 6021     		movs	r1, #96
 911 000e 0720     		movs	r0, #7
 912 0010 FFF7FEFF 		bl	nvicEnableVector
ARM GAS  /var/folders/_2/42wyrlld3p52fkcpt1lv6gxh0000gp/T//ccGwFNd0.s 			page 17


 913              	.LVL47:
 914              		.loc 1 291 0
 915 0014 6021     		movs	r1, #96
 916 0016 0820     		movs	r0, #8
 917 0018 FFF7FEFF 		bl	nvicEnableVector
 918              	.LVL48:
 919              		.loc 1 293 0
 920 001c 6021     		movs	r1, #96
 921 001e 0920     		movs	r0, #9
 922 0020 FFF7FEFF 		bl	nvicEnableVector
 923              	.LVL49:
 924              		.loc 1 295 0
 925 0024 6021     		movs	r1, #96
 926 0026 0A20     		movs	r0, #10
 927 0028 FFF7FEFF 		bl	nvicEnableVector
 928              	.LVL50:
 929              		.loc 1 297 0
 930 002c 6021     		movs	r1, #96
 931 002e 1720     		movs	r0, #23
 932 0030 FFF7FEFF 		bl	nvicEnableVector
 933              	.LVL51:
 934              		.loc 1 299 0
 935 0034 6021     		movs	r1, #96
 936 0036 2820     		movs	r0, #40
 937 0038 FFF7FEFF 		bl	nvicEnableVector
 938              	.LVL52:
 939              		.loc 1 301 0
 940 003c 6021     		movs	r1, #96
 941 003e 0120     		movs	r0, #1
 942 0040 FFF7FEFF 		bl	nvicEnableVector
 943              	.LVL53:
 944              		.loc 1 303 0
 945 0044 6021     		movs	r1, #96
 946 0046 2920     		movs	r0, #41
 947 0048 FFF7FEFF 		bl	nvicEnableVector
 948              	.LVL54:
 949              		.loc 1 305 0
 950 004c 6021     		movs	r1, #96
 951 004e 2A20     		movs	r0, #42
 952 0050 FFF7FEFF 		bl	nvicEnableVector
 953              	.LVL55:
 954              		.loc 1 307 0
 955 0054 6021     		movs	r1, #96
 956 0056 0220     		movs	r0, #2
 957 0058 FFF7FEFF 		bl	nvicEnableVector
 958              	.LVL56:
 959              		.loc 1 309 0
 960 005c 6021     		movs	r1, #96
 961 005e 0320     		movs	r0, #3
 962 0060 FFF7FEFF 		bl	nvicEnableVector
 963              	.LVL57:
 964              		.loc 1 311 0
 965 0064 6021     		movs	r1, #96
 966 0066 1620     		movs	r0, #22
 967              		.loc 1 313 0
 968 0068 BD46     		mov	sp, r7
 969              	.LCFI54:
ARM GAS  /var/folders/_2/42wyrlld3p52fkcpt1lv6gxh0000gp/T//ccGwFNd0.s 			page 18


 970              		.cfi_def_cfa_register 13
 971              		@ sp needed
 972 006a BDE88040 		pop	{r7, lr}
 973              	.LCFI55:
 974              		.cfi_restore 14
 975              		.cfi_restore 7
 976              		.cfi_def_cfa_offset 0
 977              		.loc 1 311 0
 978 006e FFF7FEBF 		b	nvicEnableVector
 979              	.LVL58:
 980              		.cfi_endproc
 981              	.LFE76:
 982              		.size	ext_lld_exti_irq_enable, .-ext_lld_exti_irq_enable
 983              		.section	.text.ext_lld_exti_irq_disable,"ax",%progbits
 984              		.align	1
 985              		.global	ext_lld_exti_irq_disable
 986              		.thumb
 987              		.thumb_func
 988              		.type	ext_lld_exti_irq_disable, %function
 989              	ext_lld_exti_irq_disable:
 990              	.LFB77:
 991              		.loc 1 320 0
 992              		.cfi_startproc
 993              		@ args = 0, pretend = 0, frame = 0
 994              		@ frame_needed = 1, uses_anonymous_args = 0
 995 0000 80B5     		push	{r7, lr}
 996              	.LCFI56:
 997              		.cfi_def_cfa_offset 8
 998              		.cfi_offset 7, -8
 999              		.cfi_offset 14, -4
 1000              		.loc 1 322 0
 1001 0002 0620     		movs	r0, #6
 1002              		.loc 1 320 0
 1003 0004 00AF     		add	r7, sp, #0
 1004              	.LCFI57:
 1005              		.cfi_def_cfa_register 7
 1006              		.loc 1 322 0
 1007 0006 FFF7FEFF 		bl	nvicDisableVector
 1008              	.LVL59:
 1009              		.loc 1 323 0
 1010 000a 0720     		movs	r0, #7
 1011 000c FFF7FEFF 		bl	nvicDisableVector
 1012              	.LVL60:
 1013              		.loc 1 324 0
 1014 0010 0820     		movs	r0, #8
 1015 0012 FFF7FEFF 		bl	nvicDisableVector
 1016              	.LVL61:
 1017              		.loc 1 325 0
 1018 0016 0920     		movs	r0, #9
 1019 0018 FFF7FEFF 		bl	nvicDisableVector
 1020              	.LVL62:
 1021              		.loc 1 326 0
 1022 001c 0A20     		movs	r0, #10
 1023 001e FFF7FEFF 		bl	nvicDisableVector
 1024              	.LVL63:
 1025              		.loc 1 327 0
 1026 0022 1720     		movs	r0, #23
ARM GAS  /var/folders/_2/42wyrlld3p52fkcpt1lv6gxh0000gp/T//ccGwFNd0.s 			page 19


 1027 0024 FFF7FEFF 		bl	nvicDisableVector
 1028              	.LVL64:
 1029              		.loc 1 328 0
 1030 0028 2820     		movs	r0, #40
 1031 002a FFF7FEFF 		bl	nvicDisableVector
 1032              	.LVL65:
 1033              		.loc 1 329 0
 1034 002e 0120     		movs	r0, #1
 1035 0030 FFF7FEFF 		bl	nvicDisableVector
 1036              	.LVL66:
 1037              		.loc 1 330 0
 1038 0034 2920     		movs	r0, #41
 1039 0036 FFF7FEFF 		bl	nvicDisableVector
 1040              	.LVL67:
 1041              		.loc 1 331 0
 1042 003a 2A20     		movs	r0, #42
 1043 003c FFF7FEFF 		bl	nvicDisableVector
 1044              	.LVL68:
 1045              		.loc 1 332 0
 1046 0040 0220     		movs	r0, #2
 1047 0042 FFF7FEFF 		bl	nvicDisableVector
 1048              	.LVL69:
 1049              		.loc 1 333 0
 1050 0046 0320     		movs	r0, #3
 1051 0048 FFF7FEFF 		bl	nvicDisableVector
 1052              	.LVL70:
 1053              		.loc 1 334 0
 1054 004c 1620     		movs	r0, #22
 1055              		.loc 1 335 0
 1056 004e BD46     		mov	sp, r7
 1057              	.LCFI58:
 1058              		.cfi_def_cfa_register 13
 1059              		@ sp needed
 1060 0050 BDE88040 		pop	{r7, lr}
 1061              	.LCFI59:
 1062              		.cfi_restore 14
 1063              		.cfi_restore 7
 1064              		.cfi_def_cfa_offset 0
 1065              		.loc 1 334 0
 1066 0054 FFF7FEBF 		b	nvicDisableVector
 1067              	.LVL71:
 1068              		.cfi_endproc
 1069              	.LFE77:
 1070              		.size	ext_lld_exti_irq_disable, .-ext_lld_exti_irq_disable
 1071              		.text
 1072              	.Letext0:
 1073              		.file 2 "/Users/ARS/Applications/Eclipse.app/Contents/gcc-arm-none-eabi-5_3-2016q1/arm-none-eabi/i
 1074              		.file 3 "/Users/ARS/Applications/Eclipse.app/Contents/gcc-arm-none-eabi-5_3-2016q1/arm-none-eabi/i
 1075              		.file 4 "chibios/os/hal/platforms/STM32L1xx/stm32l1xx.h"
 1076              		.file 5 "chibios/os/hal/include/ext.h"
 1077              		.file 6 "chibios/os/hal/platforms/STM32/ext_lld.h"
 1078              		.file 7 "chibios/os/ports/common/ARMCMx/CMSIS/include/core_cm3.h"
 1079              		.file 8 "chibios/os/ports/GCC/ARMCMx/chcore_v7m.h"
 1080              		.file 9 "chibios/os/ports/common/ARMCMx/nvic.h"