ARM GAS  /var/folders/_2/42wyrlld3p52fkcpt1lv6gxh0000gp/T//ccfoa4F4.s 			page 1


   1              		.syntax unified
   2              		.cpu cortex-m3
   3              		.fpu softvfp
   4              		.eabi_attribute 20, 1
   5              		.eabi_attribute 21, 1
   6              		.eabi_attribute 23, 3
   7              		.eabi_attribute 24, 1
   8              		.eabi_attribute 25, 1
   9              		.eabi_attribute 26, 1
  10              		.eabi_attribute 30, 4
  11              		.eabi_attribute 34, 1
  12              		.eabi_attribute 18, 4
  13              		.thumb
  14              		.syntax unified
  15              		.file	"ext_lld.c"
  16              		.text
  17              	.Ltext0:
  18              		.cfi_sections	.debug_frame
  19              		.section	.text.ext_lld_init,"ax",%progbits
  20              		.align	1
  21              		.global	ext_lld_init
  22              		.thumb
  23              		.thumb_func
  24              		.type	ext_lld_init, %function
  25              	ext_lld_init:
  26              	.LFB63:
  27              		.file 1 "chibios/os/hal/platforms/STM32/ext_lld.c"
  28              		.loc 1 66 0
  29              		.cfi_startproc
  30              		@ args = 0, pretend = 0, frame = 0
  31              		@ frame_needed = 1, uses_anonymous_args = 0
  32              		@ link register save eliminated.
  33 0000 80B4     		push	{r7}
  34              	.LCFI0:
  35              		.cfi_def_cfa_offset 4
  36              		.cfi_offset 7, -4
  37              		.loc 1 69 0
  38 0002 0348     		ldr	r0, .L2
  39              		.loc 1 66 0
  40 0004 00AF     		add	r7, sp, #0
  41              	.LCFI1:
  42              		.cfi_def_cfa_register 7
  43              		.loc 1 70 0
  44 0006 BD46     		mov	sp, r7
  45              	.LCFI2:
  46              		.cfi_def_cfa_register 13
  47              		@ sp needed
  48 0008 80BC     		pop	{r7}
  49              	.LCFI3:
  50              		.cfi_restore 7
  51              		.cfi_def_cfa_offset 0
  52              		.loc 1 69 0
  53 000a FFF7FEBF 		b	extObjectInit
  54              	.LVL0:
  55              	.L3:
  56 000e 00BF     		.align	2
  57              	.L2:
ARM GAS  /var/folders/_2/42wyrlld3p52fkcpt1lv6gxh0000gp/T//ccfoa4F4.s 			page 2


  58 0010 00000000 		.word	.LANCHOR0
  59              		.cfi_endproc
  60              	.LFE63:
  61              		.size	ext_lld_init, .-ext_lld_init
  62              		.section	.text.ext_lld_stop,"ax",%progbits
  63              		.align	1
  64              		.global	ext_lld_stop
  65              		.thumb
  66              		.thumb_func
  67              		.type	ext_lld_stop, %function
  68              	ext_lld_stop:
  69              	.LFB65:
  70              		.loc 1 100 0
  71              		.cfi_startproc
  72              		@ args = 0, pretend = 0, frame = 0
  73              		@ frame_needed = 1, uses_anonymous_args = 0
  74              	.LVL1:
  75 0000 80B5     		push	{r7, lr}
  76              	.LCFI4:
  77              		.cfi_def_cfa_offset 8
  78              		.cfi_offset 7, -8
  79              		.cfi_offset 14, -4
  80              		.loc 1 102 0
  81 0002 0378     		ldrb	r3, [r0]	@ zero_extendqisi2
  82              		.loc 1 100 0
  83 0004 00AF     		add	r7, sp, #0
  84              	.LCFI5:
  85              		.cfi_def_cfa_register 7
  86              		.loc 1 102 0
  87 0006 022B     		cmp	r3, #2
  88 0008 01D1     		bne	.L5
  89              		.loc 1 103 0
  90 000a FFF7FEFF 		bl	ext_lld_exti_irq_disable
  91              	.LVL2:
  92              	.L5:
  93              		.loc 1 105 0
  94 000e 044B     		ldr	r3, .L7
  95 0010 0022     		movs	r2, #0
  96 0012 5A60     		str	r2, [r3, #4]
  97              		.loc 1 106 0
  98 0014 1A60     		str	r2, [r3]
  99              		.loc 1 107 0
 100 0016 4FF0FF32 		mov	r2, #-1
 101 001a 5A61     		str	r2, [r3, #20]
 102 001c 80BD     		pop	{r7, pc}
 103              	.L8:
 104 001e 00BF     		.align	2
 105              	.L7:
 106 0020 00040140 		.word	1073808384
 107              		.cfi_endproc
 108              	.LFE65:
 109              		.size	ext_lld_stop, .-ext_lld_stop
 110              		.section	.text.ext_lld_channel_enable,"ax",%progbits
 111              		.align	1
 112              		.global	ext_lld_channel_enable
 113              		.thumb
 114              		.thumb_func
ARM GAS  /var/folders/_2/42wyrlld3p52fkcpt1lv6gxh0000gp/T//ccfoa4F4.s 			page 3


 115              		.type	ext_lld_channel_enable, %function
 116              	ext_lld_channel_enable:
 117              	.LFB66:
 118              		.loc 1 121 0
 119              		.cfi_startproc
 120              		@ args = 0, pretend = 0, frame = 0
 121              		@ frame_needed = 1, uses_anonymous_args = 0
 122              	.LVL3:
 123 0000 4068     		ldr	r0, [r0, #4]
 124              	.LVL4:
 125 0002 244B     		ldr	r3, .L19
 126 0004 F0B5     		push	{r4, r5, r6, r7, lr}
 127              	.LCFI6:
 128              		.cfi_def_cfa_offset 20
 129              		.cfi_offset 4, -20
 130              		.cfi_offset 5, -16
 131              		.cfi_offset 6, -12
 132              		.cfi_offset 7, -8
 133              		.cfi_offset 14, -4
 134              		.loc 1 127 0
 135 0006 50F83160 		ldr	r6, [r0, r1, lsl #3]
 136              		.loc 1 128 0
 137 000a 9C68     		ldr	r4, [r3, #8]
 138 000c 0122     		movs	r2, #1
 139 000e 8A40     		lsls	r2, r2, r1
 140              		.loc 1 127 0
 141 0010 16F0010F 		tst	r6, #1
 142              		.loc 1 128 0
 143 0014 14BF     		ite	ne
 144 0016 2243     		orrne	r2, r2, r4
 145              		.loc 1 130 0
 146 0018 24EA0202 		biceq	r2, r4, r2
 147 001c 9A60     		str	r2, [r3, #8]
 148              		.loc 1 132 0
 149 001e DC68     		ldr	r4, [r3, #12]
 150 0020 0122     		movs	r2, #1
 151 0022 8A40     		lsls	r2, r2, r1
 152              		.loc 1 131 0
 153 0024 16F0020F 		tst	r6, #2
 154              		.loc 1 132 0
 155 0028 14BF     		ite	ne
 156 002a 2243     		orrne	r2, r2, r4
 157              		.loc 1 134 0
 158 002c 24EA0202 		biceq	r2, r4, r2
 159 0030 DA60     		str	r2, [r3, #12]
 160 0032 00EBC105 		add	r5, r0, r1, lsl #3
 161              		.loc 1 137 0
 162 0036 6C68     		ldr	r4, [r5, #4]
 163              		.loc 1 121 0
 164 0038 00AF     		add	r7, sp, #0
 165              	.LCFI7:
 166              		.cfi_def_cfa_register 7
 167 003a 0122     		movs	r2, #1
 168              		.loc 1 137 0
 169 003c 44B1     		cbz	r4, .L14
 170              		.loc 1 138 0
 171 003e 1C68     		ldr	r4, [r3]
ARM GAS  /var/folders/_2/42wyrlld3p52fkcpt1lv6gxh0000gp/T//ccfoa4F4.s 			page 4


 172 0040 8A40     		lsls	r2, r2, r1
 173 0042 1443     		orrs	r4, r4, r2
 174 0044 1C60     		str	r4, [r3]
 175              		.loc 1 139 0
 176 0046 5C68     		ldr	r4, [r3, #4]
 177 0048 24EA0202 		bic	r2, r4, r2
 178 004c 5A60     		str	r2, [r3, #4]
 179 004e 07E0     		b	.L15
 180              	.L14:
 181              		.loc 1 142 0
 182 0050 5C68     		ldr	r4, [r3, #4]
 183 0052 8A40     		lsls	r2, r2, r1
 184 0054 1443     		orrs	r4, r4, r2
 185 0056 5C60     		str	r4, [r3, #4]
 186              		.loc 1 143 0
 187 0058 1C68     		ldr	r4, [r3]
 188 005a 24EA0202 		bic	r2, r4, r2
 189 005e 1A60     		str	r2, [r3]
 190              	.L15:
 191              		.loc 1 171 0
 192 0060 0F29     		cmp	r1, #15
 193 0062 15D8     		bhi	.L9
 194              	.LVL5:
 195 0064 21F00303 		bic	r3, r1, #3
 196              	.LBB2:
 197              		.loc 1 173 0
 198 0068 01F00302 		and	r2, r1, #3
 199 006c 03F18043 		add	r3, r3, #1073741824
 200              		.loc 1 180 0
 201 0070 50F83110 		ldr	r1, [r0, r1, lsl #3]
 202              	.LVL6:
 203 0074 03F58033 		add	r3, r3, #65536
 204              		.loc 1 173 0
 205 0078 9200     		lsls	r2, r2, #2
 206              	.LVL7:
 207              		.loc 1 180 0
 208 007a 9C68     		ldr	r4, [r3, #8]
 209 007c C1F30311 		ubfx	r1, r1, #4, #4
 210 0080 0F20     		movs	r0, #15
 211 0082 9140     		lsls	r1, r1, r2
 212 0084 00FA02F2 		lsl	r2, r0, r2
 213              	.LVL8:
 214 0088 24EA0202 		bic	r2, r4, r2
 215 008c 0A43     		orrs	r2, r2, r1
 216 008e 9A60     		str	r2, [r3, #8]
 217              	.LVL9:
 218              	.L9:
 219 0090 F0BD     		pop	{r4, r5, r6, r7, pc}
 220              	.L20:
 221 0092 00BF     		.align	2
 222              	.L19:
 223 0094 00040140 		.word	1073808384
 224              	.LBE2:
 225              		.cfi_endproc
 226              	.LFE66:
 227              		.size	ext_lld_channel_enable, .-ext_lld_channel_enable
 228              		.section	.text.ext_lld_channel_disable,"ax",%progbits
ARM GAS  /var/folders/_2/42wyrlld3p52fkcpt1lv6gxh0000gp/T//ccfoa4F4.s 			page 5


 229              		.align	1
 230              		.global	ext_lld_channel_disable
 231              		.thumb
 232              		.thumb_func
 233              		.type	ext_lld_channel_disable, %function
 234              	ext_lld_channel_disable:
 235              	.LFB67:
 236              		.loc 1 195 0
 237              		.cfi_startproc
 238              		@ args = 0, pretend = 0, frame = 0
 239              		@ frame_needed = 1, uses_anonymous_args = 0
 240              	.LVL10:
 241              		.loc 1 202 0
 242 0000 0122     		movs	r2, #1
 243 0002 02FA01F1 		lsl	r1, r2, r1
 244              	.LVL11:
 245 0006 CA43     		mvns	r2, r1
 246 0008 084B     		ldr	r3, .L22
 247              		.loc 1 195 0
 248 000a 80B5     		push	{r7, lr}
 249              	.LCFI8:
 250              		.cfi_def_cfa_offset 8
 251              		.cfi_offset 7, -8
 252              		.cfi_offset 14, -4
 253              		.loc 1 202 0
 254 000c 1868     		ldr	r0, [r3]
 255              	.LVL12:
 256              		.loc 1 195 0
 257 000e 00AF     		add	r7, sp, #0
 258              	.LCFI9:
 259              		.cfi_def_cfa_register 7
 260              		.loc 1 202 0
 261 0010 1040     		ands	r0, r0, r2
 262 0012 1860     		str	r0, [r3]
 263              		.loc 1 203 0
 264 0014 5868     		ldr	r0, [r3, #4]
 265 0016 1040     		ands	r0, r0, r2
 266 0018 5860     		str	r0, [r3, #4]
 267              		.loc 1 204 0
 268 001a 9868     		ldr	r0, [r3, #8]
 269 001c 1040     		ands	r0, r0, r2
 270 001e 9860     		str	r0, [r3, #8]
 271              		.loc 1 205 0
 272 0020 D868     		ldr	r0, [r3, #12]
 273 0022 0240     		ands	r2, r2, r0
 274 0024 DA60     		str	r2, [r3, #12]
 275              		.loc 1 206 0
 276 0026 5961     		str	r1, [r3, #20]
 277 0028 80BD     		pop	{r7, pc}
 278              	.L23:
 279 002a 00BF     		.align	2
 280              	.L22:
 281 002c 00040140 		.word	1073808384
 282              		.cfi_endproc
 283              	.LFE67:
 284              		.size	ext_lld_channel_disable, .-ext_lld_channel_disable
 285              		.section	.text.ext_lld_start,"ax",%progbits
ARM GAS  /var/folders/_2/42wyrlld3p52fkcpt1lv6gxh0000gp/T//ccfoa4F4.s 			page 6


 286              		.align	1
 287              		.global	ext_lld_start
 288              		.thumb
 289              		.thumb_func
 290              		.type	ext_lld_start, %function
 291              	ext_lld_start:
 292              	.LFB64:
 293              		.loc 1 79 0
 294              		.cfi_startproc
 295              		@ args = 0, pretend = 0, frame = 0
 296              		@ frame_needed = 1, uses_anonymous_args = 0
 297              	.LVL13:
 298 0000 B0B5     		push	{r4, r5, r7, lr}
 299              	.LCFI10:
 300              		.cfi_def_cfa_offset 16
 301              		.cfi_offset 4, -16
 302              		.cfi_offset 5, -12
 303              		.cfi_offset 7, -8
 304              		.cfi_offset 14, -4
 305              		.loc 1 82 0
 306 0002 0378     		ldrb	r3, [r0]	@ zero_extendqisi2
 307              		.loc 1 79 0
 308 0004 00AF     		add	r7, sp, #0
 309              	.LCFI11:
 310              		.cfi_def_cfa_register 7
 311              		.loc 1 82 0
 312 0006 012B     		cmp	r3, #1
 313              		.loc 1 79 0
 314 0008 0546     		mov	r5, r0
 315              		.loc 1 82 0
 316 000a 01D1     		bne	.L25
 317              		.loc 1 83 0
 318 000c FFF7FEFF 		bl	ext_lld_exti_irq_enable
 319              	.LVL14:
 320              	.L25:
 321              		.loc 1 79 0 discriminator 1
 322 0010 0024     		movs	r4, #0
 323              	.LVL15:
 324              	.L28:
 325              		.loc 1 87 0
 326 0012 6B68     		ldr	r3, [r5, #4]
 327              		.loc 1 88 0
 328 0014 2146     		mov	r1, r4
 329              		.loc 1 87 0
 330 0016 53F83430 		ldr	r3, [r3, r4, lsl #3]
 331              		.loc 1 88 0
 332 001a 2846     		mov	r0, r5
 333              		.loc 1 87 0
 334 001c 5B07     		lsls	r3, r3, #29
 335 001e 02D5     		bpl	.L26
 336              	.LVL16:
 337              		.loc 1 88 0
 338 0020 FFF7FEFF 		bl	ext_lld_channel_enable
 339              	.LVL17:
 340 0024 01E0     		b	.L27
 341              	.LVL18:
 342              	.L26:
ARM GAS  /var/folders/_2/42wyrlld3p52fkcpt1lv6gxh0000gp/T//ccfoa4F4.s 			page 7


 343              		.loc 1 90 0
 344 0026 FFF7FEFF 		bl	ext_lld_channel_disable
 345              	.LVL19:
 346              	.L27:
 347              		.loc 1 86 0 discriminator 2
 348 002a 0134     		adds	r4, r4, #1
 349              	.LVL20:
 350 002c 172C     		cmp	r4, #23
 351 002e F0D1     		bne	.L28
 352              		.loc 1 91 0
 353 0030 B0BD     		pop	{r4, r5, r7, pc}
 354              		.cfi_endproc
 355              	.LFE64:
 356              		.size	ext_lld_start, .-ext_lld_start
 357              		.global	EXTD1
 358              		.section	.bss.EXTD1,"aw",%nobits
 359              		.align	2
 360              		.set	.LANCHOR0,. + 0
 361              		.type	EXTD1, %object
 362              		.size	EXTD1, 8
 363              	EXTD1:
 364 0000 00000000 		.space	8
 364      00000000 
 365              		.text
 366              	.Letext0:
 367              		.file 2 "/Users/ARS/Applications/Eclipse.app/Contents/gcc-arm-none-eabi-5_3-2016q1/arm-none-eabi/i
 368              		.file 3 "/Users/ARS/Applications/Eclipse.app/Contents/gcc-arm-none-eabi-5_3-2016q1/arm-none-eabi/i
 369              		.file 4 "chibios/os/hal/platforms/STM32L1xx/stm32l1xx.h"
 370              		.file 5 "chibios/os/hal/include/ext.h"
 371              		.file 6 "chibios/os/hal/platforms/STM32/ext_lld.h"
 372              		.file 7 "chibios/os/ports/common/ARMCMx/CMSIS/include/core_cm3.h"
 373              		.file 8 "chibios/os/hal/platforms/STM32L1xx/ext_lld_isr.h"