ARM GAS  /var/folders/_2/42wyrlld3p52fkcpt1lv6gxh0000gp/T//ccpbLF3Z.s 			page 1


   1              		.syntax unified
   2              		.cpu cortex-m3
   3              		.fpu softvfp
   4              		.eabi_attribute 20, 1
   5              		.eabi_attribute 21, 1
   6              		.eabi_attribute 23, 3
   7              		.eabi_attribute 24, 1
   8              		.eabi_attribute 25, 1
   9              		.eabi_attribute 26, 1
  10              		.eabi_attribute 30, 4
  11              		.eabi_attribute 34, 1
  12              		.eabi_attribute 18, 4
  13              		.thumb
  14              		.syntax unified
  15              		.file	"gdisp.c"
  16              		.text
  17              	.Ltext0:
  18              		.cfi_sections	.debug_frame
  19              		.section	.text.fillcharglyph,"ax",%progbits
  20              		.align	1
  21              		.thumb
  22              		.thumb_func
  23              		.type	fillcharglyph, %function
  24              	fillcharglyph:
  25              	.LFB106:
  26              		.file 1 "ugfx/src/gdisp/gdisp.c"
  27              		.loc 1 3181 0
  28              		.cfi_startproc
  29              		@ args = 0, pretend = 0, frame = 0
  30              		@ frame_needed = 1, uses_anonymous_args = 0
  31              	.LVL0:
  32 0000 90B5     		push	{r4, r7, lr}
  33              	.LCFI0:
  34              		.cfi_def_cfa_offset 12
  35              		.cfi_offset 4, -12
  36              		.cfi_offset 7, -8
  37              		.cfi_offset 14, -4
  38 0002 83B0     		sub	sp, sp, #12
  39              	.LCFI1:
  40              		.cfi_def_cfa_offset 24
  41 0004 1C46     		mov	r4, r3
  42              		.loc 1 3183 0
  43 0006 0193     		str	r3, [sp, #4]
  44 0008 054B     		ldr	r3, .L2
  45              	.LVL1:
  46              		.loc 1 3181 0
  47 000a 02AF     		add	r7, sp, #8
  48              	.LCFI2:
  49              		.cfi_def_cfa 7, 16
  50              		.loc 1 3183 0
  51 000c 0093     		str	r3, [sp]
  52 000e 1346     		mov	r3, r2
  53 0010 0A46     		mov	r2, r1
  54              	.LVL2:
  55 0012 0146     		mov	r1, r0
  56              	.LVL3:
  57 0014 A06B     		ldr	r0, [r4, #56]
ARM GAS  /var/folders/_2/42wyrlld3p52fkcpt1lv6gxh0000gp/T//ccpbLF3Z.s 			page 2


  58              	.LVL4:
  59 0016 FFF7FEFF 		bl	mf_render_character
  60              	.LVL5:
  61              		.loc 1 3185 0
  62 001a 0437     		adds	r7, r7, #4
  63              	.LCFI3:
  64              		.cfi_def_cfa_offset 12
  65 001c BD46     		mov	sp, r7
  66              	.LCFI4:
  67              		.cfi_def_cfa_register 13
  68              		@ sp needed
  69 001e 90BD     		pop	{r4, r7, pc}
  70              	.LVL6:
  71              	.L3:
  72              		.align	2
  73              	.L2:
  74 0020 00000000 		.word	drawcharline
  75              		.cfi_endproc
  76              	.LFE106:
  77              		.size	fillcharglyph, .-fillcharglyph
  78              		.section	.text.drawcharglyph,"ax",%progbits
  79              		.align	1
  80              		.thumb
  81              		.thumb_func
  82              		.type	drawcharglyph, %function
  83              	drawcharglyph:
  84              	.LFB125:
  85              		.cfi_startproc
  86              		@ args = 0, pretend = 0, frame = 0
  87              		@ frame_needed = 1, uses_anonymous_args = 0
  88              		@ link register save eliminated.
  89 0000 80B4     		push	{r7}
  90              	.LCFI5:
  91              		.cfi_def_cfa_offset 4
  92              		.cfi_offset 7, -4
  93 0002 00AF     		add	r7, sp, #0
  94              	.LCFI6:
  95              		.cfi_def_cfa_register 7
  96 0004 BD46     		mov	sp, r7
  97              	.LCFI7:
  98              		.cfi_def_cfa_register 13
  99              		@ sp needed
 100 0006 80BC     		pop	{r7}
 101              	.LCFI8:
 102              		.cfi_restore 7
 103              		.cfi_def_cfa_offset 0
 104 0008 FFF7FEBF 		b	fillcharglyph
 105              		.cfi_endproc
 106              	.LFE125:
 107              		.size	drawcharglyph, .-drawcharglyph
 108              		.section	.text.fillarea,"ax",%progbits
 109              		.align	1
 110              		.thumb
 111              		.thumb_func
 112              		.type	fillarea, %function
 113              	fillarea:
 114              	.LFB65:
ARM GAS  /var/folders/_2/42wyrlld3p52fkcpt1lv6gxh0000gp/T//ccpbLF3Z.s 			page 3


 115              		.loc 1 185 0
 116              		.cfi_startproc
 117              		@ args = 0, pretend = 0, frame = 0
 118              		@ frame_needed = 1, uses_anonymous_args = 0
 119              	.LVL7:
 120              		.loc 1 185 0
 121 0000 2DE9F047 		push	{r4, r5, r6, r7, r8, r9, r10, lr}
 122              	.LCFI9:
 123              		.cfi_def_cfa_offset 32
 124              		.cfi_offset 4, -32
 125              		.cfi_offset 5, -28
 126              		.cfi_offset 6, -24
 127              		.cfi_offset 7, -20
 128              		.cfi_offset 8, -16
 129              		.cfi_offset 9, -12
 130              		.cfi_offset 10, -8
 131              		.cfi_offset 14, -4
 132              		.loc 1 190 0
 133 0004 4368     		ldr	r3, [r0, #4]
 134              		.loc 1 185 0
 135 0006 00AF     		add	r7, sp, #0
 136              	.LCFI10:
 137              		.cfi_def_cfa_register 7
 138              		.loc 1 190 0
 139 0008 1A6C     		ldr	r2, [r3, #64]
 140              		.loc 1 185 0
 141 000a 0446     		mov	r4, r0
 142              		.loc 1 190 0
 143 000c 1AB1     		cbz	r2, .L6
 144              		.loc 1 250 0
 145 000e BD46     		mov	sp, r7
 146              	.LCFI11:
 147              		.cfi_remember_state
 148              		.cfi_def_cfa_register 13
 149              		@ sp needed
 150 0010 BDE8F047 		pop	{r4, r5, r6, r7, r8, r9, r10, lr}
 151              	.LCFI12:
 152              		.cfi_restore 14
 153              		.cfi_restore 10
 154              		.cfi_restore 9
 155              		.cfi_restore 8
 156              		.cfi_restore 7
 157              		.cfi_restore 6
 158              		.cfi_restore 5
 159              		.cfi_restore 4
 160              		.cfi_def_cfa_offset 0
 161              		.loc 1 193 0
 162 0014 1047     		bx	r2	@ indirect register sibling call
 163              	.LVL8:
 164              	.L6:
 165              	.LCFI13:
 166              		.cfi_restore_state
 167              		.loc 1 201 0
 168 0016 DA69     		ldr	r2, [r3, #28]
 169 0018 1AB3     		cbz	r2, .L7
 170              	.LBB17:
 171              		.loc 1 207 0
ARM GAS  /var/folders/_2/42wyrlld3p52fkcpt1lv6gxh0000gp/T//ccpbLF3Z.s 			page 4


 172 001a C28B     		ldrh	r2, [r0, #30]
 173 001c 9207     		lsls	r2, r2, #30
 174 001e 05D5     		bpl	.L8
 175              		.loc 1 208 0
 176 0020 9B6A     		ldr	r3, [r3, #40]
 177 0022 9847     		blx	r3
 178              	.LVL9:
 179              		.loc 1 209 0
 180 0024 E38B     		ldrh	r3, [r4, #30]
 181 0026 23F00203 		bic	r3, r3, #2
 182 002a E383     		strh	r3, [r4, #30]	@ movhi
 183              	.L8:
 184              		.loc 1 213 0
 185 002c B4F92430 		ldrsh	r3, [r4, #36]
 186 0030 B4F92650 		ldrsh	r5, [r4, #38]
 187              		.loc 1 214 0
 188 0034 2046     		mov	r0, r4
 189              		.loc 1 213 0
 190 0036 5D43     		muls	r5, r3, r5
 191              	.LVL10:
 192              		.loc 1 214 0
 193 0038 6368     		ldr	r3, [r4, #4]
 194 003a DB69     		ldr	r3, [r3, #28]
 195 003c 9847     		blx	r3
 196              	.LVL11:
 197              		.loc 1 217 0
 198 003e 6368     		ldr	r3, [r4, #4]
 199 0040 1B6A     		ldr	r3, [r3, #32]
 200 0042 0BB1     		cbz	r3, .L10
 201              		.loc 1 219 0
 202 0044 2046     		mov	r0, r4
 203 0046 9847     		blx	r3
 204              	.LVL12:
 205              	.L10:
 206 0048 6368     		ldr	r3, [r4, #4]
 207              		.loc 1 221 0 discriminator 1
 208 004a 25B1     		cbz	r5, .L23
 209              		.loc 1 222 0 discriminator 2
 210 004c 5B6A     		ldr	r3, [r3, #36]
 211 004e 2046     		mov	r0, r4
 212 0050 9847     		blx	r3
 213              	.LVL13:
 214              		.loc 1 221 0 discriminator 2
 215 0052 013D     		subs	r5, r5, #1
 216              	.LVL14:
 217 0054 F8E7     		b	.L10
 218              	.L23:
 219              		.loc 1 223 0
 220 0056 2046     		mov	r0, r4
 221 0058 9B6A     		ldr	r3, [r3, #40]
 222              	.LBE17:
 223              		.loc 1 250 0
 224 005a BD46     		mov	sp, r7
 225              	.LCFI14:
 226              		.cfi_remember_state
 227              		.cfi_def_cfa_register 13
 228              		@ sp needed
ARM GAS  /var/folders/_2/42wyrlld3p52fkcpt1lv6gxh0000gp/T//ccpbLF3Z.s 			page 5


 229 005c BDE8F047 		pop	{r4, r5, r6, r7, r8, r9, r10, lr}
 230              	.LCFI15:
 231              		.cfi_restore 14
 232              		.cfi_restore 10
 233              		.cfi_restore 9
 234              		.cfi_restore 8
 235              		.cfi_restore 7
 236              		.cfi_restore 6
 237              		.cfi_restore 5
 238              		.cfi_restore 4
 239              		.cfi_def_cfa_offset 0
 240              	.LVL15:
 241              	.LBB18:
 242              		.loc 1 223 0
 243 0060 1847     		bx	r3	@ indirect register sibling call
 244              	.LVL16:
 245              	.L7:
 246              	.LCFI16:
 247              		.cfi_restore_state
 248              	.LBE18:
 249              	.LBB19:
 250              	.LBB20:
 251              		.loc 1 237 0
 252 0062 B0F92090 		ldrsh	r9, [r0, #32]
 253              	.LVL17:
 254              		.loc 1 238 0
 255 0066 B0F92280 		ldrsh	r8, [r0, #34]
 256              	.LVL18:
 257              		.loc 1 239 0
 258 006a 868C     		ldrh	r6, [r0, #36]
 259              		.loc 1 240 0
 260 006c C58C     		ldrh	r5, [r0, #38]
 261              		.loc 1 239 0
 262 006e 4E44     		add	r6, r6, r9
 263              		.loc 1 240 0
 264 0070 4544     		add	r5, r5, r8
 265              		.loc 1 239 0
 266 0072 36B2     		sxth	r6, r6
 267              	.LVL19:
 268              		.loc 1 240 0
 269 0074 2DB2     		sxth	r5, r5
 270              	.LVL20:
 271              	.L12:
 272              		.loc 1 241 0
 273 0076 B4F92230 		ldrsh	r3, [r4, #34]
 274 007a AB42     		cmp	r3, r5
 275 007c 11DA     		bge	.L24
 276              	.L19:
 277              		.loc 1 242 0
 278 007e B4F92030 		ldrsh	r3, [r4, #32]
 279 0082 B342     		cmp	r3, r6
 280 0084 07DA     		bge	.L25
 281              		.loc 1 243 0
 282 0086 6368     		ldr	r3, [r4, #4]
 283 0088 2046     		mov	r0, r4
 284 008a 9B6B     		ldr	r3, [r3, #56]
 285 008c 9847     		blx	r3
ARM GAS  /var/folders/_2/42wyrlld3p52fkcpt1lv6gxh0000gp/T//ccpbLF3Z.s 			page 6


 286              	.LVL21:
 287              		.loc 1 242 0
 288 008e 238C     		ldrh	r3, [r4, #32]
 289 0090 0133     		adds	r3, r3, #1
 290 0092 2384     		strh	r3, [r4, #32]	@ movhi
 291 0094 F3E7     		b	.L19
 292              	.L25:
 293              		.loc 1 241 0
 294 0096 638C     		ldrh	r3, [r4, #34]
 295 0098 A4F82090 		strh	r9, [r4, #32]	@ movhi
 296 009c 0133     		adds	r3, r3, #1
 297 009e 6384     		strh	r3, [r4, #34]	@ movhi
 298 00a0 E9E7     		b	.L12
 299              	.L24:
 300              		.loc 1 245 0
 301 00a2 A4F82280 		strh	r8, [r4, #34]	@ movhi
 302 00a6 BDE8F087 		pop	{r4, r5, r6, r7, r8, r9, r10, pc}
 303              	.LBE20:
 304              	.LBE19:
 305              		.cfi_endproc
 306              	.LFE65:
 307              		.size	fillarea, .-fillarea
 308              		.section	.text.drawpixel,"ax",%progbits
 309              		.align	1
 310              		.thumb
 311              		.thumb_func
 312              		.type	drawpixel, %function
 313              	drawpixel:
 314              	.LFB64:
 315              		.loc 1 119 0
 316              		.cfi_startproc
 317              		@ args = 0, pretend = 0, frame = 0
 318              		@ frame_needed = 1, uses_anonymous_args = 0
 319              	.LVL22:
 320 0000 2DE9F041 		push	{r4, r5, r6, r7, r8, lr}
 321              	.LCFI17:
 322              		.cfi_def_cfa_offset 24
 323              		.cfi_offset 4, -24
 324              		.cfi_offset 5, -20
 325              		.cfi_offset 6, -16
 326              		.cfi_offset 7, -12
 327              		.cfi_offset 8, -8
 328              		.cfi_offset 14, -4
 329              		.loc 1 124 0
 330 0004 4268     		ldr	r2, [r0, #4]
 331              		.loc 1 119 0
 332 0006 00AF     		add	r7, sp, #0
 333              	.LCFI18:
 334              		.cfi_def_cfa_register 7
 335              		.loc 1 124 0
 336 0008 936B     		ldr	r3, [r2, #56]
 337              		.loc 1 119 0
 338 000a 0446     		mov	r4, r0
 339              		.loc 1 124 0
 340 000c 002B     		cmp	r3, #0
 341 000e 2BD1     		bne	.L30
 342              		.loc 1 135 0
ARM GAS  /var/folders/_2/42wyrlld3p52fkcpt1lv6gxh0000gp/T//ccpbLF3Z.s 			page 7


 343 0010 136A     		ldr	r3, [r2, #32]
 344 0012 EBB1     		cbz	r3, .L28
 345              	.LVL23:
 346              	.LBB25:
 347              	.LBB26:
 348              		.loc 1 138 0
 349 0014 C38B     		ldrh	r3, [r0, #30]
 350 0016 03F00203 		and	r3, r3, #2
 351 001a 9BB2     		uxth	r3, r3
 352 001c 8BB9     		cbnz	r3, .L29
 353              	.LVL24:
 354              	.LBB27:
 355              	.LBB28:
 356              		.loc 1 85 0
 357 001e B0F92060 		ldrsh	r6, [r0, #32]
 358              	.LVL25:
 359 0022 B0F92250 		ldrsh	r5, [r0, #34]
 360              	.LVL26:
 361              		.loc 1 86 0
 362 0026 0384     		strh	r3, [r0, #32]	@ movhi
 363 0028 4384     		strh	r3, [r0, #34]	@ movhi
 364              		.loc 1 87 0
 365 002a 0389     		ldrh	r3, [r0, #8]
 366 002c 8384     		strh	r3, [r0, #36]	@ movhi
 367 002e 4389     		ldrh	r3, [r0, #10]
 368 0030 C384     		strh	r3, [r0, #38]	@ movhi
 369              		.loc 1 88 0
 370 0032 D369     		ldr	r3, [r2, #28]
 371 0034 9847     		blx	r3
 372              	.LVL27:
 373              		.loc 1 90 0
 374 0036 E38B     		ldrh	r3, [r4, #30]
 375              		.loc 1 89 0
 376 0038 2684     		strh	r6, [r4, #32]	@ movhi
 377              		.loc 1 90 0
 378 003a 43F00203 		orr	r3, r3, #2
 379              		.loc 1 89 0
 380 003e 6584     		strh	r5, [r4, #34]	@ movhi
 381              		.loc 1 90 0
 382 0040 E383     		strh	r3, [r4, #30]	@ movhi
 383              	.LVL28:
 384              	.L29:
 385              	.LBE28:
 386              	.LBE27:
 387              		.loc 1 140 0
 388 0042 6368     		ldr	r3, [r4, #4]
 389 0044 2046     		mov	r0, r4
 390 0046 1B6A     		ldr	r3, [r3, #32]
 391 0048 9847     		blx	r3
 392              	.LVL29:
 393              		.loc 1 141 0
 394 004a 6368     		ldr	r3, [r4, #4]
 395 004c 5B6A     		ldr	r3, [r3, #36]
 396 004e 0AE0     		b	.L31
 397              	.LVL30:
 398              	.L28:
 399              	.LBE26:
ARM GAS  /var/folders/_2/42wyrlld3p52fkcpt1lv6gxh0000gp/T//ccpbLF3Z.s 			page 8


 400              	.LBE25:
 401              		.loc 1 153 0
 402 0050 0123     		movs	r3, #1
 403 0052 C384     		strh	r3, [r0, #38]	@ movhi
 404 0054 8384     		strh	r3, [r0, #36]	@ movhi
 405              		.loc 1 154 0
 406 0056 D369     		ldr	r3, [r2, #28]
 407 0058 9847     		blx	r3
 408              	.LVL31:
 409              		.loc 1 155 0
 410 005a 6368     		ldr	r3, [r4, #4]
 411 005c 2046     		mov	r0, r4
 412 005e 5B6A     		ldr	r3, [r3, #36]
 413 0060 9847     		blx	r3
 414              	.LVL32:
 415              		.loc 1 156 0
 416 0062 6368     		ldr	r3, [r4, #4]
 417 0064 9B6A     		ldr	r3, [r3, #40]
 418              	.L31:
 419 0066 2046     		mov	r0, r4
 420              	.LVL33:
 421              	.L30:
 422              		.loc 1 160 0
 423 0068 BD46     		mov	sp, r7
 424              	.LCFI19:
 425              		.cfi_def_cfa_register 13
 426              		@ sp needed
 427 006a BDE8F041 		pop	{r4, r5, r6, r7, r8, lr}
 428              	.LCFI20:
 429              		.cfi_restore 14
 430              		.cfi_restore 8
 431              		.cfi_restore 7
 432              		.cfi_restore 6
 433              		.cfi_restore 5
 434              		.cfi_restore 4
 435              		.cfi_def_cfa_offset 0
 436              		.loc 1 156 0
 437 006e 1847     		bx	r3	@ indirect register sibling call
 438              	.LVL34:
 439              		.cfi_endproc
 440              	.LFE64:
 441              		.size	drawpixel, .-drawpixel
 442              		.section	.text.hline_clip,"ax",%progbits
 443              		.align	1
 444              		.thumb
 445              		.thumb_func
 446              		.type	hline_clip, %function
 447              	hline_clip:
 448              	.LFB66:
 449              		.loc 1 256 0
 450              		.cfi_startproc
 451              		@ args = 0, pretend = 0, frame = 0
 452              		@ frame_needed = 1, uses_anonymous_args = 0
 453              	.LVL35:
 454              		.loc 1 258 0
 455 0000 B0F92030 		ldrsh	r3, [r0, #32]
 456 0004 B0F92820 		ldrsh	r2, [r0, #40]
ARM GAS  /var/folders/_2/42wyrlld3p52fkcpt1lv6gxh0000gp/T//ccpbLF3Z.s 			page 9


 457              		.loc 1 256 0
 458 0008 2DE9F041 		push	{r4, r5, r6, r7, r8, lr}
 459              	.LCFI21:
 460              		.cfi_def_cfa_offset 24
 461              		.cfi_offset 4, -24
 462              		.cfi_offset 5, -20
 463              		.cfi_offset 6, -16
 464              		.cfi_offset 7, -12
 465              		.cfi_offset 8, -8
 466              		.cfi_offset 14, -4
 467              		.loc 1 258 0
 468 000c 9A42     		cmp	r2, r3
 469              		.loc 1 259 0
 470 000e BEBF     		ittt	lt
 471 0010 0284     		strhlt	r2, [r0, #32]	@ movhi
 472 0012 0385     		strhlt	r3, [r0, #40]	@ movhi
 473 0014 8384     		strhlt	r3, [r0, #36]	@ movhi
 474              		.loc 1 279 0
 475 0016 B0F92050 		ldrsh	r5, [r0, #32]
 476 001a B0F92830 		ldrsh	r3, [r0, #40]
 477              		.loc 1 256 0
 478 001e 00AF     		add	r7, sp, #0
 479              	.LCFI22:
 480              		.cfi_def_cfa_register 7
 481              		.loc 1 279 0
 482 0020 9D42     		cmp	r5, r3
 483              		.loc 1 256 0
 484 0022 0446     		mov	r4, r0
 485              		.loc 1 279 0
 486 0024 04D1     		bne	.L34
 487              		.loc 1 340 0
 488 0026 BD46     		mov	sp, r7
 489              	.LCFI23:
 490              		.cfi_remember_state
 491              		.cfi_def_cfa_register 13
 492              		@ sp needed
 493 0028 BDE8F041 		pop	{r4, r5, r6, r7, r8, lr}
 494              	.LCFI24:
 495              		.cfi_restore 14
 496              		.cfi_restore 8
 497              		.cfi_restore 7
 498              		.cfi_restore 6
 499              		.cfi_restore 5
 500              		.cfi_restore 4
 501              		.cfi_def_cfa_offset 0
 502              		.loc 1 280 0
 503 002c FFF7FEBF 		b	drawpixel
 504              	.LVL36:
 505              	.L34:
 506              	.LCFI25:
 507              		.cfi_restore_state
 508              		.loc 1 288 0
 509 0030 4168     		ldr	r1, [r0, #4]
 510 0032 0E6C     		ldr	r6, [r1, #64]
 511 0034 36B1     		cbz	r6, .L35
 512              		.loc 1 291 0
 513 0036 5A1C     		adds	r2, r3, #1
ARM GAS  /var/folders/_2/42wyrlld3p52fkcpt1lv6gxh0000gp/T//ccpbLF3Z.s 			page 10


 514 0038 531B     		subs	r3, r2, r5
 515 003a 8384     		strh	r3, [r0, #36]	@ movhi
 516              		.loc 1 292 0
 517 003c 0123     		movs	r3, #1
 518 003e C384     		strh	r3, [r0, #38]	@ movhi
 519              		.loc 1 293 0
 520 0040 3346     		mov	r3, r6
 521 0042 40E0     		b	.L48
 522              	.L35:
 523              		.loc 1 301 0
 524 0044 0A6A     		ldr	r2, [r1, #32]
 525 0046 002A     		cmp	r2, #0
 526 0048 28D0     		beq	.L36
 527              		.loc 1 304 0
 528 004a C28B     		ldrh	r2, [r0, #30]
 529 004c 02F00202 		and	r2, r2, #2
 530 0050 92B2     		uxth	r2, r2
 531 0052 7AB9     		cbnz	r2, .L37
 532              	.LVL37:
 533              	.LBB31:
 534              	.LBB32:
 535              		.loc 1 87 0
 536 0054 0389     		ldrh	r3, [r0, #8]
 537              		.loc 1 85 0
 538 0056 B0F92260 		ldrsh	r6, [r0, #34]
 539              	.LVL38:
 540              		.loc 1 87 0
 541 005a 8384     		strh	r3, [r0, #36]	@ movhi
 542 005c 4389     		ldrh	r3, [r0, #10]
 543              		.loc 1 86 0
 544 005e 4284     		strh	r2, [r0, #34]	@ movhi
 545              		.loc 1 87 0
 546 0060 C384     		strh	r3, [r0, #38]	@ movhi
 547              		.loc 1 86 0
 548 0062 0284     		strh	r2, [r0, #32]	@ movhi
 549              		.loc 1 88 0
 550 0064 CB69     		ldr	r3, [r1, #28]
 551 0066 9847     		blx	r3
 552              	.LVL39:
 553              		.loc 1 90 0
 554 0068 E38B     		ldrh	r3, [r4, #30]
 555              		.loc 1 89 0
 556 006a 2584     		strh	r5, [r4, #32]	@ movhi
 557              		.loc 1 90 0
 558 006c 43F00203 		orr	r3, r3, #2
 559              		.loc 1 89 0
 560 0070 6684     		strh	r6, [r4, #34]	@ movhi
 561              		.loc 1 90 0
 562 0072 E383     		strh	r3, [r4, #30]	@ movhi
 563              	.LVL40:
 564              	.L37:
 565              	.LBE32:
 566              	.LBE31:
 567              		.loc 1 306 0
 568 0074 238D     		ldrh	r3, [r4, #40]
 569              		.loc 1 307 0
 570 0076 2046     		mov	r0, r4
ARM GAS  /var/folders/_2/42wyrlld3p52fkcpt1lv6gxh0000gp/T//ccpbLF3Z.s 			page 11


 571              		.loc 1 306 0
 572 0078 0133     		adds	r3, r3, #1
 573 007a 5B1B     		subs	r3, r3, r5
 574 007c A384     		strh	r3, [r4, #36]	@ movhi
 575              		.loc 1 307 0
 576 007e 6368     		ldr	r3, [r4, #4]
 577 0080 1B6A     		ldr	r3, [r3, #32]
 578 0082 9847     		blx	r3
 579              	.LVL41:
 580              	.L38:
 581              		.loc 1 308 0 discriminator 1
 582 0084 6368     		ldr	r3, [r4, #4]
 583 0086 2046     		mov	r0, r4
 584 0088 5B6A     		ldr	r3, [r3, #36]
 585 008a 9847     		blx	r3
 586              	.LVL42:
 587 008c A38C     		ldrh	r3, [r4, #36]
 588 008e 013B     		subs	r3, r3, #1
 589 0090 1BB2     		sxth	r3, r3
 590 0092 A384     		strh	r3, [r4, #36]	@ movhi
 591 0094 002B     		cmp	r3, #0
 592 0096 F5D1     		bne	.L38
 593 0098 BDE8F081 		pop	{r4, r5, r6, r7, r8, pc}
 594              	.LVL43:
 595              	.L36:
 596              		.loc 1 316 0
 597 009c CA69     		ldr	r2, [r1, #28]
 598 009e B2B1     		cbz	r2, .L40
 599              		.loc 1 319 0
 600 00a0 0133     		adds	r3, r3, #1
 601 00a2 5B1B     		subs	r3, r3, r5
 602 00a4 8384     		strh	r3, [r0, #36]	@ movhi
 603              		.loc 1 320 0
 604 00a6 0123     		movs	r3, #1
 605 00a8 C384     		strh	r3, [r0, #38]	@ movhi
 606              		.loc 1 321 0
 607 00aa 9047     		blx	r2
 608              	.LVL44:
 609              	.L41:
 610              		.loc 1 322 0 discriminator 1
 611 00ac 6368     		ldr	r3, [r4, #4]
 612 00ae 2046     		mov	r0, r4
 613 00b0 5B6A     		ldr	r3, [r3, #36]
 614 00b2 9847     		blx	r3
 615              	.LVL45:
 616 00b4 A38C     		ldrh	r3, [r4, #36]
 617 00b6 013B     		subs	r3, r3, #1
 618 00b8 1BB2     		sxth	r3, r3
 619 00ba A384     		strh	r3, [r4, #36]	@ movhi
 620 00bc 002B     		cmp	r3, #0
 621 00be F5D1     		bne	.L41
 622              		.loc 1 323 0
 623 00c0 2046     		mov	r0, r4
 624 00c2 6368     		ldr	r3, [r4, #4]
 625 00c4 9B6A     		ldr	r3, [r3, #40]
 626              	.LVL46:
 627              	.L48:
ARM GAS  /var/folders/_2/42wyrlld3p52fkcpt1lv6gxh0000gp/T//ccpbLF3Z.s 			page 12


 628              		.loc 1 340 0
 629 00c6 BD46     		mov	sp, r7
 630              	.LCFI26:
 631              		.cfi_remember_state
 632              		.cfi_def_cfa_register 13
 633              		@ sp needed
 634 00c8 BDE8F041 		pop	{r4, r5, r6, r7, r8, lr}
 635              	.LCFI27:
 636              		.cfi_restore 14
 637              		.cfi_restore 8
 638              		.cfi_restore 7
 639              		.cfi_restore 6
 640              		.cfi_restore 5
 641              		.cfi_restore 4
 642              		.cfi_def_cfa_offset 0
 643              		.loc 1 323 0
 644 00cc 1847     		bx	r3	@ indirect register sibling call
 645              	.LVL47:
 646              	.L40:
 647              	.LCFI28:
 648              		.cfi_restore_state
 649              		.loc 1 335 0 discriminator 1
 650 00ce B4F92020 		ldrsh	r2, [r4, #32]
 651 00d2 B4F92830 		ldrsh	r3, [r4, #40]
 652 00d6 9A42     		cmp	r2, r3
 653 00d8 07DC     		bgt	.L49
 654              		.loc 1 336 0 discriminator 2
 655 00da 6368     		ldr	r3, [r4, #4]
 656 00dc 2046     		mov	r0, r4
 657 00de 9B6B     		ldr	r3, [r3, #56]
 658 00e0 9847     		blx	r3
 659              	.LVL48:
 660              		.loc 1 335 0 discriminator 2
 661 00e2 238C     		ldrh	r3, [r4, #32]
 662 00e4 0133     		adds	r3, r3, #1
 663 00e6 2384     		strh	r3, [r4, #32]	@ movhi
 664 00e8 F1E7     		b	.L40
 665              	.L49:
 666 00ea BDE8F081 		pop	{r4, r5, r6, r7, r8, pc}
 667              		.cfi_endproc
 668              	.LFE66:
 669              		.size	hline_clip, .-hline_clip
 670              		.section	.text.drawcharline,"ax",%progbits
 671              		.align	1
 672              		.thumb
 673              		.thumb_func
 674              		.type	drawcharline, %function
 675              	drawcharline:
 676              	.LFB104:
 677              		.loc 1 3131 0
 678              		.cfi_startproc
 679              		@ args = 4, pretend = 0, frame = 0
 680              		@ frame_needed = 1, uses_anonymous_args = 0
 681              		@ link register save eliminated.
 682              	.LVL49:
 683 0000 F0B4     		push	{r4, r5, r6, r7}
 684              	.LCFI29:
ARM GAS  /var/folders/_2/42wyrlld3p52fkcpt1lv6gxh0000gp/T//ccpbLF3Z.s 			page 13


 685              		.cfi_def_cfa_offset 16
 686              		.cfi_offset 4, -16
 687              		.cfi_offset 5, -12
 688              		.cfi_offset 6, -8
 689              		.cfi_offset 7, -4
 690 0002 00AF     		add	r7, sp, #0
 691              	.LCFI30:
 692              		.cfi_def_cfa_register 7
 693              		.loc 1 3131 0
 694 0004 3C69     		ldr	r4, [r7, #16]
 695              		.loc 1 3133 0
 696 0006 B4F94050 		ldrsh	r5, [r4, #64]
 697 000a 8D42     		cmp	r5, r1
 698 000c 28DC     		bgt	.L50
 699              		.loc 1 3133 0 is_stmt 0 discriminator 1
 700 000e B4F94450 		ldrsh	r5, [r4, #68]
 701 0012 8D42     		cmp	r5, r1
 702 0014 24DD     		ble	.L50
 703              	.LVL50:
 704              	.LBB35:
 705              	.LBB36:
 706              		.loc 1 3133 0
 707 0016 B4F93E60 		ldrsh	r6, [r4, #62]
 708 001a 8518     		adds	r5, r0, r2
 709 001c B542     		cmp	r5, r6
 710 001e 1FDD     		ble	.L50
 711 0020 B4F94250 		ldrsh	r5, [r4, #66]
 712 0024 A842     		cmp	r0, r5
 713 0026 1BDA     		bge	.L50
 714              		.loc 1 3135 0 is_stmt 1
 715 0028 B042     		cmp	r0, r6
 716 002a BFBF     		itttt	lt
 717 002c 921B     		sublt	r2, r2, r6
 718              	.LVL51:
 719              		.loc 1 3136 0
 720 002e 1218     		addlt	r2, r2, r0
 721 0030 3046     		movlt	r0, r6
 722              	.LVL52:
 723 0032 02F0FF02 		andlt	r2, r2, #255
 724              	.LVL53:
 725              		.loc 1 3139 0
 726 0036 8618     		adds	r6, r0, r2
 727 0038 AE42     		cmp	r6, r5
 728              		.loc 1 3140 0
 729 003a C4BF     		itt	gt
 730 003c 2A1A     		subgt	r2, r5, r0
 731              	.LVL54:
 732 003e D2B2     		uxtbgt	r2, r2
 733              	.LVL55:
 734              		.loc 1 3141 0
 735 0040 802B     		cmp	r3, #128
 736 0042 0DD9     		bls	.L50
 737              		.loc 1 3142 0
 738 0044 431E     		subs	r3, r0, #1
 739              	.LVL56:
 740 0046 2084     		strh	r0, [r4, #32]	@ movhi
 741              		.loc 1 3143 0
ARM GAS  /var/folders/_2/42wyrlld3p52fkcpt1lv6gxh0000gp/T//ccpbLF3Z.s 			page 14


 742 0048 2046     		mov	r0, r4
 743              	.LVL57:
 744              		.loc 1 3142 0
 745 004a 1A44     		add	r2, r2, r3
 746              	.LVL58:
 747 004c 94F83C30 		ldrb	r3, [r4, #60]	@ zero_extendqisi2
 748 0050 6184     		strh	r1, [r4, #34]	@ movhi
 749 0052 2285     		strh	r2, [r4, #40]	@ movhi
 750 0054 84F83030 		strb	r3, [r4, #48]
 751              	.LBE36:
 752              	.LBE35:
 753              		.loc 1 3146 0
 754 0058 BD46     		mov	sp, r7
 755              	.LCFI31:
 756              		.cfi_remember_state
 757              		.cfi_def_cfa_register 13
 758              		@ sp needed
 759 005a F0BC     		pop	{r4, r5, r6, r7}
 760              	.LCFI32:
 761              		.cfi_restore 7
 762              		.cfi_restore 6
 763              		.cfi_restore 5
 764              		.cfi_restore 4
 765              		.cfi_def_cfa_offset 0
 766              	.LVL59:
 767              	.LBB38:
 768              	.LBB37:
 769              		.loc 1 3143 0
 770 005c FFF7FEBF 		b	hline_clip
 771              	.LVL60:
 772              	.L50:
 773              	.LCFI33:
 774              		.cfi_restore_state
 775              	.LBE37:
 776              	.LBE38:
 777              		.loc 1 3146 0
 778 0060 BD46     		mov	sp, r7
 779              	.LCFI34:
 780              		.cfi_def_cfa_register 13
 781              		@ sp needed
 782 0062 F0BC     		pop	{r4, r5, r6, r7}
 783              	.LCFI35:
 784              		.cfi_restore 7
 785              		.cfi_restore 6
 786              		.cfi_restore 5
 787              		.cfi_restore 4
 788              		.cfi_def_cfa_offset 0
 789 0064 7047     		bx	lr
 790              		.cfi_endproc
 791              	.LFE104:
 792              		.size	drawcharline, .-drawcharline
 793              		.section	.text.vline_clip,"ax",%progbits
 794              		.align	1
 795              		.thumb
 796              		.thumb_func
 797              		.type	vline_clip, %function
 798              	vline_clip:
ARM GAS  /var/folders/_2/42wyrlld3p52fkcpt1lv6gxh0000gp/T//ccpbLF3Z.s 			page 15


 799              	.LFB67:
 800              		.loc 1 344 0
 801              		.cfi_startproc
 802              		@ args = 0, pretend = 0, frame = 0
 803              		@ frame_needed = 1, uses_anonymous_args = 0
 804              	.LVL61:
 805 0000 B0B5     		push	{r4, r5, r7, lr}
 806              	.LCFI36:
 807              		.cfi_def_cfa_offset 16
 808              		.cfi_offset 4, -16
 809              		.cfi_offset 5, -12
 810              		.cfi_offset 7, -8
 811              		.cfi_offset 14, -4
 812 0002 0446     		mov	r4, r0
 813              		.loc 1 346 0
 814 0004 B0F92230 		ldrsh	r3, [r0, #34]
 815 0008 B0F92A20 		ldrsh	r2, [r0, #42]
 816              		.loc 1 344 0
 817 000c 00AF     		add	r7, sp, #0
 818              	.LCFI37:
 819              		.cfi_def_cfa_register 7
 820              		.loc 1 346 0
 821 000e 9A42     		cmp	r2, r3
 822              		.loc 1 347 0
 823 0010 BEBF     		ittt	lt
 824 0012 4385     		strhlt	r3, [r0, #42]	@ movhi
 825 0014 4284     		strhlt	r2, [r0, #34]	@ movhi
 826 0016 C384     		strhlt	r3, [r0, #38]	@ movhi
 827              		.loc 1 367 0
 828 0018 B0F92200 		ldrsh	r0, [r0, #34]
 829              	.LVL62:
 830 001c B4F92A30 		ldrsh	r3, [r4, #42]
 831 0020 9842     		cmp	r0, r3
 832 0022 05D1     		bne	.L56
 833              		.loc 1 368 0
 834 0024 2046     		mov	r0, r4
 835              		.loc 1 425 0
 836 0026 BD46     		mov	sp, r7
 837              	.LCFI38:
 838              		.cfi_remember_state
 839              		.cfi_def_cfa_register 13
 840              		@ sp needed
 841 0028 BDE8B040 		pop	{r4, r5, r7, lr}
 842              	.LCFI39:
 843              		.cfi_restore 14
 844              		.cfi_restore 7
 845              		.cfi_restore 5
 846              		.cfi_restore 4
 847              		.cfi_def_cfa_offset 0
 848              	.LVL63:
 849              		.loc 1 368 0
 850 002c FFF7FEBF 		b	drawpixel
 851              	.LVL64:
 852              	.L56:
 853              	.LCFI40:
 854              		.cfi_restore_state
 855              		.loc 1 376 0
ARM GAS  /var/folders/_2/42wyrlld3p52fkcpt1lv6gxh0000gp/T//ccpbLF3Z.s 			page 16


 856 0030 6268     		ldr	r2, [r4, #4]
 857 0032 116C     		ldr	r1, [r2, #64]
 858 0034 49B1     		cbz	r1, .L57
 859              		.loc 1 379 0
 860 0036 0133     		adds	r3, r3, #1
 861 0038 1B1A     		subs	r3, r3, r0
 862              		.loc 1 381 0
 863 003a 2046     		mov	r0, r4
 864              		.loc 1 379 0
 865 003c E384     		strh	r3, [r4, #38]	@ movhi
 866              		.loc 1 380 0
 867 003e 0123     		movs	r3, #1
 868 0040 A384     		strh	r3, [r4, #36]	@ movhi
 869              		.loc 1 425 0
 870 0042 BD46     		mov	sp, r7
 871              	.LCFI41:
 872              		.cfi_remember_state
 873              		.cfi_def_cfa_register 13
 874              		@ sp needed
 875 0044 BDE8B040 		pop	{r4, r5, r7, lr}
 876              	.LCFI42:
 877              		.cfi_restore 14
 878              		.cfi_restore 7
 879              		.cfi_restore 5
 880              		.cfi_restore 4
 881              		.cfi_def_cfa_offset 0
 882              	.LVL65:
 883              		.loc 1 381 0
 884 0048 0847     		bx	r1	@ indirect register sibling call
 885              	.LVL66:
 886              	.L57:
 887              	.LCFI43:
 888              		.cfi_restore_state
 889              		.loc 1 389 0
 890 004a D369     		ldr	r3, [r2, #28]
 891 004c 002B     		cmp	r3, #0
 892 004e 2AD0     		beq	.L58
 893              		.loc 1 393 0
 894 0050 E38B     		ldrh	r3, [r4, #30]
 895 0052 9B07     		lsls	r3, r3, #30
 896 0054 06D5     		bpl	.L59
 897              		.loc 1 394 0
 898 0056 936A     		ldr	r3, [r2, #40]
 899 0058 2046     		mov	r0, r4
 900 005a 9847     		blx	r3
 901              	.LVL67:
 902              		.loc 1 395 0
 903 005c E38B     		ldrh	r3, [r4, #30]
 904 005e 23F00203 		bic	r3, r3, #2
 905 0062 E383     		strh	r3, [r4, #30]	@ movhi
 906              	.L59:
 907              		.loc 1 398 0
 908 0064 638D     		ldrh	r3, [r4, #42]
 909 0066 628C     		ldrh	r2, [r4, #34]
 910 0068 0133     		adds	r3, r3, #1
 911 006a 9B1A     		subs	r3, r3, r2
 912 006c E384     		strh	r3, [r4, #38]	@ movhi
ARM GAS  /var/folders/_2/42wyrlld3p52fkcpt1lv6gxh0000gp/T//ccpbLF3Z.s 			page 17


 913              		.loc 1 399 0
 914 006e 0123     		movs	r3, #1
 915 0070 A384     		strh	r3, [r4, #36]	@ movhi
 916              		.loc 1 400 0
 917 0072 6368     		ldr	r3, [r4, #4]
 918 0074 2046     		mov	r0, r4
 919 0076 DB69     		ldr	r3, [r3, #28]
 920 0078 9847     		blx	r3
 921              	.LVL68:
 922              		.loc 1 403 0
 923 007a 6368     		ldr	r3, [r4, #4]
 924 007c 1B6A     		ldr	r3, [r3, #32]
 925 007e 0BB1     		cbz	r3, .L61
 926              		.loc 1 405 0
 927 0080 2046     		mov	r0, r4
 928 0082 9847     		blx	r3
 929              	.LVL69:
 930              	.L61:
 931              		.loc 1 407 0 discriminator 1
 932 0084 6368     		ldr	r3, [r4, #4]
 933 0086 2046     		mov	r0, r4
 934 0088 5B6A     		ldr	r3, [r3, #36]
 935 008a 9847     		blx	r3
 936              	.LVL70:
 937 008c E38C     		ldrh	r3, [r4, #38]
 938 008e 013B     		subs	r3, r3, #1
 939 0090 1BB2     		sxth	r3, r3
 940 0092 E384     		strh	r3, [r4, #38]	@ movhi
 941 0094 002B     		cmp	r3, #0
 942 0096 F5D1     		bne	.L61
 943              		.loc 1 408 0
 944 0098 2046     		mov	r0, r4
 945 009a 6368     		ldr	r3, [r4, #4]
 946 009c 9B6A     		ldr	r3, [r3, #40]
 947              		.loc 1 425 0
 948 009e BD46     		mov	sp, r7
 949              	.LCFI44:
 950              		.cfi_remember_state
 951              		.cfi_def_cfa_register 13
 952              		@ sp needed
 953 00a0 BDE8B040 		pop	{r4, r5, r7, lr}
 954              	.LCFI45:
 955              		.cfi_restore 14
 956              		.cfi_restore 7
 957              		.cfi_restore 5
 958              		.cfi_restore 4
 959              		.cfi_def_cfa_offset 0
 960              	.LVL71:
 961              		.loc 1 408 0
 962 00a4 1847     		bx	r3	@ indirect register sibling call
 963              	.LVL72:
 964              	.L58:
 965              	.LCFI46:
 966              		.cfi_restore_state
 967              		.loc 1 420 0 discriminator 1
 968 00a6 B4F92220 		ldrsh	r2, [r4, #34]
 969 00aa B4F92A30 		ldrsh	r3, [r4, #42]
ARM GAS  /var/folders/_2/42wyrlld3p52fkcpt1lv6gxh0000gp/T//ccpbLF3Z.s 			page 18


 970 00ae 9A42     		cmp	r2, r3
 971 00b0 07DC     		bgt	.L72
 972              		.loc 1 421 0 discriminator 2
 973 00b2 6368     		ldr	r3, [r4, #4]
 974 00b4 2046     		mov	r0, r4
 975 00b6 9B6B     		ldr	r3, [r3, #56]
 976 00b8 9847     		blx	r3
 977              	.LVL73:
 978              		.loc 1 420 0 discriminator 2
 979 00ba 638C     		ldrh	r3, [r4, #34]
 980 00bc 0133     		adds	r3, r3, #1
 981 00be 6384     		strh	r3, [r4, #34]	@ movhi
 982 00c0 F1E7     		b	.L58
 983              	.L72:
 984              		.loc 1 425 0
 985 00c2 B0BD     		pop	{r4, r5, r7, pc}
 986              		.cfi_endproc
 987              	.LFE67:
 988              		.size	vline_clip, .-vline_clip
 989              		.section	.text.line_clip,"ax",%progbits
 990              		.align	1
 991              		.thumb
 992              		.thumb_func
 993              		.type	line_clip, %function
 994              	line_clip:
 995              	.LFB68:
 996              		.loc 1 429 0
 997              		.cfi_startproc
 998              		@ args = 0, pretend = 0, frame = 8
 999              		@ frame_needed = 1, uses_anonymous_args = 0
 1000              	.LVL74:
 1001 0000 2DE9F04F 		push	{r4, r5, r6, r7, r8, r9, r10, fp, lr}
 1002              	.LCFI47:
 1003              		.cfi_def_cfa_offset 36
 1004              		.cfi_offset 4, -36
 1005              		.cfi_offset 5, -32
 1006              		.cfi_offset 6, -28
 1007              		.cfi_offset 7, -24
 1008              		.cfi_offset 8, -20
 1009              		.cfi_offset 9, -16
 1010              		.cfi_offset 10, -12
 1011              		.cfi_offset 11, -8
 1012              		.cfi_offset 14, -4
 1013 0004 83B0     		sub	sp, sp, #12
 1014              	.LCFI48:
 1015              		.cfi_def_cfa_offset 48
 1016              		.loc 1 435 0
 1017 0006 B0F92230 		ldrsh	r3, [r0, #34]
 1018 000a B0F92A40 		ldrsh	r4, [r0, #42]
 1019              		.loc 1 429 0
 1020 000e 00AF     		add	r7, sp, #0
 1021              	.LCFI49:
 1022              		.cfi_def_cfa_register 7
 1023              		.loc 1 435 0
 1024 0010 A342     		cmp	r3, r4
 1025              		.loc 1 429 0
 1026 0012 8146     		mov	r9, r0
ARM GAS  /var/folders/_2/42wyrlld3p52fkcpt1lv6gxh0000gp/T//ccpbLF3Z.s 			page 19


 1027              		.loc 1 435 0
 1028 0014 05D1     		bne	.L74
 1029              		.loc 1 502 0
 1030 0016 0C37     		adds	r7, r7, #12
 1031              	.LCFI50:
 1032              		.cfi_remember_state
 1033              		.cfi_def_cfa_offset 36
 1034 0018 BD46     		mov	sp, r7
 1035              	.LCFI51:
 1036              		.cfi_def_cfa_register 13
 1037              		@ sp needed
 1038 001a BDE8F04F 		pop	{r4, r5, r6, r7, r8, r9, r10, fp, lr}
 1039              	.LCFI52:
 1040              		.cfi_restore 14
 1041              		.cfi_restore 11
 1042              		.cfi_restore 10
 1043              		.cfi_restore 9
 1044              		.cfi_restore 8
 1045              		.cfi_restore 7
 1046              		.cfi_restore 6
 1047              		.cfi_restore 5
 1048              		.cfi_restore 4
 1049              		.cfi_def_cfa_offset 0
 1050              		.loc 1 436 0
 1051 001e FFF7FEBF 		b	hline_clip
 1052              	.LVL75:
 1053              	.L74:
 1054              	.LCFI53:
 1055              		.cfi_restore_state
 1056              		.loc 1 441 0
 1057 0022 B0F92020 		ldrsh	r2, [r0, #32]
 1058 0026 B0F92850 		ldrsh	r5, [r0, #40]
 1059 002a AA42     		cmp	r2, r5
 1060 002c 05D1     		bne	.L75
 1061              		.loc 1 502 0
 1062 002e 0C37     		adds	r7, r7, #12
 1063              	.LCFI54:
 1064              		.cfi_remember_state
 1065              		.cfi_def_cfa_offset 36
 1066 0030 BD46     		mov	sp, r7
 1067              	.LCFI55:
 1068              		.cfi_def_cfa_register 13
 1069              		@ sp needed
 1070 0032 BDE8F04F 		pop	{r4, r5, r6, r7, r8, r9, r10, fp, lr}
 1071              	.LCFI56:
 1072              		.cfi_restore 14
 1073              		.cfi_restore 11
 1074              		.cfi_restore 10
 1075              		.cfi_restore 9
 1076              		.cfi_restore 8
 1077              		.cfi_restore 7
 1078              		.cfi_restore 6
 1079              		.cfi_restore 5
 1080              		.cfi_restore 4
 1081              		.cfi_def_cfa_offset 0
 1082              		.loc 1 442 0
 1083 0036 FFF7FEBF 		b	vline_clip
ARM GAS  /var/folders/_2/42wyrlld3p52fkcpt1lv6gxh0000gp/T//ccpbLF3Z.s 			page 20


 1084              	.LVL76:
 1085              	.L75:
 1086              	.LCFI57:
 1087              		.cfi_restore_state
 1088              		.loc 1 455 0
 1089 003a D5BF     		itete	le
 1090 003c AD1A     		suble	r5, r5, r2
 1091              		.loc 1 458 0
 1092 003e 551B     		subgt	r5, r2, r5
 1093              		.loc 1 455 0
 1094 0040 2DB2     		sxthle	r5, r5
 1095              	.LVL77:
 1096              		.loc 1 458 0
 1097 0042 2DB2     		sxthgt	r5, r5
 1098              	.LVL78:
 1099              		.loc 1 456 0
 1100 0044 D4BF     		ite	le
 1101 0046 4FF0010A 		movle	r10, #1
 1102              		.loc 1 459 0
 1103 004a 4FF0FF3A 		movgt	r10, #-1
 1104              	.LVL79:
 1105              		.loc 1 461 0
 1106 004e A342     		cmp	r3, r4
 1107              		.loc 1 462 0
 1108 0050 D5BF     		itete	le
 1109 0052 E41A     		suble	r4, r4, r3
 1110              		.loc 1 465 0
 1111 0054 1C1B     		subgt	r4, r3, r4
 1112              		.loc 1 462 0
 1113 0056 24B2     		sxthle	r4, r4
 1114              	.LVL80:
 1115              		.loc 1 465 0
 1116 0058 24B2     		sxthgt	r4, r4
 1117              	.LVL81:
 1118              		.loc 1 463 0
 1119 005a D4BF     		ite	le
 1120 005c 4FF0010B 		movle	fp, #1
 1121              		.loc 1 466 0
 1122 0060 4FF0FF3B 		movgt	fp, #-1
 1123              	.LVL82:
 1124              		.loc 1 469 0
 1125 0064 AC42     		cmp	r4, r5
 1126 0066 2ADC     		bgt	.L80
 1127              	.LVL83:
 1128              		.loc 1 471 0
 1129 0068 6400     		lsls	r4, r4, #1
 1130              	.LVL84:
 1131 006a 1FFA85F8 		uxth	r8, r5
 1132 006e A4B2     		uxth	r4, r4
 1133 0070 C8EB0402 		rsb	r2, r8, r4
 1134 0074 93B2     		uxth	r3, r2
 1135              	.LVL85:
 1136              		.loc 1 472 0
 1137 0076 C8EB0308 		rsb	r8, r8, r3
 1138              		.loc 1 471 0
 1139 007a 1EB2     		sxth	r6, r3
 1140              	.LVL86:
ARM GAS  /var/folders/_2/42wyrlld3p52fkcpt1lv6gxh0000gp/T//ccpbLF3Z.s 			page 21


 1141              		.loc 1 472 0
 1142 007c 1FFA88F8 		uxth	r8, r8
 1143              	.LVL87:
 1144              		.loc 1 474 0
 1145 0080 0022     		movs	r2, #0
 1146              	.LVL88:
 1147              	.L81:
 1148              		.loc 1 474 0 is_stmt 0 discriminator 1
 1149 0082 13B2     		sxth	r3, r2
 1150 0084 9D42     		cmp	r5, r3
 1151 0086 43DB     		blt	.L73
 1152              		.loc 1 475 0 is_stmt 1
 1153 0088 4846     		mov	r0, r9
 1154 008a 7A60     		str	r2, [r7, #4]
 1155 008c FFF7FEFF 		bl	drawpixel
 1156              	.LVL89:
 1157              		.loc 1 476 0
 1158 0090 002E     		cmp	r6, #0
 1159 0092 B9F82030 		ldrh	r3, [r9, #32]
 1160 0096 7A68     		ldr	r2, [r7, #4]
 1161 0098 05DA     		bge	.L82
 1162              		.loc 1 477 0
 1163 009a 2644     		add	r6, r6, r4
 1164              	.LVL90:
 1165              		.loc 1 478 0
 1166 009c 5344     		add	r3, r3, r10
 1167              		.loc 1 477 0
 1168 009e 36B2     		sxth	r6, r6
 1169              	.LVL91:
 1170              		.loc 1 478 0
 1171 00a0 A9F82030 		strh	r3, [r9, #32]	@ movhi
 1172 00a4 09E0     		b	.L83
 1173              	.L82:
 1174              		.loc 1 481 0
 1175 00a6 5344     		add	r3, r3, r10
 1176 00a8 A9F82030 		strh	r3, [r9, #32]	@ movhi
 1177              		.loc 1 482 0
 1178 00ac B9F82230 		ldrh	r3, [r9, #34]
 1179              		.loc 1 480 0
 1180 00b0 4644     		add	r6, r6, r8
 1181              	.LVL92:
 1182              		.loc 1 482 0
 1183 00b2 5B44     		add	r3, r3, fp
 1184              		.loc 1 480 0
 1185 00b4 36B2     		sxth	r6, r6
 1186              	.LVL93:
 1187              		.loc 1 482 0
 1188 00b6 A9F82230 		strh	r3, [r9, #34]	@ movhi
 1189              	.L83:
 1190              	.LVL94:
 1191 00ba 0132     		adds	r2, r2, #1
 1192              	.LVL95:
 1193 00bc E1E7     		b	.L81
 1194              	.LVL96:
 1195              	.L80:
 1196              		.loc 1 487 0
 1197 00be 6D00     		lsls	r5, r5, #1
ARM GAS  /var/folders/_2/42wyrlld3p52fkcpt1lv6gxh0000gp/T//ccpbLF3Z.s 			page 22


 1198              	.LVL97:
 1199 00c0 1FFA84F8 		uxth	r8, r4
 1200 00c4 ADB2     		uxth	r5, r5
 1201 00c6 C8EB0502 		rsb	r2, r8, r5
 1202              	.LVL98:
 1203 00ca 93B2     		uxth	r3, r2
 1204              		.loc 1 488 0
 1205 00cc C8EB0308 		rsb	r8, r8, r3
 1206              		.loc 1 487 0
 1207 00d0 1EB2     		sxth	r6, r3
 1208              	.LVL99:
 1209              		.loc 1 488 0
 1210 00d2 1FFA88F8 		uxth	r8, r8
 1211              	.LVL100:
 1212              		.loc 1 490 0
 1213 00d6 0022     		movs	r2, #0
 1214              	.LVL101:
 1215              	.L86:
 1216              		.loc 1 490 0 is_stmt 0 discriminator 1
 1217 00d8 13B2     		sxth	r3, r2
 1218 00da 9C42     		cmp	r4, r3
 1219 00dc 18DB     		blt	.L73
 1220              		.loc 1 491 0 is_stmt 1
 1221 00de 4846     		mov	r0, r9
 1222 00e0 7A60     		str	r2, [r7, #4]
 1223 00e2 FFF7FEFF 		bl	drawpixel
 1224              	.LVL102:
 1225              		.loc 1 492 0
 1226 00e6 002E     		cmp	r6, #0
 1227 00e8 B9F82230 		ldrh	r3, [r9, #34]
 1228              		.loc 1 497 0
 1229 00ec A8BF     		it	ge
 1230 00ee B9F82010 		ldrhge	r1, [r9, #32]
 1231              		.loc 1 492 0
 1232 00f2 7A68     		ldr	r2, [r7, #4]
 1233              		.loc 1 493 0
 1234 00f4 B2BF     		itee	lt
 1235 00f6 7619     		addlt	r6, r6, r5
 1236              	.LVL103:
 1237              		.loc 1 496 0
 1238 00f8 4644     		addge	r6, r6, r8
 1239              		.loc 1 497 0
 1240 00fa 5144     		addge	r1, r1, r10
 1241              		.loc 1 498 0
 1242 00fc 5B44     		add	r3, r3, fp
 1243              		.loc 1 493 0
 1244 00fe B2BF     		itee	lt
 1245 0100 36B2     		sxthlt	r6, r6
 1246              		.loc 1 496 0
 1247 0102 36B2     		sxthge	r6, r6
 1248              	.LVL104:
 1249              		.loc 1 497 0
 1250 0104 A9F82010 		strhge	r1, [r9, #32]	@ movhi
 1251              		.loc 1 498 0
 1252 0108 A9F82230 		strh	r3, [r9, #34]	@ movhi
 1253              	.LVL105:
 1254 010c 0132     		adds	r2, r2, #1
ARM GAS  /var/folders/_2/42wyrlld3p52fkcpt1lv6gxh0000gp/T//ccpbLF3Z.s 			page 23


 1255              	.LVL106:
 1256 010e E3E7     		b	.L86
 1257              	.LVL107:
 1258              	.L73:
 1259              		.loc 1 502 0
 1260 0110 0C37     		adds	r7, r7, #12
 1261              	.LCFI58:
 1262              		.cfi_def_cfa_offset 36
 1263 0112 BD46     		mov	sp, r7
 1264              	.LCFI59:
 1265              		.cfi_def_cfa_register 13
 1266              		@ sp needed
 1267 0114 BDE8F08F 		pop	{r4, r5, r6, r7, r8, r9, r10, fp, pc}
 1268              		.cfi_endproc
 1269              	.LFE68:
 1270              		.size	line_clip, .-line_clip
 1271              		.section	.text._gdispInit,"ax",%progbits
 1272              		.align	1
 1273              		.global	_gdispInit
 1274              		.thumb
 1275              		.thumb_func
 1276              		.type	_gdispInit, %function
 1277              	_gdispInit:
 1278              	.LFB69:
 1279              		.loc 1 561 0
 1280              		.cfi_startproc
 1281              		@ args = 0, pretend = 0, frame = 0
 1282              		@ frame_needed = 1, uses_anonymous_args = 0
 1283              		@ link register save eliminated.
 1284              	.LVL108:
 1285 0000 80B4     		push	{r7}
 1286              	.LCFI60:
 1287              		.cfi_def_cfa_offset 4
 1288              		.cfi_offset 7, -4
 1289              	.LBB39:
 1290              		.loc 1 574 0
 1291 0002 0648     		ldr	r0, .L94
 1292              	.LBE39:
 1293              		.loc 1 561 0
 1294 0004 00AF     		add	r7, sp, #0
 1295              	.LCFI61:
 1296              		.cfi_def_cfa_register 7
 1297              	.LBB40:
 1298              		.loc 1 574 0
 1299 0006 4188     		ldrh	r1, [r0, #2]
 1300 0008 11F00101 		ands	r1, r1, #1
 1301 000c 03D1     		bne	.L92
 1302              	.LBE40:
 1303              		.loc 1 623 0
 1304 000e BD46     		mov	sp, r7
 1305              	.LCFI62:
 1306              		.cfi_remember_state
 1307              		.cfi_def_cfa_register 13
 1308              		@ sp needed
 1309 0010 80BC     		pop	{r7}
 1310              	.LCFI63:
 1311              		.cfi_restore 7
ARM GAS  /var/folders/_2/42wyrlld3p52fkcpt1lv6gxh0000gp/T//ccpbLF3Z.s 			page 24


 1312              		.cfi_def_cfa_offset 0
 1313              	.LBB41:
 1314              		.loc 1 575 0
 1315 0012 FFF7FEBF 		b	gdriverRegister
 1316              	.LVL109:
 1317              	.L92:
 1318              	.LCFI64:
 1319              		.cfi_restore_state
 1320              	.LBE41:
 1321              		.loc 1 623 0
 1322 0016 BD46     		mov	sp, r7
 1323              	.LCFI65:
 1324              		.cfi_def_cfa_register 13
 1325              		@ sp needed
 1326 0018 80BC     		pop	{r7}
 1327              	.LCFI66:
 1328              		.cfi_restore 7
 1329              		.cfi_def_cfa_offset 0
 1330 001a 7047     		bx	lr
 1331              	.L95:
 1332              		.align	2
 1333              	.L94:
 1334 001c 00000000 		.word	GDISPVMT_ED060SC4
 1335              		.cfi_endproc
 1336              	.LFE69:
 1337              		.size	_gdispInit, .-_gdispInit
 1338              		.section	.text._gdispDeinit,"ax",%progbits
 1339              		.align	1
 1340              		.global	_gdispDeinit
 1341              		.thumb
 1342              		.thumb_func
 1343              		.type	_gdispDeinit, %function
 1344              	_gdispDeinit:
 1345              	.LFB70:
 1346              		.loc 1 626 0
 1347              		.cfi_startproc
 1348              		@ args = 0, pretend = 0, frame = 0
 1349              		@ frame_needed = 1, uses_anonymous_args = 0
 1350 0000 80B5     		push	{r7, lr}
 1351              	.LCFI67:
 1352              		.cfi_def_cfa_offset 8
 1353              		.cfi_offset 7, -8
 1354              		.cfi_offset 14, -4
 1355 0002 00AF     		add	r7, sp, #0
 1356              	.LCFI68:
 1357              		.cfi_def_cfa_register 7
 1358 0004 80BD     		pop	{r7, pc}
 1359              		.cfi_endproc
 1360              	.LFE70:
 1361              		.size	_gdispDeinit, .-_gdispDeinit
 1362              		.section	.text._gdispInitDriver,"ax",%progbits
 1363              		.align	1
 1364              		.global	_gdispInitDriver
 1365              		.thumb
 1366              		.thumb_func
 1367              		.type	_gdispInitDriver, %function
 1368              	_gdispInitDriver:
ARM GAS  /var/folders/_2/42wyrlld3p52fkcpt1lv6gxh0000gp/T//ccpbLF3Z.s 			page 25


 1369              	.LFB71:
 1370              		.loc 1 630 0
 1371              		.cfi_startproc
 1372              		@ args = 0, pretend = 0, frame = 0
 1373              		@ frame_needed = 1, uses_anonymous_args = 0
 1374              		@ link register save eliminated.
 1375              	.LVL110:
 1376              		.loc 1 630 0
 1377 0000 90B4     		push	{r4, r7}
 1378              	.LCFI69:
 1379              		.cfi_def_cfa_offset 8
 1380              		.cfi_offset 4, -8
 1381              		.cfi_offset 7, -4
 1382              		.loc 1 635 0
 1383 0002 0377     		strb	r3, [r0, #28]
 1384              		.loc 1 637 0
 1385 0004 0023     		movs	r3, #0
 1386              	.LVL111:
 1387 0006 C383     		strh	r3, [r0, #30]	@ movhi
 1388              		.loc 1 643 0
 1389 0008 4368     		ldr	r3, [r0, #4]
 1390              		.loc 1 636 0
 1391 000a 4277     		strb	r2, [r0, #29]
 1392              		.loc 1 643 0
 1393 000c 5B69     		ldr	r3, [r3, #20]
 1394              		.loc 1 630 0
 1395 000e 00AF     		add	r7, sp, #0
 1396              	.LCFI70:
 1397              		.cfi_def_cfa_register 7
 1398              		.loc 1 638 0
 1399 0010 4161     		str	r1, [r0, #20]
 1400              		.loc 1 648 0
 1401 0012 BD46     		mov	sp, r7
 1402              	.LCFI71:
 1403              		.cfi_def_cfa_register 13
 1404              		@ sp needed
 1405 0014 90BC     		pop	{r4, r7}
 1406              	.LCFI72:
 1407              		.cfi_restore 7
 1408              		.cfi_restore 4
 1409              		.cfi_def_cfa_offset 0
 1410              		.loc 1 643 0
 1411 0016 1847     		bx	r3
 1412              	.LVL112:
 1413              		.cfi_endproc
 1414              	.LFE71:
 1415              		.size	_gdispInitDriver, .-_gdispInitDriver
 1416              		.section	.text._gdispDeInitDriver,"ax",%progbits
 1417              		.align	1
 1418              		.global	_gdispDeInitDriver
 1419              		.thumb
 1420              		.thumb_func
 1421              		.type	_gdispDeInitDriver, %function
 1422              	_gdispDeInitDriver:
 1423              	.LFB73:
 1424              		.loc 1 688 0
 1425              		.cfi_startproc
ARM GAS  /var/folders/_2/42wyrlld3p52fkcpt1lv6gxh0000gp/T//ccpbLF3Z.s 			page 26


 1426              		@ args = 0, pretend = 0, frame = 0
 1427              		@ frame_needed = 1, uses_anonymous_args = 0
 1428              	.LVL113:
 1429 0000 B0B5     		push	{r4, r5, r7, lr}
 1430              	.LCFI73:
 1431              		.cfi_def_cfa_offset 16
 1432              		.cfi_offset 4, -16
 1433              		.cfi_offset 5, -12
 1434              		.cfi_offset 7, -8
 1435              		.cfi_offset 14, -4
 1436              		.loc 1 691 0
 1437 0002 0A4D     		ldr	r5, .L101
 1438              		.loc 1 688 0
 1439 0004 00AF     		add	r7, sp, #0
 1440              	.LCFI74:
 1441              		.cfi_def_cfa_register 7
 1442              		.loc 1 691 0
 1443 0006 2B68     		ldr	r3, [r5]
 1444              		.loc 1 688 0
 1445 0008 0446     		mov	r4, r0
 1446              		.loc 1 691 0
 1447 000a 8342     		cmp	r3, r0
 1448 000c 04D1     		bne	.L99
 1449              		.loc 1 692 0
 1450 000e 0021     		movs	r1, #0
 1451 0010 6720     		movs	r0, #103
 1452              	.LVL114:
 1453 0012 FFF7FEFF 		bl	gdriverGetInstance
 1454              	.LVL115:
 1455 0016 2860     		str	r0, [r5]
 1456              	.L99:
 1457              		.loc 1 696 0
 1458 0018 6368     		ldr	r3, [r4, #4]
 1459 001a 9B69     		ldr	r3, [r3, #24]
 1460 001c 23B1     		cbz	r3, .L98
 1461              		.loc 1 700 0
 1462 001e 2046     		mov	r0, r4
 1463              		.loc 1 707 0
 1464 0020 BD46     		mov	sp, r7
 1465              	.LCFI75:
 1466              		.cfi_remember_state
 1467              		.cfi_def_cfa_register 13
 1468              		@ sp needed
 1469 0022 BDE8B040 		pop	{r4, r5, r7, lr}
 1470              	.LCFI76:
 1471              		.cfi_restore 14
 1472              		.cfi_restore 7
 1473              		.cfi_restore 5
 1474              		.cfi_restore 4
 1475              		.cfi_def_cfa_offset 0
 1476              	.LVL116:
 1477              		.loc 1 700 0
 1478 0026 1847     		bx	r3	@ indirect register sibling call
 1479              	.LVL117:
 1480              	.L98:
 1481              	.LCFI77:
 1482              		.cfi_restore_state
ARM GAS  /var/folders/_2/42wyrlld3p52fkcpt1lv6gxh0000gp/T//ccpbLF3Z.s 			page 27


 1483 0028 B0BD     		pop	{r4, r5, r7, pc}
 1484              	.LVL118:
 1485              	.L102:
 1486 002a 00BF     		.align	2
 1487              	.L101:
 1488 002c 00000000 		.word	.LANCHOR0
 1489              		.cfi_endproc
 1490              	.LFE73:
 1491              		.size	_gdispDeInitDriver, .-_gdispDeInitDriver
 1492              		.section	.text.gdispGetDisplay,"ax",%progbits
 1493              		.align	1
 1494              		.global	gdispGetDisplay
 1495              		.thumb
 1496              		.thumb_func
 1497              		.type	gdispGetDisplay, %function
 1498              	gdispGetDisplay:
 1499              	.LFB74:
 1500              		.loc 1 709 0
 1501              		.cfi_startproc
 1502              		@ args = 0, pretend = 0, frame = 0
 1503              		@ frame_needed = 1, uses_anonymous_args = 0
 1504              		@ link register save eliminated.
 1505              	.LVL119:
 1506              		.loc 1 710 0
 1507 0000 0146     		mov	r1, r0
 1508              		.loc 1 709 0
 1509 0002 80B4     		push	{r7}
 1510              	.LCFI78:
 1511              		.cfi_def_cfa_offset 4
 1512              		.cfi_offset 7, -4
 1513              		.loc 1 710 0
 1514 0004 6720     		movs	r0, #103
 1515              	.LVL120:
 1516              		.loc 1 709 0
 1517 0006 00AF     		add	r7, sp, #0
 1518              	.LCFI79:
 1519              		.cfi_def_cfa_register 7
 1520              		.loc 1 711 0
 1521 0008 BD46     		mov	sp, r7
 1522              	.LCFI80:
 1523              		.cfi_def_cfa_register 13
 1524              		@ sp needed
 1525 000a 80BC     		pop	{r7}
 1526              	.LCFI81:
 1527              		.cfi_restore 7
 1528              		.cfi_def_cfa_offset 0
 1529              		.loc 1 710 0
 1530 000c FFF7FEBF 		b	gdriverGetInstance
 1531              	.LVL121:
 1532              		.cfi_endproc
 1533              	.LFE74:
 1534              		.size	gdispGetDisplay, .-gdispGetDisplay
 1535              		.section	.text.gdispSetDisplay,"ax",%progbits
 1536              		.align	1
 1537              		.global	gdispSetDisplay
 1538              		.thumb
 1539              		.thumb_func
ARM GAS  /var/folders/_2/42wyrlld3p52fkcpt1lv6gxh0000gp/T//ccpbLF3Z.s 			page 28


 1540              		.type	gdispSetDisplay, %function
 1541              	gdispSetDisplay:
 1542              	.LFB75:
 1543              		.loc 1 713 0
 1544              		.cfi_startproc
 1545              		@ args = 0, pretend = 0, frame = 0
 1546              		@ frame_needed = 1, uses_anonymous_args = 0
 1547              	.LVL122:
 1548 0000 80B5     		push	{r7, lr}
 1549              	.LCFI82:
 1550              		.cfi_def_cfa_offset 8
 1551              		.cfi_offset 7, -8
 1552              		.cfi_offset 14, -4
 1553 0002 00AF     		add	r7, sp, #0
 1554              	.LCFI83:
 1555              		.cfi_def_cfa_register 7
 1556              		.loc 1 714 0
 1557 0004 08B1     		cbz	r0, .L104
 1558              		.loc 1 714 0 is_stmt 0 discriminator 1
 1559 0006 014B     		ldr	r3, .L109
 1560 0008 1860     		str	r0, [r3]
 1561              	.L104:
 1562 000a 80BD     		pop	{r7, pc}
 1563              	.L110:
 1564              		.align	2
 1565              	.L109:
 1566 000c 00000000 		.word	.LANCHOR0
 1567              		.cfi_endproc
 1568              	.LFE75:
 1569              		.size	gdispSetDisplay, .-gdispSetDisplay
 1570              		.section	.text.gdispGetDisplayCount,"ax",%progbits
 1571              		.align	1
 1572              		.global	gdispGetDisplayCount
 1573              		.thumb
 1574              		.thumb_func
 1575              		.type	gdispGetDisplayCount, %function
 1576              	gdispGetDisplayCount:
 1577              	.LFB76:
 1578              		.loc 1 717 0 is_stmt 1
 1579              		.cfi_startproc
 1580              		@ args = 0, pretend = 0, frame = 0
 1581              		@ frame_needed = 1, uses_anonymous_args = 0
 1582              		@ link register save eliminated.
 1583 0000 80B4     		push	{r7}
 1584              	.LCFI84:
 1585              		.cfi_def_cfa_offset 4
 1586              		.cfi_offset 7, -4
 1587              		.loc 1 718 0
 1588 0002 6720     		movs	r0, #103
 1589              		.loc 1 717 0
 1590 0004 00AF     		add	r7, sp, #0
 1591              	.LCFI85:
 1592              		.cfi_def_cfa_register 7
 1593              		.loc 1 719 0
 1594 0006 BD46     		mov	sp, r7
 1595              	.LCFI86:
 1596              		.cfi_def_cfa_register 13
ARM GAS  /var/folders/_2/42wyrlld3p52fkcpt1lv6gxh0000gp/T//ccpbLF3Z.s 			page 29


 1597              		@ sp needed
 1598 0008 80BC     		pop	{r7}
 1599              	.LCFI87:
 1600              		.cfi_restore 7
 1601              		.cfi_def_cfa_offset 0
 1602              		.loc 1 718 0
 1603 000a FFF7FEBF 		b	gdriverInstanceCount
 1604              	.LVL123:
 1605              		.cfi_endproc
 1606              	.LFE76:
 1607              		.size	gdispGetDisplayCount, .-gdispGetDisplayCount
 1608              		.section	.text.gdispGGetWidth,"ax",%progbits
 1609              		.align	1
 1610              		.global	gdispGGetWidth
 1611              		.thumb
 1612              		.thumb_func
 1613              		.type	gdispGGetWidth, %function
 1614              	gdispGGetWidth:
 1615              	.LFB77:
 1616              		.loc 1 721 0
 1617              		.cfi_startproc
 1618              		@ args = 0, pretend = 0, frame = 0
 1619              		@ frame_needed = 1, uses_anonymous_args = 0
 1620              	.LVL124:
 1621 0000 80B5     		push	{r7, lr}
 1622              	.LCFI88:
 1623              		.cfi_def_cfa_offset 8
 1624              		.cfi_offset 7, -8
 1625              		.cfi_offset 14, -4
 1626 0002 B0F90800 		ldrsh	r0, [r0, #8]
 1627              	.LVL125:
 1628 0006 00AF     		add	r7, sp, #0
 1629              	.LCFI89:
 1630              		.cfi_def_cfa_register 7
 1631              		.loc 1 721 0
 1632 0008 80BD     		pop	{r7, pc}
 1633              		.cfi_endproc
 1634              	.LFE77:
 1635              		.size	gdispGGetWidth, .-gdispGGetWidth
 1636              		.section	.text.gdispGGetHeight,"ax",%progbits
 1637              		.align	1
 1638              		.global	gdispGGetHeight
 1639              		.thumb
 1640              		.thumb_func
 1641              		.type	gdispGGetHeight, %function
 1642              	gdispGGetHeight:
 1643              	.LFB78:
 1644              		.loc 1 722 0
 1645              		.cfi_startproc
 1646              		@ args = 0, pretend = 0, frame = 0
 1647              		@ frame_needed = 1, uses_anonymous_args = 0
 1648              	.LVL126:
 1649 0000 80B5     		push	{r7, lr}
 1650              	.LCFI90:
 1651              		.cfi_def_cfa_offset 8
 1652              		.cfi_offset 7, -8
 1653              		.cfi_offset 14, -4
ARM GAS  /var/folders/_2/42wyrlld3p52fkcpt1lv6gxh0000gp/T//ccpbLF3Z.s 			page 30


 1654 0002 B0F90A00 		ldrsh	r0, [r0, #10]
 1655              	.LVL127:
 1656 0006 00AF     		add	r7, sp, #0
 1657              	.LCFI91:
 1658              		.cfi_def_cfa_register 7
 1659              		.loc 1 722 0
 1660 0008 80BD     		pop	{r7, pc}
 1661              		.cfi_endproc
 1662              	.LFE78:
 1663              		.size	gdispGGetHeight, .-gdispGGetHeight
 1664              		.section	.text.gdispGGetPowerMode,"ax",%progbits
 1665              		.align	1
 1666              		.global	gdispGGetPowerMode
 1667              		.thumb
 1668              		.thumb_func
 1669              		.type	gdispGGetPowerMode, %function
 1670              	gdispGGetPowerMode:
 1671              	.LFB79:
 1672              		.loc 1 723 0
 1673              		.cfi_startproc
 1674              		@ args = 0, pretend = 0, frame = 0
 1675              		@ frame_needed = 1, uses_anonymous_args = 0
 1676              	.LVL128:
 1677 0000 80B5     		push	{r7, lr}
 1678              	.LCFI92:
 1679              		.cfi_def_cfa_offset 8
 1680              		.cfi_offset 7, -8
 1681              		.cfi_offset 14, -4
 1682 0002 807B     		ldrb	r0, [r0, #14]	@ zero_extendqisi2
 1683              	.LVL129:
 1684 0004 00AF     		add	r7, sp, #0
 1685              	.LCFI93:
 1686              		.cfi_def_cfa_register 7
 1687              		.loc 1 723 0
 1688 0006 80BD     		pop	{r7, pc}
 1689              		.cfi_endproc
 1690              	.LFE79:
 1691              		.size	gdispGGetPowerMode, .-gdispGGetPowerMode
 1692              		.section	.text.gdispGGetOrientation,"ax",%progbits
 1693              		.align	1
 1694              		.global	gdispGGetOrientation
 1695              		.thumb
 1696              		.thumb_func
 1697              		.type	gdispGGetOrientation, %function
 1698              	gdispGGetOrientation:
 1699              	.LFB80:
 1700              		.loc 1 724 0
 1701              		.cfi_startproc
 1702              		@ args = 0, pretend = 0, frame = 0
 1703              		@ frame_needed = 1, uses_anonymous_args = 0
 1704              	.LVL130:
 1705 0000 80B5     		push	{r7, lr}
 1706              	.LCFI94:
 1707              		.cfi_def_cfa_offset 8
 1708              		.cfi_offset 7, -8
 1709              		.cfi_offset 14, -4
 1710 0002 8089     		ldrh	r0, [r0, #12]
ARM GAS  /var/folders/_2/42wyrlld3p52fkcpt1lv6gxh0000gp/T//ccpbLF3Z.s 			page 31


 1711              	.LVL131:
 1712 0004 00AF     		add	r7, sp, #0
 1713              	.LCFI95:
 1714              		.cfi_def_cfa_register 7
 1715              		.loc 1 724 0
 1716 0006 80BD     		pop	{r7, pc}
 1717              		.cfi_endproc
 1718              	.LFE80:
 1719              		.size	gdispGGetOrientation, .-gdispGGetOrientation
 1720              		.section	.text.gdispGGetBacklight,"ax",%progbits
 1721              		.align	1
 1722              		.global	gdispGGetBacklight
 1723              		.thumb
 1724              		.thumb_func
 1725              		.type	gdispGGetBacklight, %function
 1726              	gdispGGetBacklight:
 1727              	.LFB81:
 1728              		.loc 1 725 0
 1729              		.cfi_startproc
 1730              		@ args = 0, pretend = 0, frame = 0
 1731              		@ frame_needed = 1, uses_anonymous_args = 0
 1732              	.LVL132:
 1733 0000 80B5     		push	{r7, lr}
 1734              	.LCFI96:
 1735              		.cfi_def_cfa_offset 8
 1736              		.cfi_offset 7, -8
 1737              		.cfi_offset 14, -4
 1738 0002 00AF     		add	r7, sp, #0
 1739              	.LCFI97:
 1740              		.cfi_def_cfa_register 7
 1741              		.loc 1 725 0
 1742 0004 C07B     		ldrb	r0, [r0, #15]	@ zero_extendqisi2
 1743              	.LVL133:
 1744 0006 80BD     		pop	{r7, pc}
 1745              		.cfi_endproc
 1746              	.LFE81:
 1747              		.size	gdispGGetBacklight, .-gdispGGetBacklight
 1748              		.section	.text.gdispGGetContrast,"ax",%progbits
 1749              		.align	1
 1750              		.global	gdispGGetContrast
 1751              		.thumb
 1752              		.thumb_func
 1753              		.type	gdispGGetContrast, %function
 1754              	gdispGGetContrast:
 1755              	.LFB82:
 1756              		.loc 1 726 0
 1757              		.cfi_startproc
 1758              		@ args = 0, pretend = 0, frame = 0
 1759              		@ frame_needed = 1, uses_anonymous_args = 0
 1760              	.LVL134:
 1761 0000 80B5     		push	{r7, lr}
 1762              	.LCFI98:
 1763              		.cfi_def_cfa_offset 8
 1764              		.cfi_offset 7, -8
 1765              		.cfi_offset 14, -4
 1766 0002 00AF     		add	r7, sp, #0
 1767              	.LCFI99:
ARM GAS  /var/folders/_2/42wyrlld3p52fkcpt1lv6gxh0000gp/T//ccpbLF3Z.s 			page 32


 1768              		.cfi_def_cfa_register 7
 1769              		.loc 1 726 0
 1770 0004 007C     		ldrb	r0, [r0, #16]	@ zero_extendqisi2
 1771              	.LVL135:
 1772 0006 80BD     		pop	{r7, pc}
 1773              		.cfi_endproc
 1774              	.LFE82:
 1775              		.size	gdispGGetContrast, .-gdispGGetContrast
 1776              		.section	.text.gdispGFlush,"ax",%progbits
 1777              		.align	1
 1778              		.global	gdispGFlush
 1779              		.thumb
 1780              		.thumb_func
 1781              		.type	gdispGFlush, %function
 1782              	gdispGFlush:
 1783              	.LFB83:
 1784              		.loc 1 728 0
 1785              		.cfi_startproc
 1786              		@ args = 0, pretend = 0, frame = 0
 1787              		@ frame_needed = 1, uses_anonymous_args = 0
 1788              		@ link register save eliminated.
 1789              	.LVL136:
 1790 0000 80B4     		push	{r7}
 1791              	.LCFI100:
 1792              		.cfi_def_cfa_offset 4
 1793              		.cfi_offset 7, -4
 1794              		.loc 1 731 0
 1795 0002 4368     		ldr	r3, [r0, #4]
 1796              		.loc 1 728 0
 1797 0004 00AF     		add	r7, sp, #0
 1798              	.LCFI101:
 1799              		.cfi_def_cfa_register 7
 1800              		.loc 1 731 0
 1801 0006 DB6D     		ldr	r3, [r3, #92]
 1802 0008 13B1     		cbz	r3, .L118
 1803              		.loc 1 741 0
 1804 000a BD46     		mov	sp, r7
 1805              	.LCFI102:
 1806              		.cfi_remember_state
 1807              		.cfi_def_cfa_register 13
 1808              		@ sp needed
 1809 000c 80BC     		pop	{r7}
 1810              	.LCFI103:
 1811              		.cfi_restore 7
 1812              		.cfi_def_cfa_offset 0
 1813              		.loc 1 735 0
 1814 000e 1847     		bx	r3	@ indirect register sibling call
 1815              	.LVL137:
 1816              	.L118:
 1817              	.LCFI104:
 1818              		.cfi_restore_state
 1819              		.loc 1 741 0
 1820 0010 BD46     		mov	sp, r7
 1821              	.LCFI105:
 1822              		.cfi_def_cfa_register 13
 1823              		@ sp needed
 1824 0012 80BC     		pop	{r7}
ARM GAS  /var/folders/_2/42wyrlld3p52fkcpt1lv6gxh0000gp/T//ccpbLF3Z.s 			page 33


 1825              	.LCFI106:
 1826              		.cfi_restore 7
 1827              		.cfi_def_cfa_offset 0
 1828 0014 7047     		bx	lr
 1829              		.cfi_endproc
 1830              	.LFE83:
 1831              		.size	gdispGFlush, .-gdispGFlush
 1832              		.section	.text.gdispGDrawPixel,"ax",%progbits
 1833              		.align	1
 1834              		.global	gdispGDrawPixel
 1835              		.thumb
 1836              		.thumb_func
 1837              		.type	gdispGDrawPixel, %function
 1838              	gdispGDrawPixel:
 1839              	.LFB84:
 1840              		.loc 1 990 0
 1841              		.cfi_startproc
 1842              		@ args = 0, pretend = 0, frame = 0
 1843              		@ frame_needed = 1, uses_anonymous_args = 0
 1844              	.LVL138:
 1845 0000 98B5     		push	{r3, r4, r7, lr}
 1846              	.LCFI107:
 1847              		.cfi_def_cfa_offset 16
 1848              		.cfi_offset 3, -16
 1849              		.cfi_offset 4, -12
 1850              		.cfi_offset 7, -8
 1851              		.cfi_offset 14, -4
 1852 0002 0446     		mov	r4, r0
 1853              		.loc 1 994 0
 1854 0004 80F83030 		strb	r3, [r0, #48]
 1855              		.loc 1 990 0
 1856 0008 00AF     		add	r7, sp, #0
 1857              	.LCFI108:
 1858              		.cfi_def_cfa_register 7
 1859              		.loc 1 992 0
 1860 000a 0184     		strh	r1, [r0, #32]	@ movhi
 1861              		.loc 1 993 0
 1862 000c 4284     		strh	r2, [r0, #34]	@ movhi
 1863              		.loc 1 995 0
 1864 000e FFF7FEFF 		bl	drawpixel
 1865              	.LVL139:
 1866              		.loc 1 996 0
 1867 0012 E38B     		ldrh	r3, [r4, #30]
 1868 0014 9B07     		lsls	r3, r3, #30
 1869 0016 07D5     		bpl	.L120
 1870              		.loc 1 996 0 is_stmt 0 discriminator 1
 1871 0018 6368     		ldr	r3, [r4, #4]
 1872 001a 2046     		mov	r0, r4
 1873 001c 9B6A     		ldr	r3, [r3, #40]
 1874 001e 9847     		blx	r3
 1875              	.LVL140:
 1876 0020 E38B     		ldrh	r3, [r4, #30]
 1877 0022 23F00203 		bic	r3, r3, #2
 1878 0026 E383     		strh	r3, [r4, #30]	@ movhi
 1879              	.L120:
 1880 0028 98BD     		pop	{r3, r4, r7, pc}
 1881              		.cfi_endproc
ARM GAS  /var/folders/_2/42wyrlld3p52fkcpt1lv6gxh0000gp/T//ccpbLF3Z.s 			page 34


 1882              	.LFE84:
 1883              		.size	gdispGDrawPixel, .-gdispGDrawPixel
 1884              		.section	.text.gdispGDrawLine,"ax",%progbits
 1885              		.align	1
 1886              		.global	gdispGDrawLine
 1887              		.thumb
 1888              		.thumb_func
 1889              		.type	gdispGDrawLine, %function
 1890              	gdispGDrawLine:
 1891              	.LFB85:
 1892              		.loc 1 1000 0 is_stmt 1
 1893              		.cfi_startproc
 1894              		@ args = 8, pretend = 0, frame = 0
 1895              		@ frame_needed = 1, uses_anonymous_args = 0
 1896              	.LVL141:
 1897 0000 98B5     		push	{r3, r4, r7, lr}
 1898              	.LCFI109:
 1899              		.cfi_def_cfa_offset 16
 1900              		.cfi_offset 3, -16
 1901              		.cfi_offset 4, -12
 1902              		.cfi_offset 7, -8
 1903              		.cfi_offset 14, -4
 1904 0002 0446     		mov	r4, r0
 1905 0004 00AF     		add	r7, sp, #0
 1906              	.LCFI110:
 1907              		.cfi_def_cfa_register 7
 1908              		.loc 1 1004 0
 1909 0006 0385     		strh	r3, [r0, #40]	@ movhi
 1910              		.loc 1 1005 0
 1911 0008 B7F91030 		ldrsh	r3, [r7, #16]
 1912              	.LVL142:
 1913              		.loc 1 1002 0
 1914 000c 0184     		strh	r1, [r0, #32]	@ movhi
 1915              		.loc 1 1005 0
 1916 000e 4385     		strh	r3, [r0, #42]	@ movhi
 1917              		.loc 1 1006 0
 1918 0010 3B7D     		ldrb	r3, [r7, #20]	@ zero_extendqisi2
 1919              		.loc 1 1003 0
 1920 0012 4284     		strh	r2, [r0, #34]	@ movhi
 1921              		.loc 1 1006 0
 1922 0014 80F83030 		strb	r3, [r0, #48]
 1923              		.loc 1 1007 0
 1924 0018 FFF7FEFF 		bl	line_clip
 1925              	.LVL143:
 1926              		.loc 1 1008 0
 1927 001c E38B     		ldrh	r3, [r4, #30]
 1928 001e 9B07     		lsls	r3, r3, #30
 1929 0020 07D5     		bpl	.L125
 1930              	.LVL144:
 1931              	.LBB44:
 1932              	.LBB45:
 1933 0022 6368     		ldr	r3, [r4, #4]
 1934 0024 2046     		mov	r0, r4
 1935 0026 9B6A     		ldr	r3, [r3, #40]
 1936 0028 9847     		blx	r3
 1937              	.LVL145:
 1938 002a E38B     		ldrh	r3, [r4, #30]
ARM GAS  /var/folders/_2/42wyrlld3p52fkcpt1lv6gxh0000gp/T//ccpbLF3Z.s 			page 35


 1939 002c 23F00203 		bic	r3, r3, #2
 1940 0030 E383     		strh	r3, [r4, #30]	@ movhi
 1941              	.LVL146:
 1942              	.L125:
 1943 0032 98BD     		pop	{r3, r4, r7, pc}
 1944              	.LBE45:
 1945              	.LBE44:
 1946              		.cfi_endproc
 1947              	.LFE85:
 1948              		.size	gdispGDrawLine, .-gdispGDrawLine
 1949              		.section	.text.gdispGClear,"ax",%progbits
 1950              		.align	1
 1951              		.global	gdispGClear
 1952              		.thumb
 1953              		.thumb_func
 1954              		.type	gdispGClear, %function
 1955              	gdispGClear:
 1956              	.LFB86:
 1957              		.loc 1 1012 0
 1958              		.cfi_startproc
 1959              		@ args = 0, pretend = 0, frame = 0
 1960              		@ frame_needed = 1, uses_anonymous_args = 0
 1961              	.LVL147:
 1962 0000 B0B5     		push	{r4, r5, r7, lr}
 1963              	.LCFI111:
 1964              		.cfi_def_cfa_offset 16
 1965              		.cfi_offset 4, -16
 1966              		.cfi_offset 5, -12
 1967              		.cfi_offset 7, -8
 1968              		.cfi_offset 14, -4
 1969              		.loc 1 1019 0
 1970 0002 4368     		ldr	r3, [r0, #4]
 1971              		.loc 1 1012 0
 1972 0004 00AF     		add	r7, sp, #0
 1973              	.LCFI112:
 1974              		.cfi_def_cfa_register 7
 1975              		.loc 1 1019 0
 1976 0006 DA6B     		ldr	r2, [r3, #60]
 1977              		.loc 1 1012 0
 1978 0008 0446     		mov	r4, r0
 1979              		.loc 1 1019 0
 1980 000a 1AB1     		cbz	r2, .L131
 1981              		.loc 1 1022 0
 1982 000c 80F83010 		strb	r1, [r0, #48]
 1983              		.loc 1 1023 0
 1984 0010 DB6B     		ldr	r3, [r3, #60]
 1985 0012 28E0     		b	.L144
 1986              	.L131:
 1987              		.loc 1 1033 0
 1988 0014 1D6C     		ldr	r5, [r3, #64]
 1989 0016 4DB1     		cbz	r5, .L132
 1990              		.loc 1 1036 0
 1991 0018 4284     		strh	r2, [r0, #34]	@ movhi
 1992 001a 0284     		strh	r2, [r0, #32]	@ movhi
 1993              		.loc 1 1037 0
 1994 001c 0289     		ldrh	r2, [r0, #8]
 1995              		.loc 1 1039 0
ARM GAS  /var/folders/_2/42wyrlld3p52fkcpt1lv6gxh0000gp/T//ccpbLF3Z.s 			page 36


 1996 001e 80F83010 		strb	r1, [r0, #48]
 1997              		.loc 1 1037 0
 1998 0022 8284     		strh	r2, [r0, #36]	@ movhi
 1999              		.loc 1 1038 0
 2000 0024 4289     		ldrh	r2, [r0, #10]
 2001              		.loc 1 1040 0
 2002 0026 1B6C     		ldr	r3, [r3, #64]
 2003              		.loc 1 1038 0
 2004 0028 C284     		strh	r2, [r0, #38]	@ movhi
 2005 002a 1CE0     		b	.L144
 2006              	.L132:
 2007              		.loc 1 1050 0
 2008 002c DA69     		ldr	r2, [r3, #28]
 2009 002e F2B1     		cbz	r2, .L133
 2010              	.LBB46:
 2011              		.loc 1 1056 0
 2012 0030 B0F90820 		ldrsh	r2, [r0, #8]
 2013              		.loc 1 1055 0
 2014 0034 4584     		strh	r5, [r0, #34]	@ movhi
 2015 0036 0584     		strh	r5, [r0, #32]	@ movhi
 2016              		.loc 1 1057 0
 2017 0038 B0F90A50 		ldrsh	r5, [r0, #10]
 2018              		.loc 1 1058 0
 2019 003c 80F83010 		strb	r1, [r0, #48]
 2020              		.loc 1 1057 0
 2021 0040 C584     		strh	r5, [r0, #38]	@ movhi
 2022              		.loc 1 1061 0
 2023 0042 DB69     		ldr	r3, [r3, #28]
 2024              		.loc 1 1056 0
 2025 0044 8284     		strh	r2, [r0, #36]	@ movhi
 2026              		.loc 1 1059 0
 2027 0046 5543     		muls	r5, r2, r5
 2028              	.LVL148:
 2029              		.loc 1 1061 0
 2030 0048 9847     		blx	r3
 2031              	.LVL149:
 2032              		.loc 1 1064 0
 2033 004a 6368     		ldr	r3, [r4, #4]
 2034 004c 1B6A     		ldr	r3, [r3, #32]
 2035 004e 0BB1     		cbz	r3, .L135
 2036              		.loc 1 1066 0
 2037 0050 2046     		mov	r0, r4
 2038 0052 9847     		blx	r3
 2039              	.LVL150:
 2040              	.L135:
 2041 0054 6368     		ldr	r3, [r4, #4]
 2042              		.loc 1 1068 0 discriminator 1
 2043 0056 25B1     		cbz	r5, .L145
 2044              		.loc 1 1069 0 discriminator 2
 2045 0058 5B6A     		ldr	r3, [r3, #36]
 2046 005a 2046     		mov	r0, r4
 2047 005c 9847     		blx	r3
 2048              	.LVL151:
 2049              		.loc 1 1068 0 discriminator 2
 2050 005e 013D     		subs	r5, r5, #1
 2051              	.LVL152:
 2052 0060 F8E7     		b	.L135
ARM GAS  /var/folders/_2/42wyrlld3p52fkcpt1lv6gxh0000gp/T//ccpbLF3Z.s 			page 37


 2053              	.L145:
 2054              		.loc 1 1070 0
 2055 0062 2046     		mov	r0, r4
 2056 0064 9B6A     		ldr	r3, [r3, #40]
 2057              	.LVL153:
 2058              	.L144:
 2059              	.LBE46:
 2060              		.loc 1 1093 0
 2061 0066 BD46     		mov	sp, r7
 2062              	.LCFI113:
 2063              		.cfi_remember_state
 2064              		.cfi_def_cfa_register 13
 2065              		@ sp needed
 2066 0068 BDE8B040 		pop	{r4, r5, r7, lr}
 2067              	.LCFI114:
 2068              		.cfi_restore 14
 2069              		.cfi_restore 7
 2070              		.cfi_restore 5
 2071              		.cfi_restore 4
 2072              		.cfi_def_cfa_offset 0
 2073              	.LBB47:
 2074              		.loc 1 1070 0
 2075 006c 1847     		bx	r3	@ indirect register sibling call
 2076              	.LVL154:
 2077              	.L133:
 2078              	.LCFI115:
 2079              		.cfi_restore_state
 2080              	.LBE47:
 2081              		.loc 1 1086 0
 2082 006e 1546     		mov	r5, r2
 2083              		.loc 1 1084 0
 2084 0070 80F83010 		strb	r1, [r0, #48]
 2085              		.loc 1 1085 0
 2086 0074 4284     		strh	r2, [r0, #34]	@ movhi
 2087              	.LVL155:
 2088              	.L137:
 2089              		.loc 1 1085 0 is_stmt 0 discriminator 1
 2090 0076 B4F92220 		ldrsh	r2, [r4, #34]
 2091 007a B4F90A30 		ldrsh	r3, [r4, #10]
 2092 007e 9A42     		cmp	r2, r3
 2093 0080 12DA     		bge	.L146
 2094              		.loc 1 1086 0 is_stmt 1
 2095 0082 2584     		strh	r5, [r4, #32]	@ movhi
 2096              	.L138:
 2097              		.loc 1 1086 0 is_stmt 0 discriminator 1
 2098 0084 B4F92020 		ldrsh	r2, [r4, #32]
 2099 0088 B4F90830 		ldrsh	r3, [r4, #8]
 2100 008c 9A42     		cmp	r2, r3
 2101 008e 07DA     		bge	.L147
 2102              		.loc 1 1087 0 is_stmt 1 discriminator 3
 2103 0090 6368     		ldr	r3, [r4, #4]
 2104 0092 2046     		mov	r0, r4
 2105 0094 9B6B     		ldr	r3, [r3, #56]
 2106 0096 9847     		blx	r3
 2107              	.LVL156:
 2108              		.loc 1 1086 0 discriminator 3
 2109 0098 238C     		ldrh	r3, [r4, #32]
ARM GAS  /var/folders/_2/42wyrlld3p52fkcpt1lv6gxh0000gp/T//ccpbLF3Z.s 			page 38


 2110 009a 0133     		adds	r3, r3, #1
 2111 009c 2384     		strh	r3, [r4, #32]	@ movhi
 2112 009e F1E7     		b	.L138
 2113              	.L147:
 2114              		.loc 1 1085 0 discriminator 2
 2115 00a0 638C     		ldrh	r3, [r4, #34]
 2116 00a2 0133     		adds	r3, r3, #1
 2117 00a4 6384     		strh	r3, [r4, #34]	@ movhi
 2118 00a6 E6E7     		b	.L137
 2119              	.L146:
 2120              		.loc 1 1093 0
 2121 00a8 B0BD     		pop	{r4, r5, r7, pc}
 2122              		.cfi_endproc
 2123              	.LFE86:
 2124              		.size	gdispGClear, .-gdispGClear
 2125              		.section	.text._gdispPostInitDriver,"ax",%progbits
 2126              		.align	1
 2127              		.global	_gdispPostInitDriver
 2128              		.thumb
 2129              		.thumb_func
 2130              		.type	_gdispPostInitDriver, %function
 2131              	_gdispPostInitDriver:
 2132              	.LFB72:
 2133              		.loc 1 650 0
 2134              		.cfi_startproc
 2135              		@ args = 0, pretend = 0, frame = 0
 2136              		@ frame_needed = 1, uses_anonymous_args = 0
 2137              	.LVL157:
 2138 0000 98B5     		push	{r3, r4, r7, lr}
 2139              	.LCFI116:
 2140              		.cfi_def_cfa_offset 16
 2141              		.cfi_offset 3, -16
 2142              		.cfi_offset 4, -12
 2143              		.cfi_offset 7, -8
 2144              		.cfi_offset 14, -4
 2145 0002 0446     		mov	r4, r0
 2146 0004 00AF     		add	r7, sp, #0
 2147              	.LCFI117:
 2148              		.cfi_def_cfa_register 7
 2149              		.loc 1 667 0
 2150 0006 0021     		movs	r1, #0
 2151 0008 FFF7FEFF 		bl	gdispGClear
 2152              	.LVL158:
 2153              		.loc 1 677 0
 2154 000c 2046     		mov	r0, r4
 2155 000e FFF7FEFF 		bl	gdispGFlush
 2156              	.LVL159:
 2157              		.loc 1 681 0
 2158 0012 024B     		ldr	r3, .L150
 2159 0014 1A68     		ldr	r2, [r3]
 2160 0016 02B9     		cbnz	r2, .L148
 2161              		.loc 1 682 0
 2162 0018 1C60     		str	r4, [r3]
 2163              	.L148:
 2164 001a 98BD     		pop	{r3, r4, r7, pc}
 2165              	.LVL160:
 2166              	.L151:
ARM GAS  /var/folders/_2/42wyrlld3p52fkcpt1lv6gxh0000gp/T//ccpbLF3Z.s 			page 39


 2167              		.align	2
 2168              	.L150:
 2169 001c 00000000 		.word	.LANCHOR0
 2170              		.cfi_endproc
 2171              	.LFE72:
 2172              		.size	_gdispPostInitDriver, .-_gdispPostInitDriver
 2173              		.section	.text.gdispGFillArea,"ax",%progbits
 2174              		.align	1
 2175              		.global	gdispGFillArea
 2176              		.thumb
 2177              		.thumb_func
 2178              		.type	gdispGFillArea, %function
 2179              	gdispGFillArea:
 2180              	.LFB87:
 2181              		.loc 1 1095 0
 2182              		.cfi_startproc
 2183              		@ args = 8, pretend = 0, frame = 0
 2184              		@ frame_needed = 1, uses_anonymous_args = 0
 2185              		@ link register save eliminated.
 2186              	.LVL161:
 2187 0000 F0B4     		push	{r4, r5, r6, r7}
 2188              	.LCFI118:
 2189              		.cfi_def_cfa_offset 16
 2190              		.cfi_offset 4, -16
 2191              		.cfi_offset 5, -12
 2192              		.cfi_offset 6, -8
 2193              		.cfi_offset 7, -4
 2194 0002 00AF     		add	r7, sp, #0
 2195              	.LCFI119:
 2196              		.cfi_def_cfa_register 7
 2197              		.loc 1 1095 0
 2198 0004 B7F91060 		ldrsh	r6, [r7, #16]
 2199 0008 3D7D     		ldrb	r5, [r7, #20]	@ zero_extendqisi2
 2200              		.loc 1 1097 0
 2201 000a 0184     		strh	r1, [r0, #32]	@ movhi
 2202              		.loc 1 1098 0
 2203 000c 4284     		strh	r2, [r0, #34]	@ movhi
 2204              		.loc 1 1099 0
 2205 000e 8384     		strh	r3, [r0, #36]	@ movhi
 2206              		.loc 1 1100 0
 2207 0010 C684     		strh	r6, [r0, #38]	@ movhi
 2208              		.loc 1 1101 0
 2209 0012 80F83050 		strb	r5, [r0, #48]
 2210              		.loc 1 1108 0
 2211 0016 BD46     		mov	sp, r7
 2212              	.LCFI120:
 2213              		.cfi_def_cfa_register 13
 2214              		@ sp needed
 2215 0018 F0BC     		pop	{r4, r5, r6, r7}
 2216              	.LCFI121:
 2217              		.cfi_restore 7
 2218              		.cfi_restore 6
 2219              		.cfi_restore 5
 2220              		.cfi_restore 4
 2221              		.cfi_def_cfa_offset 0
 2222              		.loc 1 1103 0
 2223 001a FFF7FEBF 		b	fillarea
ARM GAS  /var/folders/_2/42wyrlld3p52fkcpt1lv6gxh0000gp/T//ccpbLF3Z.s 			page 40


 2224              	.LVL162:
 2225              		.cfi_endproc
 2226              	.LFE87:
 2227              		.size	gdispGFillArea, .-gdispGFillArea
 2228              		.section	.text.gdispGBlitArea,"ax",%progbits
 2229              		.align	1
 2230              		.global	gdispGBlitArea
 2231              		.thumb
 2232              		.thumb_func
 2233              		.type	gdispGBlitArea, %function
 2234              	gdispGBlitArea:
 2235              	.LFB88:
 2236              		.loc 1 1110 0
 2237              		.cfi_startproc
 2238              		@ args = 20, pretend = 0, frame = 0
 2239              		@ frame_needed = 1, uses_anonymous_args = 0
 2240              	.LVL163:
 2241 0000 2DE9F04F 		push	{r4, r5, r6, r7, r8, r9, r10, fp, lr}
 2242              	.LCFI122:
 2243              		.cfi_def_cfa_offset 36
 2244              		.cfi_offset 4, -36
 2245              		.cfi_offset 5, -32
 2246              		.cfi_offset 6, -28
 2247              		.cfi_offset 7, -24
 2248              		.cfi_offset 8, -20
 2249              		.cfi_offset 9, -16
 2250              		.cfi_offset 10, -12
 2251              		.cfi_offset 11, -8
 2252              		.cfi_offset 14, -4
 2253 0004 81B0     		sub	sp, sp, #4
 2254              	.LCFI123:
 2255              		.cfi_def_cfa_offset 40
 2256              		.loc 1 1131 0
 2257 0006 D0F80490 		ldr	r9, [r0, #4]
 2258              		.loc 1 1110 0
 2259 000a 9346     		mov	fp, r2
 2260              		.loc 1 1131 0
 2261 000c D9F84420 		ldr	r2, [r9, #68]
 2262              	.LVL164:
 2263              		.loc 1 1110 0
 2264 0010 00AF     		add	r7, sp, #0
 2265              	.LCFI124:
 2266              		.cfi_def_cfa_register 7
 2267              		.loc 1 1110 0
 2268 0012 0446     		mov	r4, r0
 2269 0014 8846     		mov	r8, r1
 2270 0016 B7F928E0 		ldrsh	lr, [r7, #40]
 2271 001a B7F92CA0 		ldrsh	r10, [r7, #44]
 2272 001e B7F930C0 		ldrsh	ip, [r7, #48]
 2273 0022 B7F93460 		ldrsh	r6, [r7, #52]
 2274 0026 BD6B     		ldr	r5, [r7, #56]
 2275              		.loc 1 1131 0
 2276 0028 82B1     		cbz	r2, .L154
 2277              		.loc 1 1244 0
 2278 002a 0437     		adds	r7, r7, #4
 2279              	.LCFI125:
 2280              		.cfi_remember_state
ARM GAS  /var/folders/_2/42wyrlld3p52fkcpt1lv6gxh0000gp/T//ccpbLF3Z.s 			page 41


 2281              		.cfi_def_cfa_offset 36
 2282              		.loc 1 1134 0
 2283 002c 2184     		strh	r1, [r4, #32]	@ movhi
 2284              		.loc 1 1135 0
 2285 002e A0F822B0 		strh	fp, [r0, #34]	@ movhi
 2286              		.loc 1 1136 0
 2287 0032 8384     		strh	r3, [r0, #36]	@ movhi
 2288              		.loc 1 1137 0
 2289 0034 A0F826E0 		strh	lr, [r0, #38]	@ movhi
 2290              		.loc 1 1138 0
 2291 0038 A0F828A0 		strh	r10, [r0, #40]	@ movhi
 2292              		.loc 1 1139 0
 2293 003c A0F82AC0 		strh	ip, [r0, #42]	@ movhi
 2294              		.loc 1 1140 0
 2295 0040 8685     		strh	r6, [r0, #44]	@ movhi
 2296              		.loc 1 1141 0
 2297 0042 4563     		str	r5, [r0, #52]
 2298              		.loc 1 1244 0
 2299 0044 BD46     		mov	sp, r7
 2300              	.LCFI126:
 2301              		.cfi_def_cfa_register 13
 2302              		@ sp needed
 2303 0046 BDE8F04F 		pop	{r4, r5, r6, r7, r8, r9, r10, fp, lr}
 2304              	.LCFI127:
 2305              		.cfi_restore 14
 2306              		.cfi_restore 11
 2307              		.cfi_restore 10
 2308              		.cfi_restore 9
 2309              		.cfi_restore 8
 2310              		.cfi_restore 7
 2311              		.cfi_restore 6
 2312              		.cfi_restore 5
 2313              		.cfi_restore 4
 2314              		.cfi_def_cfa_offset 0
 2315              		.loc 1 1142 0
 2316 004a 1047     		bx	r2	@ indirect register sibling call
 2317              	.LVL165:
 2318              	.L154:
 2319              	.LCFI128:
 2320              		.cfi_restore_state
 2321              		.loc 1 1152 0
 2322 004c D9F81C20 		ldr	r2, [r9, #28]
 2323 0050 06FB0CFC 		mul	ip, r6, ip
 2324 0054 99B2     		uxth	r1, r3
 2325              	.LVL166:
 2326 0056 002A     		cmp	r2, #0
 2327 0058 3DD0     		beq	.L155
 2328              		.loc 1 1156 0
 2329 005a D444     		add	ip, ip, r10
 2330              		.loc 1 1163 0
 2331 005c 8384     		strh	r3, [r0, #36]	@ movhi
 2332              		.loc 1 1161 0
 2333 005e A0F82080 		strh	r8, [r0, #32]	@ movhi
 2334              		.loc 1 1162 0
 2335 0062 A0F822B0 		strh	fp, [r0, #34]	@ movhi
 2336              		.loc 1 1164 0
 2337 0066 A0F826E0 		strh	lr, [r0, #38]	@ movhi
ARM GAS  /var/folders/_2/42wyrlld3p52fkcpt1lv6gxh0000gp/T//ccpbLF3Z.s 			page 42


 2338              		.loc 1 1157 0
 2339 006a 01EB080A 		add	r10, r1, r8
 2340              		.loc 1 1158 0
 2341 006e 0BEB0E09 		add	r9, fp, lr
 2342              		.loc 1 1159 0
 2343 0072 761A     		subs	r6, r6, r1
 2344              		.loc 1 1156 0
 2345 0074 6544     		add	r5, r5, ip
 2346              	.LVL167:
 2347              		.loc 1 1165 0
 2348 0076 9047     		blx	r2
 2349              	.LVL168:
 2350              		.loc 1 1168 0
 2351 0078 6368     		ldr	r3, [r4, #4]
 2352              		.loc 1 1157 0
 2353 007a 0FFA8AFA 		sxth	r10, r10
 2354              	.LVL169:
 2355              		.loc 1 1168 0
 2356 007e 1B6A     		ldr	r3, [r3, #32]
 2357              		.loc 1 1158 0
 2358 0080 0FFA89F9 		sxth	r9, r9
 2359              	.LVL170:
 2360              		.loc 1 1159 0
 2361 0084 36B2     		sxth	r6, r6
 2362              	.LVL171:
 2363              		.loc 1 1168 0
 2364 0086 0BB1     		cbz	r3, .L156
 2365              		.loc 1 1170 0
 2366 0088 2046     		mov	r0, r4
 2367 008a 9847     		blx	r3
 2368              	.LVL172:
 2369              	.L156:
 2370              		.loc 1 1172 0
 2371 008c A4F822B0 		strh	fp, [r4, #34]	@ movhi
 2372              	.L157:
 2373              		.loc 1 1172 0 is_stmt 0 discriminator 1
 2374 0090 B4F92230 		ldrsh	r3, [r4, #34]
 2375 0094 4B45     		cmp	r3, r9
 2376 0096 16DA     		bge	.L184
 2377              		.loc 1 1173 0 is_stmt 1
 2378 0098 A4F82080 		strh	r8, [r4, #32]	@ movhi
 2379              	.LVL173:
 2380              	.L158:
 2381              		.loc 1 1173 0 is_stmt 0 discriminator 1
 2382 009c B4F92030 		ldrsh	r3, [r4, #32]
 2383 00a0 5345     		cmp	r3, r10
 2384 00a2 0BDA     		bge	.L185
 2385              		.loc 1 1174 0 is_stmt 1 discriminator 3
 2386 00a4 15F8013B 		ldrb	r3, [r5], #1	@ zero_extendqisi2
 2387              	.LVL174:
 2388              		.loc 1 1175 0 discriminator 3
 2389 00a8 2046     		mov	r0, r4
 2390              		.loc 1 1174 0 discriminator 3
 2391 00aa 84F83030 		strb	r3, [r4, #48]
 2392              		.loc 1 1175 0 discriminator 3
 2393 00ae 6368     		ldr	r3, [r4, #4]
 2394 00b0 5B6A     		ldr	r3, [r3, #36]
ARM GAS  /var/folders/_2/42wyrlld3p52fkcpt1lv6gxh0000gp/T//ccpbLF3Z.s 			page 43


 2395 00b2 9847     		blx	r3
 2396              	.LVL175:
 2397              		.loc 1 1173 0 discriminator 3
 2398 00b4 238C     		ldrh	r3, [r4, #32]
 2399 00b6 0133     		adds	r3, r3, #1
 2400 00b8 2384     		strh	r3, [r4, #32]	@ movhi
 2401 00ba EFE7     		b	.L158
 2402              	.LVL176:
 2403              	.L185:
 2404              		.loc 1 1172 0 discriminator 2
 2405 00bc 638C     		ldrh	r3, [r4, #34]
 2406 00be 3544     		add	r5, r5, r6
 2407              	.LVL177:
 2408 00c0 0133     		adds	r3, r3, #1
 2409 00c2 6384     		strh	r3, [r4, #34]	@ movhi
 2410 00c4 E4E7     		b	.L157
 2411              	.L184:
 2412              		.loc 1 1178 0
 2413 00c6 2046     		mov	r0, r4
 2414 00c8 6368     		ldr	r3, [r4, #4]
 2415              		.loc 1 1244 0
 2416 00ca 0437     		adds	r7, r7, #4
 2417              	.LCFI129:
 2418              		.cfi_remember_state
 2419              		.cfi_def_cfa_offset 36
 2420              		.loc 1 1178 0
 2421 00cc 9B6A     		ldr	r3, [r3, #40]
 2422              		.loc 1 1244 0
 2423 00ce BD46     		mov	sp, r7
 2424              	.LCFI130:
 2425              		.cfi_def_cfa_register 13
 2426              		@ sp needed
 2427 00d0 BDE8F04F 		pop	{r4, r5, r6, r7, r8, r9, r10, fp, lr}
 2428              	.LCFI131:
 2429              		.cfi_restore 14
 2430              		.cfi_restore 11
 2431              		.cfi_restore 10
 2432              		.cfi_restore 9
 2433              		.cfi_restore 8
 2434              		.cfi_restore 7
 2435              		.cfi_restore 6
 2436              		.cfi_restore 5
 2437              		.cfi_restore 4
 2438              		.cfi_def_cfa_offset 0
 2439              	.LVL178:
 2440              		.loc 1 1178 0
 2441 00d4 1847     		bx	r3	@ indirect register sibling call
 2442              	.LVL179:
 2443              	.L155:
 2444              	.LCFI132:
 2445              		.cfi_restore_state
 2446              		.loc 1 1189 0
 2447 00d6 D9F84030 		ldr	r3, [r9, #64]
 2448              	.LVL180:
 2449              		.loc 1 1193 0
 2450 00da D444     		add	ip, ip, r10
 2451 00dc 0BEB0E09 		add	r9, fp, lr
ARM GAS  /var/folders/_2/42wyrlld3p52fkcpt1lv6gxh0000gp/T//ccpbLF3Z.s 			page 44


 2452              		.loc 1 1194 0
 2453 00e0 01EB080A 		add	r10, r1, r8
 2454              		.loc 1 1196 0
 2455 00e4 761A     		subs	r6, r6, r1
 2456              		.loc 1 1193 0
 2457 00e6 6544     		add	r5, r5, ip
 2458              	.LVL181:
 2459              		.loc 1 1194 0
 2460 00e8 0FFA8AFA 		sxth	r10, r10
 2461              	.LVL182:
 2462              		.loc 1 1195 0
 2463 00ec 0FFA89F9 		sxth	r9, r9
 2464              	.LVL183:
 2465              		.loc 1 1196 0
 2466 00f0 36B2     		sxth	r6, r6
 2467              		.loc 1 1189 0
 2468 00f2 002B     		cmp	r3, #0
 2469 00f4 36D0     		beq	.L161
 2470              	.LVL184:
 2471              		.loc 1 1198 0
 2472 00f6 0123     		movs	r3, #1
 2473              		.loc 1 1199 0
 2474 00f8 A0F822B0 		strh	fp, [r0, #34]	@ movhi
 2475              		.loc 1 1201 0
 2476 00fc 9B46     		mov	fp, r3
 2477              		.loc 1 1198 0
 2478 00fe C384     		strh	r3, [r0, #38]	@ movhi
 2479              	.LVL185:
 2480              	.L162:
 2481              		.loc 1 1199 0 discriminator 1
 2482 0100 B4F92230 		ldrsh	r3, [r4, #34]
 2483 0104 4B45     		cmp	r3, r9
 2484 0106 4ADA     		bge	.L153
 2485              		.loc 1 1200 0
 2486 0108 A4F82080 		strh	r8, [r4, #32]	@ movhi
 2487              	.L163:
 2488              		.loc 1 1200 0 is_stmt 0 discriminator 1
 2489 010c B4F92010 		ldrsh	r1, [r4, #32]
 2490 0110 8A45     		cmp	r10, r1
 2491 0112 22DD     		ble	.L186
 2492              		.loc 1 1202 0 is_stmt 1
 2493 0114 2A46     		mov	r2, r5
 2494              		.loc 1 1201 0
 2495 0116 A4F824B0 		strh	fp, [r4, #36]	@ movhi
 2496              	.LVL186:
 2497              		.loc 1 1202 0
 2498 011a 12F8010B 		ldrb	r0, [r2], #1	@ zero_extendqisi2
 2499              	.LVL187:
 2500 011e 84F83000 		strb	r0, [r4, #48]
 2501              	.L164:
 2502              		.loc 1 1203 0
 2503 0122 B4F92430 		ldrsh	r3, [r4, #36]
 2504 0126 1546     		mov	r5, r2
 2505              	.LVL188:
 2506 0128 01EB030E 		add	lr, r1, r3
 2507 012c D645     		cmp	lr, r10
 2508 012e 04DB     		blt	.L165
ARM GAS  /var/folders/_2/42wyrlld3p52fkcpt1lv6gxh0000gp/T//ccpbLF3Z.s 			page 45


 2509              	.L169:
 2510              		.loc 1 1207 0
 2511 0130 012B     		cmp	r3, #1
 2512 0132 6368     		ldr	r3, [r4, #4]
 2513 0134 09D1     		bne	.L182
 2514              		.loc 1 1208 0
 2515 0136 9B6B     		ldr	r3, [r3, #56]
 2516 0138 08E0     		b	.L183
 2517              	.LVL189:
 2518              	.L165:
 2519              		.loc 1 1203 0 discriminator 1
 2520 013a 95F800E0 		ldrb	lr, [r5]	@ zero_extendqisi2
 2521 013e 0132     		adds	r2, r2, #1
 2522              	.LVL190:
 2523 0140 8645     		cmp	lr, r0
 2524 0142 F5D1     		bne	.L169
 2525              		.loc 1 1204 0
 2526 0144 0133     		adds	r3, r3, #1
 2527 0146 A384     		strh	r3, [r4, #36]	@ movhi
 2528              	.LVL191:
 2529 0148 EBE7     		b	.L164
 2530              	.LVL192:
 2531              	.L182:
 2532              		.loc 1 1210 0
 2533 014a 1B6C     		ldr	r3, [r3, #64]
 2534              	.L183:
 2535 014c 2046     		mov	r0, r4
 2536 014e 9847     		blx	r3
 2537              	.LVL193:
 2538              		.loc 1 1200 0
 2539 0150 228C     		ldrh	r2, [r4, #32]
 2540 0152 A38C     		ldrh	r3, [r4, #36]
 2541 0154 1344     		add	r3, r3, r2
 2542 0156 2384     		strh	r3, [r4, #32]	@ movhi
 2543 0158 D8E7     		b	.L163
 2544              	.L186:
 2545              		.loc 1 1199 0 discriminator 2
 2546 015a 638C     		ldrh	r3, [r4, #34]
 2547 015c 3544     		add	r5, r5, r6
 2548              	.LVL194:
 2549 015e 0133     		adds	r3, r3, #1
 2550 0160 6384     		strh	r3, [r4, #34]	@ movhi
 2551 0162 CDE7     		b	.L162
 2552              	.LVL195:
 2553              	.L161:
 2554              		.loc 1 1233 0
 2555 0164 A0F822B0 		strh	fp, [r0, #34]	@ movhi
 2556              	.LVL196:
 2557              	.L174:
 2558              		.loc 1 1233 0 is_stmt 0 discriminator 1
 2559 0168 B4F92230 		ldrsh	r3, [r4, #34]
 2560 016c 4B45     		cmp	r3, r9
 2561 016e 16DA     		bge	.L153
 2562              		.loc 1 1234 0 is_stmt 1
 2563 0170 A4F82080 		strh	r8, [r4, #32]	@ movhi
 2564              	.LVL197:
 2565              	.L175:
ARM GAS  /var/folders/_2/42wyrlld3p52fkcpt1lv6gxh0000gp/T//ccpbLF3Z.s 			page 46


 2566              		.loc 1 1234 0 is_stmt 0 discriminator 1
 2567 0174 B4F92030 		ldrsh	r3, [r4, #32]
 2568 0178 5345     		cmp	r3, r10
 2569 017a 0BDA     		bge	.L187
 2570              		.loc 1 1235 0 is_stmt 1 discriminator 3
 2571 017c 15F8013B 		ldrb	r3, [r5], #1	@ zero_extendqisi2
 2572              	.LVL198:
 2573              		.loc 1 1236 0 discriminator 3
 2574 0180 2046     		mov	r0, r4
 2575              		.loc 1 1235 0 discriminator 3
 2576 0182 84F83030 		strb	r3, [r4, #48]
 2577              		.loc 1 1236 0 discriminator 3
 2578 0186 6368     		ldr	r3, [r4, #4]
 2579 0188 9B6B     		ldr	r3, [r3, #56]
 2580 018a 9847     		blx	r3
 2581              	.LVL199:
 2582              		.loc 1 1234 0 discriminator 3
 2583 018c 238C     		ldrh	r3, [r4, #32]
 2584 018e 0133     		adds	r3, r3, #1
 2585 0190 2384     		strh	r3, [r4, #32]	@ movhi
 2586 0192 EFE7     		b	.L175
 2587              	.LVL200:
 2588              	.L187:
 2589              		.loc 1 1233 0 discriminator 2
 2590 0194 638C     		ldrh	r3, [r4, #34]
 2591 0196 3544     		add	r5, r5, r6
 2592              	.LVL201:
 2593 0198 0133     		adds	r3, r3, #1
 2594 019a 6384     		strh	r3, [r4, #34]	@ movhi
 2595 019c E4E7     		b	.L174
 2596              	.L153:
 2597              		.loc 1 1244 0
 2598 019e 0437     		adds	r7, r7, #4
 2599              	.LCFI133:
 2600              		.cfi_def_cfa_offset 36
 2601 01a0 BD46     		mov	sp, r7
 2602              	.LCFI134:
 2603              		.cfi_def_cfa_register 13
 2604              		@ sp needed
 2605 01a2 BDE8F08F 		pop	{r4, r5, r6, r7, r8, r9, r10, fp, pc}
 2606              		.cfi_endproc
 2607              	.LFE88:
 2608              		.size	gdispGBlitArea, .-gdispGBlitArea
 2609              		.section	.text.gdispGDrawCircle,"ax",%progbits
 2610              		.align	1
 2611              		.global	gdispGDrawCircle
 2612              		.thumb
 2613              		.thumb_func
 2614              		.type	gdispGDrawCircle, %function
 2615              	gdispGDrawCircle:
 2616              	.LFB89:
 2617              		.loc 1 1284 0
 2618              		.cfi_startproc
 2619              		@ args = 4, pretend = 0, frame = 24
 2620              		@ frame_needed = 1, uses_anonymous_args = 0
 2621              	.LVL202:
 2622 0000 2DE9F04F 		push	{r4, r5, r6, r7, r8, r9, r10, fp, lr}
ARM GAS  /var/folders/_2/42wyrlld3p52fkcpt1lv6gxh0000gp/T//ccpbLF3Z.s 			page 47


 2623              	.LCFI135:
 2624              		.cfi_def_cfa_offset 36
 2625              		.cfi_offset 4, -36
 2626              		.cfi_offset 5, -32
 2627              		.cfi_offset 6, -28
 2628              		.cfi_offset 7, -24
 2629              		.cfi_offset 8, -20
 2630              		.cfi_offset 9, -16
 2631              		.cfi_offset 10, -12
 2632              		.cfi_offset 11, -8
 2633              		.cfi_offset 14, -4
 2634 0004 87B0     		sub	sp, sp, #28
 2635              	.LCFI136:
 2636              		.cfi_def_cfa_offset 64
 2637 0006 9346     		mov	fp, r2
 2638 0008 0446     		mov	r4, r0
 2639 000a 0D46     		mov	r5, r1
 2640 000c 00AF     		add	r7, sp, #0
 2641              	.LCFI137:
 2642              		.cfi_def_cfa_register 7
 2643              		.loc 1 1293 0
 2644 000e 97F84020 		ldrb	r2, [r7, #64]	@ zero_extendqisi2
 2645              	.LVL203:
 2646              		.loc 1 1292 0
 2647 0012 1FFA83FA 		uxth	r10, r3
 2648              		.loc 1 1297 0
 2649 0016 1FFA8BF9 		uxth	r9, fp
 2650              		.loc 1 1293 0
 2651 001a 80F83020 		strb	r2, [r0, #48]
 2652              		.loc 1 1284 0
 2653 001e 1E46     		mov	r6, r3
 2654              		.loc 1 1297 0
 2655 0020 0AEB0902 		add	r2, r10, r9
 2656              		.loc 1 1292 0
 2657 0024 CAF10403 		rsb	r3, r10, #4
 2658              	.LVL204:
 2659 0028 1BB2     		sxth	r3, r3
 2660              		.loc 1 1297 0
 2661 002a 2184     		strh	r1, [r4, #32]	@ movhi
 2662 002c 4284     		strh	r2, [r0, #34]	@ movhi
 2663              		.loc 1 1292 0
 2664 002e 7B61     		str	r3, [r7, #20]
 2665              	.LVL205:
 2666              		.loc 1 1297 0
 2667 0030 FFF7FEFF 		bl	drawpixel
 2668              	.LVL206:
 2669              		.loc 1 1298 0
 2670 0034 CAEB0902 		rsb	r2, r10, r9
 2671 0038 2584     		strh	r5, [r4, #32]	@ movhi
 2672 003a 6284     		strh	r2, [r4, #34]	@ movhi
 2673 003c 2046     		mov	r0, r4
 2674              		.loc 1 1299 0
 2675 003e ADB2     		uxth	r5, r5
 2676              		.loc 1 1298 0
 2677 0040 FFF7FEFF 		bl	drawpixel
 2678              	.LVL207:
 2679              		.loc 1 1299 0
ARM GAS  /var/folders/_2/42wyrlld3p52fkcpt1lv6gxh0000gp/T//ccpbLF3Z.s 			page 48


 2680 0044 0AEB0502 		add	r2, r10, r5
 2681 0048 2284     		strh	r2, [r4, #32]	@ movhi
 2682 004a 2046     		mov	r0, r4
 2683 004c A4F822B0 		strh	fp, [r4, #34]	@ movhi
 2684              		.loc 1 1300 0
 2685 0050 CAEB050A 		rsb	r10, r10, r5
 2686              	.LVL208:
 2687              		.loc 1 1299 0
 2688 0054 FFF7FEFF 		bl	drawpixel
 2689              	.LVL209:
 2690              		.loc 1 1300 0
 2691 0058 A4F820A0 		strh	r10, [r4, #32]	@ movhi
 2692 005c A4F822B0 		strh	fp, [r4, #34]	@ movhi
 2693 0060 2046     		mov	r0, r4
 2694 0062 FFF7FEFF 		bl	drawpixel
 2695              	.LVL210:
 2696              		.loc 1 1290 0
 2697 0066 7B69     		ldr	r3, [r7, #20]
 2698 0068 4FF00108 		mov	r8, #1
 2699              	.LVL211:
 2700              	.L191:
 2701              		.loc 1 1302 0
 2702 006c 1FFA88FA 		uxth	r10, r8
 2703 0070 1FFA86FB 		uxth	fp, r6
 2704 0074 05EB0A02 		add	r2, r5, r10
 2705 0078 09EB0B01 		add	r1, r9, fp
 2706 007c 09B2     		sxth	r1, r1
 2707 007e 12B2     		sxth	r2, r2
 2708 0080 6184     		strh	r1, [r4, #34]	@ movhi
 2709 0082 2284     		strh	r2, [r4, #32]	@ movhi
 2710 0084 2046     		mov	r0, r4
 2711 0086 7960     		str	r1, [r7, #4]
 2712 0088 3B60     		str	r3, [r7]
 2713              	.LVL212:
 2714 008a 7A61     		str	r2, [r7, #20]
 2715 008c FFF7FEFF 		bl	drawpixel
 2716              	.LVL213:
 2717              		.loc 1 1303 0
 2718 0090 7A69     		ldr	r2, [r7, #20]
 2719 0092 2046     		mov	r0, r4
 2720 0094 2284     		strh	r2, [r4, #32]	@ movhi
 2721 0096 CBEB0902 		rsb	r2, fp, r9
 2722 009a 13B2     		sxth	r3, r2
 2723 009c 7B61     		str	r3, [r7, #20]
 2724 009e BB8A     		ldrh	r3, [r7, #20]
 2725 00a0 6384     		strh	r3, [r4, #34]	@ movhi
 2726 00a2 FFF7FEFF 		bl	drawpixel
 2727              	.LVL214:
 2728              		.loc 1 1304 0
 2729 00a6 05EB0B02 		add	r2, r5, fp
 2730 00aa 13B2     		sxth	r3, r2
 2731 00ac 3B61     		str	r3, [r7, #16]
 2732 00ae 3B8A     		ldrh	r3, [r7, #16]
 2733 00b0 09EB0A02 		add	r2, r9, r10
 2734 00b4 12B2     		sxth	r2, r2
 2735 00b6 2384     		strh	r3, [r4, #32]	@ movhi
 2736 00b8 6284     		strh	r2, [r4, #34]	@ movhi
ARM GAS  /var/folders/_2/42wyrlld3p52fkcpt1lv6gxh0000gp/T//ccpbLF3Z.s 			page 49


 2737 00ba 2046     		mov	r0, r4
 2738 00bc BA60     		str	r2, [r7, #8]
 2739 00be FFF7FEFF 		bl	drawpixel
 2740              	.LVL215:
 2741              		.loc 1 1305 0
 2742 00c2 CBEB0500 		rsb	r0, fp, r5
 2743 00c6 03B2     		sxth	r3, r0
 2744 00c8 FB60     		str	r3, [r7, #12]
 2745 00ca BB89     		ldrh	r3, [r7, #12]
 2746 00cc BA68     		ldr	r2, [r7, #8]
 2747 00ce 2384     		strh	r3, [r4, #32]	@ movhi
 2748 00d0 6284     		strh	r2, [r4, #34]	@ movhi
 2749 00d2 2046     		mov	r0, r4
 2750 00d4 FFF7FEFF 		bl	drawpixel
 2751              	.LVL216:
 2752              		.loc 1 1306 0
 2753 00d8 7968     		ldr	r1, [r7, #4]
 2754 00da CAEB0502 		rsb	r2, r10, r5
 2755 00de 12B2     		sxth	r2, r2
 2756 00e0 6184     		strh	r1, [r4, #34]	@ movhi
 2757 00e2 2284     		strh	r2, [r4, #32]	@ movhi
 2758 00e4 2046     		mov	r0, r4
 2759 00e6 BA60     		str	r2, [r7, #8]
 2760 00e8 FFF7FEFF 		bl	drawpixel
 2761              	.LVL217:
 2762              		.loc 1 1307 0
 2763 00ec BA68     		ldr	r2, [r7, #8]
 2764 00ee BB8A     		ldrh	r3, [r7, #20]
 2765 00f0 2284     		strh	r2, [r4, #32]	@ movhi
 2766 00f2 6384     		strh	r3, [r4, #34]	@ movhi
 2767 00f4 2046     		mov	r0, r4
 2768 00f6 FFF7FEFF 		bl	drawpixel
 2769              	.LVL218:
 2770              		.loc 1 1308 0
 2771 00fa 3B8A     		ldrh	r3, [r7, #16]
 2772 00fc CAEB0902 		rsb	r2, r10, r9
 2773 0100 12B2     		sxth	r2, r2
 2774 0102 2384     		strh	r3, [r4, #32]	@ movhi
 2775 0104 6284     		strh	r2, [r4, #34]	@ movhi
 2776 0106 2046     		mov	r0, r4
 2777 0108 7A61     		str	r2, [r7, #20]
 2778 010a FFF7FEFF 		bl	drawpixel
 2779              	.LVL219:
 2780              		.loc 1 1309 0
 2781 010e BB89     		ldrh	r3, [r7, #12]
 2782 0110 7A69     		ldr	r2, [r7, #20]
 2783 0112 2384     		strh	r3, [r4, #32]	@ movhi
 2784 0114 6284     		strh	r2, [r4, #34]	@ movhi
 2785 0116 2046     		mov	r0, r4
 2786 0118 FFF7FEFF 		bl	drawpixel
 2787              	.LVL220:
 2788              		.loc 1 1310 0
 2789 011c 3B68     		ldr	r3, [r7]
 2790 011e 0AF1010A 		add	r10, r10, #1
 2791 0122 002B     		cmp	r3, #0
 2792 0124 04DA     		bge	.L189
 2793              	.LVL221:
ARM GAS  /var/folders/_2/42wyrlld3p52fkcpt1lv6gxh0000gp/T//ccpbLF3Z.s 			page 50


 2794              		.loc 1 1311 0
 2795 0126 03EB4803 		add	r3, r3, r8, lsl #1
 2796 012a 0333     		adds	r3, r3, #3
 2797 012c 1BB2     		sxth	r3, r3
 2798              	.LVL222:
 2799 012e 09E0     		b	.L197
 2800              	.LVL223:
 2801              	.L189:
 2802              		.loc 1 1313 0
 2803 0130 C6EB0806 		rsb	r6, r6, r8
 2804              	.LVL224:
 2805 0134 03EB4603 		add	r3, r3, r6, lsl #1
 2806 0138 0BF1FF3B 		add	fp, fp, #-1
 2807              	.LVL225:
 2808 013c 0533     		adds	r3, r3, #5
 2809 013e 1BB2     		sxth	r3, r3
 2810              	.LVL226:
 2811 0140 0FFA8BF6 		sxth	r6, fp
 2812              	.LVL227:
 2813              	.L197:
 2814 0144 0FFA8AF8 		sxth	r8, r10
 2815              	.LVL228:
 2816              		.loc 1 1314 0
 2817 0148 B045     		cmp	r8, r6
 2818 014a 8FDB     		blt	.L191
 2819              		.loc 1 1315 0
 2820 014c 1FFA88F8 		uxth	r8, r8
 2821 0150 B6B2     		uxth	r6, r6
 2822 0152 05EB080B 		add	fp, r5, r8
 2823 0156 09EB060A 		add	r10, r9, r6
 2824 015a 0FFA8BFB 		sxth	fp, fp
 2825 015e 0FFA8AFA 		sxth	r10, r10
 2826              		.loc 1 1316 0
 2827 0162 C6EB0909 		rsb	r9, r6, r9
 2828              		.loc 1 1315 0
 2829 0166 2046     		mov	r0, r4
 2830              		.loc 1 1316 0
 2831 0168 0FFA89F9 		sxth	r9, r9
 2832              		.loc 1 1315 0
 2833 016c A4F820B0 		strh	fp, [r4, #32]	@ movhi
 2834 0170 A4F822A0 		strh	r10, [r4, #34]	@ movhi
 2835              		.loc 1 1317 0
 2836 0174 C8EB0505 		rsb	r5, r8, r5
 2837              		.loc 1 1315 0
 2838 0178 FFF7FEFF 		bl	drawpixel
 2839              	.LVL229:
 2840              		.loc 1 1317 0
 2841 017c 2DB2     		sxth	r5, r5
 2842              		.loc 1 1316 0
 2843 017e 2046     		mov	r0, r4
 2844 0180 A4F820B0 		strh	fp, [r4, #32]	@ movhi
 2845 0184 A4F82290 		strh	r9, [r4, #34]	@ movhi
 2846 0188 FFF7FEFF 		bl	drawpixel
 2847              	.LVL230:
 2848              		.loc 1 1317 0
 2849 018c 2046     		mov	r0, r4
 2850 018e 2584     		strh	r5, [r4, #32]	@ movhi
ARM GAS  /var/folders/_2/42wyrlld3p52fkcpt1lv6gxh0000gp/T//ccpbLF3Z.s 			page 51


 2851 0190 A4F822A0 		strh	r10, [r4, #34]	@ movhi
 2852 0194 FFF7FEFF 		bl	drawpixel
 2853              	.LVL231:
 2854              		.loc 1 1318 0
 2855 0198 2584     		strh	r5, [r4, #32]	@ movhi
 2856 019a A4F82290 		strh	r9, [r4, #34]	@ movhi
 2857 019e 2046     		mov	r0, r4
 2858 01a0 FFF7FEFF 		bl	drawpixel
 2859              	.LVL232:
 2860              		.loc 1 1320 0
 2861 01a4 E38B     		ldrh	r3, [r4, #30]
 2862 01a6 9B07     		lsls	r3, r3, #30
 2863 01a8 07D5     		bpl	.L188
 2864              		.loc 1 1320 0 is_stmt 0 discriminator 1
 2865 01aa 6368     		ldr	r3, [r4, #4]
 2866 01ac 2046     		mov	r0, r4
 2867 01ae 9B6A     		ldr	r3, [r3, #40]
 2868 01b0 9847     		blx	r3
 2869              	.LVL233:
 2870 01b2 E38B     		ldrh	r3, [r4, #30]
 2871 01b4 23F00203 		bic	r3, r3, #2
 2872 01b8 E383     		strh	r3, [r4, #30]	@ movhi
 2873              	.L188:
 2874              		.loc 1 1322 0 is_stmt 1
 2875 01ba 1C37     		adds	r7, r7, #28
 2876              	.LCFI138:
 2877              		.cfi_def_cfa_offset 36
 2878 01bc BD46     		mov	sp, r7
 2879              	.LCFI139:
 2880              		.cfi_def_cfa_register 13
 2881              		@ sp needed
 2882 01be BDE8F08F 		pop	{r4, r5, r6, r7, r8, r9, r10, fp, pc}
 2883              		.cfi_endproc
 2884              	.LFE89:
 2885              		.size	gdispGDrawCircle, .-gdispGDrawCircle
 2886              		.section	.text.gdispGFillCircle,"ax",%progbits
 2887              		.align	1
 2888              		.global	gdispGFillCircle
 2889              		.thumb
 2890              		.thumb_func
 2891              		.type	gdispGFillCircle, %function
 2892              	gdispGFillCircle:
 2893              	.LFB90:
 2894              		.loc 1 1326 0
 2895              		.cfi_startproc
 2896              		@ args = 4, pretend = 0, frame = 16
 2897              		@ frame_needed = 1, uses_anonymous_args = 0
 2898              	.LVL234:
 2899 0000 2DE9F04F 		push	{r4, r5, r6, r7, r8, r9, r10, fp, lr}
 2900              	.LCFI140:
 2901              		.cfi_def_cfa_offset 36
 2902              		.cfi_offset 4, -36
 2903              		.cfi_offset 5, -32
 2904              		.cfi_offset 6, -28
 2905              		.cfi_offset 7, -24
 2906              		.cfi_offset 8, -20
 2907              		.cfi_offset 9, -16
ARM GAS  /var/folders/_2/42wyrlld3p52fkcpt1lv6gxh0000gp/T//ccpbLF3Z.s 			page 52


 2908              		.cfi_offset 10, -12
 2909              		.cfi_offset 11, -8
 2910              		.cfi_offset 14, -4
 2911 0004 85B0     		sub	sp, sp, #20
 2912              	.LCFI141:
 2913              		.cfi_def_cfa_offset 56
 2914 0006 0446     		mov	r4, r0
 2915 0008 9146     		mov	r9, r2
 2916 000a 8846     		mov	r8, r1
 2917 000c 00AF     		add	r7, sp, #0
 2918              	.LCFI142:
 2919              		.cfi_def_cfa_register 7
 2920              		.loc 1 1334 0
 2921 000e 1FFA83FA 		uxth	r10, r3
 2922              		.loc 1 1326 0
 2923 0012 1D46     		mov	r5, r3
 2924              		.loc 1 1335 0
 2925 0014 97F83830 		ldrb	r3, [r7, #56]	@ zero_extendqisi2
 2926              	.LVL235:
 2927              		.loc 1 1339 0
 2928 0018 8EB2     		uxth	r6, r1
 2929              		.loc 1 1335 0
 2930 001a 80F83030 		strb	r3, [r0, #48]
 2931              		.loc 1 1339 0
 2932 001e CAEB0603 		rsb	r3, r10, r6
 2933 0022 6284     		strh	r2, [r4, #34]	@ movhi
 2934 0024 0384     		strh	r3, [r0, #32]	@ movhi
 2935 0026 0AEB0603 		add	r3, r10, r6
 2936 002a 0385     		strh	r3, [r0, #40]	@ movhi
 2937              		.loc 1 1340 0
 2938 002c 1FFA89F9 		uxth	r9, r9
 2939              		.loc 1 1339 0
 2940 0030 FFF7FEFF 		bl	hline_clip
 2941              	.LVL236:
 2942              		.loc 1 1340 0
 2943 0034 0AEB0903 		add	r3, r10, r9
 2944              		.loc 1 1334 0
 2945 0038 CAF1040B 		rsb	fp, r10, #4
 2946              		.loc 1 1340 0
 2947 003c 6384     		strh	r3, [r4, #34]	@ movhi
 2948 003e A4F82080 		strh	r8, [r4, #32]	@ movhi
 2949 0042 2046     		mov	r0, r4
 2950              		.loc 1 1341 0
 2951 0044 CAEB090A 		rsb	r10, r10, r9
 2952              	.LVL237:
 2953              		.loc 1 1340 0
 2954 0048 FFF7FEFF 		bl	drawpixel
 2955              	.LVL238:
 2956              		.loc 1 1341 0
 2957 004c A4F82080 		strh	r8, [r4, #32]	@ movhi
 2958 0050 A4F822A0 		strh	r10, [r4, #34]	@ movhi
 2959 0054 2046     		mov	r0, r4
 2960 0056 FFF7FEFF 		bl	drawpixel
 2961              	.LVL239:
 2962              		.loc 1 1334 0
 2963 005a 0FFA8BFB 		sxth	fp, fp
 2964              	.LVL240:
ARM GAS  /var/folders/_2/42wyrlld3p52fkcpt1lv6gxh0000gp/T//ccpbLF3Z.s 			page 53


 2965              		.loc 1 1332 0
 2966 005e 4FF00108 		mov	r8, #1
 2967              	.LVL241:
 2968              	.L201:
 2969              		.loc 1 1343 0
 2970 0062 1FFA88FA 		uxth	r10, r8
 2971 0066 09EB0A03 		add	r3, r9, r10
 2972 006a 6384     		strh	r3, [r4, #34]	@ movhi
 2973 006c ABB2     		uxth	r3, r5
 2974 006e F11A     		subs	r1, r6, r3
 2975 0070 F218     		adds	r2, r6, r3
 2976 0072 09B2     		sxth	r1, r1
 2977 0074 12B2     		sxth	r2, r2
 2978 0076 2184     		strh	r1, [r4, #32]	@ movhi
 2979 0078 2285     		strh	r2, [r4, #40]	@ movhi
 2980 007a 2046     		mov	r0, r4
 2981 007c BB60     		str	r3, [r7, #8]
 2982 007e 7960     		str	r1, [r7, #4]
 2983 0080 FA60     		str	r2, [r7, #12]
 2984 0082 FFF7FEFF 		bl	hline_clip
 2985              	.LVL242:
 2986              		.loc 1 1344 0
 2987 0086 7968     		ldr	r1, [r7, #4]
 2988 0088 FA68     		ldr	r2, [r7, #12]
 2989 008a CAEB0900 		rsb	r0, r10, r9
 2990 008e 6084     		strh	r0, [r4, #34]	@ movhi
 2991 0090 2184     		strh	r1, [r4, #32]	@ movhi
 2992 0092 2285     		strh	r2, [r4, #40]	@ movhi
 2993 0094 2046     		mov	r0, r4
 2994 0096 FFF7FEFF 		bl	hline_clip
 2995              	.LVL243:
 2996              		.loc 1 1345 0
 2997 009a BBF1000F 		cmp	fp, #0
 2998 009e 0AF10101 		add	r1, r10, #1
 2999 00a2 BB68     		ldr	r3, [r7, #8]
 3000 00a4 06DA     		bge	.L199
 3001              	.LVL244:
 3002              		.loc 1 1346 0
 3003 00a6 0BEB480B 		add	fp, fp, r8, lsl #1
 3004              	.LVL245:
 3005 00aa 0BF1030B 		add	fp, fp, #3
 3006 00ae 0FFA8BFB 		sxth	fp, fp
 3007              	.LVL246:
 3008 00b2 28E0     		b	.L207
 3009              	.LVL247:
 3010              	.L199:
 3011              		.loc 1 1348 0
 3012 00b4 09EB0302 		add	r2, r9, r3
 3013 00b8 6284     		strh	r2, [r4, #34]	@ movhi
 3014 00ba CAEB0602 		rsb	r2, r10, r6
 3015 00be B244     		add	r10, r10, r6
 3016 00c0 12B2     		sxth	r2, r2
 3017 00c2 0FFA8AFA 		sxth	r10, r10
 3018 00c6 2284     		strh	r2, [r4, #32]	@ movhi
 3019 00c8 2046     		mov	r0, r4
 3020 00ca A4F828A0 		strh	r10, [r4, #40]	@ movhi
 3021 00ce 7960     		str	r1, [r7, #4]
ARM GAS  /var/folders/_2/42wyrlld3p52fkcpt1lv6gxh0000gp/T//ccpbLF3Z.s 			page 54


 3022 00d0 FB60     		str	r3, [r7, #12]
 3023 00d2 BA60     		str	r2, [r7, #8]
 3024 00d4 FFF7FEFF 		bl	hline_clip
 3025              	.LVL248:
 3026              		.loc 1 1349 0
 3027 00d8 FB68     		ldr	r3, [r7, #12]
 3028 00da BA68     		ldr	r2, [r7, #8]
 3029 00dc C3EB0900 		rsb	r0, r3, r9
 3030 00e0 6084     		strh	r0, [r4, #34]	@ movhi
 3031 00e2 2284     		strh	r2, [r4, #32]	@ movhi
 3032 00e4 A4F828A0 		strh	r10, [r4, #40]	@ movhi
 3033 00e8 2046     		mov	r0, r4
 3034 00ea FFF7FEFF 		bl	hline_clip
 3035              	.LVL249:
 3036              		.loc 1 1350 0
 3037 00ee C5EB0805 		rsb	r5, r5, r8
 3038              	.LVL250:
 3039 00f2 FB68     		ldr	r3, [r7, #12]
 3040 00f4 0BEB450B 		add	fp, fp, r5, lsl #1
 3041              	.LVL251:
 3042 00f8 013B     		subs	r3, r3, #1
 3043              	.LVL252:
 3044 00fa 0BF1050B 		add	fp, fp, #5
 3045 00fe 7968     		ldr	r1, [r7, #4]
 3046 0100 0FFA8BFB 		sxth	fp, fp
 3047              	.LVL253:
 3048 0104 1DB2     		sxth	r5, r3
 3049              	.LVL254:
 3050              	.L207:
 3051 0106 0FFA81F8 		sxth	r8, r1
 3052              	.LVL255:
 3053              		.loc 1 1352 0
 3054 010a A845     		cmp	r8, r5
 3055 010c A9DB     		blt	.L201
 3056              		.loc 1 1353 0
 3057 010e ADB2     		uxth	r5, r5
 3058 0110 C5EB060A 		rsb	r10, r5, r6
 3059 0114 1FFA88F8 		uxth	r8, r8
 3060 0118 3544     		add	r5, r5, r6
 3061              	.LVL256:
 3062 011a 09EB0803 		add	r3, r9, r8
 3063 011e 0FFA8AFA 		sxth	r10, r10
 3064 0122 2EB2     		sxth	r6, r5
 3065              	.LVL257:
 3066 0124 6384     		strh	r3, [r4, #34]	@ movhi
 3067 0126 2046     		mov	r0, r4
 3068 0128 A4F820A0 		strh	r10, [r4, #32]	@ movhi
 3069 012c 2685     		strh	r6, [r4, #40]	@ movhi
 3070              		.loc 1 1354 0
 3071 012e C8EB0909 		rsb	r9, r8, r9
 3072              		.loc 1 1353 0
 3073 0132 FFF7FEFF 		bl	hline_clip
 3074              	.LVL258:
 3075              		.loc 1 1354 0
 3076 0136 A4F82290 		strh	r9, [r4, #34]	@ movhi
 3077 013a A4F820A0 		strh	r10, [r4, #32]	@ movhi
 3078 013e 2685     		strh	r6, [r4, #40]	@ movhi
ARM GAS  /var/folders/_2/42wyrlld3p52fkcpt1lv6gxh0000gp/T//ccpbLF3Z.s 			page 55


 3079 0140 2046     		mov	r0, r4
 3080 0142 FFF7FEFF 		bl	hline_clip
 3081              	.LVL259:
 3082              		.loc 1 1356 0
 3083 0146 E38B     		ldrh	r3, [r4, #30]
 3084 0148 9B07     		lsls	r3, r3, #30
 3085 014a 07D5     		bpl	.L198
 3086              		.loc 1 1356 0 is_stmt 0 discriminator 1
 3087 014c 6368     		ldr	r3, [r4, #4]
 3088 014e 2046     		mov	r0, r4
 3089 0150 9B6A     		ldr	r3, [r3, #40]
 3090 0152 9847     		blx	r3
 3091              	.LVL260:
 3092 0154 E38B     		ldrh	r3, [r4, #30]
 3093 0156 23F00203 		bic	r3, r3, #2
 3094 015a E383     		strh	r3, [r4, #30]	@ movhi
 3095              	.L198:
 3096              		.loc 1 1358 0 is_stmt 1
 3097 015c 1437     		adds	r7, r7, #20
 3098              	.LCFI143:
 3099              		.cfi_def_cfa_offset 36
 3100 015e BD46     		mov	sp, r7
 3101              	.LCFI144:
 3102              		.cfi_def_cfa_register 13
 3103              		@ sp needed
 3104 0160 BDE8F08F 		pop	{r4, r5, r6, r7, r8, r9, r10, fp, pc}
 3105              		.cfi_endproc
 3106              	.LFE90:
 3107              		.size	gdispGFillCircle, .-gdispGFillCircle
 3108              		.section	.text.gdispGDrawEllipse,"ax",%progbits
 3109              		.align	1
 3110              		.global	gdispGDrawEllipse
 3111              		.thumb
 3112              		.thumb_func
 3113              		.type	gdispGDrawEllipse, %function
 3114              	gdispGDrawEllipse:
 3115              	.LFB91:
 3116              		.loc 1 1362 0
 3117              		.cfi_startproc
 3118              		@ args = 8, pretend = 0, frame = 24
 3119              		@ frame_needed = 1, uses_anonymous_args = 0
 3120              	.LVL261:
 3121 0000 2DE9F04F 		push	{r4, r5, r6, r7, r8, r9, r10, fp, lr}
 3122              	.LCFI145:
 3123              		.cfi_def_cfa_offset 36
 3124              		.cfi_offset 4, -36
 3125              		.cfi_offset 5, -32
 3126              		.cfi_offset 6, -28
 3127              		.cfi_offset 7, -24
 3128              		.cfi_offset 8, -20
 3129              		.cfi_offset 9, -16
 3130              		.cfi_offset 10, -12
 3131              		.cfi_offset 11, -8
 3132              		.cfi_offset 14, -4
 3133 0004 87B0     		sub	sp, sp, #28
 3134              	.LCFI146:
 3135              		.cfi_def_cfa_offset 64
ARM GAS  /var/folders/_2/42wyrlld3p52fkcpt1lv6gxh0000gp/T//ccpbLF3Z.s 			page 56


 3136 0006 0446     		mov	r4, r0
 3137 0008 00AF     		add	r7, sp, #0
 3138              	.LCFI147:
 3139              		.cfi_def_cfa_register 7
 3140              		.loc 1 1362 0
 3141 000a B7F94060 		ldrsh	r6, [r7, #64]
 3142              	.LVL262:
 3143              		.loc 1 1372 0
 3144 000e 5B43     		muls	r3, r3, r3
 3145              	.LVL263:
 3146              		.loc 1 1373 0
 3147 0010 06FB06F8 		mul	r8, r6, r6
 3148              	.LVL264:
 3149              		.loc 1 1374 0
 3150 0014 7500     		lsls	r5, r6, #1
 3151 0016 013D     		subs	r5, r5, #1
 3152 0018 03FB1585 		mls	r5, r3, r5, r8
 3153              	.LVL265:
 3154              		.loc 1 1375 0
 3155 001c 97F84400 		ldrb	r0, [r7, #68]	@ zero_extendqisi2
 3156              	.LVL266:
 3157              		.loc 1 1379 0
 3158 0020 89B2     		uxth	r1, r1
 3159 0022 92B2     		uxth	r2, r2
 3160              		.loc 1 1375 0
 3161 0024 84F83000 		strb	r0, [r4, #48]
 3162              		.loc 1 1370 0
 3163 0028 4FF0000B 		mov	fp, #0
 3164              		.loc 1 1379 0
 3165 002c 3961     		str	r1, [r7, #16]
 3166 002e FA60     		str	r2, [r7, #12]
 3167              	.LVL267:
 3168              	.L211:
 3169 0030 3B60     		str	r3, [r7]
 3170              	.LVL268:
 3171 0032 3B69     		ldr	r3, [r7, #16]
 3172 0034 1FFA8BFA 		uxth	r10, fp
 3173 0038 03EB0A02 		add	r2, r3, r10
 3174 003c 13B2     		sxth	r3, r2
 3175 003e 7B61     		str	r3, [r7, #20]
 3176 0040 BB8A     		ldrh	r3, [r7, #20]
 3177 0042 1FFA86F9 		uxth	r9, r6
 3178 0046 2384     		strh	r3, [r4, #32]	@ movhi
 3179 0048 FB68     		ldr	r3, [r7, #12]
 3180 004a 2046     		mov	r0, r4
 3181 004c 03EB0901 		add	r1, r3, r9
 3182 0050 09B2     		sxth	r1, r1
 3183 0052 6184     		strh	r1, [r4, #34]	@ movhi
 3184 0054 7960     		str	r1, [r7, #4]
 3185 0056 FFF7FEFF 		bl	drawpixel
 3186              	.LVL269:
 3187              		.loc 1 1380 0
 3188 005a 3B69     		ldr	r3, [r7, #16]
 3189 005c 7968     		ldr	r1, [r7, #4]
 3190 005e CAEB0302 		rsb	r2, r10, r3
 3191 0062 12B2     		sxth	r2, r2
 3192 0064 6184     		strh	r1, [r4, #34]	@ movhi
ARM GAS  /var/folders/_2/42wyrlld3p52fkcpt1lv6gxh0000gp/T//ccpbLF3Z.s 			page 57


 3193 0066 2284     		strh	r2, [r4, #32]	@ movhi
 3194 0068 2046     		mov	r0, r4
 3195 006a BA60     		str	r2, [r7, #8]
 3196 006c FFF7FEFF 		bl	drawpixel
 3197              	.LVL270:
 3198              		.loc 1 1381 0
 3199 0070 BA68     		ldr	r2, [r7, #8]
 3200 0072 FB68     		ldr	r3, [r7, #12]
 3201 0074 2284     		strh	r2, [r4, #32]	@ movhi
 3202 0076 C9EB0302 		rsb	r2, r9, r3
 3203 007a 12B2     		sxth	r2, r2
 3204 007c 6284     		strh	r2, [r4, #34]	@ movhi
 3205 007e 2046     		mov	r0, r4
 3206 0080 BA60     		str	r2, [r7, #8]
 3207 0082 FFF7FEFF 		bl	drawpixel
 3208              	.LVL271:
 3209              		.loc 1 1382 0
 3210 0086 BB8A     		ldrh	r3, [r7, #20]
 3211 0088 BA68     		ldr	r2, [r7, #8]
 3212 008a 2384     		strh	r3, [r4, #32]	@ movhi
 3213 008c 6284     		strh	r2, [r4, #34]	@ movhi
 3214 008e 2046     		mov	r0, r4
 3215 0090 FFF7FEFF 		bl	drawpixel
 3216              	.LVL272:
 3217              		.loc 1 1385 0
 3218 0094 4FEA4B02 		lsl	r2, fp, #1
 3219 0098 02FB0882 		mla	r2, r2, r8, r8
 3220              		.loc 1 1384 0
 3221 009c 6900     		lsls	r1, r5, #1
 3222              	.LVL273:
 3223              		.loc 1 1385 0
 3224 009e 9142     		cmp	r1, r2
 3225 00a0 3B68     		ldr	r3, [r7]
 3226 00a2 08DA     		bge	.L209
 3227              		.loc 1 1386 0
 3228 00a4 0AF1010A 		add	r10, r10, #1
 3229 00a8 0FFA8AFB 		sxth	fp, r10
 3230              	.LVL274:
 3231              		.loc 1 1387 0
 3232 00ac 4FEA4B02 		lsl	r2, fp, #1
 3233 00b0 02FB0882 		mla	r2, r2, r8, r8
 3234 00b4 1544     		add	r5, r5, r2
 3235              	.LVL275:
 3236              	.L209:
 3237              		.loc 1 1389 0
 3238 00b6 7200     		lsls	r2, r6, #1
 3239 00b8 C2F10102 		rsb	r2, r2, #1
 3240 00bc 5A43     		muls	r2, r3, r2
 3241 00be 9142     		cmp	r1, r2
 3242 00c0 06DD     		ble	.L210
 3243              		.loc 1 1390 0
 3244 00c2 09F1FF36 		add	r6, r9, #-1
 3245              	.LVL276:
 3246 00c6 36B2     		sxth	r6, r6
 3247              	.LVL277:
 3248              		.loc 1 1391 0
 3249 00c8 7200     		lsls	r2, r6, #1
ARM GAS  /var/folders/_2/42wyrlld3p52fkcpt1lv6gxh0000gp/T//ccpbLF3Z.s 			page 58


 3250 00ca 013A     		subs	r2, r2, #1
 3251 00cc 03FB1255 		mls	r5, r3, r2, r5
 3252              	.LVL278:
 3253              	.L210:
 3254              		.loc 1 1393 0
 3255 00d0 002E     		cmp	r6, #0
 3256 00d2 ADDA     		bge	.L211
 3257              		.loc 1 1395 0
 3258 00d4 E38B     		ldrh	r3, [r4, #30]
 3259 00d6 9B07     		lsls	r3, r3, #30
 3260 00d8 07D5     		bpl	.L208
 3261              		.loc 1 1395 0 is_stmt 0 discriminator 1
 3262 00da 6368     		ldr	r3, [r4, #4]
 3263 00dc 2046     		mov	r0, r4
 3264 00de 9B6A     		ldr	r3, [r3, #40]
 3265 00e0 9847     		blx	r3
 3266              	.LVL279:
 3267 00e2 E38B     		ldrh	r3, [r4, #30]
 3268 00e4 23F00203 		bic	r3, r3, #2
 3269 00e8 E383     		strh	r3, [r4, #30]	@ movhi
 3270              	.L208:
 3271              		.loc 1 1397 0 is_stmt 1
 3272 00ea 1C37     		adds	r7, r7, #28
 3273              	.LCFI148:
 3274              		.cfi_def_cfa_offset 36
 3275 00ec BD46     		mov	sp, r7
 3276              	.LCFI149:
 3277              		.cfi_def_cfa_register 13
 3278              		@ sp needed
 3279 00ee BDE8F08F 		pop	{r4, r5, r6, r7, r8, r9, r10, fp, pc}
 3280              		.cfi_endproc
 3281              	.LFE91:
 3282              		.size	gdispGDrawEllipse, .-gdispGDrawEllipse
 3283              		.section	.text.gdispGFillEllipse,"ax",%progbits
 3284              		.align	1
 3285              		.global	gdispGFillEllipse
 3286              		.thumb
 3287              		.thumb_func
 3288              		.type	gdispGFillEllipse, %function
 3289              	gdispGFillEllipse:
 3290              	.LFB92:
 3291              		.loc 1 1401 0
 3292              		.cfi_startproc
 3293              		@ args = 8, pretend = 0, frame = 16
 3294              		@ frame_needed = 1, uses_anonymous_args = 0
 3295              	.LVL280:
 3296 0000 2DE9F04F 		push	{r4, r5, r6, r7, r8, r9, r10, fp, lr}
 3297              	.LCFI150:
 3298              		.cfi_def_cfa_offset 36
 3299              		.cfi_offset 4, -36
 3300              		.cfi_offset 5, -32
 3301              		.cfi_offset 6, -28
 3302              		.cfi_offset 7, -24
 3303              		.cfi_offset 8, -20
 3304              		.cfi_offset 9, -16
 3305              		.cfi_offset 10, -12
 3306              		.cfi_offset 11, -8
ARM GAS  /var/folders/_2/42wyrlld3p52fkcpt1lv6gxh0000gp/T//ccpbLF3Z.s 			page 59


 3307              		.cfi_offset 14, -4
 3308 0004 85B0     		sub	sp, sp, #20
 3309              	.LCFI151:
 3310              		.cfi_def_cfa_offset 56
 3311 0006 0446     		mov	r4, r0
 3312 0008 00AF     		add	r7, sp, #0
 3313              	.LCFI152:
 3314              		.cfi_def_cfa_register 7
 3315              		.loc 1 1401 0
 3316 000a B7F93850 		ldrsh	r5, [r7, #56]
 3317              	.LVL281:
 3318              		.loc 1 1411 0
 3319 000e 03FB03FA 		mul	r10, r3, r3
 3320              	.LVL282:
 3321              		.loc 1 1412 0
 3322 0012 05FB05FB 		mul	fp, r5, r5
 3323              	.LVL283:
 3324              		.loc 1 1413 0
 3325 0016 6E00     		lsls	r6, r5, #1
 3326              		.loc 1 1401 0
 3327 0018 FA60     		str	r2, [r7, #12]
 3328              	.LVL284:
 3329              		.loc 1 1413 0
 3330 001a 013E     		subs	r6, r6, #1
 3331              		.loc 1 1425 0
 3332 001c BB89     		ldrh	r3, [r7, #12]
 3333              	.LVL285:
 3334              		.loc 1 1413 0
 3335 001e 0AFB16B6 		mls	r6, r10, r6, fp
 3336              	.LVL286:
 3337              		.loc 1 1414 0
 3338 0022 97F83C00 		ldrb	r0, [r7, #60]	@ zero_extendqisi2
 3339              	.LVL287:
 3340              		.loc 1 1425 0
 3341 0026 BB60     		str	r3, [r7, #8]
 3342              	.LVL288:
 3343 0028 8BB2     		uxth	r3, r1
 3344              		.loc 1 1414 0
 3345 002a 84F83000 		strb	r0, [r4, #48]
 3346              		.loc 1 1409 0
 3347 002e 4FF00008 		mov	r8, #0
 3348              		.loc 1 1425 0
 3349 0032 7B60     		str	r3, [r7, #4]
 3350              	.LVL289:
 3351              	.L221:
 3352              		.loc 1 1420 0
 3353 0034 4FEA4801 		lsl	r1, r8, #1
 3354 0038 01FB0BB1 		mla	r1, r1, fp, fp
 3355              		.loc 1 1419 0
 3356 003c 7000     		lsls	r0, r6, #1
 3357              	.LVL290:
 3358              		.loc 1 1420 0
 3359 003e 8842     		cmp	r0, r1
 3360 0040 08DA     		bge	.L218
 3361              		.loc 1 1421 0
 3362 0042 08F10108 		add	r8, r8, #1
 3363              	.LVL291:
ARM GAS  /var/folders/_2/42wyrlld3p52fkcpt1lv6gxh0000gp/T//ccpbLF3Z.s 			page 60


 3364 0046 0FFA88F8 		sxth	r8, r8
 3365              	.LVL292:
 3366              		.loc 1 1422 0
 3367 004a 4FEA4801 		lsl	r1, r8, #1
 3368 004e 01FB0BB1 		mla	r1, r1, fp, fp
 3369 0052 0E44     		add	r6, r6, r1
 3370              	.LVL293:
 3371              	.L218:
 3372              		.loc 1 1424 0
 3373 0054 6900     		lsls	r1, r5, #1
 3374 0056 C1F10101 		rsb	r1, r1, #1
 3375 005a 0AFB01F1 		mul	r1, r10, r1
 3376 005e 8842     		cmp	r0, r1
 3377 0060 25DD     		ble	.L219
 3378              		.loc 1 1425 0
 3379 0062 BB68     		ldr	r3, [r7, #8]
 3380 0064 ADB2     		uxth	r5, r5
 3381 0066 5919     		adds	r1, r3, r5
 3382 0068 7B68     		ldr	r3, [r7, #4]
 3383 006a 1FFA88F9 		uxth	r9, r8
 3384 006e 6184     		strh	r1, [r4, #34]	@ movhi
 3385 0070 C9EB0301 		rsb	r1, r9, r3
 3386 0074 9944     		add	r9, r9, r3
 3387 0076 09B2     		sxth	r1, r1
 3388 0078 0FFA89F9 		sxth	r9, r9
 3389 007c 2184     		strh	r1, [r4, #32]	@ movhi
 3390 007e A4F82890 		strh	r9, [r4, #40]	@ movhi
 3391 0082 2046     		mov	r0, r4
 3392              	.LVL294:
 3393 0084 3960     		str	r1, [r7]
 3394 0086 FFF7FEFF 		bl	hline_clip
 3395              	.LVL295:
 3396              		.loc 1 1426 0
 3397 008a FB68     		ldr	r3, [r7, #12]
 3398 008c 3968     		ldr	r1, [r7]
 3399 008e 43B1     		cbz	r3, .L220
 3400              		.loc 1 1426 0 is_stmt 0 discriminator 1
 3401 0090 BB68     		ldr	r3, [r7, #8]
 3402 0092 2184     		strh	r1, [r4, #32]	@ movhi
 3403 0094 581B     		subs	r0, r3, r5
 3404 0096 6084     		strh	r0, [r4, #34]	@ movhi
 3405 0098 A4F82890 		strh	r9, [r4, #40]	@ movhi
 3406 009c 2046     		mov	r0, r4
 3407 009e FFF7FEFF 		bl	hline_clip
 3408              	.LVL296:
 3409              	.L220:
 3410              		.loc 1 1427 0 is_stmt 1
 3411 00a2 013D     		subs	r5, r5, #1
 3412              	.LVL297:
 3413 00a4 2DB2     		sxth	r5, r5
 3414              	.LVL298:
 3415              		.loc 1 1428 0
 3416 00a6 6900     		lsls	r1, r5, #1
 3417 00a8 0139     		subs	r1, r1, #1
 3418 00aa 0AFB1166 		mls	r6, r10, r1, r6
 3419              	.LVL299:
 3420              	.L219:
ARM GAS  /var/folders/_2/42wyrlld3p52fkcpt1lv6gxh0000gp/T//ccpbLF3Z.s 			page 61


 3421              		.loc 1 1430 0
 3422 00ae 002D     		cmp	r5, #0
 3423 00b0 C0DA     		bge	.L221
 3424              		.loc 1 1432 0
 3425 00b2 E38B     		ldrh	r3, [r4, #30]
 3426 00b4 9B07     		lsls	r3, r3, #30
 3427 00b6 07D5     		bpl	.L217
 3428              		.loc 1 1432 0 is_stmt 0 discriminator 1
 3429 00b8 6368     		ldr	r3, [r4, #4]
 3430 00ba 2046     		mov	r0, r4
 3431 00bc 9B6A     		ldr	r3, [r3, #40]
 3432 00be 9847     		blx	r3
 3433              	.LVL300:
 3434 00c0 E38B     		ldrh	r3, [r4, #30]
 3435 00c2 23F00203 		bic	r3, r3, #2
 3436 00c6 E383     		strh	r3, [r4, #30]	@ movhi
 3437              	.L217:
 3438              		.loc 1 1434 0 is_stmt 1
 3439 00c8 1437     		adds	r7, r7, #20
 3440              	.LCFI153:
 3441              		.cfi_def_cfa_offset 36
 3442 00ca BD46     		mov	sp, r7
 3443              	.LCFI154:
 3444              		.cfi_def_cfa_register 13
 3445              		@ sp needed
 3446 00cc BDE8F08F 		pop	{r4, r5, r6, r7, r8, r9, r10, fp, pc}
 3447              		.cfi_endproc
 3448              	.LFE92:
 3449              		.size	gdispGFillEllipse, .-gdispGFillEllipse
 3450              		.global	__aeabi_i2d
 3451              		.global	__aeabi_dmul
 3452              		.global	__aeabi_ddiv
 3453              		.global	__aeabi_d2iz
 3454              		.section	.text.gdispGDrawArc,"ax",%progbits
 3455              		.align	1
 3456              		.global	gdispGDrawArc
 3457              		.thumb
 3458              		.thumb_func
 3459              		.type	gdispGDrawArc, %function
 3460              	gdispGDrawArc:
 3461              	.LFB93:
 3462              		.loc 1 1667 0
 3463              		.cfi_startproc
 3464              		@ args = 12, pretend = 0, frame = 64
 3465              		@ frame_needed = 1, uses_anonymous_args = 0
 3466              	.LVL301:
 3467 0000 2DE9F04F 		push	{r4, r5, r6, r7, r8, r9, r10, fp, lr}
 3468              	.LCFI155:
 3469              		.cfi_def_cfa_offset 36
 3470              		.cfi_offset 4, -36
 3471              		.cfi_offset 5, -32
 3472              		.cfi_offset 6, -28
 3473              		.cfi_offset 7, -24
 3474              		.cfi_offset 8, -20
 3475              		.cfi_offset 9, -16
 3476              		.cfi_offset 10, -12
 3477              		.cfi_offset 11, -8
ARM GAS  /var/folders/_2/42wyrlld3p52fkcpt1lv6gxh0000gp/T//ccpbLF3Z.s 			page 62


 3478              		.cfi_offset 14, -4
 3479 0004 91B0     		sub	sp, sp, #68
 3480              	.LCFI156:
 3481              		.cfi_def_cfa_offset 104
 3482 0006 00AF     		add	r7, sp, #0
 3483              	.LCFI157:
 3484              		.cfi_def_cfa_register 7
 3485              		.loc 1 1667 0
 3486 0008 9A46     		mov	r10, r3
 3487 000a B7F96830 		ldrsh	r3, [r7, #104]
 3488              	.LVL302:
 3489 000e 0446     		mov	r4, r0
 3490 0010 7B63     		str	r3, [r7, #52]
 3491 0012 B7F96C30 		ldrsh	r3, [r7, #108]
 3492 0016 0E46     		mov	r6, r1
 3493 0018 3B63     		str	r3, [r7, #48]
 3494              		.loc 1 1672 0
 3495 001a 7B6B     		ldr	r3, [r7, #52]
 3496              		.loc 1 1667 0
 3497 001c 1546     		mov	r5, r2
 3498              		.loc 1 1672 0
 3499 001e 002B     		cmp	r3, #0
 3500 0020 0CDA     		bge	.L231
 3501              		.loc 1 1673 0
 3502 0022 7A6B     		ldr	r2, [r7, #52]
 3503              	.LVL303:
 3504 0024 4FF4B473 		mov	r3, #360
 3505 0028 92FBF3F3 		sdiv	r3, r2, r3
 3506 002c 013B     		subs	r3, r3, #1
 3507 002e 03EB4303 		add	r3, r3, r3, lsl #1
 3508 0032 C3EB0313 		rsb	r3, r3, r3, lsl #4
 3509 0036 A2EBC303 		sub	r3, r2, r3, lsl #3
 3510 003a 0AE0     		b	.L702
 3511              	.LVL304:
 3512              	.L231:
 3513              		.loc 1 1674 0
 3514 003c 7B6B     		ldr	r3, [r7, #52]
 3515 003e B3F5B47F 		cmp	r3, #360
 3516 0042 08DB     		blt	.L232
 3517              		.loc 1 1675 0
 3518 0044 4FF4B472 		mov	r2, #360
 3519              	.LVL305:
 3520 0048 93FBF2F3 		sdiv	r3, r3, r2
 3521 004c 796B     		ldr	r1, [r7, #52]
 3522              	.LVL306:
 3523 004e 02FB1313 		mls	r3, r2, r3, r1
 3524              	.L702:
 3525 0052 1BB2     		sxth	r3, r3
 3526 0054 7B63     		str	r3, [r7, #52]
 3527              	.LVL307:
 3528              	.L232:
 3529              		.loc 1 1676 0
 3530 0056 3B6B     		ldr	r3, [r7, #48]
 3531 0058 002B     		cmp	r3, #0
 3532 005a 0CDA     		bge	.L233
 3533              		.loc 1 1677 0
 3534 005c 3A6B     		ldr	r2, [r7, #48]
ARM GAS  /var/folders/_2/42wyrlld3p52fkcpt1lv6gxh0000gp/T//ccpbLF3Z.s 			page 63


 3535 005e 4FF4B473 		mov	r3, #360
 3536 0062 92FBF3F3 		sdiv	r3, r2, r3
 3537 0066 013B     		subs	r3, r3, #1
 3538 0068 03EB4303 		add	r3, r3, r3, lsl #1
 3539 006c C3EB0313 		rsb	r3, r3, r3, lsl #4
 3540 0070 A2EBC303 		sub	r3, r2, r3, lsl #3
 3541 0074 0AE0     		b	.L703
 3542              	.L233:
 3543              		.loc 1 1678 0
 3544 0076 3B6B     		ldr	r3, [r7, #48]
 3545 0078 B3F5B47F 		cmp	r3, #360
 3546 007c 08DB     		blt	.L234
 3547              		.loc 1 1679 0
 3548 007e 4FF4B472 		mov	r2, #360
 3549 0082 93FBF2F3 		sdiv	r3, r3, r2
 3550 0086 396B     		ldr	r1, [r7, #48]
 3551 0088 02FB1313 		mls	r3, r2, r3, r1
 3552              	.L703:
 3553 008c 1BB2     		sxth	r3, r3
 3554 008e 3B63     		str	r3, [r7, #48]
 3555              	.LVL308:
 3556              	.L234:
 3557              		.loc 1 1681 0
 3558 0090 7B6B     		ldr	r3, [r7, #52]
 3559 0092 2D22     		movs	r2, #45
 3560 0094 93FBF2F3 		sdiv	r3, r3, r2
 3561 0098 FB62     		str	r3, [r7, #44]
 3562 009a F96A     		ldr	r1, [r7, #44]
 3563 009c 0123     		movs	r3, #1
 3564 009e 03FA01F1 		lsl	r1, r3, r1
 3565 00a2 F963     		str	r1, [r7, #60]
 3566 00a4 97F83C10 		ldrb	r1, [r7, #60]	@ zero_extendqisi2
 3567 00a8 F961     		str	r1, [r7, #28]
 3568              	.LVL309:
 3569              		.loc 1 1682 0
 3570 00aa 396B     		ldr	r1, [r7, #48]
 3571 00ac 91FBF2F2 		sdiv	r2, r1, r2
 3572 00b0 9340     		lsls	r3, r3, r2
 3573 00b2 BB63     		str	r3, [r7, #56]
 3574 00b4 97F83830 		ldrb	r3, [r7, #56]	@ zero_extendqisi2
 3575 00b8 BA61     		str	r2, [r7, #24]
 3576 00ba 7B61     		str	r3, [r7, #20]
 3577              	.LVL310:
 3578              		.loc 1 1684 0
 3579 00bc 7B6B     		ldr	r3, [r7, #52]
 3580 00be 8B42     		cmp	r3, r1
 3581 00c0 21D0     		beq	.L461
 3582              		.loc 1 1686 0
 3583 00c2 10DD     		ble	.L236
 3584              		.loc 1 1687 0
 3585 00c4 FB69     		ldr	r3, [r7, #28]
 3586              		.loc 1 1683 0
 3587 00c6 4FF00008 		mov	r8, #0
 3588              		.loc 1 1687 0
 3589 00ca 5B00     		lsls	r3, r3, #1
 3590 00cc DBB2     		uxtb	r3, r3
 3591              	.LVL311:
ARM GAS  /var/folders/_2/42wyrlld3p52fkcpt1lv6gxh0000gp/T//ccpbLF3Z.s 			page 64


 3592              	.L237:
 3593              		.loc 1 1687 0 is_stmt 0 discriminator 1
 3594 00ce 23B1     		cbz	r3, .L714
 3595              		.loc 1 1687 0 discriminator 3
 3596 00d0 48EA0308 		orr	r8, r8, r3
 3597              	.LVL312:
 3598 00d4 5B00     		lsls	r3, r3, #1
 3599              	.LVL313:
 3600 00d6 DBB2     		uxtb	r3, r3
 3601              	.LVL314:
 3602 00d8 F9E7     		b	.L237
 3603              	.L714:
 3604              		.loc 1 1688 0 is_stmt 1
 3605 00da 7B69     		ldr	r3, [r7, #20]
 3606              	.LVL315:
 3607              	.L704:
 3608              		.loc 1 1688 0 is_stmt 0 discriminator 3
 3609 00dc 5B08     		lsrs	r3, r3, #1
 3610              	.LVL316:
 3611 00de BBB1     		cbz	r3, .L235
 3612 00e0 48EA0308 		orr	r8, r8, r3
 3613              	.LVL317:
 3614 00e4 FAE7     		b	.L704
 3615              	.LVL318:
 3616              	.L236:
 3617              		.loc 1 1689 0 is_stmt 1
 3618 00e6 FB6B     		ldr	r3, [r7, #60]
 3619 00e8 1B06     		lsls	r3, r3, #24
 3620 00ea 0FD4     		bmi	.L462
 3621              		.loc 1 1690 0
 3622 00ec FB69     		ldr	r3, [r7, #28]
 3623              		.loc 1 1683 0
 3624 00ee 4FF00008 		mov	r8, #0
 3625              		.loc 1 1690 0
 3626 00f2 5B00     		lsls	r3, r3, #1
 3627 00f4 DBB2     		uxtb	r3, r3
 3628              	.LVL319:
 3629              	.L241:
 3630              		.loc 1 1690 0 is_stmt 0 discriminator 1
 3631 00f6 7A69     		ldr	r2, [r7, #20]
 3632 00f8 9342     		cmp	r3, r2
 3633 00fa 09D2     		bcs	.L235
 3634              		.loc 1 1690 0 discriminator 3
 3635 00fc 48EA0308 		orr	r8, r8, r3
 3636              	.LVL320:
 3637 0100 5B00     		lsls	r3, r3, #1
 3638              	.LVL321:
 3639 0102 DBB2     		uxtb	r3, r3
 3640              	.LVL322:
 3641 0104 F7E7     		b	.L241
 3642              	.LVL323:
 3643              	.L461:
 3644              		.loc 1 1685 0 is_stmt 1
 3645 0106 4FF0FF08 		mov	r8, #255
 3646 010a 01E0     		b	.L235
 3647              	.L462:
 3648              		.loc 1 1683 0
ARM GAS  /var/folders/_2/42wyrlld3p52fkcpt1lv6gxh0000gp/T//ccpbLF3Z.s 			page 65


 3649 010c 4FF00008 		mov	r8, #0
 3650              	.LVL324:
 3651              	.L235:
 3652              		.loc 1 1692 0
 3653 0110 7B6B     		ldr	r3, [r7, #52]
 3654 0112 2D22     		movs	r2, #45
 3655 0114 93FBF2F3 		sdiv	r3, r3, r2
 3656 0118 796B     		ldr	r1, [r7, #52]
 3657 011a 02FB1313 		mls	r3, r2, r3, r1
 3658 011e 1BB2     		sxth	r3, r3
 3659 0120 002B     		cmp	r3, #0
 3660 0122 FB69     		ldr	r3, [r7, #28]
 3661 0124 18BF     		it	ne
 3662 0126 0023     		movne	r3, #0
 3663 0128 BB62     		str	r3, [r7, #40]
 3664              	.LVL325:
 3665              		.loc 1 1695 0
 3666 012a 97F87030 		ldrb	r3, [r7, #112]	@ zero_extendqisi2
 3667 012e 84F83030 		strb	r3, [r4, #48]
 3668              		.loc 1 1697 0
 3669 0132 B8F1000F 		cmp	r8, #0
 3670 0136 00F0F080 		beq	.L244
 3671              	.LVL326:
 3672              		.loc 1 1702 0
 3673 013a 1FFA8AF9 		uxth	r9, r10
 3674 013e C9F1040B 		rsb	fp, r9, #4
 3675 0142 0FFA8BF3 		sxth	r3, fp
 3676              		.loc 1 1703 0
 3677 0146 18F0600F 		tst	r8, #96
 3678              		.loc 1 1702 0
 3679 014a 3B62     		str	r3, [r7, #32]
 3680              	.LVL327:
 3681              		.loc 1 1703 0
 3682 014c 06D0     		beq	.L245
 3683              		.loc 1 1703 0 is_stmt 0 discriminator 1
 3684 014e 09EB0503 		add	r3, r9, r5
 3685 0152 6384     		strh	r3, [r4, #34]	@ movhi
 3686 0154 2684     		strh	r6, [r4, #32]	@ movhi
 3687 0156 2046     		mov	r0, r4
 3688              	.LVL328:
 3689 0158 FFF7FEFF 		bl	drawpixel
 3690              	.LVL329:
 3691              	.L245:
 3692              		.loc 1 1704 0 is_stmt 1
 3693 015c 18F0060F 		tst	r8, #6
 3694 0160 06D0     		beq	.L246
 3695              		.loc 1 1704 0 is_stmt 0 discriminator 1
 3696 0162 C9EB0503 		rsb	r3, r9, r5
 3697 0166 6384     		strh	r3, [r4, #34]	@ movhi
 3698 0168 2684     		strh	r6, [r4, #32]	@ movhi
 3699 016a 2046     		mov	r0, r4
 3700 016c FFF7FEFF 		bl	drawpixel
 3701              	.LVL330:
 3702              	.L246:
 3703              		.loc 1 1705 0 is_stmt 1
 3704 0170 18F0810F 		tst	r8, #129
 3705 0174 06D0     		beq	.L247
ARM GAS  /var/folders/_2/42wyrlld3p52fkcpt1lv6gxh0000gp/T//ccpbLF3Z.s 			page 66


 3706              		.loc 1 1705 0 is_stmt 0 discriminator 1
 3707 0176 09EB0603 		add	r3, r9, r6
 3708 017a 6584     		strh	r5, [r4, #34]	@ movhi
 3709 017c 2384     		strh	r3, [r4, #32]	@ movhi
 3710 017e 2046     		mov	r0, r4
 3711 0180 FFF7FEFF 		bl	drawpixel
 3712              	.LVL331:
 3713              	.L247:
 3714              		.loc 1 1706 0 is_stmt 1
 3715 0184 18F0180F 		tst	r8, #24
 3716 0188 07D0     		beq	.L248
 3717              		.loc 1 1706 0 is_stmt 0 discriminator 1
 3718 018a C9EB0609 		rsb	r9, r9, r6
 3719 018e 6584     		strh	r5, [r4, #34]	@ movhi
 3720 0190 A4F82090 		strh	r9, [r4, #32]	@ movhi
 3721 0194 2046     		mov	r0, r4
 3722 0196 FFF7FEFF 		bl	drawpixel
 3723              	.LVL332:
 3724              	.L248:
 3725              		.loc 1 1692 0 is_stmt 1
 3726 019a D146     		mov	r9, r10
 3727 019c 4FF0010B 		mov	fp, #1
 3728              		.loc 1 1708 0
 3729 01a0 08EA0B03 		and	r3, r8, fp
 3730 01a4 3B61     		str	r3, [r7, #16]
 3731              		.loc 1 1709 0
 3732 01a6 08F00203 		and	r3, r8, #2
 3733 01aa DBB2     		uxtb	r3, r3
 3734 01ac FB60     		str	r3, [r7, #12]
 3735              		.loc 1 1710 0
 3736 01ae 08F00403 		and	r3, r8, #4
 3737 01b2 DBB2     		uxtb	r3, r3
 3738 01b4 BB60     		str	r3, [r7, #8]
 3739              	.LVL333:
 3740              	.L259:
 3741              		.loc 1 1708 0
 3742 01b6 3B69     		ldr	r3, [r7, #16]
 3743 01b8 43B1     		cbz	r3, .L249
 3744              		.loc 1 1708 0 is_stmt 0 discriminator 1
 3745 01ba 06EB0903 		add	r3, r6, r9
 3746 01be 2384     		strh	r3, [r4, #32]	@ movhi
 3747 01c0 CBEB0503 		rsb	r3, fp, r5
 3748 01c4 6384     		strh	r3, [r4, #34]	@ movhi
 3749 01c6 2046     		mov	r0, r4
 3750 01c8 FFF7FEFF 		bl	drawpixel
 3751              	.LVL334:
 3752              	.L249:
 3753              		.loc 1 1709 0 is_stmt 1
 3754 01cc FB68     		ldr	r3, [r7, #12]
 3755 01ce 43B1     		cbz	r3, .L250
 3756              		.loc 1 1709 0 is_stmt 0 discriminator 1
 3757 01d0 06EB0B03 		add	r3, r6, fp
 3758 01d4 2384     		strh	r3, [r4, #32]	@ movhi
 3759 01d6 C9EB0503 		rsb	r3, r9, r5
 3760 01da 6384     		strh	r3, [r4, #34]	@ movhi
 3761 01dc 2046     		mov	r0, r4
 3762 01de FFF7FEFF 		bl	drawpixel
ARM GAS  /var/folders/_2/42wyrlld3p52fkcpt1lv6gxh0000gp/T//ccpbLF3Z.s 			page 67


 3763              	.LVL335:
 3764              	.L250:
 3765              		.loc 1 1710 0 is_stmt 1
 3766 01e2 BB68     		ldr	r3, [r7, #8]
 3767 01e4 43B1     		cbz	r3, .L251
 3768              		.loc 1 1710 0 is_stmt 0 discriminator 1
 3769 01e6 CBEB0603 		rsb	r3, fp, r6
 3770 01ea 2384     		strh	r3, [r4, #32]	@ movhi
 3771 01ec C9EB0503 		rsb	r3, r9, r5
 3772 01f0 6384     		strh	r3, [r4, #34]	@ movhi
 3773 01f2 2046     		mov	r0, r4
 3774 01f4 FFF7FEFF 		bl	drawpixel
 3775              	.LVL336:
 3776              	.L251:
 3777              		.loc 1 1711 0 is_stmt 1
 3778 01f8 18F0080F 		tst	r8, #8
 3779 01fc 08D0     		beq	.L252
 3780              		.loc 1 1711 0 is_stmt 0 discriminator 1
 3781 01fe C9EB0603 		rsb	r3, r9, r6
 3782 0202 2384     		strh	r3, [r4, #32]	@ movhi
 3783 0204 CBEB0503 		rsb	r3, fp, r5
 3784 0208 6384     		strh	r3, [r4, #34]	@ movhi
 3785 020a 2046     		mov	r0, r4
 3786 020c FFF7FEFF 		bl	drawpixel
 3787              	.LVL337:
 3788              	.L252:
 3789              		.loc 1 1712 0 is_stmt 1
 3790 0210 18F0100F 		tst	r8, #16
 3791 0214 08D0     		beq	.L253
 3792              		.loc 1 1712 0 is_stmt 0 discriminator 1
 3793 0216 C9EB0603 		rsb	r3, r9, r6
 3794 021a 2384     		strh	r3, [r4, #32]	@ movhi
 3795 021c 05EB0B03 		add	r3, r5, fp
 3796 0220 6384     		strh	r3, [r4, #34]	@ movhi
 3797 0222 2046     		mov	r0, r4
 3798 0224 FFF7FEFF 		bl	drawpixel
 3799              	.LVL338:
 3800              	.L253:
 3801              		.loc 1 1713 0 is_stmt 1
 3802 0228 18F0200F 		tst	r8, #32
 3803 022c 08D0     		beq	.L254
 3804              		.loc 1 1713 0 is_stmt 0 discriminator 1
 3805 022e CBEB0603 		rsb	r3, fp, r6
 3806 0232 2384     		strh	r3, [r4, #32]	@ movhi
 3807 0234 05EB0903 		add	r3, r5, r9
 3808 0238 6384     		strh	r3, [r4, #34]	@ movhi
 3809 023a 2046     		mov	r0, r4
 3810 023c FFF7FEFF 		bl	drawpixel
 3811              	.LVL339:
 3812              	.L254:
 3813              		.loc 1 1714 0 is_stmt 1
 3814 0240 18F0400F 		tst	r8, #64
 3815 0244 08D0     		beq	.L255
 3816              		.loc 1 1714 0 is_stmt 0 discriminator 1
 3817 0246 06EB0B03 		add	r3, r6, fp
 3818 024a 2384     		strh	r3, [r4, #32]	@ movhi
 3819 024c 05EB0903 		add	r3, r5, r9
ARM GAS  /var/folders/_2/42wyrlld3p52fkcpt1lv6gxh0000gp/T//ccpbLF3Z.s 			page 68


 3820 0250 6384     		strh	r3, [r4, #34]	@ movhi
 3821 0252 2046     		mov	r0, r4
 3822 0254 FFF7FEFF 		bl	drawpixel
 3823              	.LVL340:
 3824              	.L255:
 3825              		.loc 1 1715 0 is_stmt 1
 3826 0258 18F0800F 		tst	r8, #128
 3827 025c 08D0     		beq	.L256
 3828              		.loc 1 1715 0 is_stmt 0 discriminator 1
 3829 025e 06EB0903 		add	r3, r6, r9
 3830 0262 2384     		strh	r3, [r4, #32]	@ movhi
 3831 0264 05EB0B03 		add	r3, r5, fp
 3832 0268 6384     		strh	r3, [r4, #34]	@ movhi
 3833 026a 2046     		mov	r0, r4
 3834 026c FFF7FEFF 		bl	drawpixel
 3835              	.LVL341:
 3836              	.L256:
 3837              		.loc 1 1716 0 is_stmt 1
 3838 0270 3B6A     		ldr	r3, [r7, #32]
 3839 0272 002B     		cmp	r3, #0
 3840 0274 0BF10103 		add	r3, fp, #1
 3841 0278 08DA     		bge	.L257
 3842              	.LVL342:
 3843              		.loc 1 1717 0
 3844 027a 3A6A     		ldr	r2, [r7, #32]
 3845 027c 02EB4B0B 		add	fp, r2, fp, lsl #1
 3846 0280 0BF1030B 		add	fp, fp, #3
 3847 0284 0FFA8BF2 		sxth	r2, fp
 3848 0288 3A62     		str	r2, [r7, #32]
 3849              	.LVL343:
 3850 028a 0DE0     		b	.L705
 3851              	.LVL344:
 3852              	.L257:
 3853              		.loc 1 1719 0
 3854 028c 396A     		ldr	r1, [r7, #32]
 3855 028e C9EB0B0B 		rsb	fp, r9, fp
 3856 0292 01EB4B0B 		add	fp, r1, fp, lsl #1
 3857 0296 0BF1050B 		add	fp, fp, #5
 3858 029a 09F1FF32 		add	r2, r9, #-1
 3859              	.LVL345:
 3860 029e 0FFA8BF1 		sxth	r1, fp
 3861 02a2 3962     		str	r1, [r7, #32]
 3862              	.LVL346:
 3863 02a4 0FFA82F9 		sxth	r9, r2
 3864              	.LVL347:
 3865              	.L705:
 3866 02a8 0FFA83FB 		sxth	fp, r3
 3867              	.LVL348:
 3868              		.loc 1 1720 0
 3869 02ac CB45     		cmp	fp, r9
 3870 02ae 82DB     		blt	.L259
 3871              		.loc 1 1721 0
 3872 02b0 18F0C00F 		tst	r8, #192
 3873 02b4 08D0     		beq	.L260
 3874              		.loc 1 1721 0 is_stmt 0 discriminator 1
 3875 02b6 06EB0B03 		add	r3, r6, fp
 3876 02ba 2384     		strh	r3, [r4, #32]	@ movhi
ARM GAS  /var/folders/_2/42wyrlld3p52fkcpt1lv6gxh0000gp/T//ccpbLF3Z.s 			page 69


 3877 02bc 05EB0903 		add	r3, r5, r9
 3878 02c0 6384     		strh	r3, [r4, #34]	@ movhi
 3879 02c2 2046     		mov	r0, r4
 3880 02c4 FFF7FEFF 		bl	drawpixel
 3881              	.LVL349:
 3882              	.L260:
 3883              		.loc 1 1722 0 is_stmt 1
 3884 02c8 18F00C0F 		tst	r8, #12
 3885 02cc 08D0     		beq	.L261
 3886              		.loc 1 1722 0 is_stmt 0 discriminator 1
 3887 02ce CBEB0603 		rsb	r3, fp, r6
 3888 02d2 2384     		strh	r3, [r4, #32]	@ movhi
 3889 02d4 C9EB0503 		rsb	r3, r9, r5
 3890 02d8 6384     		strh	r3, [r4, #34]	@ movhi
 3891 02da 2046     		mov	r0, r4
 3892 02dc FFF7FEFF 		bl	drawpixel
 3893              	.LVL350:
 3894              	.L261:
 3895              		.loc 1 1723 0 is_stmt 1
 3896 02e0 18F0030F 		tst	r8, #3
 3897 02e4 08D0     		beq	.L262
 3898              		.loc 1 1723 0 is_stmt 0 discriminator 1
 3899 02e6 06EB0B03 		add	r3, r6, fp
 3900 02ea 2384     		strh	r3, [r4, #32]	@ movhi
 3901 02ec C9EB0503 		rsb	r3, r9, r5
 3902 02f0 6384     		strh	r3, [r4, #34]	@ movhi
 3903 02f2 2046     		mov	r0, r4
 3904 02f4 FFF7FEFF 		bl	drawpixel
 3905              	.LVL351:
 3906              	.L262:
 3907              		.loc 1 1724 0 is_stmt 1
 3908 02f8 18F0300F 		tst	r8, #48
 3909 02fc 0DD0     		beq	.L244
 3910              		.loc 1 1724 0 is_stmt 0 discriminator 1
 3911 02fe CBEB060B 		rsb	fp, fp, r6
 3912              	.LVL352:
 3913 0302 A944     		add	r9, r9, r5
 3914              	.LVL353:
 3915 0304 A4F820B0 		strh	fp, [r4, #32]	@ movhi
 3916 0308 A4F82290 		strh	r9, [r4, #34]	@ movhi
 3917 030c 2046     		mov	r0, r4
 3918 030e FFF7FEFF 		bl	drawpixel
 3919              	.LVL354:
 3920              		.loc 1 1725 0 is_stmt 1 discriminator 1
 3921 0312 B8F1FF0F 		cmp	r8, #255
 3922 0316 00F0A384 		beq	.L327
 3923              	.LVL355:
 3924              	.L244:
 3925              		.loc 1 1739 0
 3926 031a 5046     		mov	r0, r10
 3927 031c FFF7FEFF 		bl	__aeabi_i2d
 3928              	.LVL356:
 3929 0320 FB6B     		ldr	r3, [r7, #60]
 3930 0322 C7E90801 		strd	r0, [r7, #32]
 3931 0326 13F0990F 		tst	r3, #153
 3932 032a 786B     		ldr	r0, [r7, #52]
 3933 032c 0DD0     		beq	.L265
ARM GAS  /var/folders/_2/42wyrlld3p52fkcpt1lv6gxh0000gp/T//ccpbLF3Z.s 			page 70


 3934              		.loc 1 1739 0 is_stmt 0 discriminator 1
 3935 032e FFF7FEFF 		bl	__aeabi_i2d
 3936              	.LVL357:
 3937 0332 1BA3     		adr	r3, .L721
 3938 0334 D3E90023 		ldrd	r2, [r3]
 3939 0338 FFF7FEFF 		bl	__aeabi_dmul
 3940              	.LVL358:
 3941 033c 0022     		movs	r2, #0
 3942 033e 1A4B     		ldr	r3, .L721+8
 3943 0340 FFF7FEFF 		bl	__aeabi_ddiv
 3944              	.LVL359:
 3945 0344 FFF7FEFF 		bl	sin
 3946              	.LVL360:
 3947 0348 0CE0     		b	.L266
 3948              	.L265:
 3949              		.loc 1 1739 0 discriminator 2
 3950 034a FFF7FEFF 		bl	__aeabi_i2d
 3951              	.LVL361:
 3952 034e 14A3     		adr	r3, .L721
 3953 0350 D3E90023 		ldrd	r2, [r3]
 3954 0354 FFF7FEFF 		bl	__aeabi_dmul
 3955              	.LVL362:
 3956 0358 0022     		movs	r2, #0
 3957 035a 134B     		ldr	r3, .L721+8
 3958 035c FFF7FEFF 		bl	__aeabi_ddiv
 3959              	.LVL363:
 3960 0360 FFF7FEFF 		bl	cos
 3961              	.LVL364:
 3962              	.L266:
 3963              		.loc 1 1739 0 discriminator 4
 3964 0364 D7E90823 		ldrd	r2, [r7, #32]
 3965 0368 FFF7FEFF 		bl	__aeabi_dmul
 3966              	.LVL365:
 3967 036c FFF7FEFF 		bl	round
 3968              	.LVL366:
 3969 0370 FFF7FEFF 		bl	__aeabi_d2iz
 3970              	.LVL367:
 3971              		.loc 1 1740 0 is_stmt 1 discriminator 4
 3972 0374 BB6B     		ldr	r3, [r7, #56]
 3973              		.loc 1 1739 0 discriminator 4
 3974 0376 0FFA80F8 		sxth	r8, r0
 3975              	.LVL368:
 3976              		.loc 1 1740 0 discriminator 4
 3977 037a 13F0990F 		tst	r3, #153
 3978 037e 386B     		ldr	r0, [r7, #48]
 3979 0380 14D0     		beq	.L267
 3980              		.loc 1 1740 0 is_stmt 0 discriminator 1
 3981 0382 FFF7FEFF 		bl	__aeabi_i2d
 3982              	.LVL369:
 3983 0386 06A3     		adr	r3, .L721
 3984 0388 D3E90023 		ldrd	r2, [r3]
 3985 038c FFF7FEFF 		bl	__aeabi_dmul
 3986              	.LVL370:
 3987 0390 0022     		movs	r2, #0
 3988 0392 054B     		ldr	r3, .L721+8
 3989 0394 FFF7FEFF 		bl	__aeabi_ddiv
 3990              	.LVL371:
ARM GAS  /var/folders/_2/42wyrlld3p52fkcpt1lv6gxh0000gp/T//ccpbLF3Z.s 			page 71


 3991 0398 FFF7FEFF 		bl	sin
 3992              	.LVL372:
 3993 039c 13E0     		b	.L268
 3994              	.L722:
 3995 039e 00BF     		.align	3
 3996              	.L721:
 3997 03a0 182D4454 		.word	1413754136
 3998 03a4 FB210940 		.word	1074340347
 3999 03a8 00806640 		.word	1080459264
 4000              	.L267:
 4001              		.loc 1 1740 0 discriminator 2
 4002 03ac FFF7FEFF 		bl	__aeabi_i2d
 4003              	.LVL373:
 4004 03b0 93A3     		adr	r3, .L723
 4005 03b2 D3E90023 		ldrd	r2, [r3]
 4006 03b6 FFF7FEFF 		bl	__aeabi_dmul
 4007              	.LVL374:
 4008 03ba 0022     		movs	r2, #0
 4009 03bc 924B     		ldr	r3, .L723+8
 4010 03be FFF7FEFF 		bl	__aeabi_ddiv
 4011              	.LVL375:
 4012 03c2 FFF7FEFF 		bl	cos
 4013              	.LVL376:
 4014              	.L268:
 4015              		.loc 1 1740 0 discriminator 4
 4016 03c6 D7E90823 		ldrd	r2, [r7, #32]
 4017 03ca FFF7FEFF 		bl	__aeabi_dmul
 4018              	.LVL377:
 4019 03ce FFF7FEFF 		bl	round
 4020              	.LVL378:
 4021 03d2 FFF7FEFF 		bl	__aeabi_d2iz
 4022              	.LVL379:
 4023              		.loc 1 1742 0 is_stmt 1 discriminator 4
 4024 03d6 FB6B     		ldr	r3, [r7, #60]
 4025              		.loc 1 1740 0 discriminator 4
 4026 03d8 0FFA80F9 		sxth	r9, r0
 4027              	.LVL380:
 4028              		.loc 1 1742 0 discriminator 4
 4029 03dc 13F0B40F 		tst	r3, #180
 4030              		.loc 1 1743 0 discriminator 4
 4031 03e0 BB6B     		ldr	r3, [r7, #56]
 4032              		.loc 1 1742 0 discriminator 4
 4033 03e2 1CBF     		itt	ne
 4034 03e4 C8F10008 		rsbne	r8, r8, #0
 4035              	.LVL381:
 4036 03e8 0FFA88F8 		sxthne	r8, r8
 4037              	.LVL382:
 4038              		.loc 1 1745 0 discriminator 4
 4039 03ec 7A69     		ldr	r2, [r7, #20]
 4040              		.loc 1 1743 0 discriminator 4
 4041 03ee 13F0B40F 		tst	r3, #180
 4042              		.loc 1 1745 0 discriminator 4
 4043 03f2 FB69     		ldr	r3, [r7, #28]
 4044              		.loc 1 1743 0 discriminator 4
 4045 03f4 1CBF     		itt	ne
 4046 03f6 C9F10009 		rsbne	r9, r9, #0
 4047              	.LVL383:
ARM GAS  /var/folders/_2/42wyrlld3p52fkcpt1lv6gxh0000gp/T//ccpbLF3Z.s 			page 72


 4048 03fa 0FFA89F9 		sxthne	r9, r9
 4049              	.LVL384:
 4050              		.loc 1 1745 0 discriminator 4
 4051 03fe 9342     		cmp	r3, r2
 4052 0400 FB6B     		ldr	r3, [r7, #60]
 4053 0402 1FFA8AFB 		uxth	fp, r10
 4054 0406 03F02003 		and	r3, r3, #32
 4055 040a 3B62     		str	r3, [r7, #32]
 4056 040c 00F07781 		beq	.L271
 4057              	.LVL385:
 4058              		.loc 1 1750 0
 4059 0410 CBF10403 		rsb	r3, fp, #4
 4060 0414 1BB2     		sxth	r3, r3
 4061 0416 7B63     		str	r3, [r7, #52]
 4062              	.LVL386:
 4063              		.loc 1 1751 0
 4064 0418 3B6A     		ldr	r3, [r7, #32]
 4065 041a 2BB9     		cbnz	r3, .L272
 4066              		.loc 1 1751 0 is_stmt 0 discriminator 2
 4067 041c BB6A     		ldr	r3, [r7, #40]
 4068 041e 5806     		lsls	r0, r3, #25
 4069 0420 02D4     		bmi	.L272
 4070              		.loc 1 1751 0 discriminator 4
 4071 0422 BB6B     		ldr	r3, [r7, #56]
 4072 0424 5906     		lsls	r1, r3, #25
 4073 0426 06D5     		bpl	.L273
 4074              	.L272:
 4075              		.loc 1 1751 0 discriminator 5
 4076 0428 0BEB0503 		add	r3, fp, r5
 4077 042c 2684     		strh	r6, [r4, #32]	@ movhi
 4078 042e 6384     		strh	r3, [r4, #34]	@ movhi
 4079 0430 2046     		mov	r0, r4
 4080 0432 FFF7FEFF 		bl	drawpixel
 4081              	.LVL387:
 4082              	.L273:
 4083              		.loc 1 1752 0 is_stmt 1
 4084 0436 FB6B     		ldr	r3, [r7, #60]
 4085 0438 13F00203 		ands	r3, r3, #2
 4086 043c FB61     		str	r3, [r7, #28]
 4087              	.LVL388:
 4088 043e 05D1     		bne	.L274
 4089              		.loc 1 1752 0 is_stmt 0 discriminator 2
 4090 0440 BB6A     		ldr	r3, [r7, #40]
 4091 0442 5A07     		lsls	r2, r3, #29
 4092 0444 02D4     		bmi	.L274
 4093              		.loc 1 1752 0 discriminator 4
 4094 0446 BB6B     		ldr	r3, [r7, #56]
 4095 0448 5B07     		lsls	r3, r3, #29
 4096 044a 06D5     		bpl	.L275
 4097              	.L274:
 4098              		.loc 1 1752 0 discriminator 5
 4099 044c CBEB0503 		rsb	r3, fp, r5
 4100 0450 2684     		strh	r6, [r4, #32]	@ movhi
 4101 0452 6384     		strh	r3, [r4, #34]	@ movhi
 4102 0454 2046     		mov	r0, r4
 4103 0456 FFF7FEFF 		bl	drawpixel
 4104              	.LVL389:
ARM GAS  /var/folders/_2/42wyrlld3p52fkcpt1lv6gxh0000gp/T//ccpbLF3Z.s 			page 73


 4105              	.L275:
 4106              		.loc 1 1753 0 is_stmt 1
 4107 045a 97F93C30 		ldrsb	r3, [r7, #60]
 4108 045e 002B     		cmp	r3, #0
 4109 0460 3B63     		str	r3, [r7, #48]
 4110              	.LVL390:
 4111 0462 04DB     		blt	.L276
 4112              		.loc 1 1753 0 is_stmt 0 discriminator 2
 4113 0464 BB6A     		ldr	r3, [r7, #40]
 4114 0466 D807     		lsls	r0, r3, #31
 4115 0468 01D4     		bmi	.L276
 4116              		.loc 1 1753 0 discriminator 4
 4117 046a BB69     		ldr	r3, [r7, #24]
 4118 046c 33B9     		cbnz	r3, .L277
 4119              	.L276:
 4120              		.loc 1 1753 0 discriminator 5
 4121 046e 0BEB0603 		add	r3, fp, r6
 4122 0472 2384     		strh	r3, [r4, #32]	@ movhi
 4123 0474 6584     		strh	r5, [r4, #34]	@ movhi
 4124 0476 2046     		mov	r0, r4
 4125 0478 FFF7FEFF 		bl	drawpixel
 4126              	.LVL391:
 4127              	.L277:
 4128              		.loc 1 1754 0 is_stmt 1
 4129 047c FB6B     		ldr	r3, [r7, #60]
 4130 047e 13F00803 		ands	r3, r3, #8
 4131 0482 7B61     		str	r3, [r7, #20]
 4132              	.LVL392:
 4133 0484 05D1     		bne	.L278
 4134              		.loc 1 1754 0 is_stmt 0 discriminator 2
 4135 0486 BB6A     		ldr	r3, [r7, #40]
 4136 0488 D906     		lsls	r1, r3, #27
 4137 048a 02D4     		bmi	.L278
 4138              		.loc 1 1754 0 discriminator 4
 4139 048c BB6B     		ldr	r3, [r7, #56]
 4140 048e DA06     		lsls	r2, r3, #27
 4141 0490 07D5     		bpl	.L279
 4142              	.L278:
 4143              		.loc 1 1754 0 discriminator 5
 4144 0492 CBEB060B 		rsb	fp, fp, r6
 4145 0496 A4F820B0 		strh	fp, [r4, #32]	@ movhi
 4146 049a 6584     		strh	r5, [r4, #34]	@ movhi
 4147 049c 2046     		mov	r0, r4
 4148 049e FFF7FEFF 		bl	drawpixel
 4149              	.LVL393:
 4150              	.L279:
 4151              		.loc 1 1757 0 is_stmt 1
 4152 04a2 BB6B     		ldr	r3, [r7, #56]
 4153              		.loc 1 1719 0
 4154 04a4 4FF0010B 		mov	fp, #1
 4155              		.loc 1 1757 0
 4156 04a8 03F00203 		and	r3, r3, #2
 4157 04ac BB60     		str	r3, [r7, #8]
 4158              		.loc 1 1758 0
 4159 04ae FB6B     		ldr	r3, [r7, #60]
 4160 04b0 03F00403 		and	r3, r3, #4
 4161 04b4 BB62     		str	r3, [r7, #40]
ARM GAS  /var/folders/_2/42wyrlld3p52fkcpt1lv6gxh0000gp/T//ccpbLF3Z.s 			page 74


 4162              	.LVL394:
 4163 04b6 BB6B     		ldr	r3, [r7, #56]
 4164 04b8 03F00403 		and	r3, r3, #4
 4165 04bc 7B60     		str	r3, [r7, #4]
 4166              	.LVL395:
 4167              	.L306:
 4168              		.loc 1 1756 0
 4169 04be FB6A     		ldr	r3, [r7, #44]
 4170 04c0 0BB9     		cbnz	r3, .L280
 4171              		.loc 1 1756 0 is_stmt 0 discriminator 1
 4172 04c2 C345     		cmp	fp, r8
 4173 04c4 03DA     		bge	.L281
 4174              	.L280:
 4175              		.loc 1 1756 0 discriminator 4
 4176 04c6 BB69     		ldr	r3, [r7, #24]
 4177 04c8 53B9     		cbnz	r3, .L282
 4178              		.loc 1 1756 0 discriminator 5
 4179 04ca CB45     		cmp	fp, r9
 4180 04cc 08DC     		bgt	.L282
 4181              	.L281:
 4182              		.loc 1 1756 0 discriminator 6
 4183 04ce 06EB0A02 		add	r2, r6, r10
 4184 04d2 2284     		strh	r2, [r4, #32]	@ movhi
 4185 04d4 CBEB0502 		rsb	r2, fp, r5
 4186 04d8 6284     		strh	r2, [r4, #34]	@ movhi
 4187 04da 2046     		mov	r0, r4
 4188 04dc FFF7FEFF 		bl	drawpixel
 4189              	.LVL396:
 4190              	.L282:
 4191              		.loc 1 1757 0 is_stmt 1
 4192 04e0 FB69     		ldr	r3, [r7, #28]
 4193 04e2 0BB1     		cbz	r3, .L283
 4194              		.loc 1 1757 0 is_stmt 0 discriminator 1
 4195 04e4 C345     		cmp	fp, r8
 4196 04e6 03DD     		ble	.L284
 4197              	.L283:
 4198              		.loc 1 1757 0 discriminator 4
 4199 04e8 BB68     		ldr	r3, [r7, #8]
 4200 04ea 53B1     		cbz	r3, .L285
 4201              		.loc 1 1757 0 discriminator 5
 4202 04ec CB45     		cmp	fp, r9
 4203 04ee 08DB     		blt	.L285
 4204              	.L284:
 4205              		.loc 1 1757 0 discriminator 6
 4206 04f0 06EB0B02 		add	r2, r6, fp
 4207 04f4 2284     		strh	r2, [r4, #32]	@ movhi
 4208 04f6 CAEB0502 		rsb	r2, r10, r5
 4209 04fa 6284     		strh	r2, [r4, #34]	@ movhi
 4210 04fc 2046     		mov	r0, r4
 4211 04fe FFF7FEFF 		bl	drawpixel
 4212              	.LVL397:
 4213              	.L285:
 4214              		.loc 1 1758 0 is_stmt 1
 4215 0502 BB6A     		ldr	r3, [r7, #40]
 4216 0504 0BB1     		cbz	r3, .L286
 4217              		.loc 1 1758 0 is_stmt 0 discriminator 1
 4218 0506 C345     		cmp	fp, r8
ARM GAS  /var/folders/_2/42wyrlld3p52fkcpt1lv6gxh0000gp/T//ccpbLF3Z.s 			page 75


 4219 0508 03DA     		bge	.L287
 4220              	.L286:
 4221              		.loc 1 1758 0 discriminator 4
 4222 050a 7B68     		ldr	r3, [r7, #4]
 4223 050c 53B1     		cbz	r3, .L288
 4224              		.loc 1 1758 0 discriminator 5
 4225 050e CB45     		cmp	fp, r9
 4226 0510 08DC     		bgt	.L288
 4227              	.L287:
 4228              		.loc 1 1758 0 discriminator 6
 4229 0512 CBEB0602 		rsb	r2, fp, r6
 4230 0516 2284     		strh	r2, [r4, #32]	@ movhi
 4231 0518 CAEB0502 		rsb	r2, r10, r5
 4232 051c 6284     		strh	r2, [r4, #34]	@ movhi
 4233 051e 2046     		mov	r0, r4
 4234 0520 FFF7FEFF 		bl	drawpixel
 4235              	.LVL398:
 4236              	.L288:
 4237              		.loc 1 1759 0 is_stmt 1
 4238 0524 7B69     		ldr	r3, [r7, #20]
 4239 0526 0BB1     		cbz	r3, .L289
 4240              		.loc 1 1759 0 is_stmt 0 discriminator 1
 4241 0528 C345     		cmp	fp, r8
 4242 052a 04DD     		ble	.L290
 4243              	.L289:
 4244              		.loc 1 1759 0 discriminator 4
 4245 052c BB6B     		ldr	r3, [r7, #56]
 4246 052e 1B07     		lsls	r3, r3, #28
 4247 0530 0AD5     		bpl	.L291
 4248              		.loc 1 1759 0 discriminator 5
 4249 0532 CB45     		cmp	fp, r9
 4250 0534 08DB     		blt	.L291
 4251              	.L290:
 4252              		.loc 1 1759 0 discriminator 6
 4253 0536 CAEB0602 		rsb	r2, r10, r6
 4254 053a 2284     		strh	r2, [r4, #32]	@ movhi
 4255 053c CBEB0502 		rsb	r2, fp, r5
 4256 0540 6284     		strh	r2, [r4, #34]	@ movhi
 4257 0542 2046     		mov	r0, r4
 4258 0544 FFF7FEFF 		bl	drawpixel
 4259              	.LVL399:
 4260              	.L291:
 4261              		.loc 1 1760 0 is_stmt 1
 4262 0548 FB6B     		ldr	r3, [r7, #60]
 4263 054a 13F01003 		ands	r3, r3, #16
 4264 054e 3B61     		str	r3, [r7, #16]
 4265 0550 01D0     		beq	.L292
 4266              		.loc 1 1760 0 is_stmt 0 discriminator 1
 4267 0552 C345     		cmp	fp, r8
 4268 0554 04DA     		bge	.L293
 4269              	.L292:
 4270              		.loc 1 1760 0 discriminator 4
 4271 0556 BB6B     		ldr	r3, [r7, #56]
 4272 0558 D806     		lsls	r0, r3, #27
 4273 055a 0AD5     		bpl	.L294
 4274              		.loc 1 1760 0 discriminator 5
 4275 055c CB45     		cmp	fp, r9
ARM GAS  /var/folders/_2/42wyrlld3p52fkcpt1lv6gxh0000gp/T//ccpbLF3Z.s 			page 76


 4276 055e 08DC     		bgt	.L294
 4277              	.L293:
 4278              		.loc 1 1760 0 discriminator 6
 4279 0560 CAEB0602 		rsb	r2, r10, r6
 4280 0564 2284     		strh	r2, [r4, #32]	@ movhi
 4281 0566 05EB0B02 		add	r2, r5, fp
 4282 056a 6284     		strh	r2, [r4, #34]	@ movhi
 4283 056c 2046     		mov	r0, r4
 4284 056e FFF7FEFF 		bl	drawpixel
 4285              	.LVL400:
 4286              	.L294:
 4287              		.loc 1 1761 0 is_stmt 1
 4288 0572 3B6A     		ldr	r3, [r7, #32]
 4289 0574 0BB1     		cbz	r3, .L295
 4290              		.loc 1 1761 0 is_stmt 0 discriminator 1
 4291 0576 C345     		cmp	fp, r8
 4292 0578 04DD     		ble	.L296
 4293              	.L295:
 4294              		.loc 1 1761 0 discriminator 4
 4295 057a BB6B     		ldr	r3, [r7, #56]
 4296 057c 9906     		lsls	r1, r3, #26
 4297 057e 0AD5     		bpl	.L297
 4298              		.loc 1 1761 0 discriminator 5
 4299 0580 CB45     		cmp	fp, r9
 4300 0582 08DB     		blt	.L297
 4301              	.L296:
 4302              		.loc 1 1761 0 discriminator 6
 4303 0584 CBEB0602 		rsb	r2, fp, r6
 4304 0588 2284     		strh	r2, [r4, #32]	@ movhi
 4305 058a 05EB0A02 		add	r2, r5, r10
 4306 058e 6284     		strh	r2, [r4, #34]	@ movhi
 4307 0590 2046     		mov	r0, r4
 4308 0592 FFF7FEFF 		bl	drawpixel
 4309              	.LVL401:
 4310              	.L297:
 4311              		.loc 1 1762 0 is_stmt 1
 4312 0596 FB6B     		ldr	r3, [r7, #60]
 4313 0598 13F04003 		ands	r3, r3, #64
 4314 059c FB60     		str	r3, [r7, #12]
 4315 059e 01D0     		beq	.L298
 4316              		.loc 1 1762 0 is_stmt 0 discriminator 1
 4317 05a0 C345     		cmp	fp, r8
 4318 05a2 04DA     		bge	.L299
 4319              	.L298:
 4320              		.loc 1 1762 0 discriminator 4
 4321 05a4 BB6B     		ldr	r3, [r7, #56]
 4322 05a6 5A06     		lsls	r2, r3, #25
 4323 05a8 0AD5     		bpl	.L300
 4324              		.loc 1 1762 0 discriminator 5
 4325 05aa CB45     		cmp	fp, r9
 4326 05ac 08DC     		bgt	.L300
 4327              	.L299:
 4328              		.loc 1 1762 0 discriminator 6
 4329 05ae 06EB0B02 		add	r2, r6, fp
 4330 05b2 2284     		strh	r2, [r4, #32]	@ movhi
 4331 05b4 05EB0A02 		add	r2, r5, r10
 4332 05b8 6284     		strh	r2, [r4, #34]	@ movhi
ARM GAS  /var/folders/_2/42wyrlld3p52fkcpt1lv6gxh0000gp/T//ccpbLF3Z.s 			page 77


 4333 05ba 2046     		mov	r0, r4
 4334 05bc FFF7FEFF 		bl	drawpixel
 4335              	.LVL402:
 4336              	.L300:
 4337              		.loc 1 1763 0 is_stmt 1
 4338 05c0 3B6B     		ldr	r3, [r7, #48]
 4339 05c2 002B     		cmp	r3, #0
 4340 05c4 01DA     		bge	.L301
 4341              		.loc 1 1763 0 is_stmt 0 discriminator 1
 4342 05c6 C345     		cmp	fp, r8
 4343 05c8 04DD     		ble	.L302
 4344              	.L301:
 4345              		.loc 1 1763 0 discriminator 4
 4346 05ca BB6B     		ldr	r3, [r7, #56]
 4347 05cc 1B06     		lsls	r3, r3, #24
 4348 05ce 0AD5     		bpl	.L303
 4349              		.loc 1 1763 0 discriminator 5
 4350 05d0 CB45     		cmp	fp, r9
 4351 05d2 08DB     		blt	.L303
 4352              	.L302:
 4353              		.loc 1 1763 0 discriminator 6
 4354 05d4 06EB0A02 		add	r2, r6, r10
 4355 05d8 2284     		strh	r2, [r4, #32]	@ movhi
 4356 05da 05EB0B02 		add	r2, r5, fp
 4357 05de 6284     		strh	r2, [r4, #34]	@ movhi
 4358 05e0 2046     		mov	r0, r4
 4359 05e2 FFF7FEFF 		bl	drawpixel
 4360              	.LVL403:
 4361              	.L303:
 4362              		.loc 1 1764 0 is_stmt 1
 4363 05e6 7B6B     		ldr	r3, [r7, #52]
 4364 05e8 0BF10102 		add	r2, fp, #1
 4365 05ec 002B     		cmp	r3, #0
 4366 05ee 0DDA     		bge	.L304
 4367              	.LVL404:
 4368              		.loc 1 1765 0
 4369 05f0 03EB4B03 		add	r3, r3, fp, lsl #1
 4370 05f4 0333     		adds	r3, r3, #3
 4371 05f6 1BB2     		sxth	r3, r3
 4372 05f8 7B63     		str	r3, [r7, #52]
 4373              	.LVL405:
 4374 05fa 15E0     		b	.L706
 4375              	.L724:
 4376 05fc AFF30080 		.align	3
 4377              	.L723:
 4378 0600 182D4454 		.word	1413754136
 4379 0604 FB210940 		.word	1074340347
 4380 0608 00806640 		.word	1080459264
 4381              	.LVL406:
 4382              	.L304:
 4383              		.loc 1 1767 0
 4384 060c 7B6B     		ldr	r3, [r7, #52]
 4385 060e 0AF1FF31 		add	r1, r10, #-1
 4386              	.LVL407:
 4387 0612 CAEB0B0A 		rsb	r10, r10, fp
 4388 0616 03EB4A0A 		add	r10, r3, r10, lsl #1
 4389 061a 0AF1050A 		add	r10, r10, #5
ARM GAS  /var/folders/_2/42wyrlld3p52fkcpt1lv6gxh0000gp/T//ccpbLF3Z.s 			page 78


 4390 061e 0FFA8AF3 		sxth	r3, r10
 4391 0622 7B63     		str	r3, [r7, #52]
 4392              	.LVL408:
 4393 0624 0FFA81FA 		sxth	r10, r1
 4394              	.LVL409:
 4395              	.L706:
 4396 0628 0FFA82FB 		sxth	fp, r2
 4397              	.LVL410:
 4398              		.loc 1 1768 0
 4399 062c D345     		cmp	fp, r10
 4400 062e FFF646AF 		blt	.L306
 4401              		.loc 1 1769 0
 4402 0632 FB68     		ldr	r3, [r7, #12]
 4403 0634 0BB1     		cbz	r3, .L307
 4404              		.loc 1 1769 0 is_stmt 0 discriminator 1
 4405 0636 C345     		cmp	fp, r8
 4406 0638 0EDA     		bge	.L308
 4407              	.L307:
 4408              		.loc 1 1769 0 discriminator 3
 4409 063a BB6B     		ldr	r3, [r7, #56]
 4410 063c 5806     		lsls	r0, r3, #25
 4411 063e 01D5     		bpl	.L309
 4412              		.loc 1 1769 0 discriminator 4
 4413 0640 CB45     		cmp	fp, r9
 4414 0642 09DD     		ble	.L308
 4415              	.L309:
 4416              		.loc 1 1769 0 discriminator 6
 4417 0644 3B6B     		ldr	r3, [r7, #48]
 4418 0646 002B     		cmp	r3, #0
 4419 0648 01DA     		bge	.L310
 4420              		.loc 1 1769 0 discriminator 7
 4421 064a C345     		cmp	fp, r8
 4422 064c 04DD     		ble	.L308
 4423              	.L310:
 4424              		.loc 1 1769 0 discriminator 9
 4425 064e BB6B     		ldr	r3, [r7, #56]
 4426 0650 1906     		lsls	r1, r3, #24
 4427 0652 0AD5     		bpl	.L311
 4428              		.loc 1 1769 0 discriminator 10
 4429 0654 CB45     		cmp	fp, r9
 4430 0656 08DB     		blt	.L311
 4431              	.L308:
 4432              		.loc 1 1770 0 is_stmt 1
 4433 0658 06EB0B02 		add	r2, r6, fp
 4434 065c 2284     		strh	r2, [r4, #32]	@ movhi
 4435 065e 05EB0A02 		add	r2, r5, r10
 4436 0662 6284     		strh	r2, [r4, #34]	@ movhi
 4437 0664 2046     		mov	r0, r4
 4438 0666 FFF7FEFF 		bl	drawpixel
 4439              	.LVL411:
 4440              	.L311:
 4441              		.loc 1 1771 0
 4442 066a BB6A     		ldr	r3, [r7, #40]
 4443 066c 0BB1     		cbz	r3, .L312
 4444              		.loc 1 1771 0 is_stmt 0 discriminator 1
 4445 066e C345     		cmp	fp, r8
 4446 0670 0DDA     		bge	.L313
ARM GAS  /var/folders/_2/42wyrlld3p52fkcpt1lv6gxh0000gp/T//ccpbLF3Z.s 			page 79


 4447              	.L312:
 4448              		.loc 1 1771 0 discriminator 3
 4449 0672 BB6B     		ldr	r3, [r7, #56]
 4450 0674 5A07     		lsls	r2, r3, #29
 4451 0676 01D5     		bpl	.L314
 4452              		.loc 1 1771 0 discriminator 4
 4453 0678 CB45     		cmp	fp, r9
 4454 067a 08DD     		ble	.L313
 4455              	.L314:
 4456              		.loc 1 1771 0 discriminator 6
 4457 067c 7B69     		ldr	r3, [r7, #20]
 4458 067e 0BB1     		cbz	r3, .L315
 4459              		.loc 1 1771 0 discriminator 7
 4460 0680 C345     		cmp	fp, r8
 4461 0682 04DD     		ble	.L313
 4462              	.L315:
 4463              		.loc 1 1771 0 discriminator 9
 4464 0684 BB6B     		ldr	r3, [r7, #56]
 4465 0686 1B07     		lsls	r3, r3, #28
 4466 0688 0AD5     		bpl	.L316
 4467              		.loc 1 1771 0 discriminator 10
 4468 068a CB45     		cmp	fp, r9
 4469 068c 08DB     		blt	.L316
 4470              	.L313:
 4471              		.loc 1 1772 0 is_stmt 1
 4472 068e CBEB0602 		rsb	r2, fp, r6
 4473 0692 2284     		strh	r2, [r4, #32]	@ movhi
 4474 0694 CAEB0502 		rsb	r2, r10, r5
 4475 0698 6284     		strh	r2, [r4, #34]	@ movhi
 4476 069a 2046     		mov	r0, r4
 4477 069c FFF7FEFF 		bl	drawpixel
 4478              	.LVL412:
 4479              	.L316:
 4480              		.loc 1 1773 0
 4481 06a0 FB6A     		ldr	r3, [r7, #44]
 4482 06a2 0BB9     		cbnz	r3, .L317
 4483              		.loc 1 1773 0 is_stmt 0 discriminator 1
 4484 06a4 C345     		cmp	fp, r8
 4485 06a6 0CDA     		bge	.L318
 4486              	.L317:
 4487              		.loc 1 1773 0 discriminator 3
 4488 06a8 BB69     		ldr	r3, [r7, #24]
 4489 06aa 0BB9     		cbnz	r3, .L319
 4490              		.loc 1 1773 0 discriminator 4
 4491 06ac CB45     		cmp	fp, r9
 4492 06ae 08DD     		ble	.L318
 4493              	.L319:
 4494              		.loc 1 1773 0 discriminator 6
 4495 06b0 FB69     		ldr	r3, [r7, #28]
 4496 06b2 0BB1     		cbz	r3, .L320
 4497              		.loc 1 1773 0 discriminator 7
 4498 06b4 C345     		cmp	fp, r8
 4499 06b6 04DD     		ble	.L318
 4500              	.L320:
 4501              		.loc 1 1773 0 discriminator 9
 4502 06b8 BB6B     		ldr	r3, [r7, #56]
 4503 06ba 9807     		lsls	r0, r3, #30
ARM GAS  /var/folders/_2/42wyrlld3p52fkcpt1lv6gxh0000gp/T//ccpbLF3Z.s 			page 80


 4504 06bc 0AD5     		bpl	.L321
 4505              		.loc 1 1773 0 discriminator 10
 4506 06be CB45     		cmp	fp, r9
 4507 06c0 08DB     		blt	.L321
 4508              	.L318:
 4509              		.loc 1 1774 0 is_stmt 1
 4510 06c2 06EB0B02 		add	r2, r6, fp
 4511 06c6 2284     		strh	r2, [r4, #32]	@ movhi
 4512 06c8 CAEB0502 		rsb	r2, r10, r5
 4513 06cc 6284     		strh	r2, [r4, #34]	@ movhi
 4514 06ce 2046     		mov	r0, r4
 4515 06d0 FFF7FEFF 		bl	drawpixel
 4516              	.LVL413:
 4517              	.L321:
 4518              		.loc 1 1775 0
 4519 06d4 3B69     		ldr	r3, [r7, #16]
 4520 06d6 13B1     		cbz	r3, .L322
 4521              		.loc 1 1775 0 is_stmt 0 discriminator 1
 4522 06d8 C345     		cmp	fp, r8
 4523 06da 80F2B482 		bge	.L440
 4524              	.L322:
 4525              		.loc 1 1775 0 discriminator 3
 4526 06de BB6B     		ldr	r3, [r7, #56]
 4527 06e0 D906     		lsls	r1, r3, #27
 4528 06e2 02D5     		bpl	.L324
 4529              		.loc 1 1775 0 discriminator 4
 4530 06e4 CB45     		cmp	fp, r9
 4531 06e6 40F3AE82 		ble	.L440
 4532              	.L324:
 4533              		.loc 1 1775 0 discriminator 6
 4534 06ea 3B6A     		ldr	r3, [r7, #32]
 4535 06ec 13B1     		cbz	r3, .L325
 4536              		.loc 1 1775 0 discriminator 7
 4537 06ee C345     		cmp	fp, r8
 4538 06f0 40F3A982 		ble	.L440
 4539              	.L325:
 4540              		.loc 1 1775 0 discriminator 9
 4541 06f4 BB6B     		ldr	r3, [r7, #56]
 4542 06f6 9A06     		lsls	r2, r3, #26
 4543 06f8 40F1B282 		bpl	.L327
 4544 06fc AEE2     		b	.L460
 4545              	.LVL414:
 4546              	.L271:
 4547              		.loc 1 1777 0 is_stmt 1
 4548 06fe 7B6B     		ldr	r3, [r7, #52]
 4549 0700 3A6B     		ldr	r2, [r7, #48]
 4550 0702 9342     		cmp	r3, r2
 4551              		.loc 1 1782 0
 4552 0704 CBF10403 		rsb	r3, fp, #4
 4553 0708 1BB2     		sxth	r3, r3
 4554              		.loc 1 1777 0
 4555 070a 40F35281 		ble	.L329
 4556              	.LVL415:
 4557              		.loc 1 1782 0
 4558 070e BB63     		str	r3, [r7, #56]
 4559              	.LVL416:
 4560              		.loc 1 1783 0
ARM GAS  /var/folders/_2/42wyrlld3p52fkcpt1lv6gxh0000gp/T//ccpbLF3Z.s 			page 81


 4561 0710 FB6B     		ldr	r3, [r7, #60]
 4562 0712 13F0600F 		tst	r3, #96
 4563 0716 03D1     		bne	.L330
 4564              		.loc 1 1783 0 is_stmt 0 discriminator 2
 4565 0718 BB6A     		ldr	r3, [r7, #40]
 4566 071a 13F0C00F 		tst	r3, #192
 4567 071e 06D0     		beq	.L331
 4568              	.L330:
 4569              		.loc 1 1783 0 discriminator 3
 4570 0720 0BEB0503 		add	r3, fp, r5
 4571 0724 2684     		strh	r6, [r4, #32]	@ movhi
 4572 0726 6384     		strh	r3, [r4, #34]	@ movhi
 4573 0728 2046     		mov	r0, r4
 4574 072a FFF7FEFF 		bl	drawpixel
 4575              	.LVL417:
 4576              	.L331:
 4577              		.loc 1 1784 0 is_stmt 1
 4578 072e FB6B     		ldr	r3, [r7, #60]
 4579 0730 13F0060F 		tst	r3, #6
 4580 0734 03D1     		bne	.L332
 4581              		.loc 1 1784 0 is_stmt 0 discriminator 2
 4582 0736 BB6A     		ldr	r3, [r7, #40]
 4583 0738 13F00C0F 		tst	r3, #12
 4584 073c 06D0     		beq	.L333
 4585              	.L332:
 4586              		.loc 1 1784 0 discriminator 3
 4587 073e CBEB0503 		rsb	r3, fp, r5
 4588 0742 2684     		strh	r6, [r4, #32]	@ movhi
 4589 0744 6384     		strh	r3, [r4, #34]	@ movhi
 4590 0746 2046     		mov	r0, r4
 4591 0748 FFF7FEFF 		bl	drawpixel
 4592              	.LVL418:
 4593              	.L333:
 4594              		.loc 1 1785 0 is_stmt 1
 4595 074c FB6B     		ldr	r3, [r7, #60]
 4596 074e 13F0810F 		tst	r3, #129
 4597 0752 02D1     		bne	.L334
 4598              		.loc 1 1785 0 is_stmt 0 discriminator 2
 4599 0754 BB6A     		ldr	r3, [r7, #40]
 4600 0756 9B07     		lsls	r3, r3, #30
 4601 0758 06D0     		beq	.L335
 4602              	.L334:
 4603              		.loc 1 1785 0 discriminator 3
 4604 075a 0BEB0603 		add	r3, fp, r6
 4605 075e 2384     		strh	r3, [r4, #32]	@ movhi
 4606 0760 6584     		strh	r5, [r4, #34]	@ movhi
 4607 0762 2046     		mov	r0, r4
 4608 0764 FFF7FEFF 		bl	drawpixel
 4609              	.LVL419:
 4610              	.L335:
 4611              		.loc 1 1786 0 is_stmt 1
 4612 0768 FB6B     		ldr	r3, [r7, #60]
 4613 076a 13F0180F 		tst	r3, #24
 4614 076e 03D1     		bne	.L336
 4615              		.loc 1 1786 0 is_stmt 0 discriminator 2
 4616 0770 BB6A     		ldr	r3, [r7, #40]
 4617 0772 13F0300F 		tst	r3, #48
ARM GAS  /var/folders/_2/42wyrlld3p52fkcpt1lv6gxh0000gp/T//ccpbLF3Z.s 			page 82


 4618 0776 07D0     		beq	.L337
 4619              	.L336:
 4620              		.loc 1 1786 0 discriminator 3
 4621 0778 CBEB060B 		rsb	fp, fp, r6
 4622 077c A4F820B0 		strh	fp, [r4, #32]	@ movhi
 4623 0780 6584     		strh	r5, [r4, #34]	@ movhi
 4624 0782 2046     		mov	r0, r4
 4625 0784 FFF7FEFF 		bl	drawpixel
 4626              	.LVL420:
 4627              	.L337:
 4628              		.loc 1 1789 0 is_stmt 1
 4629 0788 FB6B     		ldr	r3, [r7, #60]
 4630              		.loc 1 1767 0
 4631 078a 4FF0010B 		mov	fp, #1
 4632              		.loc 1 1789 0
 4633 078e 03F00203 		and	r3, r3, #2
 4634 0792 7B63     		str	r3, [r7, #52]
 4635              	.LVL421:
 4636              		.loc 1 1790 0
 4637 0794 FB6B     		ldr	r3, [r7, #60]
 4638 0796 03F00403 		and	r3, r3, #4
 4639 079a BB61     		str	r3, [r7, #24]
 4640              		.loc 1 1791 0
 4641 079c FB6B     		ldr	r3, [r7, #60]
 4642 079e 03F00803 		and	r3, r3, #8
 4643 07a2 BB62     		str	r3, [r7, #40]
 4644              	.LVL422:
 4645              	.L356:
 4646              		.loc 1 1788 0
 4647 07a4 FB6A     		ldr	r3, [r7, #44]
 4648 07a6 63B9     		cbnz	r3, .L338
 4649              		.loc 1 1788 0 is_stmt 0 discriminator 1
 4650 07a8 C345     		cmp	fp, r8
 4651 07aa 01DA     		bge	.L339
 4652              		.loc 1 1788 0 discriminator 3
 4653 07ac CB45     		cmp	fp, r9
 4654 07ae 08DC     		bgt	.L338
 4655              	.L339:
 4656              		.loc 1 1788 0 discriminator 4
 4657 07b0 06EB0A02 		add	r2, r6, r10
 4658 07b4 2284     		strh	r2, [r4, #32]	@ movhi
 4659 07b6 CBEB0502 		rsb	r2, fp, r5
 4660 07ba 6284     		strh	r2, [r4, #34]	@ movhi
 4661 07bc 2046     		mov	r0, r4
 4662 07be FFF7FEFF 		bl	drawpixel
 4663              	.LVL423:
 4664              	.L338:
 4665              		.loc 1 1789 0 is_stmt 1
 4666 07c2 7B6B     		ldr	r3, [r7, #52]
 4667 07c4 63B1     		cbz	r3, .L340
 4668              		.loc 1 1789 0 is_stmt 0 discriminator 1
 4669 07c6 C345     		cmp	fp, r8
 4670 07c8 01DD     		ble	.L341
 4671              		.loc 1 1789 0 discriminator 3
 4672 07ca CB45     		cmp	fp, r9
 4673 07cc 08DB     		blt	.L340
 4674              	.L341:
ARM GAS  /var/folders/_2/42wyrlld3p52fkcpt1lv6gxh0000gp/T//ccpbLF3Z.s 			page 83


 4675              		.loc 1 1789 0 discriminator 4
 4676 07ce 06EB0B02 		add	r2, r6, fp
 4677 07d2 2284     		strh	r2, [r4, #32]	@ movhi
 4678 07d4 CAEB0502 		rsb	r2, r10, r5
 4679 07d8 6284     		strh	r2, [r4, #34]	@ movhi
 4680 07da 2046     		mov	r0, r4
 4681 07dc FFF7FEFF 		bl	drawpixel
 4682              	.LVL424:
 4683              	.L340:
 4684              		.loc 1 1790 0 is_stmt 1
 4685 07e0 BB69     		ldr	r3, [r7, #24]
 4686 07e2 63B1     		cbz	r3, .L342
 4687              		.loc 1 1790 0 is_stmt 0 discriminator 1
 4688 07e4 C345     		cmp	fp, r8
 4689 07e6 01DA     		bge	.L343
 4690              		.loc 1 1790 0 discriminator 3
 4691 07e8 CB45     		cmp	fp, r9
 4692 07ea 08DC     		bgt	.L342
 4693              	.L343:
 4694              		.loc 1 1790 0 discriminator 4
 4695 07ec CBEB0602 		rsb	r2, fp, r6
 4696 07f0 2284     		strh	r2, [r4, #32]	@ movhi
 4697 07f2 CAEB0502 		rsb	r2, r10, r5
 4698 07f6 6284     		strh	r2, [r4, #34]	@ movhi
 4699 07f8 2046     		mov	r0, r4
 4700 07fa FFF7FEFF 		bl	drawpixel
 4701              	.LVL425:
 4702              	.L342:
 4703              		.loc 1 1791 0 is_stmt 1
 4704 07fe BB6A     		ldr	r3, [r7, #40]
 4705 0800 63B1     		cbz	r3, .L344
 4706              		.loc 1 1791 0 is_stmt 0 discriminator 1
 4707 0802 C345     		cmp	fp, r8
 4708 0804 01DD     		ble	.L345
 4709              		.loc 1 1791 0 discriminator 3
 4710 0806 CB45     		cmp	fp, r9
 4711 0808 08DB     		blt	.L344
 4712              	.L345:
 4713              		.loc 1 1791 0 discriminator 4
 4714 080a CAEB0602 		rsb	r2, r10, r6
 4715 080e 2284     		strh	r2, [r4, #32]	@ movhi
 4716 0810 CBEB0502 		rsb	r2, fp, r5
 4717 0814 6284     		strh	r2, [r4, #34]	@ movhi
 4718 0816 2046     		mov	r0, r4
 4719 0818 FFF7FEFF 		bl	drawpixel
 4720              	.LVL426:
 4721              	.L344:
 4722              		.loc 1 1792 0 is_stmt 1
 4723 081c FB6B     		ldr	r3, [r7, #60]
 4724 081e 13F01003 		ands	r3, r3, #16
 4725 0822 3B62     		str	r3, [r7, #32]
 4726 0824 0CD0     		beq	.L346
 4727              		.loc 1 1792 0 is_stmt 0 discriminator 1
 4728 0826 C345     		cmp	fp, r8
 4729 0828 01DA     		bge	.L347
 4730              		.loc 1 1792 0 discriminator 3
 4731 082a CB45     		cmp	fp, r9
ARM GAS  /var/folders/_2/42wyrlld3p52fkcpt1lv6gxh0000gp/T//ccpbLF3Z.s 			page 84


 4732 082c 08DC     		bgt	.L346
 4733              	.L347:
 4734              		.loc 1 1792 0 discriminator 4
 4735 082e CAEB0602 		rsb	r2, r10, r6
 4736 0832 2284     		strh	r2, [r4, #32]	@ movhi
 4737 0834 05EB0B02 		add	r2, r5, fp
 4738 0838 6284     		strh	r2, [r4, #34]	@ movhi
 4739 083a 2046     		mov	r0, r4
 4740 083c FFF7FEFF 		bl	drawpixel
 4741              	.LVL427:
 4742              	.L346:
 4743              		.loc 1 1793 0 is_stmt 1
 4744 0840 FB6B     		ldr	r3, [r7, #60]
 4745 0842 13F02003 		ands	r3, r3, #32
 4746 0846 FB61     		str	r3, [r7, #28]
 4747 0848 0CD0     		beq	.L348
 4748              		.loc 1 1793 0 is_stmt 0 discriminator 1
 4749 084a C345     		cmp	fp, r8
 4750 084c 01DD     		ble	.L349
 4751              		.loc 1 1793 0 discriminator 3
 4752 084e CB45     		cmp	fp, r9
 4753 0850 08DB     		blt	.L348
 4754              	.L349:
 4755              		.loc 1 1793 0 discriminator 4
 4756 0852 CBEB0602 		rsb	r2, fp, r6
 4757 0856 2284     		strh	r2, [r4, #32]	@ movhi
 4758 0858 05EB0A02 		add	r2, r5, r10
 4759 085c 6284     		strh	r2, [r4, #34]	@ movhi
 4760 085e 2046     		mov	r0, r4
 4761 0860 FFF7FEFF 		bl	drawpixel
 4762              	.LVL428:
 4763              	.L348:
 4764              		.loc 1 1794 0 is_stmt 1
 4765 0864 FB6B     		ldr	r3, [r7, #60]
 4766 0866 13F04003 		ands	r3, r3, #64
 4767 086a 3B63     		str	r3, [r7, #48]
 4768 086c 0CD0     		beq	.L350
 4769              		.loc 1 1794 0 is_stmt 0 discriminator 1
 4770 086e C345     		cmp	fp, r8
 4771 0870 01DA     		bge	.L351
 4772              		.loc 1 1794 0 discriminator 3
 4773 0872 CB45     		cmp	fp, r9
 4774 0874 08DC     		bgt	.L350
 4775              	.L351:
 4776              		.loc 1 1794 0 discriminator 4
 4777 0876 06EB0B02 		add	r2, r6, fp
 4778 087a 2284     		strh	r2, [r4, #32]	@ movhi
 4779 087c 05EB0A02 		add	r2, r5, r10
 4780 0880 6284     		strh	r2, [r4, #34]	@ movhi
 4781 0882 2046     		mov	r0, r4
 4782 0884 FFF7FEFF 		bl	drawpixel
 4783              	.LVL429:
 4784              	.L350:
 4785              		.loc 1 1795 0 is_stmt 1
 4786 0888 97F93C20 		ldrsb	r2, [r7, #60]
 4787 088c 002A     		cmp	r2, #0
 4788 088e 0EDA     		bge	.L352
ARM GAS  /var/folders/_2/42wyrlld3p52fkcpt1lv6gxh0000gp/T//ccpbLF3Z.s 			page 85


 4789              		.loc 1 1795 0 is_stmt 0 discriminator 1
 4790 0890 C345     		cmp	fp, r8
 4791 0892 01DD     		ble	.L353
 4792              		.loc 1 1795 0 discriminator 3
 4793 0894 CB45     		cmp	fp, r9
 4794 0896 0ADB     		blt	.L352
 4795              	.L353:
 4796              		.loc 1 1795 0 discriminator 4
 4797 0898 06EB0A01 		add	r1, r6, r10
 4798 089c 2184     		strh	r1, [r4, #32]	@ movhi
 4799 089e 05EB0B01 		add	r1, r5, fp
 4800 08a2 6184     		strh	r1, [r4, #34]	@ movhi
 4801 08a4 2046     		mov	r0, r4
 4802 08a6 7A61     		str	r2, [r7, #20]
 4803 08a8 FFF7FEFF 		bl	drawpixel
 4804              	.LVL430:
 4805 08ac 7A69     		ldr	r2, [r7, #20]
 4806              	.L352:
 4807              		.loc 1 1796 0 is_stmt 1
 4808 08ae BB6B     		ldr	r3, [r7, #56]
 4809 08b0 0BF10101 		add	r1, fp, #1
 4810 08b4 002B     		cmp	r3, #0
 4811 08b6 05DA     		bge	.L354
 4812              	.LVL431:
 4813              		.loc 1 1797 0
 4814 08b8 03EB4B03 		add	r3, r3, fp, lsl #1
 4815 08bc 0333     		adds	r3, r3, #3
 4816 08be 1BB2     		sxth	r3, r3
 4817 08c0 BB63     		str	r3, [r7, #56]
 4818              	.LVL432:
 4819 08c2 0DE0     		b	.L707
 4820              	.LVL433:
 4821              	.L354:
 4822              		.loc 1 1799 0
 4823 08c4 BB6B     		ldr	r3, [r7, #56]
 4824 08c6 0AF1FF30 		add	r0, r10, #-1
 4825              	.LVL434:
 4826 08ca CAEB0B0A 		rsb	r10, r10, fp
 4827 08ce 03EB4A0A 		add	r10, r3, r10, lsl #1
 4828 08d2 0AF1050A 		add	r10, r10, #5
 4829 08d6 0FFA8AF3 		sxth	r3, r10
 4830 08da BB63     		str	r3, [r7, #56]
 4831              	.LVL435:
 4832 08dc 0FFA80FA 		sxth	r10, r0
 4833              	.LVL436:
 4834              	.L707:
 4835 08e0 0FFA81FB 		sxth	fp, r1
 4836              	.LVL437:
 4837              		.loc 1 1800 0
 4838 08e4 D345     		cmp	fp, r10
 4839 08e6 FFF65DAF 		blt	.L356
 4840              		.loc 1 1801 0
 4841 08ea BB69     		ldr	r3, [r7, #24]
 4842 08ec 23B1     		cbz	r3, .L357
 4843              		.loc 1 1801 0 is_stmt 0 discriminator 1
 4844 08ee C345     		cmp	fp, r8
 4845 08f0 09DA     		bge	.L358
ARM GAS  /var/folders/_2/42wyrlld3p52fkcpt1lv6gxh0000gp/T//ccpbLF3Z.s 			page 86


 4846              		.loc 1 1801 0 discriminator 3
 4847 08f2 CB45     		cmp	fp, r9
 4848 08f4 07DD     		ble	.L358
 4849 08f6 22E0     		b	.L715
 4850              	.L357:
 4851              		.loc 1 1801 0 discriminator 4
 4852 08f8 BB6A     		ldr	r3, [r7, #40]
 4853 08fa 7BB1     		cbz	r3, .L360
 4854              		.loc 1 1801 0 discriminator 5
 4855 08fc C345     		cmp	fp, r8
 4856 08fe 02DD     		ble	.L358
 4857              		.loc 1 1801 0 discriminator 6
 4858 0900 CB45     		cmp	fp, r9
 4859 0902 C0F2B981 		blt	.L361
 4860              	.L358:
 4861              		.loc 1 1802 0 is_stmt 1
 4862 0906 CBEB0601 		rsb	r1, fp, r6
 4863 090a 2184     		strh	r1, [r4, #32]	@ movhi
 4864 090c CAEB0501 		rsb	r1, r10, r5
 4865 0910 6184     		strh	r1, [r4, #34]	@ movhi
 4866 0912 2046     		mov	r0, r4
 4867 0914 FA63     		str	r2, [r7, #60]
 4868 0916 FFF7FEFF 		bl	drawpixel
 4869              	.LVL438:
 4870 091a FA6B     		ldr	r2, [r7, #60]
 4871              	.L360:
 4872              		.loc 1 1803 0
 4873 091c 3B6B     		ldr	r3, [r7, #48]
 4874 091e 9BB1     		cbz	r3, .L362
 4875              		.loc 1 1803 0 is_stmt 0 discriminator 1
 4876 0920 C345     		cmp	fp, r8
 4877 0922 09DB     		blt	.L363
 4878              	.L365:
 4879              		.loc 1 1804 0 is_stmt 1
 4880 0924 06EB0B02 		add	r2, r6, fp
 4881 0928 2284     		strh	r2, [r4, #32]	@ movhi
 4882 092a 05EB0A02 		add	r2, r5, r10
 4883 092e 6284     		strh	r2, [r4, #34]	@ movhi
 4884 0930 2046     		mov	r0, r4
 4885 0932 FFF7FEFF 		bl	drawpixel
 4886              	.LVL439:
 4887 0936 10E0     		b	.L364
 4888              	.L363:
 4889              		.loc 1 1803 0 discriminator 3
 4890 0938 CB45     		cmp	fp, r9
 4891 093a F3DD     		ble	.L365
 4892 093c 0BE0     		b	.L366
 4893              	.L715:
 4894              		.loc 1 1801 0
 4895 093e BB6A     		ldr	r3, [r7, #40]
 4896 0940 002B     		cmp	r3, #0
 4897 0942 E0D1     		bne	.L358
 4898              		.loc 1 1803 0
 4899 0944 3B6B     		ldr	r3, [r7, #48]
 4900 0946 33B9     		cbnz	r3, .L366
 4901              	.L362:
 4902 0948 002A     		cmp	r2, #0
ARM GAS  /var/folders/_2/42wyrlld3p52fkcpt1lv6gxh0000gp/T//ccpbLF3Z.s 			page 87


 4903 094a 06DA     		bge	.L364
 4904              		.loc 1 1803 0 is_stmt 0 discriminator 5
 4905 094c C345     		cmp	fp, r8
 4906 094e E9DD     		ble	.L365
 4907              		.loc 1 1803 0 discriminator 6
 4908 0950 CB45     		cmp	fp, r9
 4909 0952 E7DA     		bge	.L365
 4910 0954 97E1     		b	.L368
 4911              	.L366:
 4912              		.loc 1 1803 0
 4913 0956 002A     		cmp	r2, #0
 4914 0958 E4DB     		blt	.L365
 4915              	.L364:
 4916              		.loc 1 1805 0 is_stmt 1
 4917 095a FB6A     		ldr	r3, [r7, #44]
 4918 095c 73B9     		cbnz	r3, .L369
 4919              		.loc 1 1805 0 is_stmt 0 discriminator 1
 4920 095e C345     		cmp	fp, r8
 4921 0960 09DB     		blt	.L370
 4922              	.L372:
 4923              		.loc 1 1806 0 is_stmt 1
 4924 0962 06EB0B02 		add	r2, r6, fp
 4925 0966 2284     		strh	r2, [r4, #32]	@ movhi
 4926 0968 CAEB0502 		rsb	r2, r10, r5
 4927 096c 6284     		strh	r2, [r4, #34]	@ movhi
 4928 096e 2046     		mov	r0, r4
 4929 0970 FFF7FEFF 		bl	drawpixel
 4930              	.LVL440:
 4931 0974 0CE0     		b	.L371
 4932              	.L370:
 4933              		.loc 1 1805 0 discriminator 3
 4934 0976 CB45     		cmp	fp, r9
 4935 0978 F3DD     		ble	.L372
 4936 097a 06E0     		b	.L716
 4937              	.L369:
 4938              		.loc 1 1805 0 is_stmt 0
 4939 097c 7B6B     		ldr	r3, [r7, #52]
 4940 097e 3BB1     		cbz	r3, .L371
 4941              		.loc 1 1805 0 discriminator 5
 4942 0980 C345     		cmp	fp, r8
 4943 0982 EEDD     		ble	.L372
 4944              		.loc 1 1805 0 discriminator 6
 4945 0984 CB45     		cmp	fp, r9
 4946 0986 ECDA     		bge	.L372
 4947 0988 85E1     		b	.L375
 4948              	.L716:
 4949              		.loc 1 1805 0
 4950 098a 7B6B     		ldr	r3, [r7, #52]
 4951 098c 002B     		cmp	r3, #0
 4952 098e E8D1     		bne	.L372
 4953              	.L371:
 4954              		.loc 1 1807 0 is_stmt 1
 4955 0990 3B6A     		ldr	r3, [r7, #32]
 4956 0992 33B1     		cbz	r3, .L376
 4957              		.loc 1 1807 0 is_stmt 0 discriminator 1
 4958 0994 C345     		cmp	fp, r8
 4959 0996 80F25681 		bge	.L440
ARM GAS  /var/folders/_2/42wyrlld3p52fkcpt1lv6gxh0000gp/T//ccpbLF3Z.s 			page 88


 4960              		.loc 1 1807 0 discriminator 3
 4961 099a CB45     		cmp	fp, r9
 4962 099c 40F35381 		ble	.L440
 4963 09a0 7BE1     		b	.L717
 4964              	.L376:
 4965              		.loc 1 1807 0
 4966 09a2 FB69     		ldr	r3, [r7, #28]
 4967 09a4 002B     		cmp	r3, #0
 4968 09a6 00F05B81 		beq	.L327
 4969              		.loc 1 1807 0 discriminator 5
 4970 09aa C345     		cmp	fp, r8
 4971 09ac 00F35681 		bgt	.L460
 4972 09b0 49E1     		b	.L440
 4973              	.LVL441:
 4974              	.L329:
 4975              		.loc 1 1814 0 is_stmt 1
 4976 09b2 7B63     		str	r3, [r7, #52]
 4977              	.LVL442:
 4978              		.loc 1 1815 0
 4979 09b4 3B6A     		ldr	r3, [r7, #32]
 4980 09b6 13B1     		cbz	r3, .L380
 4981              		.loc 1 1815 0 is_stmt 0 discriminator 1
 4982 09b8 B9F1000F 		cmp	r9, #0
 4983 09bc 05D0     		beq	.L381
 4984              	.L380:
 4985              		.loc 1 1815 0 discriminator 4
 4986 09be FB6B     		ldr	r3, [r7, #60]
 4987 09c0 5806     		lsls	r0, r3, #25
 4988 09c2 09D5     		bpl	.L382
 4989              		.loc 1 1815 0 discriminator 5
 4990 09c4 B8F1000F 		cmp	r8, #0
 4991 09c8 06D1     		bne	.L382
 4992              	.L381:
 4993              		.loc 1 1815 0 discriminator 6
 4994 09ca 0BEB0503 		add	r3, fp, r5
 4995 09ce 2684     		strh	r6, [r4, #32]	@ movhi
 4996 09d0 6384     		strh	r3, [r4, #34]	@ movhi
 4997 09d2 2046     		mov	r0, r4
 4998 09d4 FFF7FEFF 		bl	drawpixel
 4999              	.LVL443:
 5000              	.L382:
 5001              		.loc 1 1816 0 is_stmt 1
 5002 09d8 FB6B     		ldr	r3, [r7, #60]
 5003 09da 13F00203 		ands	r3, r3, #2
 5004 09de 3B63     		str	r3, [r7, #48]
 5005              	.LVL444:
 5006 09e0 02D0     		beq	.L383
 5007              		.loc 1 1816 0 is_stmt 0 discriminator 1
 5008 09e2 B9F1000F 		cmp	r9, #0
 5009 09e6 05D0     		beq	.L384
 5010              	.L383:
 5011              		.loc 1 1816 0 discriminator 4
 5012 09e8 FB6B     		ldr	r3, [r7, #60]
 5013 09ea 5907     		lsls	r1, r3, #29
 5014 09ec 09D5     		bpl	.L385
 5015              		.loc 1 1816 0 discriminator 5
 5016 09ee B8F1000F 		cmp	r8, #0
ARM GAS  /var/folders/_2/42wyrlld3p52fkcpt1lv6gxh0000gp/T//ccpbLF3Z.s 			page 89


 5017 09f2 06D1     		bne	.L385
 5018              	.L384:
 5019              		.loc 1 1816 0 discriminator 6
 5020 09f4 CBEB0503 		rsb	r3, fp, r5
 5021 09f8 2684     		strh	r6, [r4, #32]	@ movhi
 5022 09fa 6384     		strh	r3, [r4, #34]	@ movhi
 5023 09fc 2046     		mov	r0, r4
 5024 09fe FFF7FEFF 		bl	drawpixel
 5025              	.LVL445:
 5026              	.L385:
 5027              		.loc 1 1817 0 is_stmt 1
 5028 0a02 97F93C30 		ldrsb	r3, [r7, #60]
 5029 0a06 002B     		cmp	r3, #0
 5030 0a08 BB63     		str	r3, [r7, #56]
 5031 0a0a 02DA     		bge	.L386
 5032              		.loc 1 1817 0 is_stmt 0 discriminator 1
 5033 0a0c B9F1000F 		cmp	r9, #0
 5034 0a10 04D0     		beq	.L387
 5035              	.L386:
 5036              		.loc 1 1817 0 discriminator 4
 5037 0a12 FB6A     		ldr	r3, [r7, #44]
 5038 0a14 4BB9     		cbnz	r3, .L388
 5039              		.loc 1 1817 0 discriminator 5
 5040 0a16 B8F1000F 		cmp	r8, #0
 5041 0a1a 06D1     		bne	.L388
 5042              	.L387:
 5043              		.loc 1 1817 0 discriminator 6
 5044 0a1c 0BEB0603 		add	r3, fp, r6
 5045 0a20 2384     		strh	r3, [r4, #32]	@ movhi
 5046 0a22 6584     		strh	r5, [r4, #34]	@ movhi
 5047 0a24 2046     		mov	r0, r4
 5048 0a26 FFF7FEFF 		bl	drawpixel
 5049              	.LVL446:
 5050              	.L388:
 5051              		.loc 1 1818 0 is_stmt 1
 5052 0a2a FB6B     		ldr	r3, [r7, #60]
 5053 0a2c 13F00803 		ands	r3, r3, #8
 5054 0a30 BB62     		str	r3, [r7, #40]
 5055              	.LVL447:
 5056 0a32 02D0     		beq	.L389
 5057              		.loc 1 1818 0 is_stmt 0 discriminator 1
 5058 0a34 B9F1000F 		cmp	r9, #0
 5059 0a38 05D0     		beq	.L390
 5060              	.L389:
 5061              		.loc 1 1818 0 discriminator 4
 5062 0a3a FB6B     		ldr	r3, [r7, #60]
 5063 0a3c DA06     		lsls	r2, r3, #27
 5064 0a3e 0AD5     		bpl	.L391
 5065              		.loc 1 1818 0 discriminator 5
 5066 0a40 B8F1000F 		cmp	r8, #0
 5067 0a44 07D1     		bne	.L391
 5068              	.L390:
 5069              		.loc 1 1818 0 discriminator 6
 5070 0a46 CBEB060B 		rsb	fp, fp, r6
 5071 0a4a A4F820B0 		strh	fp, [r4, #32]	@ movhi
 5072 0a4e 6584     		strh	r5, [r4, #34]	@ movhi
 5073 0a50 2046     		mov	r0, r4
ARM GAS  /var/folders/_2/42wyrlld3p52fkcpt1lv6gxh0000gp/T//ccpbLF3Z.s 			page 90


 5074 0a52 FFF7FEFF 		bl	drawpixel
 5075              	.LVL448:
 5076              	.L391:
 5077              		.loc 1 1822 0 is_stmt 1
 5078 0a56 FB6B     		ldr	r3, [r7, #60]
 5079              		.loc 1 1799 0
 5080 0a58 4FF0010B 		mov	fp, #1
 5081              		.loc 1 1822 0
 5082 0a5c 03F00403 		and	r3, r3, #4
 5083 0a60 BB61     		str	r3, [r7, #24]
 5084              		.loc 1 1824 0
 5085 0a62 FB6B     		ldr	r3, [r7, #60]
 5086 0a64 03F01003 		and	r3, r3, #16
 5087 0a68 FB61     		str	r3, [r7, #28]
 5088              	.LVL449:
 5089              		.loc 1 1826 0
 5090 0a6a FB6B     		ldr	r3, [r7, #60]
 5091 0a6c 03F04003 		and	r3, r3, #64
 5092 0a70 FB63     		str	r3, [r7, #60]
 5093              	.LVL450:
 5094              	.L414:
 5095              		.loc 1 1820 0
 5096 0a72 FB6A     		ldr	r3, [r7, #44]
 5097 0a74 6BB9     		cbnz	r3, .L392
 5098              		.loc 1 1820 0 is_stmt 0 discriminator 1
 5099 0a76 C345     		cmp	fp, r8
 5100 0a78 C0F21381 		blt	.L393
 5101              		.loc 1 1820 0 discriminator 2
 5102 0a7c CB45     		cmp	fp, r9
 5103 0a7e 08DC     		bgt	.L392
 5104              		.loc 1 1820 0 discriminator 3
 5105 0a80 06EB0A02 		add	r2, r6, r10
 5106 0a84 2284     		strh	r2, [r4, #32]	@ movhi
 5107 0a86 CBEB0502 		rsb	r2, fp, r5
 5108 0a8a 6284     		strh	r2, [r4, #34]	@ movhi
 5109 0a8c 2046     		mov	r0, r4
 5110 0a8e FFF7FEFF 		bl	drawpixel
 5111              	.LVL451:
 5112              	.L392:
 5113              		.loc 1 1821 0 is_stmt 1
 5114 0a92 3B6B     		ldr	r3, [r7, #48]
 5115 0a94 63B1     		cbz	r3, .L395
 5116              		.loc 1 1821 0 is_stmt 0 discriminator 1
 5117 0a96 C345     		cmp	fp, r8
 5118 0a98 0ADC     		bgt	.L395
 5119              	.L447:
 5120              		.loc 1 1821 0
 5121 0a9a CB45     		cmp	fp, r9
 5122 0a9c 08DB     		blt	.L395
 5123              		.loc 1 1821 0 discriminator 3
 5124 0a9e 06EB0B02 		add	r2, r6, fp
 5125 0aa2 2284     		strh	r2, [r4, #32]	@ movhi
 5126 0aa4 CAEB0502 		rsb	r2, r10, r5
 5127 0aa8 6284     		strh	r2, [r4, #34]	@ movhi
 5128 0aaa 2046     		mov	r0, r4
 5129 0aac FFF7FEFF 		bl	drawpixel
 5130              	.LVL452:
ARM GAS  /var/folders/_2/42wyrlld3p52fkcpt1lv6gxh0000gp/T//ccpbLF3Z.s 			page 91


 5131              	.L395:
 5132              		.loc 1 1822 0 is_stmt 1
 5133 0ab0 BB69     		ldr	r3, [r7, #24]
 5134 0ab2 6BB1     		cbz	r3, .L397
 5135              		.loc 1 1822 0 is_stmt 0 discriminator 1
 5136 0ab4 C345     		cmp	fp, r8
 5137 0ab6 C0F2F980 		blt	.L398
 5138              		.loc 1 1822 0 discriminator 2
 5139 0aba CB45     		cmp	fp, r9
 5140 0abc 08DC     		bgt	.L397
 5141              		.loc 1 1822 0 discriminator 3
 5142 0abe CBEB0602 		rsb	r2, fp, r6
 5143 0ac2 2284     		strh	r2, [r4, #32]	@ movhi
 5144 0ac4 CAEB0502 		rsb	r2, r10, r5
 5145 0ac8 6284     		strh	r2, [r4, #34]	@ movhi
 5146 0aca 2046     		mov	r0, r4
 5147 0acc FFF7FEFF 		bl	drawpixel
 5148              	.LVL453:
 5149              	.L397:
 5150              		.loc 1 1823 0 is_stmt 1
 5151 0ad0 BB6A     		ldr	r3, [r7, #40]
 5152 0ad2 63B1     		cbz	r3, .L400
 5153              		.loc 1 1823 0 is_stmt 0 discriminator 1
 5154 0ad4 C345     		cmp	fp, r8
 5155 0ad6 0ADC     		bgt	.L400
 5156              	.L448:
 5157              		.loc 1 1823 0
 5158 0ad8 CB45     		cmp	fp, r9
 5159 0ada 08DB     		blt	.L400
 5160              		.loc 1 1823 0 discriminator 3
 5161 0adc CAEB0602 		rsb	r2, r10, r6
 5162 0ae0 2284     		strh	r2, [r4, #32]	@ movhi
 5163 0ae2 CBEB0502 		rsb	r2, fp, r5
 5164 0ae6 6284     		strh	r2, [r4, #34]	@ movhi
 5165 0ae8 2046     		mov	r0, r4
 5166 0aea FFF7FEFF 		bl	drawpixel
 5167              	.LVL454:
 5168              	.L400:
 5169              		.loc 1 1824 0 is_stmt 1
 5170 0aee FB69     		ldr	r3, [r7, #28]
 5171 0af0 6BB1     		cbz	r3, .L402
 5172              		.loc 1 1824 0 is_stmt 0 discriminator 1
 5173 0af2 C345     		cmp	fp, r8
 5174 0af4 C0F2DF80 		blt	.L403
 5175              		.loc 1 1824 0 discriminator 2
 5176 0af8 CB45     		cmp	fp, r9
 5177 0afa 08DC     		bgt	.L402
 5178              		.loc 1 1824 0 discriminator 3
 5179 0afc CAEB0602 		rsb	r2, r10, r6
 5180 0b00 2284     		strh	r2, [r4, #32]	@ movhi
 5181 0b02 05EB0B02 		add	r2, r5, fp
 5182 0b06 6284     		strh	r2, [r4, #34]	@ movhi
 5183 0b08 2046     		mov	r0, r4
 5184 0b0a FFF7FEFF 		bl	drawpixel
 5185              	.LVL455:
 5186              	.L402:
 5187              		.loc 1 1825 0 is_stmt 1
ARM GAS  /var/folders/_2/42wyrlld3p52fkcpt1lv6gxh0000gp/T//ccpbLF3Z.s 			page 92


 5188 0b0e 3B6A     		ldr	r3, [r7, #32]
 5189 0b10 63B1     		cbz	r3, .L405
 5190              		.loc 1 1825 0 is_stmt 0 discriminator 1
 5191 0b12 C345     		cmp	fp, r8
 5192 0b14 0ADC     		bgt	.L405
 5193              	.L449:
 5194              		.loc 1 1825 0
 5195 0b16 CB45     		cmp	fp, r9
 5196 0b18 08DB     		blt	.L405
 5197              		.loc 1 1825 0 discriminator 3
 5198 0b1a CBEB0602 		rsb	r2, fp, r6
 5199 0b1e 2284     		strh	r2, [r4, #32]	@ movhi
 5200 0b20 05EB0A02 		add	r2, r5, r10
 5201 0b24 6284     		strh	r2, [r4, #34]	@ movhi
 5202 0b26 2046     		mov	r0, r4
 5203 0b28 FFF7FEFF 		bl	drawpixel
 5204              	.LVL456:
 5205              	.L405:
 5206              		.loc 1 1826 0 is_stmt 1
 5207 0b2c FB6B     		ldr	r3, [r7, #60]
 5208 0b2e 6BB1     		cbz	r3, .L407
 5209              		.loc 1 1826 0 is_stmt 0 discriminator 1
 5210 0b30 C345     		cmp	fp, r8
 5211 0b32 C0F2C580 		blt	.L408
 5212              		.loc 1 1826 0 discriminator 2
 5213 0b36 CB45     		cmp	fp, r9
 5214 0b38 08DC     		bgt	.L407
 5215              		.loc 1 1826 0 discriminator 3
 5216 0b3a 06EB0B02 		add	r2, r6, fp
 5217 0b3e 2284     		strh	r2, [r4, #32]	@ movhi
 5218 0b40 05EB0A02 		add	r2, r5, r10
 5219 0b44 6284     		strh	r2, [r4, #34]	@ movhi
 5220 0b46 2046     		mov	r0, r4
 5221 0b48 FFF7FEFF 		bl	drawpixel
 5222              	.LVL457:
 5223              	.L407:
 5224              		.loc 1 1827 0 is_stmt 1
 5225 0b4c BB6B     		ldr	r3, [r7, #56]
 5226 0b4e 002B     		cmp	r3, #0
 5227 0b50 0CDA     		bge	.L410
 5228              		.loc 1 1827 0 is_stmt 0 discriminator 1
 5229 0b52 C345     		cmp	fp, r8
 5230 0b54 0ADC     		bgt	.L410
 5231              	.L450:
 5232              		.loc 1 1827 0
 5233 0b56 CB45     		cmp	fp, r9
 5234 0b58 08DB     		blt	.L410
 5235              		.loc 1 1827 0 discriminator 3
 5236 0b5a 06EB0A02 		add	r2, r6, r10
 5237 0b5e 2284     		strh	r2, [r4, #32]	@ movhi
 5238 0b60 05EB0B02 		add	r2, r5, fp
 5239 0b64 6284     		strh	r2, [r4, #34]	@ movhi
 5240 0b66 2046     		mov	r0, r4
 5241 0b68 FFF7FEFF 		bl	drawpixel
 5242              	.LVL458:
 5243              	.L410:
 5244              		.loc 1 1828 0 is_stmt 1
ARM GAS  /var/folders/_2/42wyrlld3p52fkcpt1lv6gxh0000gp/T//ccpbLF3Z.s 			page 93


 5245 0b6c 7B6B     		ldr	r3, [r7, #52]
 5246 0b6e 0BF10102 		add	r2, fp, #1
 5247 0b72 002B     		cmp	r3, #0
 5248 0b74 05DA     		bge	.L412
 5249              	.LVL459:
 5250              		.loc 1 1829 0
 5251 0b76 03EB4B03 		add	r3, r3, fp, lsl #1
 5252 0b7a 0333     		adds	r3, r3, #3
 5253 0b7c 1BB2     		sxth	r3, r3
 5254 0b7e 7B63     		str	r3, [r7, #52]
 5255              	.LVL460:
 5256 0b80 0DE0     		b	.L710
 5257              	.LVL461:
 5258              	.L412:
 5259              		.loc 1 1831 0
 5260 0b82 7B6B     		ldr	r3, [r7, #52]
 5261 0b84 0AF1FF31 		add	r1, r10, #-1
 5262              	.LVL462:
 5263 0b88 CAEB0B0A 		rsb	r10, r10, fp
 5264 0b8c 03EB4A0A 		add	r10, r3, r10, lsl #1
 5265 0b90 0AF1050A 		add	r10, r10, #5
 5266 0b94 0FFA8AF3 		sxth	r3, r10
 5267 0b98 7B63     		str	r3, [r7, #52]
 5268              	.LVL463:
 5269 0b9a 0FFA81FA 		sxth	r10, r1
 5270              	.LVL464:
 5271              	.L710:
 5272 0b9e 0FFA82FB 		sxth	fp, r2
 5273              	.LVL465:
 5274              		.loc 1 1832 0
 5275 0ba2 D345     		cmp	fp, r10
 5276 0ba4 FFF665AF 		blt	.L414
 5277              		.loc 1 1833 0
 5278 0ba8 BB69     		ldr	r3, [r7, #24]
 5279 0baa 23B1     		cbz	r3, .L415
 5280              		.loc 1 1833 0 is_stmt 0 discriminator 1
 5281 0bac C345     		cmp	fp, r8
 5282 0bae C0F28C80 		blt	.L416
 5283              		.loc 1 1833 0 discriminator 3
 5284 0bb2 CB45     		cmp	fp, r9
 5285 0bb4 06DD     		ble	.L417
 5286              	.L415:
 5287              		.loc 1 1833 0 discriminator 5
 5288 0bb6 BB6A     		ldr	r3, [r7, #40]
 5289 0bb8 6BB1     		cbz	r3, .L418
 5290              		.loc 1 1833 0 discriminator 6
 5291 0bba C345     		cmp	fp, r8
 5292 0bbc 00F38A80 		bgt	.L419
 5293              	.L451:
 5294              		.loc 1 1833 0 discriminator 7
 5295 0bc0 CB45     		cmp	fp, r9
 5296 0bc2 08DB     		blt	.L418
 5297              	.L417:
 5298              		.loc 1 1834 0 is_stmt 1
 5299 0bc4 CBEB0602 		rsb	r2, fp, r6
 5300 0bc8 2284     		strh	r2, [r4, #32]	@ movhi
 5301 0bca CAEB0502 		rsb	r2, r10, r5
ARM GAS  /var/folders/_2/42wyrlld3p52fkcpt1lv6gxh0000gp/T//ccpbLF3Z.s 			page 94


 5302 0bce 6284     		strh	r2, [r4, #34]	@ movhi
 5303 0bd0 2046     		mov	r0, r4
 5304 0bd2 FFF7FEFF 		bl	drawpixel
 5305              	.LVL466:
 5306              	.L418:
 5307              		.loc 1 1835 0
 5308 0bd6 FB6B     		ldr	r3, [r7, #60]
 5309 0bd8 1BB9     		cbnz	r3, .L420
 5310              	.L424:
 5311 0bda BB6B     		ldr	r3, [r7, #56]
 5312 0bdc 002B     		cmp	r3, #0
 5313 0bde 12DA     		bge	.L425
 5314 0be0 0DE0     		b	.L718
 5315              	.L420:
 5316              		.loc 1 1835 0 is_stmt 0 discriminator 1
 5317 0be2 C345     		cmp	fp, r8
 5318 0be4 7EDB     		blt	.L423
 5319              	.L453:
 5320              		.loc 1 1835 0
 5321 0be6 CB45     		cmp	fp, r9
 5322 0be8 F7DC     		bgt	.L424
 5323              	.L427:
 5324              		.loc 1 1836 0 is_stmt 1
 5325 0bea 06EB0B02 		add	r2, r6, fp
 5326 0bee 2284     		strh	r2, [r4, #32]	@ movhi
 5327 0bf0 05EB0A02 		add	r2, r5, r10
 5328 0bf4 6284     		strh	r2, [r4, #34]	@ movhi
 5329 0bf6 2046     		mov	r0, r4
 5330 0bf8 FFF7FEFF 		bl	drawpixel
 5331              	.LVL467:
 5332 0bfc 03E0     		b	.L425
 5333              	.L718:
 5334              		.loc 1 1835 0 discriminator 6
 5335 0bfe C345     		cmp	fp, r8
 5336 0c00 77DC     		bgt	.L426
 5337              	.L455:
 5338              		.loc 1 1835 0 is_stmt 0
 5339 0c02 CB45     		cmp	fp, r9
 5340 0c04 F1DA     		bge	.L427
 5341              	.L425:
 5342              		.loc 1 1837 0 is_stmt 1
 5343 0c06 FB6A     		ldr	r3, [r7, #44]
 5344 0c08 13B1     		cbz	r3, .L428
 5345              	.L432:
 5346 0c0a 3B6B     		ldr	r3, [r7, #48]
 5347 0c0c 73B9     		cbnz	r3, .L429
 5348 0c0e 11E0     		b	.L433
 5349              	.L428:
 5350              		.loc 1 1837 0 is_stmt 0 discriminator 1
 5351 0c10 C345     		cmp	fp, r8
 5352 0c12 71DB     		blt	.L431
 5353              	.L456:
 5354              		.loc 1 1837 0
 5355 0c14 CB45     		cmp	fp, r9
 5356 0c16 F8DC     		bgt	.L432
 5357              	.L435:
 5358              		.loc 1 1838 0 is_stmt 1
ARM GAS  /var/folders/_2/42wyrlld3p52fkcpt1lv6gxh0000gp/T//ccpbLF3Z.s 			page 95


 5359 0c18 06EB0B02 		add	r2, r6, fp
 5360 0c1c 2284     		strh	r2, [r4, #32]	@ movhi
 5361 0c1e CAEB0502 		rsb	r2, r10, r5
 5362 0c22 6284     		strh	r2, [r4, #34]	@ movhi
 5363 0c24 2046     		mov	r0, r4
 5364 0c26 FFF7FEFF 		bl	drawpixel
 5365              	.LVL468:
 5366 0c2a 03E0     		b	.L433
 5367              	.L429:
 5368              		.loc 1 1837 0 discriminator 6
 5369 0c2c C345     		cmp	fp, r8
 5370 0c2e 6ADC     		bgt	.L434
 5371              	.L458:
 5372              		.loc 1 1837 0 is_stmt 0
 5373 0c30 CB45     		cmp	fp, r9
 5374 0c32 F1DA     		bge	.L435
 5375              	.L433:
 5376              		.loc 1 1839 0 is_stmt 1
 5377 0c34 FB69     		ldr	r3, [r7, #28]
 5378 0c36 13B9     		cbnz	r3, .L436
 5379              	.L439:
 5380 0c38 3B6A     		ldr	r3, [r7, #32]
 5381 0c3a 6BB9     		cbnz	r3, .L437
 5382 0c3c 10E0     		b	.L327
 5383              	.L436:
 5384              		.loc 1 1839 0 is_stmt 0 discriminator 1
 5385 0c3e C345     		cmp	fp, r8
 5386 0c40 65DB     		blt	.L438
 5387              	.L459:
 5388              		.loc 1 1839 0
 5389 0c42 CB45     		cmp	fp, r9
 5390 0c44 F8DC     		bgt	.L439
 5391              	.LVL469:
 5392              	.L440:
 5393              		.loc 1 1840 0 is_stmt 1
 5394 0c46 CBEB0606 		rsb	r6, fp, r6
 5395 0c4a 5544     		add	r5, r5, r10
 5396 0c4c 2684     		strh	r6, [r4, #32]	@ movhi
 5397 0c4e 6584     		strh	r5, [r4, #34]	@ movhi
 5398 0c50 2046     		mov	r0, r4
 5399 0c52 FFF7FEFF 		bl	drawpixel
 5400              	.LVL470:
 5401 0c56 03E0     		b	.L327
 5402              	.LVL471:
 5403              	.L437:
 5404              		.loc 1 1839 0 discriminator 6
 5405 0c58 C345     		cmp	fp, r8
 5406 0c5a 01DC     		bgt	.L327
 5407              	.LVL472:
 5408              	.L460:
 5409              		.loc 1 1839 0 is_stmt 0
 5410 0c5c CB45     		cmp	fp, r9
 5411 0c5e F2DA     		bge	.L440
 5412              	.LVL473:
 5413              	.L327:
 5414              		.loc 1 1843 0 is_stmt 1
 5415 0c60 E38B     		ldrh	r3, [r4, #30]
ARM GAS  /var/folders/_2/42wyrlld3p52fkcpt1lv6gxh0000gp/T//ccpbLF3Z.s 			page 96


 5416 0c62 9B07     		lsls	r3, r3, #30
 5417 0c64 57D5     		bpl	.L230
 5418              		.loc 1 1843 0 is_stmt 0 discriminator 1
 5419 0c66 6368     		ldr	r3, [r4, #4]
 5420 0c68 2046     		mov	r0, r4
 5421 0c6a 9B6A     		ldr	r3, [r3, #40]
 5422 0c6c 9847     		blx	r3
 5423              	.LVL474:
 5424 0c6e E38B     		ldrh	r3, [r4, #30]
 5425 0c70 23F00203 		bic	r3, r3, #2
 5426 0c74 E383     		strh	r3, [r4, #30]	@ movhi
 5427 0c76 4EE0     		b	.L230
 5428              	.LVL475:
 5429              	.L361:
 5430              		.loc 1 1803 0 is_stmt 1
 5431 0c78 3B6B     		ldr	r3, [r7, #48]
 5432 0c7a 002B     		cmp	r3, #0
 5433 0c7c 7FF452AE 		bne	.L365
 5434 0c80 002A     		cmp	r2, #0
 5435 0c82 BFF66AAE 		bge	.L364
 5436              	.L368:
 5437              		.loc 1 1805 0
 5438 0c86 FB6A     		ldr	r3, [r7, #44]
 5439 0c88 002B     		cmp	r3, #0
 5440 0c8a 3FF46AAE 		beq	.L372
 5441 0c8e 7B6B     		ldr	r3, [r7, #52]
 5442 0c90 002B     		cmp	r3, #0
 5443 0c92 3FF47DAE 		beq	.L371
 5444              	.L375:
 5445              		.loc 1 1807 0
 5446 0c96 3B6A     		ldr	r3, [r7, #32]
 5447 0c98 00E0     		b	.L709
 5448              	.L717:
 5449 0c9a FB69     		ldr	r3, [r7, #28]
 5450              	.L709:
 5451 0c9c 002B     		cmp	r3, #0
 5452 0c9e DFD0     		beq	.L327
 5453 0ca0 D1E7     		b	.L440
 5454              	.LVL476:
 5455              	.L393:
 5456              		.loc 1 1821 0
 5457 0ca2 3B6B     		ldr	r3, [r7, #48]
 5458 0ca4 002B     		cmp	r3, #0
 5459 0ca6 7FF4F8AE 		bne	.L447
 5460 0caa 01E7     		b	.L395
 5461              	.L398:
 5462              		.loc 1 1823 0
 5463 0cac BB6A     		ldr	r3, [r7, #40]
 5464 0cae 002B     		cmp	r3, #0
 5465 0cb0 7FF412AF 		bne	.L448
 5466 0cb4 1BE7     		b	.L400
 5467              	.L403:
 5468              		.loc 1 1825 0
 5469 0cb6 3B6A     		ldr	r3, [r7, #32]
 5470 0cb8 002B     		cmp	r3, #0
 5471 0cba 7FF42CAF 		bne	.L449
 5472 0cbe 35E7     		b	.L405
ARM GAS  /var/folders/_2/42wyrlld3p52fkcpt1lv6gxh0000gp/T//ccpbLF3Z.s 			page 97


 5473              	.L408:
 5474              		.loc 1 1827 0
 5475 0cc0 BB6B     		ldr	r3, [r7, #56]
 5476 0cc2 002B     		cmp	r3, #0
 5477 0cc4 BFF652AF 		bge	.L410
 5478 0cc8 45E7     		b	.L450
 5479              	.L416:
 5480              		.loc 1 1833 0
 5481 0cca BB6A     		ldr	r3, [r7, #40]
 5482 0ccc 002B     		cmp	r3, #0
 5483 0cce 7FF477AF 		bne	.L451
 5484 0cd2 03E0     		b	.L719
 5485              	.L419:
 5486              		.loc 1 1835 0
 5487 0cd4 FB6B     		ldr	r3, [r7, #60]
 5488 0cd6 002B     		cmp	r3, #0
 5489 0cd8 85D1     		bne	.L453
 5490 0cda 07E0     		b	.L720
 5491              	.L719:
 5492 0cdc FB6B     		ldr	r3, [r7, #60]
 5493 0cde 002B     		cmp	r3, #0
 5494 0ce0 3FF47BAF 		beq	.L424
 5495              	.L423:
 5496 0ce4 BB6B     		ldr	r3, [r7, #56]
 5497 0ce6 002B     		cmp	r3, #0
 5498 0ce8 8DDA     		bge	.L425
 5499 0cea 8AE7     		b	.L455
 5500              	.L720:
 5501 0cec BB6B     		ldr	r3, [r7, #56]
 5502 0cee 002B     		cmp	r3, #0
 5503 0cf0 89DA     		bge	.L425
 5504              	.L426:
 5505              		.loc 1 1837 0
 5506 0cf2 FB6A     		ldr	r3, [r7, #44]
 5507 0cf4 23B9     		cbnz	r3, .L701
 5508 0cf6 8DE7     		b	.L456
 5509              	.L431:
 5510 0cf8 3B6B     		ldr	r3, [r7, #48]
 5511 0cfa 002B     		cmp	r3, #0
 5512 0cfc 98D1     		bne	.L458
 5513 0cfe 99E7     		b	.L433
 5514              	.L701:
 5515 0d00 3B6B     		ldr	r3, [r7, #48]
 5516 0d02 002B     		cmp	r3, #0
 5517 0d04 96D0     		beq	.L433
 5518              	.L434:
 5519              		.loc 1 1839 0
 5520 0d06 FB69     		ldr	r3, [r7, #28]
 5521 0d08 002B     		cmp	r3, #0
 5522 0d0a 9AD1     		bne	.L459
 5523 0d0c A8E7     		b	.L327
 5524              	.L438:
 5525 0d0e 3B6A     		ldr	r3, [r7, #32]
 5526 0d10 002B     		cmp	r3, #0
 5527 0d12 A3D1     		bne	.L460
 5528 0d14 A4E7     		b	.L327
 5529              	.LVL477:
ARM GAS  /var/folders/_2/42wyrlld3p52fkcpt1lv6gxh0000gp/T//ccpbLF3Z.s 			page 98


 5530              	.L230:
 5531              		.loc 1 1845 0
 5532 0d16 4437     		adds	r7, r7, #68
 5533              	.LCFI158:
 5534              		.cfi_def_cfa_offset 36
 5535 0d18 BD46     		mov	sp, r7
 5536              	.LCFI159:
 5537              		.cfi_def_cfa_register 13
 5538              		@ sp needed
 5539 0d1a BDE8F08F 		pop	{r4, r5, r6, r7, r8, r9, r10, fp, pc}
 5540              		.cfi_endproc
 5541              	.LFE93:
 5542              		.size	gdispGDrawArc, .-gdispGDrawArc
 5543 0d1e 00BF     		.section	.text.gdispGFillArc,"ax",%progbits
 5544              		.align	1
 5545              		.global	gdispGFillArc
 5546              		.thumb
 5547              		.thumb_func
 5548              		.type	gdispGFillArc, %function
 5549              	gdispGFillArc:
 5550              	.LFB94:
 5551              		.loc 1 1849 0
 5552              		.cfi_startproc
 5553              		@ args = 12, pretend = 0, frame = 64
 5554              		@ frame_needed = 1, uses_anonymous_args = 0
 5555              	.LVL478:
 5556 0000 2DE9F04F 		push	{r4, r5, r6, r7, r8, r9, r10, fp, lr}
 5557              	.LCFI160:
 5558              		.cfi_def_cfa_offset 36
 5559              		.cfi_offset 4, -36
 5560              		.cfi_offset 5, -32
 5561              		.cfi_offset 6, -28
 5562              		.cfi_offset 7, -24
 5563              		.cfi_offset 8, -20
 5564              		.cfi_offset 9, -16
 5565              		.cfi_offset 10, -12
 5566              		.cfi_offset 11, -8
 5567              		.cfi_offset 14, -4
 5568 0004 9B46     		mov	fp, r3
 5569 0006 91B0     		sub	sp, sp, #68
 5570              	.LCFI161:
 5571              		.cfi_def_cfa_offset 104
 5572              		.loc 1 1858 0
 5573 0008 0B04     		lsls	r3, r1, #16
 5574              	.LVL479:
 5575 000a 03F50043 		add	r3, r3, #32768
 5576              		.loc 1 1849 0
 5577 000e 0446     		mov	r4, r0
 5578 0010 00AF     		add	r7, sp, #0
 5579              	.LCFI162:
 5580              		.cfi_def_cfa_register 7
 5581              		.loc 1 1866 0
 5582 0012 5846     		mov	r0, fp
 5583              	.LVL480:
 5584              		.loc 1 1849 0
 5585 0014 9046     		mov	r8, r2
 5586              		.loc 1 1858 0
ARM GAS  /var/folders/_2/42wyrlld3p52fkcpt1lv6gxh0000gp/T//ccpbLF3Z.s 			page 99


 5587 0016 FB63     		str	r3, [r7, #60]
 5588              	.LVL481:
 5589              		.loc 1 1849 0
 5590 0018 8946     		mov	r9, r1
 5591              		.loc 1 1866 0
 5592 001a FFF7FEFF 		bl	__aeabi_i2d
 5593              	.LVL482:
 5594 001e C7E90C01 		strd	r0, [r7, #48]
 5595 0022 B7F96800 		ldrsh	r0, [r7, #104]
 5596 0026 FFF7FEFF 		bl	__aeabi_i2d
 5597              	.LVL483:
 5598 002a A3A3     		adr	r3, .L982
 5599 002c D3E90023 		ldrd	r2, [r3]
 5600 0030 FFF7FEFF 		bl	__aeabi_dmul
 5601              	.LVL484:
 5602 0034 0022     		movs	r2, #0
 5603 0036 A24B     		ldr	r3, .L982+8
 5604 0038 FFF7FEFF 		bl	__aeabi_ddiv
 5605              	.LVL485:
 5606 003c C7E90A01 		strd	r0, [r7, #40]
 5607 0040 FFF7FEFF 		bl	cos
 5608              	.LVL486:
 5609 0044 0246     		mov	r2, r0
 5610 0046 0B46     		mov	r3, r1
 5611 0048 D7E90C01 		ldrd	r0, [r7, #48]
 5612 004c FFF7FEFF 		bl	__aeabi_dmul
 5613              	.LVL487:
 5614 0050 0022     		movs	r2, #0
 5615 0052 9C4B     		ldr	r3, .L982+12
 5616 0054 FFF7FEFF 		bl	__aeabi_dmul
 5617              	.LVL488:
 5618 0058 FFF7FEFF 		bl	__aeabi_d2iz
 5619              	.LVL489:
 5620 005c 0546     		mov	r5, r0
 5621              	.LVL490:
 5622 005e D7E90A01 		ldrd	r0, [r7, #40]
 5623              	.LVL491:
 5624 0062 FFF7FEFF 		bl	sin
 5625              	.LVL492:
 5626 0066 0246     		mov	r2, r0
 5627 0068 0B46     		mov	r3, r1
 5628 006a D7E90C01 		ldrd	r0, [r7, #48]
 5629 006e FFF7FEFF 		bl	__aeabi_dmul
 5630              	.LVL493:
 5631 0072 FFF7FEFF 		bl	round
 5632              	.LVL494:
 5633 0076 01F10043 		add	r3, r1, #-2147483648
 5634 007a 1946     		mov	r1, r3
 5635 007c FFF7FEFF 		bl	__aeabi_d2iz
 5636              	.LVL495:
 5637 0080 03B2     		sxth	r3, r0
 5638              		.loc 1 1867 0
 5639 0082 B7F96C00 		ldrsh	r0, [r7, #108]
 5640              		.loc 1 1866 0
 5641 0086 3B62     		str	r3, [r7, #32]
 5642              	.LVL496:
 5643              		.loc 1 1867 0
ARM GAS  /var/folders/_2/42wyrlld3p52fkcpt1lv6gxh0000gp/T//ccpbLF3Z.s 			page 100


 5644 0088 FFF7FEFF 		bl	__aeabi_i2d
 5645              	.LVL497:
 5646 008c 8AA3     		adr	r3, .L982
 5647 008e D3E90023 		ldrd	r2, [r3]
 5648 0092 FFF7FEFF 		bl	__aeabi_dmul
 5649              	.LVL498:
 5650 0096 0022     		movs	r2, #0
 5651 0098 894B     		ldr	r3, .L982+8
 5652 009a FFF7FEFF 		bl	__aeabi_ddiv
 5653              	.LVL499:
 5654 009e C7E90A01 		strd	r0, [r7, #40]
 5655 00a2 FFF7FEFF 		bl	cos
 5656              	.LVL500:
 5657 00a6 0246     		mov	r2, r0
 5658 00a8 0B46     		mov	r3, r1
 5659 00aa D7E90C01 		ldrd	r0, [r7, #48]
 5660 00ae FFF7FEFF 		bl	__aeabi_dmul
 5661              	.LVL501:
 5662 00b2 0022     		movs	r2, #0
 5663 00b4 834B     		ldr	r3, .L982+12
 5664 00b6 FFF7FEFF 		bl	__aeabi_dmul
 5665              	.LVL502:
 5666 00ba FFF7FEFF 		bl	__aeabi_d2iz
 5667              	.LVL503:
 5668 00be 0646     		mov	r6, r0
 5669              	.LVL504:
 5670 00c0 D7E90A01 		ldrd	r0, [r7, #40]
 5671              	.LVL505:
 5672 00c4 FFF7FEFF 		bl	sin
 5673              	.LVL506:
 5674 00c8 0246     		mov	r2, r0
 5675 00ca 0B46     		mov	r3, r1
 5676 00cc D7E90C01 		ldrd	r0, [r7, #48]
 5677 00d0 FFF7FEFF 		bl	__aeabi_dmul
 5678              	.LVL507:
 5679 00d4 FFF7FEFF 		bl	round
 5680              	.LVL508:
 5681 00d8 01F10043 		add	r3, r1, #-2147483648
 5682 00dc 1946     		mov	r1, r3
 5683 00de FFF7FEFF 		bl	__aeabi_d2iz
 5684              	.LVL509:
 5685 00e2 03B2     		sxth	r3, r0
 5686 00e4 BB61     		str	r3, [r7, #24]
 5687              	.LVL510:
 5688              		.loc 1 1869 0
 5689 00e6 3B6A     		ldr	r3, [r7, #32]
 5690 00e8 2BB1     		cbz	r3, .L726
 5691              		.loc 1 1869 0 is_stmt 0 discriminator 1
 5692 00ea 95FBF3F3 		sdiv	r3, r5, r3
 5693 00ee 7B62     		str	r3, [r7, #36]
 5694              	.LVL511:
 5695              		.loc 1 1870 0 is_stmt 1 discriminator 1
 5696 00f0 BB69     		ldr	r3, [r7, #24]
 5697              	.LVL512:
 5698 00f2 43B1     		cbz	r3, .L873
 5699 00f4 02E0     		b	.L871
 5700              	.LVL513:
ARM GAS  /var/folders/_2/42wyrlld3p52fkcpt1lv6gxh0000gp/T//ccpbLF3Z.s 			page 101


 5701              	.L726:
 5702              		.loc 1 1870 0 is_stmt 0
 5703 00f6 BB69     		ldr	r3, [r7, #24]
 5704 00f8 B3B1     		cbz	r3, .L980
 5705              		.loc 1 1866 0 is_stmt 1
 5706 00fa 7D62     		str	r5, [r7, #36]
 5707              	.LVL514:
 5708              	.L871:
 5709              		.loc 1 1870 0 discriminator 1
 5710 00fc BB69     		ldr	r3, [r7, #24]
 5711 00fe 96FBF3F3 		sdiv	r3, r6, r3
 5712 0102 FB61     		str	r3, [r7, #28]
 5713 0104 00E0     		b	.L727
 5714              	.L873:
 5715              		.loc 1 1867 0
 5716 0106 FE61     		str	r6, [r7, #28]
 5717              	.L727:
 5718              	.LVL515:
 5719              		.loc 1 1873 0 discriminator 4
 5720 0108 002D     		cmp	r5, #0
 5721 010a D4BF     		ite	le
 5722 010c 0023     		movle	r3, #0
 5723 010e 0123     		movgt	r3, #1
 5724 0110 7B61     		str	r3, [r7, #20]
 5725              	.LVL516:
 5726              		.loc 1 1875 0 discriminator 4
 5727 0112 3B6A     		ldr	r3, [r7, #32]
 5728 0114 002B     		cmp	r3, #0
 5729 0116 C1BF     		itttt	gt
 5730 0118 7B69     		ldrgt	r3, [r7, #20]
 5731 011a 43F00203 		orrgt	r3, r3, #2
 5732 011e DBB2     		uxtbgt	r3, r3
 5733 0120 7B61     		strgt	r3, [r7, #20]
 5734              	.LVL517:
 5735              		.loc 1 1876 0 discriminator 4
 5736 0122 002E     		cmp	r6, #0
 5737 0124 0ADC     		bgt	.L870
 5738 0126 0DE0     		b	.L729
 5739              	.LVL518:
 5740              	.L980:
 5741              		.loc 1 1873 0
 5742 0128 002D     		cmp	r5, #0
 5743 012a D4BF     		ite	le
 5744 012c 0023     		movle	r3, #0
 5745 012e 0123     		movgt	r3, #1
 5746              		.loc 1 1876 0
 5747 0130 002E     		cmp	r6, #0
 5748              		.loc 1 1873 0
 5749 0132 7B61     		str	r3, [r7, #20]
 5750              	.LVL519:
 5751              		.loc 1 1876 0
 5752 0134 41F3E681 		ble	.L981
 5753              		.loc 1 1866 0
 5754 0138 7D62     		str	r5, [r7, #36]
 5755              		.loc 1 1867 0
 5756 013a FE61     		str	r6, [r7, #28]
 5757              	.LVL520:
ARM GAS  /var/folders/_2/42wyrlld3p52fkcpt1lv6gxh0000gp/T//ccpbLF3Z.s 			page 102


 5758              	.L870:
 5759              		.loc 1 1876 0 discriminator 1
 5760 013c 7B69     		ldr	r3, [r7, #20]
 5761 013e 43F00403 		orr	r3, r3, #4
 5762 0142 7B61     		str	r3, [r7, #20]
 5763              	.L729:
 5764              		.loc 1 1877 0
 5765 0144 BB69     		ldr	r3, [r7, #24]
 5766              		.loc 1 1878 0
 5767 0146 BA69     		ldr	r2, [r7, #24]
 5768              		.loc 1 1877 0
 5769 0148 002B     		cmp	r3, #0
 5770 014a C2BF     		ittt	gt
 5771 014c 7B69     		ldrgt	r3, [r7, #20]
 5772 014e 43F00803 		orrgt	r3, r3, #8
 5773 0152 7B61     		strgt	r3, [r7, #20]
 5774              	.LVL521:
 5775              		.loc 1 1878 0
 5776 0154 3B6A     		ldr	r3, [r7, #32]
 5777 0156 9342     		cmp	r3, r2
 5778 0158 C2BF     		ittt	gt
 5779 015a 7B69     		ldrgt	r3, [r7, #20]
 5780 015c 43F01003 		orrgt	r3, r3, #16
 5781 0160 7B61     		strgt	r3, [r7, #20]
 5782              	.LVL522:
 5783              	.L731:
 5784              		.loc 1 1883 0
 5785 0162 1FFA8BF3 		uxth	r3, fp
 5786 0166 C3F1040A 		rsb	r10, r3, #4
 5787 016a 0FFA8AF2 		sxth	r2, r10
 5788 016e 3A63     		str	r2, [r7, #48]
 5789              	.LVL523:
 5790              		.loc 1 1884 0
 5791 0170 97F87020 		ldrb	r2, [r7, #112]	@ zero_extendqisi2
 5792 0174 84F83020 		strb	r2, [r4, #48]
 5793              		.loc 1 1885 0
 5794 0178 FA6B     		ldr	r2, [r7, #60]
 5795 017a 2A44     		add	r2, r2, r5
 5796 017c BA62     		str	r2, [r7, #40]
 5797              	.LVL524:
 5798              		.loc 1 1886 0
 5799 017e FA6B     		ldr	r2, [r7, #60]
 5800              	.LVL525:
 5801 0180 3244     		add	r2, r2, r6
 5802 0182 BA63     		str	r2, [r7, #56]
 5803              	.LVL526:
 5804              		.loc 1 1891 0
 5805 0184 7A69     		ldr	r2, [r7, #20]
 5806              	.LVL527:
 5807 0186 023A     		subs	r2, r2, #2
 5808 0188 1D2A     		cmp	r2, #29
 5809 018a 1FD8     		bhi	.L732
 5810 018c DFE812F0 		tbh	[pc, r2, lsl #1]
 5811              	.L734:
 5812 0190 0D01     		.2byte	(.L733-.L734)/2
 5813 0192 0D01     		.2byte	(.L733-.L734)/2
 5814 0194 1302     		.2byte	(.L735-.L734)/2
ARM GAS  /var/folders/_2/42wyrlld3p52fkcpt1lv6gxh0000gp/T//ccpbLF3Z.s 			page 103


 5815 0196 1302     		.2byte	(.L735-.L734)/2
 5816 0198 0D01     		.2byte	(.L733-.L734)/2
 5817 019a 0D01     		.2byte	(.L733-.L734)/2
 5818 019c 3503     		.2byte	(.L736-.L734)/2
 5819 019e 3503     		.2byte	(.L736-.L734)/2
 5820 01a0 3A04     		.2byte	(.L737-.L734)/2
 5821 01a2 0405     		.2byte	(.L738-.L734)/2
 5822 01a4 3503     		.2byte	(.L736-.L734)/2
 5823 01a6 3503     		.2byte	(.L736-.L734)/2
 5824 01a8 3A04     		.2byte	(.L737-.L734)/2
 5825 01aa 0405     		.2byte	(.L738-.L734)/2
 5826 01ac 0606     		.2byte	(.L739-.L734)/2
 5827 01ae 2407     		.2byte	(.L740-.L734)/2
 5828 01b0 0D01     		.2byte	(.L733-.L734)/2
 5829 01b2 0D01     		.2byte	(.L733-.L734)/2
 5830 01b4 0606     		.2byte	(.L739-.L734)/2
 5831 01b6 2407     		.2byte	(.L740-.L734)/2
 5832 01b8 0D01     		.2byte	(.L733-.L734)/2
 5833 01ba 0D01     		.2byte	(.L733-.L734)/2
 5834 01bc 3503     		.2byte	(.L736-.L734)/2
 5835 01be 3503     		.2byte	(.L736-.L734)/2
 5836 01c0 F207     		.2byte	(.L741-.L734)/2
 5837 01c2 F207     		.2byte	(.L741-.L734)/2
 5838 01c4 3503     		.2byte	(.L736-.L734)/2
 5839 01c6 3503     		.2byte	(.L736-.L734)/2
 5840 01c8 FB08     		.2byte	(.L742-.L734)/2
 5841 01ca FB08     		.2byte	(.L742-.L734)/2
 5842              		.p2align 1
 5843              	.L732:
 5844              		.loc 1 1894 0
 5845 01cc BA69     		ldr	r2, [r7, #24]
 5846 01ce 52B1     		cbz	r2, .L743
 5847 01d0 FA6B     		ldr	r2, [r7, #60]
 5848 01d2 F969     		ldr	r1, [r7, #28]
 5849              		.loc 1 1895 0 discriminator 1
 5850 01d4 A4F82090 		strh	r9, [r4, #32]	@ movhi
 5851 01d8 561A     		subs	r6, r2, r1
 5852              		.loc 1 1894 0 discriminator 1
 5853 01da 3A6A     		ldr	r2, [r7, #32]
 5854 01dc 82B1     		cbz	r2, .L744
 5855              	.LVL528:
 5856              		.loc 1 1895 0
 5857 01de A4F82890 		strh	r9, [r4, #40]	@ movhi
 5858              		.loc 1 1896 0
 5859 01e2 FB6B     		ldr	r3, [r7, #60]
 5860 01e4 08E0     		b	.L941
 5861              	.LVL529:
 5862              	.L743:
 5863              		.loc 1 1897 0
 5864 01e6 3A6A     		ldr	r2, [r7, #32]
 5865 01e8 6AB1     		cbz	r2, .L746
 5866              	.LVL530:
 5867              		.loc 1 1858 0
 5868 01ea FE6B     		ldr	r6, [r7, #60]
 5869              		.loc 1 1898 0
 5870 01ec C3EB0903 		rsb	r3, r3, r9
 5871 01f0 2384     		strh	r3, [r4, #32]	@ movhi
ARM GAS  /var/folders/_2/42wyrlld3p52fkcpt1lv6gxh0000gp/T//ccpbLF3Z.s 			page 104


 5872              		.loc 1 1899 0
 5873 01f2 3346     		mov	r3, r6
 5874              		.loc 1 1898 0
 5875 01f4 A4F82890 		strh	r9, [r4, #40]	@ movhi
 5876              	.LVL531:
 5877              	.L941:
 5878              		.loc 1 1899 0
 5879 01f8 7A6A     		ldr	r2, [r7, #36]
 5880 01fa 9B1A     		subs	r3, r3, r2
 5881 01fc FB63     		str	r3, [r7, #60]
 5882 01fe 09E0     		b	.L745
 5883              	.LVL532:
 5884              	.L744:
 5885              		.loc 1 1901 0
 5886 0200 4B44     		add	r3, r3, r9
 5887 0202 2385     		strh	r3, [r4, #40]	@ movhi
 5888              	.LVL533:
 5889 0204 06E0     		b	.L745
 5890              	.LVL534:
 5891              	.L746:
 5892              		.loc 1 1904 0
 5893 0206 1FFA89F2 		uxth	r2, r9
 5894 020a D11A     		subs	r1, r2, r3
 5895              		.loc 1 1858 0
 5896 020c FE6B     		ldr	r6, [r7, #60]
 5897              		.loc 1 1904 0
 5898 020e 1344     		add	r3, r3, r2
 5899 0210 2184     		strh	r1, [r4, #32]	@ movhi
 5900 0212 2385     		strh	r3, [r4, #40]	@ movhi
 5901              	.LVL535:
 5902              	.L745:
 5903              		.loc 1 1906 0
 5904 0214 A4F82280 		strh	r8, [r4, #34]	@ movhi
 5905              		.loc 1 1907 0
 5906 0218 2046     		mov	r0, r4
 5907 021a FFF7FEFF 		bl	hline_clip
 5908              	.LVL536:
 5909              		.loc 1 1916 0
 5910 021e 1FFA89F3 		uxth	r3, r9
 5911              		.loc 1 1881 0
 5912 0222 4FF0010A 		mov	r10, #1
 5913              		.loc 1 1916 0
 5914 0226 3B61     		str	r3, [r7, #16]
 5915              	.LVL537:
 5916              	.L755:
 5917              		.loc 1 1909 0
 5918 0228 BA69     		ldr	r2, [r7, #24]
 5919 022a CAF10003 		rsb	r3, r10, #0
 5920 022e 9342     		cmp	r3, r2
 5921 0230 5546     		mov	r5, r10
 5922 0232 11DB     		blt	.L747
 5923              		.loc 1 1910 0
 5924 0234 CAEB0803 		rsb	r3, r10, r8
 5925 0238 6384     		strh	r3, [r4, #34]	@ movhi
 5926 023a 3314     		asrs	r3, r6, #16
 5927 023c 2384     		strh	r3, [r4, #32]	@ movhi
 5928 023e FB6B     		ldr	r3, [r7, #60]
ARM GAS  /var/folders/_2/42wyrlld3p52fkcpt1lv6gxh0000gp/T//ccpbLF3Z.s 			page 105


 5929 0240 2046     		mov	r0, r4
 5930 0242 1B14     		asrs	r3, r3, #16
 5931 0244 2385     		strh	r3, [r4, #40]	@ movhi
 5932 0246 FFF7FEFF 		bl	hline_clip
 5933              	.LVL538:
 5934              		.loc 1 1911 0
 5935 024a FB6B     		ldr	r3, [r7, #60]
 5936 024c 7A6A     		ldr	r2, [r7, #36]
 5937 024e 9B1A     		subs	r3, r3, r2
 5938 0250 FB63     		str	r3, [r7, #60]
 5939              	.LVL539:
 5940 0252 FB69     		ldr	r3, [r7, #28]
 5941              	.LVL540:
 5942 0254 F61A     		subs	r6, r6, r3
 5943              	.LVL541:
 5944 0256 23E0     		b	.L748
 5945              	.L747:
 5946              		.loc 1 1912 0
 5947 0258 3A6A     		ldr	r2, [r7, #32]
 5948 025a 9342     		cmp	r3, r2
 5949 025c 10DB     		blt	.L749
 5950              		.loc 1 1913 0
 5951 025e CAEB0803 		rsb	r3, r10, r8
 5952 0262 6384     		strh	r3, [r4, #34]	@ movhi
 5953 0264 CBEB0903 		rsb	r3, fp, r9
 5954 0268 2384     		strh	r3, [r4, #32]	@ movhi
 5955 026a FB6B     		ldr	r3, [r7, #60]
 5956 026c 2046     		mov	r0, r4
 5957 026e 1B14     		asrs	r3, r3, #16
 5958 0270 2385     		strh	r3, [r4, #40]	@ movhi
 5959 0272 FFF7FEFF 		bl	hline_clip
 5960              	.LVL542:
 5961              		.loc 1 1914 0
 5962 0276 FB6B     		ldr	r3, [r7, #60]
 5963 0278 7A6A     		ldr	r2, [r7, #36]
 5964 027a 9B1A     		subs	r3, r3, r2
 5965 027c FB63     		str	r3, [r7, #60]
 5966              	.LVL543:
 5967 027e 0FE0     		b	.L748
 5968              	.LVL544:
 5969              	.L749:
 5970              		.loc 1 1915 0
 5971 0280 7B69     		ldr	r3, [r7, #20]
 5972 0282 6BB1     		cbz	r3, .L748
 5973              		.loc 1 1916 0
 5974 0284 CAEB0803 		rsb	r3, r10, r8
 5975 0288 3A69     		ldr	r2, [r7, #16]
 5976 028a 6384     		strh	r3, [r4, #34]	@ movhi
 5977 028c 1FFA8BF3 		uxth	r3, fp
 5978 0290 D21A     		subs	r2, r2, r3
 5979 0292 2284     		strh	r2, [r4, #32]	@ movhi
 5980 0294 3A69     		ldr	r2, [r7, #16]
 5981 0296 2046     		mov	r0, r4
 5982 0298 1344     		add	r3, r3, r2
 5983 029a 2385     		strh	r3, [r4, #40]	@ movhi
 5984 029c FFF7FEFF 		bl	hline_clip
 5985              	.LVL545:
ARM GAS  /var/folders/_2/42wyrlld3p52fkcpt1lv6gxh0000gp/T//ccpbLF3Z.s 			page 106


 5986              	.L748:
 5987              		.loc 1 1918 0
 5988 02a0 3B6B     		ldr	r3, [r7, #48]
 5989 02a2 002B     		cmp	r3, #0
 5990 02a4 10DA     		bge	.L750
 5991              		.loc 1 1919 0
 5992 02a6 0AF1010A 		add	r10, r10, #1
 5993              	.LVL546:
 5994 02aa 03EB4505 		add	r5, r3, r5, lsl #1
 5995 02ae 0FFA8AFA 		sxth	r10, r10
 5996              	.LVL547:
 5997 02b2 0335     		adds	r5, r5, #3
 5998 02b4 56E0     		b	.L942
 5999              	.L983:
 6000 02b6 00BF     		.align	3
 6001              	.L982:
 6002 02b8 182D4454 		.word	1413754136
 6003 02bc FB210940 		.word	1074340347
 6004 02c0 00806640 		.word	1080459264
 6005 02c4 0000F040 		.word	1089470464
 6006              	.L750:
 6007              		.loc 1 1921 0
 6008 02c8 BA69     		ldr	r2, [r7, #24]
 6009 02ca CBF10003 		rsb	r3, fp, #0
 6010 02ce 9A42     		cmp	r2, r3
 6011 02d0 C7F80CB0 		str	fp, [r7, #12]
 6012 02d4 14DC     		bgt	.L752
 6013              		.loc 1 1922 0
 6014 02d6 CBEB0803 		rsb	r3, fp, r8
 6015 02da 6384     		strh	r3, [r4, #34]	@ movhi
 6016 02dc BB6B     		ldr	r3, [r7, #56]
 6017 02de 2046     		mov	r0, r4
 6018 02e0 1B14     		asrs	r3, r3, #16
 6019 02e2 2384     		strh	r3, [r4, #32]	@ movhi
 6020 02e4 BB6A     		ldr	r3, [r7, #40]
 6021 02e6 1B14     		asrs	r3, r3, #16
 6022 02e8 2385     		strh	r3, [r4, #40]	@ movhi
 6023 02ea FFF7FEFF 		bl	hline_clip
 6024              	.LVL548:
 6025              		.loc 1 1923 0
 6026 02ee BB6A     		ldr	r3, [r7, #40]
 6027 02f0 7A6A     		ldr	r2, [r7, #36]
 6028 02f2 1344     		add	r3, r3, r2
 6029 02f4 BB62     		str	r3, [r7, #40]
 6030              	.LVL549:
 6031 02f6 FA69     		ldr	r2, [r7, #28]
 6032 02f8 BB6B     		ldr	r3, [r7, #56]
 6033              	.LVL550:
 6034 02fa 1344     		add	r3, r3, r2
 6035 02fc BB63     		str	r3, [r7, #56]
 6036              	.LVL551:
 6037 02fe 23E0     		b	.L753
 6038              	.LVL552:
 6039              	.L752:
 6040              		.loc 1 1924 0
 6041 0300 3A6A     		ldr	r2, [r7, #32]
 6042 0302 9342     		cmp	r3, r2
ARM GAS  /var/folders/_2/42wyrlld3p52fkcpt1lv6gxh0000gp/T//ccpbLF3Z.s 			page 107


 6043 0304 10DB     		blt	.L754
 6044              		.loc 1 1925 0
 6045 0306 CBEB0803 		rsb	r3, fp, r8
 6046 030a 6384     		strh	r3, [r4, #34]	@ movhi
 6047 030c CAEB0903 		rsb	r3, r10, r9
 6048 0310 2384     		strh	r3, [r4, #32]	@ movhi
 6049 0312 BB6A     		ldr	r3, [r7, #40]
 6050 0314 2046     		mov	r0, r4
 6051 0316 1B14     		asrs	r3, r3, #16
 6052 0318 2385     		strh	r3, [r4, #40]	@ movhi
 6053 031a FFF7FEFF 		bl	hline_clip
 6054              	.LVL553:
 6055              		.loc 1 1926 0
 6056 031e BB6A     		ldr	r3, [r7, #40]
 6057 0320 7A6A     		ldr	r2, [r7, #36]
 6058 0322 1344     		add	r3, r3, r2
 6059 0324 BB62     		str	r3, [r7, #40]
 6060              	.LVL554:
 6061 0326 0FE0     		b	.L753
 6062              	.LVL555:
 6063              	.L754:
 6064              		.loc 1 1927 0
 6065 0328 7B69     		ldr	r3, [r7, #20]
 6066 032a 6BB1     		cbz	r3, .L753
 6067              		.loc 1 1928 0
 6068 032c CBEB0803 		rsb	r3, fp, r8
 6069 0330 3A69     		ldr	r2, [r7, #16]
 6070 0332 6384     		strh	r3, [r4, #34]	@ movhi
 6071 0334 1FFA8AF3 		uxth	r3, r10
 6072 0338 D21A     		subs	r2, r2, r3
 6073 033a 2284     		strh	r2, [r4, #32]	@ movhi
 6074 033c 3A69     		ldr	r2, [r7, #16]
 6075 033e 2046     		mov	r0, r4
 6076 0340 1344     		add	r3, r3, r2
 6077 0342 2385     		strh	r3, [r4, #40]	@ movhi
 6078 0344 FFF7FEFF 		bl	hline_clip
 6079              	.LVL556:
 6080              	.L753:
 6081              		.loc 1 1930 0
 6082 0348 0BF1FF33 		add	r3, fp, #-1
 6083 034c 0FFA83FB 		sxth	fp, r3
 6084              	.LVL557:
 6085 0350 FB68     		ldr	r3, [r7, #12]
 6086 0352 0AF1010A 		add	r10, r10, #1
 6087              	.LVL558:
 6088 0356 ED1A     		subs	r5, r5, r3
 6089 0358 3B6B     		ldr	r3, [r7, #48]
 6090 035a 0FFA8AFA 		sxth	r10, r10
 6091              	.LVL559:
 6092 035e 03EB4505 		add	r5, r3, r5, lsl #1
 6093 0362 0535     		adds	r5, r5, #5
 6094              	.L942:
 6095 0364 2BB2     		sxth	r3, r5
 6096              		.loc 1 1932 0
 6097 0366 DA45     		cmp	r10, fp
 6098              		.loc 1 1930 0
 6099 0368 3B63     		str	r3, [r7, #48]
ARM GAS  /var/folders/_2/42wyrlld3p52fkcpt1lv6gxh0000gp/T//ccpbLF3Z.s 			page 108


 6100              	.LVL560:
 6101              		.loc 1 1932 0
 6102 036a FFF65DAF 		blt	.L755
 6103              		.loc 1 1933 0
 6104 036e BA69     		ldr	r2, [r7, #24]
 6105 0370 CAF10003 		rsb	r3, r10, #0
 6106 0374 9A42     		cmp	r2, r3
 6107 0376 05DC     		bgt	.L756
 6108              		.loc 1 1934 0
 6109 0378 CAEB080A 		rsb	r10, r10, r8
 6110              	.LVL561:
 6111 037c A4F822A0 		strh	r10, [r4, #34]	@ movhi
 6112 0380 00F0E3BE 		b	.L975
 6113              	.LVL562:
 6114              	.L756:
 6115              		.loc 1 1935 0
 6116 0384 3A6A     		ldr	r2, [r7, #32]
 6117 0386 9342     		cmp	r3, r2
 6118 0388 08DB     		blt	.L758
 6119              		.loc 1 1936 0
 6120 038a CAEB080A 		rsb	r10, r10, r8
 6121              	.LVL563:
 6122 038e CBEB0903 		rsb	r3, fp, r9
 6123 0392 A4F822A0 		strh	r10, [r4, #34]	@ movhi
 6124 0396 2384     		strh	r3, [r4, #32]	@ movhi
 6125 0398 00F0D9BE 		b	.L976
 6126              	.LVL564:
 6127              	.L758:
 6128              		.loc 1 1937 0
 6129 039c 7B69     		ldr	r3, [r7, #20]
 6130 039e 002B     		cmp	r3, #0
 6131 03a0 01F0A480 		beq	.L757
 6132              		.loc 1 1938 0
 6133 03a4 CAEB080A 		rsb	r10, r10, r8
 6134              	.LVL565:
 6135 03a8 EBE3     		b	.L971
 6136              	.LVL566:
 6137              	.L733:
 6138              		.loc 1 1950 0
 6139 03aa 1FFA89F6 		uxth	r6, r9
 6140 03ae 3344     		add	r3, r3, r6
 6141 03b0 A4F82090 		strh	r9, [r4, #32]	@ movhi
 6142 03b4 2385     		strh	r3, [r4, #40]	@ movhi
 6143 03b6 A4F82280 		strh	r8, [r4, #34]	@ movhi
 6144 03ba 2046     		mov	r0, r4
 6145 03bc FFF7FEFF 		bl	hline_clip
 6146              	.LVL567:
 6147              		.loc 1 1951 0
 6148 03c0 FB6B     		ldr	r3, [r7, #60]
 6149 03c2 7A6A     		ldr	r2, [r7, #36]
 6150              		.loc 1 1881 0
 6151 03c4 4FF0010A 		mov	r10, #1
 6152              		.loc 1 1951 0
 6153 03c8 1344     		add	r3, r3, r2
 6154 03ca 3B61     		str	r3, [r7, #16]
 6155              	.LVL568:
 6156 03cc FA69     		ldr	r2, [r7, #28]
ARM GAS  /var/folders/_2/42wyrlld3p52fkcpt1lv6gxh0000gp/T//ccpbLF3Z.s 			page 109


 6157 03ce FB6B     		ldr	r3, [r7, #60]
 6158              	.LVL569:
 6159 03d0 C2EB0309 		rsb	r9, r2, r3
 6160              	.LVL570:
 6161              		.loc 1 1956 0
 6162 03d4 7B69     		ldr	r3, [r7, #20]
 6163 03d6 03F00402 		and	r2, r3, #4
 6164 03da D3B2     		uxtb	r3, r2
 6165 03dc FB63     		str	r3, [r7, #60]
 6166              		.loc 1 1962 0
 6167 03de 7B69     		ldr	r3, [r7, #20]
 6168 03e0 03EA0A03 		and	r3, r3, r10
 6169 03e4 FB60     		str	r3, [r7, #12]
 6170              	.LVL571:
 6171              	.L770:
 6172              		.loc 1 1953 0
 6173 03e6 BB69     		ldr	r3, [r7, #24]
 6174 03e8 CAF10002 		rsb	r2, r10, #0
 6175 03ec 9A42     		cmp	r2, r3
 6176 03ee 5546     		mov	r5, r10
 6177 03f0 0FDB     		blt	.L760
 6178              		.loc 1 1954 0
 6179 03f2 CAEB0802 		rsb	r2, r10, r8
 6180 03f6 6284     		strh	r2, [r4, #34]	@ movhi
 6181 03f8 4FEA2942 		asr	r2, r9, #16
 6182 03fc 2284     		strh	r2, [r4, #32]	@ movhi
 6183 03fe 06EB0B02 		add	r2, r6, fp
 6184 0402 2285     		strh	r2, [r4, #40]	@ movhi
 6185 0404 2046     		mov	r0, r4
 6186 0406 FFF7FEFF 		bl	hline_clip
 6187              	.LVL572:
 6188              		.loc 1 1955 0
 6189 040a FB69     		ldr	r3, [r7, #28]
 6190 040c C3EB0909 		rsb	r9, r3, r9
 6191              	.LVL573:
 6192 0410 0DE0     		b	.L761
 6193              	.L760:
 6194              		.loc 1 1956 0
 6195 0412 FB6B     		ldr	r3, [r7, #60]
 6196 0414 5BB9     		cbnz	r3, .L761
 6197              		.loc 1 1957 0
 6198 0416 CAEB0802 		rsb	r2, r10, r8
 6199 041a 6284     		strh	r2, [r4, #34]	@ movhi
 6200 041c 1FFA8BF2 		uxth	r2, fp
 6201 0420 B11A     		subs	r1, r6, r2
 6202 0422 3244     		add	r2, r2, r6
 6203 0424 2184     		strh	r1, [r4, #32]	@ movhi
 6204 0426 2285     		strh	r2, [r4, #40]	@ movhi
 6205 0428 2046     		mov	r0, r4
 6206 042a FFF7FEFF 		bl	hline_clip
 6207              	.LVL574:
 6208              	.L761:
 6209              		.loc 1 1959 0
 6210 042e 3B6A     		ldr	r3, [r7, #32]
 6211 0430 9A45     		cmp	r10, r3
 6212 0432 10DC     		bgt	.L762
 6213              		.loc 1 1960 0
ARM GAS  /var/folders/_2/42wyrlld3p52fkcpt1lv6gxh0000gp/T//ccpbLF3Z.s 			page 110


 6214 0434 3B69     		ldr	r3, [r7, #16]
 6215 0436 08EB0A02 		add	r2, r8, r10
 6216 043a 6284     		strh	r2, [r4, #34]	@ movhi
 6217 043c 1A14     		asrs	r2, r3, #16
 6218 043e 2284     		strh	r2, [r4, #32]	@ movhi
 6219 0440 06EB0B02 		add	r2, r6, fp
 6220 0444 2285     		strh	r2, [r4, #40]	@ movhi
 6221 0446 2046     		mov	r0, r4
 6222 0448 FFF7FEFF 		bl	hline_clip
 6223              	.LVL575:
 6224              		.loc 1 1961 0
 6225 044c 3B69     		ldr	r3, [r7, #16]
 6226 044e 7A6A     		ldr	r2, [r7, #36]
 6227 0450 1344     		add	r3, r3, r2
 6228 0452 3B61     		str	r3, [r7, #16]
 6229              	.LVL576:
 6230 0454 0DE0     		b	.L763
 6231              	.LVL577:
 6232              	.L762:
 6233              		.loc 1 1962 0
 6234 0456 FB68     		ldr	r3, [r7, #12]
 6235 0458 5BB9     		cbnz	r3, .L763
 6236              		.loc 1 1963 0
 6237 045a 08EB0A02 		add	r2, r8, r10
 6238 045e 6284     		strh	r2, [r4, #34]	@ movhi
 6239 0460 1FFA8BF2 		uxth	r2, fp
 6240 0464 B11A     		subs	r1, r6, r2
 6241 0466 3244     		add	r2, r2, r6
 6242 0468 2184     		strh	r1, [r4, #32]	@ movhi
 6243 046a 2285     		strh	r2, [r4, #40]	@ movhi
 6244 046c 2046     		mov	r0, r4
 6245 046e FFF7FEFF 		bl	hline_clip
 6246              	.LVL578:
 6247              	.L763:
 6248              		.loc 1 1965 0
 6249 0472 3B6B     		ldr	r3, [r7, #48]
 6250 0474 002B     		cmp	r3, #0
 6251 0476 08DA     		bge	.L764
 6252              		.loc 1 1966 0
 6253 0478 0AF10103 		add	r3, r10, #1
 6254 047c 0FFA83FA 		sxth	r10, r3
 6255              	.LVL579:
 6256 0480 3B6B     		ldr	r3, [r7, #48]
 6257 0482 03EB4505 		add	r5, r3, r5, lsl #1
 6258 0486 0335     		adds	r5, r5, #3
 6259 0488 55E0     		b	.L943
 6260              	.L764:
 6261              		.loc 1 1968 0
 6262 048a BB69     		ldr	r3, [r7, #24]
 6263 048c CBF10002 		rsb	r2, fp, #0
 6264 0490 9342     		cmp	r3, r2
 6265 0492 C7F808B0 		str	fp, [r7, #8]
 6266 0496 10DC     		bgt	.L766
 6267              		.loc 1 1969 0
 6268 0498 BB6B     		ldr	r3, [r7, #56]
 6269 049a CBEB0802 		rsb	r2, fp, r8
 6270 049e 6284     		strh	r2, [r4, #34]	@ movhi
ARM GAS  /var/folders/_2/42wyrlld3p52fkcpt1lv6gxh0000gp/T//ccpbLF3Z.s 			page 111


 6271 04a0 1A14     		asrs	r2, r3, #16
 6272 04a2 2284     		strh	r2, [r4, #32]	@ movhi
 6273 04a4 06EB0A02 		add	r2, r6, r10
 6274 04a8 2285     		strh	r2, [r4, #40]	@ movhi
 6275 04aa 2046     		mov	r0, r4
 6276 04ac FFF7FEFF 		bl	hline_clip
 6277              	.LVL580:
 6278              		.loc 1 1970 0
 6279 04b0 BB6B     		ldr	r3, [r7, #56]
 6280 04b2 FA69     		ldr	r2, [r7, #28]
 6281 04b4 1344     		add	r3, r3, r2
 6282 04b6 BB63     		str	r3, [r7, #56]
 6283              	.LVL581:
 6284 04b8 0DE0     		b	.L767
 6285              	.LVL582:
 6286              	.L766:
 6287              		.loc 1 1971 0
 6288 04ba FB6B     		ldr	r3, [r7, #60]
 6289 04bc 5BB9     		cbnz	r3, .L767
 6290              		.loc 1 1972 0
 6291 04be CBEB0802 		rsb	r2, fp, r8
 6292 04c2 6284     		strh	r2, [r4, #34]	@ movhi
 6293 04c4 1FFA8AF2 		uxth	r2, r10
 6294 04c8 B11A     		subs	r1, r6, r2
 6295 04ca 3244     		add	r2, r2, r6
 6296 04cc 2184     		strh	r1, [r4, #32]	@ movhi
 6297 04ce 2285     		strh	r2, [r4, #40]	@ movhi
 6298 04d0 2046     		mov	r0, r4
 6299 04d2 FFF7FEFF 		bl	hline_clip
 6300              	.LVL583:
 6301              	.L767:
 6302              		.loc 1 1974 0
 6303 04d6 3B6A     		ldr	r3, [r7, #32]
 6304 04d8 9B45     		cmp	fp, r3
 6305 04da 10DC     		bgt	.L768
 6306              		.loc 1 1975 0
 6307 04dc BB6A     		ldr	r3, [r7, #40]
 6308 04de 08EB0B02 		add	r2, r8, fp
 6309 04e2 6284     		strh	r2, [r4, #34]	@ movhi
 6310 04e4 1A14     		asrs	r2, r3, #16
 6311 04e6 2284     		strh	r2, [r4, #32]	@ movhi
 6312 04e8 06EB0A02 		add	r2, r6, r10
 6313 04ec 2285     		strh	r2, [r4, #40]	@ movhi
 6314 04ee 2046     		mov	r0, r4
 6315 04f0 FFF7FEFF 		bl	hline_clip
 6316              	.LVL584:
 6317              		.loc 1 1976 0
 6318 04f4 BB6A     		ldr	r3, [r7, #40]
 6319 04f6 7A6A     		ldr	r2, [r7, #36]
 6320 04f8 9B1A     		subs	r3, r3, r2
 6321 04fa BB62     		str	r3, [r7, #40]
 6322              	.LVL585:
 6323 04fc 0DE0     		b	.L769
 6324              	.LVL586:
 6325              	.L768:
 6326              		.loc 1 1977 0
 6327 04fe FB68     		ldr	r3, [r7, #12]
ARM GAS  /var/folders/_2/42wyrlld3p52fkcpt1lv6gxh0000gp/T//ccpbLF3Z.s 			page 112


 6328 0500 5BB9     		cbnz	r3, .L769
 6329              		.loc 1 1978 0
 6330 0502 08EB0B02 		add	r2, r8, fp
 6331 0506 6284     		strh	r2, [r4, #34]	@ movhi
 6332 0508 1FFA8AF2 		uxth	r2, r10
 6333 050c B11A     		subs	r1, r6, r2
 6334 050e 3244     		add	r2, r2, r6
 6335 0510 2184     		strh	r1, [r4, #32]	@ movhi
 6336 0512 2285     		strh	r2, [r4, #40]	@ movhi
 6337 0514 2046     		mov	r0, r4
 6338 0516 FFF7FEFF 		bl	hline_clip
 6339              	.LVL587:
 6340              	.L769:
 6341              		.loc 1 1980 0
 6342 051a 0AF10103 		add	r3, r10, #1
 6343 051e 0FFA83FA 		sxth	r10, r3
 6344              	.LVL588:
 6345 0522 BB68     		ldr	r3, [r7, #8]
 6346 0524 0BF1FF32 		add	r2, fp, #-1
 6347 0528 ED1A     		subs	r5, r5, r3
 6348 052a 3B6B     		ldr	r3, [r7, #48]
 6349 052c 0FFA82FB 		sxth	fp, r2
 6350              	.LVL589:
 6351 0530 03EB4505 		add	r5, r3, r5, lsl #1
 6352 0534 0535     		adds	r5, r5, #5
 6353              	.L943:
 6354 0536 2BB2     		sxth	r3, r5
 6355              		.loc 1 1982 0
 6356 0538 DA45     		cmp	r10, fp
 6357              		.loc 1 1980 0
 6358 053a 3B63     		str	r3, [r7, #48]
 6359              	.LVL590:
 6360              		.loc 1 1982 0
 6361 053c FFF653AF 		blt	.L770
 6362              		.loc 1 1983 0
 6363 0540 BB69     		ldr	r3, [r7, #24]
 6364 0542 CAF10002 		rsb	r2, r10, #0
 6365 0546 9342     		cmp	r3, r2
 6366 0548 09DC     		bgt	.L771
 6367              		.loc 1 1984 0
 6368 054a CAEB0802 		rsb	r2, r10, r8
 6369 054e 4FEA2949 		asr	r9, r9, #16
 6370              	.LVL591:
 6371 0552 6284     		strh	r2, [r4, #34]	@ movhi
 6372 0554 A4F82090 		strh	r9, [r4, #32]	@ movhi
 6373 0558 06EB0B02 		add	r2, r6, fp
 6374 055c 0AE0     		b	.L944
 6375              	.LVL592:
 6376              	.L771:
 6377              		.loc 1 1985 0
 6378 055e 7B69     		ldr	r3, [r7, #20]
 6379 0560 5D07     		lsls	r5, r3, #29
 6380 0562 0BD4     		bmi	.L772
 6381              		.loc 1 1986 0
 6382 0564 CAEB0802 		rsb	r2, r10, r8
 6383 0568 6284     		strh	r2, [r4, #34]	@ movhi
 6384 056a 1FFA8BF2 		uxth	r2, fp
ARM GAS  /var/folders/_2/42wyrlld3p52fkcpt1lv6gxh0000gp/T//ccpbLF3Z.s 			page 113


 6385 056e B11A     		subs	r1, r6, r2
 6386 0570 2184     		strh	r1, [r4, #32]	@ movhi
 6387 0572 3244     		add	r2, r2, r6
 6388              	.LVL593:
 6389              	.L944:
 6390 0574 2285     		strh	r2, [r4, #40]	@ movhi
 6391 0576 2046     		mov	r0, r4
 6392 0578 FFF7FEFF 		bl	hline_clip
 6393              	.LVL594:
 6394              	.L772:
 6395              		.loc 1 1988 0
 6396 057c 3B6A     		ldr	r3, [r7, #32]
 6397 057e 9A45     		cmp	r10, r3
 6398 0580 0ADC     		bgt	.L773
 6399              		.loc 1 1989 0
 6400 0582 1FFA8AF3 		uxth	r3, r10
 6401 0586 03EB0802 		add	r2, r3, r8
 6402 058a 6284     		strh	r2, [r4, #34]	@ movhi
 6403 058c 3A69     		ldr	r2, [r7, #16]
 6404 058e 4FEA2248 		asr	r8, r2, #16
 6405 0592 A4F82080 		strh	r8, [r4, #32]	@ movhi
 6406 0596 0BE0     		b	.L972
 6407              	.L773:
 6408              		.loc 1 1990 0
 6409 0598 7B69     		ldr	r3, [r7, #20]
 6410 059a D807     		lsls	r0, r3, #31
 6411 059c 00F1A687 		bmi	.L757
 6412              		.loc 1 1991 0
 6413 05a0 1FFA8AF3 		uxth	r3, r10
 6414 05a4 03EB0802 		add	r2, r3, r8
 6415 05a8 6284     		strh	r2, [r4, #34]	@ movhi
 6416 05aa CBEB0602 		rsb	r2, fp, r6
 6417 05ae 2284     		strh	r2, [r4, #32]	@ movhi
 6418              	.L972:
 6419 05b0 3344     		add	r3, r3, r6
 6420 05b2 00F097BF 		b	.L968
 6421              	.LVL595:
 6422              	.L735:
 6423              		.loc 1 1997 0
 6424 05b6 1FFA89F6 		uxth	r6, r9
 6425 05ba F21A     		subs	r2, r6, r3
 6426 05bc 3344     		add	r3, r3, r6
 6427 05be 2385     		strh	r3, [r4, #40]	@ movhi
 6428 05c0 A4F82280 		strh	r8, [r4, #34]	@ movhi
 6429 05c4 2284     		strh	r2, [r4, #32]	@ movhi
 6430 05c6 2046     		mov	r0, r4
 6431 05c8 FFF7FEFF 		bl	hline_clip
 6432              	.LVL596:
 6433              		.loc 1 1858 0
 6434 05cc FB6B     		ldr	r3, [r7, #60]
 6435              		.loc 1 1881 0
 6436 05ce 0125     		movs	r5, #1
 6437              		.loc 1 1858 0
 6438 05d0 3B61     		str	r3, [r7, #16]
 6439              		.loc 1 2006 0
 6440 05d2 7B69     		ldr	r3, [r7, #20]
 6441              		.loc 1 2009 0
ARM GAS  /var/folders/_2/42wyrlld3p52fkcpt1lv6gxh0000gp/T//ccpbLF3Z.s 			page 114


 6442 05d4 1FFA88F9 		uxth	r9, r8
 6443              		.loc 1 2006 0
 6444 05d8 2B40     		ands	r3, r3, r5
 6445 05da 7B60     		str	r3, [r7, #4]
 6446              	.LVL597:
 6447              	.L783:
 6448              		.loc 1 1999 0
 6449 05dc BA69     		ldr	r2, [r7, #24]
 6450 05de 6B42     		negs	r3, r5
 6451 05e0 9342     		cmp	r3, r2
 6452 05e2 FD60     		str	r5, [r7, #12]
 6453 05e4 24DB     		blt	.L775
 6454              		.loc 1 2000 0
 6455 05e6 1FFA8BF2 		uxth	r2, fp
 6456 05ea B31A     		subs	r3, r6, r2
 6457 05ec 2384     		strh	r3, [r4, #32]	@ movhi
 6458 05ee FB6B     		ldr	r3, [r7, #60]
 6459 05f0 C5EB080A 		rsb	r10, r5, r8
 6460 05f4 1B14     		asrs	r3, r3, #16
 6461 05f6 0FFA8AFA 		sxth	r10, r10
 6462 05fa 2385     		strh	r3, [r4, #40]	@ movhi
 6463 05fc 2046     		mov	r0, r4
 6464 05fe A4F822A0 		strh	r10, [r4, #34]	@ movhi
 6465 0602 BA60     		str	r2, [r7, #8]
 6466 0604 FFF7FEFF 		bl	hline_clip
 6467              	.LVL598:
 6468              		.loc 1 2001 0
 6469 0608 3B69     		ldr	r3, [r7, #16]
 6470 060a BA68     		ldr	r2, [r7, #8]
 6471 060c 1B14     		asrs	r3, r3, #16
 6472 060e 2384     		strh	r3, [r4, #32]	@ movhi
 6473 0610 B318     		adds	r3, r6, r2
 6474 0612 2385     		strh	r3, [r4, #40]	@ movhi
 6475 0614 A4F822A0 		strh	r10, [r4, #34]	@ movhi
 6476 0618 2046     		mov	r0, r4
 6477 061a FFF7FEFF 		bl	hline_clip
 6478              	.LVL599:
 6479              		.loc 1 2002 0
 6480 061e FB6B     		ldr	r3, [r7, #60]
 6481 0620 7A6A     		ldr	r2, [r7, #36]
 6482 0622 9B1A     		subs	r3, r3, r2
 6483 0624 FB63     		str	r3, [r7, #60]
 6484              	.LVL600:
 6485 0626 FA69     		ldr	r2, [r7, #28]
 6486 0628 3B69     		ldr	r3, [r7, #16]
 6487              	.LVL601:
 6488 062a 9B1A     		subs	r3, r3, r2
