ARM GAS  /var/folders/_2/42wyrlld3p52fkcpt1lv6gxh0000gp/T//ccPrQZ3K.s 			page 1


   1              		.syntax unified
   2              		.cpu cortex-m3
   3              		.fpu softvfp
   4              		.eabi_attribute 20, 1
   5              		.eabi_attribute 21, 1
   6              		.eabi_attribute 23, 3
   7              		.eabi_attribute 24, 1
   8              		.eabi_attribute 25, 1
   9              		.eabi_attribute 26, 1
  10              		.eabi_attribute 30, 4
  11              		.eabi_attribute 34, 1
  12              		.eabi_attribute 18, 4
  13              		.thumb
  14              		.syntax unified
  15              		.file	"gdisp_fonts.c"
  16              		.text
  17              	.Ltext0:
  18              		.cfi_sections	.debug_frame
  19              		.section	.text.matchfont,"ax",%progbits
  20              		.align	1
  21              		.thumb
  22              		.thumb_func
  23              		.type	matchfont, %function
  24              	matchfont:
  25              	.LFB63:
  26              		.file 1 "ugfx/src/gdisp/gdisp_fonts.c"
  27              		.loc 1 20 0
  28              		.cfi_startproc
  29              		@ args = 0, pretend = 0, frame = 0
  30              		@ frame_needed = 1, uses_anonymous_args = 0
  31              	.LVL0:
  32 0000 80B5     		push	{r7, lr}
  33              	.LCFI0:
  34              		.cfi_def_cfa_offset 8
  35              		.cfi_offset 7, -8
  36              		.cfi_offset 14, -4
  37 0002 00AF     		add	r7, sp, #0
  38              	.LCFI1:
  39              		.cfi_def_cfa_register 7
  40              	.L2:
  41              		.loc 1 22 0
  42 0004 0278     		ldrb	r2, [r0]	@ zero_extendqisi2
  43 0006 0B78     		ldrb	r3, [r1]	@ zero_extendqisi2
  44 0008 52B1     		cbz	r2, .L4
  45 000a 2A2A     		cmp	r2, #42
  46 000c 0CD1     		bne	.L11
  47 000e 4278     		ldrb	r2, [r0, #1]	@ zero_extendqisi2
  48              		.loc 1 24 0
  49 0010 13B9     		cbnz	r3, .L6
  50              		.loc 1 25 0
  51 0012 B2FA82F0 		clz	r0, r2
  52              	.LVL1:
  53 0016 05E0     		b	.L13
  54              	.LVL2:
  55              	.L6:
  56              		.loc 1 26 0
  57 0018 9A42     		cmp	r2, r3
ARM GAS  /var/folders/_2/42wyrlld3p52fkcpt1lv6gxh0000gp/T//ccPrQZ3K.s 			page 2


  58 001a 08D1     		bne	.L12
  59              		.loc 1 27 0
  60 001c 0130     		adds	r0, r0, #1
  61              	.LVL3:
  62 001e F1E7     		b	.L2
  63              	.L4:
  64              		.loc 1 32 0
  65 0020 B3FA83F0 		clz	r0, r3
  66              	.LVL4:
  67              	.L13:
  68 0024 4009     		lsrs	r0, r0, #5
  69 0026 80BD     		pop	{r7, pc}
  70              	.LVL5:
  71              	.L11:
  72              		.loc 1 34 0
  73 0028 9342     		cmp	r3, r2
  74 002a 02D1     		bne	.L10
  75              		.loc 1 36 0
  76 002c 0130     		adds	r0, r0, #1
  77              	.LVL6:
  78              	.L12:
  79              		.loc 1 37 0
  80 002e 0131     		adds	r1, r1, #1
  81              	.LVL7:
  82              		.loc 1 38 0
  83 0030 E8E7     		b	.L2
  84              	.L10:
  85              		.loc 1 35 0
  86 0032 0020     		movs	r0, #0
  87              	.LVL8:
  88              		.loc 1 41 0
  89 0034 80BD     		pop	{r7, pc}
  90              		.cfi_endproc
  91              	.LFE63:
  92              		.size	matchfont, .-matchfont
  93              		.section	.text.gdispOpenFont,"ax",%progbits
  94              		.align	1
  95              		.global	gdispOpenFont
  96              		.thumb
  97              		.thumb_func
  98              		.type	gdispOpenFont, %function
  99              	gdispOpenFont:
 100              	.LFB64:
 101              		.loc 1 43 0
 102              		.cfi_startproc
 103              		@ args = 0, pretend = 0, frame = 0
 104              		@ frame_needed = 1, uses_anonymous_args = 0
 105              	.LVL9:
 106 0000 F8B5     		push	{r3, r4, r5, r6, r7, lr}
 107              	.LCFI2:
 108              		.cfi_def_cfa_offset 24
 109              		.cfi_offset 3, -24
 110              		.cfi_offset 4, -20
 111              		.cfi_offset 5, -16
 112              		.cfi_offset 6, -12
 113              		.cfi_offset 7, -8
 114              		.cfi_offset 14, -4
ARM GAS  /var/folders/_2/42wyrlld3p52fkcpt1lv6gxh0000gp/T//ccPrQZ3K.s 			page 3


 115 0002 00AF     		add	r7, sp, #0
 116              	.LCFI3:
 117              		.cfi_def_cfa_register 7
 118              		.loc 1 43 0
 119 0004 0646     		mov	r6, r0
 120              		.loc 1 48 0
 121 0006 FFF7FEFF 		bl	mf_get_font_list
 122              	.LVL10:
 123 000a 0546     		mov	r5, r0
 124              	.LVL11:
 125              	.L16:
 126              		.loc 1 48 0 is_stmt 0 discriminator 1
 127 000c 3DB1     		cbz	r5, .L21
 128              		.loc 1 49 0 is_stmt 1
 129 000e 6C68     		ldr	r4, [r5, #4]
 130 0010 3046     		mov	r0, r6
 131 0012 2168     		ldr	r1, [r4]
 132 0014 FFF7FEFF 		bl	matchfont
 133              	.LVL12:
 134 0018 80B9     		cbnz	r0, .L17
 135              		.loc 1 48 0 discriminator 2
 136 001a 2D68     		ldr	r5, [r5]
 137              	.LVL13:
 138 001c F6E7     		b	.L16
 139              	.L21:
 140              		.loc 1 54 0
 141 001e FFF7FEFF 		bl	mf_get_font_list
 142              	.LVL14:
 143 0022 0546     		mov	r5, r0
 144              	.LVL15:
 145              	.L19:
 146              		.loc 1 54 0 is_stmt 0 discriminator 1
 147 0024 3DB1     		cbz	r5, .L22
 148              		.loc 1 55 0 is_stmt 1
 149 0026 6C68     		ldr	r4, [r5, #4]
 150 0028 3046     		mov	r0, r6
 151 002a 6168     		ldr	r1, [r4, #4]
 152 002c FFF7FEFF 		bl	matchfont
 153              	.LVL16:
 154 0030 20B9     		cbnz	r0, .L17
 155              		.loc 1 54 0 discriminator 2
 156 0032 2D68     		ldr	r5, [r5]
 157              	.LVL17:
 158 0034 F6E7     		b	.L19
 159              	.L22:
 160              		.loc 1 60 0
 161 0036 FFF7FEFF 		bl	mf_get_font_list
 162              	.LVL18:
 163 003a 4468     		ldr	r4, [r0, #4]
 164              	.L17:
 165              		.loc 1 61 0
 166 003c 2046     		mov	r0, r4
 167 003e F8BD     		pop	{r3, r4, r5, r6, r7, pc}
 168              		.cfi_endproc
 169              	.LFE64:
 170              		.size	gdispOpenFont, .-gdispOpenFont
 171              		.section	.text.gdispCloseFont,"ax",%progbits
ARM GAS  /var/folders/_2/42wyrlld3p52fkcpt1lv6gxh0000gp/T//ccPrQZ3K.s 			page 4


 172              		.align	1
 173              		.global	gdispCloseFont
 174              		.thumb
 175              		.thumb_func
 176              		.type	gdispCloseFont, %function
 177              	gdispCloseFont:
 178              	.LFB65:
 179              		.loc 1 63 0
 180              		.cfi_startproc
 181              		@ args = 0, pretend = 0, frame = 0
 182              		@ frame_needed = 1, uses_anonymous_args = 0
 183              		@ link register save eliminated.
 184              	.LVL19:
 185 0000 80B4     		push	{r7}
 186              	.LCFI4:
 187              		.cfi_def_cfa_offset 4
 188              		.cfi_offset 7, -4
 189              		.loc 1 64 0
 190 0002 90F90F20 		ldrsb	r2, [r0, #15]
 191              		.loc 1 63 0
 192 0006 00AF     		add	r7, sp, #0
 193              	.LCFI5:
 194              		.cfi_def_cfa_register 7
 195              		.loc 1 64 0
 196 0008 002A     		cmp	r2, #0
 197 000a 05DA     		bge	.L23
 198              	.LVL20:
 199              	.LBB2:
 200              		.loc 1 69 0
 201 000c 0022     		movs	r2, #0
 202 000e 8261     		str	r2, [r0, #24]
 203              	.LBE2:
 204              		.loc 1 74 0
 205 0010 BD46     		mov	sp, r7
 206              	.LCFI6:
 207              		.cfi_remember_state
 208              		.cfi_def_cfa_register 13
 209              		@ sp needed
 210 0012 80BC     		pop	{r7}
 211              	.LCFI7:
 212              		.cfi_restore 7
 213              		.cfi_def_cfa_offset 0
 214              	.LBB3:
 215              		.loc 1 72 0
 216 0014 FFF7FEBF 		b	chHeapFree
 217              	.LVL21:
 218              	.L23:
 219              	.LCFI8:
 220              		.cfi_restore_state
 221              	.LBE3:
 222              		.loc 1 74 0
 223 0018 BD46     		mov	sp, r7
 224              	.LCFI9:
 225              		.cfi_def_cfa_register 13
 226              		@ sp needed
 227 001a 80BC     		pop	{r7}
 228              	.LCFI10:
ARM GAS  /var/folders/_2/42wyrlld3p52fkcpt1lv6gxh0000gp/T//ccPrQZ3K.s 			page 5


 229              		.cfi_restore 7
 230              		.cfi_def_cfa_offset 0
 231 001c 7047     		bx	lr
 232              		.cfi_endproc
 233              	.LFE65:
 234              		.size	gdispCloseFont, .-gdispCloseFont
 235              		.section	.text.gdispScaleFont,"ax",%progbits
 236              		.align	1
 237              		.global	gdispScaleFont
 238              		.thumb
 239              		.thumb_func
 240              		.type	gdispScaleFont, %function
 241              	gdispScaleFont:
 242              	.LFB66:
 243              		.loc 1 77 0
 244              		.cfi_startproc
 245              		@ args = 0, pretend = 0, frame = 0
 246              		@ frame_needed = 1, uses_anonymous_args = 0
 247              	.LVL22:
 248 0000 2DE9F041 		push	{r4, r5, r6, r7, r8, lr}
 249              	.LCFI11:
 250              		.cfi_def_cfa_offset 24
 251              		.cfi_offset 4, -24
 252              		.cfi_offset 5, -20
 253              		.cfi_offset 6, -16
 254              		.cfi_offset 7, -12
 255              		.cfi_offset 8, -8
 256              		.cfi_offset 14, -4
 257 0004 0546     		mov	r5, r0
 258 0006 00AF     		add	r7, sp, #0
 259              	.LCFI12:
 260              		.cfi_def_cfa_register 7
 261              		.loc 1 77 0
 262 0008 0E46     		mov	r6, r1
 263              		.loc 1 78 0
 264 000a 0020     		movs	r0, #0
 265              	.LVL23:
 266 000c 2421     		movs	r1, #36
 267              	.LVL24:
 268              		.loc 1 77 0
 269 000e 9046     		mov	r8, r2
 270              		.loc 1 78 0
 271 0010 FFF7FEFF 		bl	chHeapAlloc
 272              	.LVL25:
 273 0014 0446     		mov	r4, r0
 274              	.LVL26:
 275              		.loc 1 79 0
 276 0016 4346     		mov	r3, r8
 277 0018 3246     		mov	r2, r6
 278 001a 2946     		mov	r1, r5
 279 001c FFF7FEFF 		bl	mf_scale_font
 280              	.LVL27:
 281              		.loc 1 81 0
 282 0020 2046     		mov	r0, r4
 283 0022 BDE8F081 		pop	{r4, r5, r6, r7, r8, pc}
 284              		.cfi_endproc
 285              	.LFE66:
ARM GAS  /var/folders/_2/42wyrlld3p52fkcpt1lv6gxh0000gp/T//ccPrQZ3K.s 			page 6


 286              		.size	gdispScaleFont, .-gdispScaleFont
 287              		.section	.text.gdispGetFontName,"ax",%progbits
 288              		.align	1
 289              		.global	gdispGetFontName
 290              		.thumb
 291              		.thumb_func
 292              		.type	gdispGetFontName, %function
 293              	gdispGetFontName:
 294              	.LFB67:
 295              		.loc 1 83 0
 296              		.cfi_startproc
 297              		@ args = 0, pretend = 0, frame = 0
 298              		@ frame_needed = 1, uses_anonymous_args = 0
 299              	.LVL28:
 300 0000 80B5     		push	{r7, lr}
 301              	.LCFI13:
 302              		.cfi_def_cfa_offset 8
 303              		.cfi_offset 7, -8
 304              		.cfi_offset 14, -4
 305              		.loc 1 85 0
 306 0002 4068     		ldr	r0, [r0, #4]
 307              	.LVL29:
 308              		.loc 1 83 0
 309 0004 00AF     		add	r7, sp, #0
 310              	.LCFI14:
 311              		.cfi_def_cfa_register 7
 312              		.loc 1 85 0
 313 0006 80BD     		pop	{r7, pc}
 314              		.cfi_endproc
 315              	.LFE67:
 316              		.size	gdispGetFontName, .-gdispGetFontName
 317              		.text
 318              	.Letext0:
 319              		.file 2 "/Users/ARS/Applications/Eclipse.app/Contents/gcc-arm-none-eabi-5_3-2016q1/arm-none-eabi/i
 320              		.file 3 "/Users/ARS/Applications/Eclipse.app/Contents/gcc-arm-none-eabi-5_3-2016q1/arm-none-eabi/i
 321              		.file 4 "chibios/os/ports/GCC/ARMCMx/chtypes.h"
 322              		.file 5 "ugfx/src/gdisp/../../src/gdisp/gdisp.h"
 323              		.file 6 "ugfx/src/gdisp/mcufont/mf_font.h"
 324              		.file 7 "ugfx/src/gdisp/mcufont/mf_scaledfont.h"
 325              		.file 8 "chibios/os/kernel/include/chheap.h"
 326              		.file 9 "chibios/os/ports/common/ARMCMx/CMSIS/include/core_cm3.h"