ARM GAS  /var/folders/_2/42wyrlld3p52fkcpt1lv6gxh0000gp/T//cc2cakaW.s 			page 1


   1              		.syntax unified
   2              		.cpu cortex-m3
   3              		.fpu softvfp
   4              		.eabi_attribute 20, 1
   5              		.eabi_attribute 21, 1
   6              		.eabi_attribute 23, 3
   7              		.eabi_attribute 24, 1
   8              		.eabi_attribute 25, 1
   9              		.eabi_attribute 26, 1
  10              		.eabi_attribute 30, 4
  11              		.eabi_attribute 34, 1
  12              		.eabi_attribute 18, 4
  13              		.thumb
  14              		.syntax unified
  15              		.file	"gdisp_lld_ED060SC4.c"
  16              		.text
  17              	.Ltext0:
  18              		.cfi_sections	.debug_frame
  19              		.section	.text.clear_block_map.isra.15,"ax",%progbits
  20              		.align	1
  21              		.thumb
  22              		.thumb_func
  23              		.type	clear_block_map.isra.15, %function
  24              	clear_block_map.isra.15:
  25              	.LFB115:
  26              		.file 1 "ugfx/drivers/gdisp/ED060SC4/gdisp_lld_ED060SC4.c"
  27              		.loc 1 378 0
  28              		.cfi_startproc
  29              		@ args = 0, pretend = 0, frame = 0
  30              		@ frame_needed = 1, uses_anonymous_args = 0
  31              	.LVL0:
  32              		.loc 1 381 0
  33 0000 0023     		movs	r3, #0
  34              		.loc 1 378 0
  35 0002 B0B5     		push	{r4, r5, r7, lr}
  36              	.LCFI0:
  37              		.cfi_def_cfa_offset 16
  38              		.cfi_offset 4, -16
  39              		.cfi_offset 5, -12
  40              		.cfi_offset 7, -8
  41              		.cfi_offset 14, -4
  42              		.loc 1 385 0
  43 0004 1D46     		mov	r5, r3
  44              		.loc 1 378 0
  45 0006 00AF     		add	r7, sp, #0
  46              	.LCFI1:
  47              		.cfi_def_cfa_register 7
  48              	.LVL1:
  49              	.L2:
  50              		.loc 1 378 0
  51 0008 0021     		movs	r1, #0
  52              		.loc 1 385 0
  53 000a 9C01     		lsls	r4, r3, #6
  54              	.LVL2:
  55              	.L3:
  56 000c 0268     		ldr	r2, [r0]
  57 000e 2244     		add	r2, r2, r4
ARM GAS  /var/folders/_2/42wyrlld3p52fkcpt1lv6gxh0000gp/T//cc2cakaW.s 			page 2


  58 0010 0A44     		add	r2, r2, r1
  59              		.loc 1 383 0
  60 0012 0131     		adds	r1, r1, #1
  61              	.LVL3:
  62 0014 4029     		cmp	r1, #64
  63              		.loc 1 385 0
  64 0016 82F8015F 		strb	r5, [r2, #3841]
  65              		.loc 1 383 0
  66 001a F7D1     		bne	.L3
  67              		.loc 1 381 0
  68 001c 0133     		adds	r3, r3, #1
  69              	.LVL4:
  70 001e 402B     		cmp	r3, #64
  71 0020 F2D1     		bne	.L2
  72              		.loc 1 389 0
  73 0022 0368     		ldr	r3, [r0]
  74              	.LVL5:
  75 0024 0022     		movs	r2, #0
  76 0026 1A70     		strb	r2, [r3]
  77 0028 B0BD     		pop	{r4, r5, r7, pc}
  78              		.cfi_endproc
  79              	.LFE115:
  80              		.size	clear_block_map.isra.15, .-clear_block_map.isra.15
  81              		.section	.text.vclock_quick.isra.16,"ax",%progbits
  82              		.align	1
  83              		.thumb
  84              		.thumb_func
  85              		.type	vclock_quick.isra.16, %function
  86              	vclock_quick.isra.16:
  87              	.LFB116:
  88              		.loc 1 110 0
  89              		.cfi_startproc
  90              		@ args = 0, pretend = 0, frame = 0
  91              		@ frame_needed = 1, uses_anonymous_args = 0
  92              	.LVL6:
  93 0000 98B5     		push	{r3, r4, r7, lr}
  94              	.LCFI2:
  95              		.cfi_def_cfa_offset 16
  96              		.cfi_offset 3, -16
  97              		.cfi_offset 4, -12
  98              		.cfi_offset 7, -8
  99              		.cfi_offset 14, -4
 100              	.LBB230:
 101              	.LBB231:
 102              		.file 2 "src/board_ED060SC4.h"
 103              		.loc 2 93 0
 104 0002 084C     		ldr	r4, .L8
 105 0004 0423     		movs	r3, #4
 106 0006 A361     		str	r3, [r4, #24]
 107              	.LVL7:
 108              	.LBE231:
 109              	.LBE230:
 110              		.loc 1 110 0
 111 0008 00AF     		add	r7, sp, #0
 112              	.LCFI3:
 113              		.cfi_def_cfa_register 7
 114              	.LBB232:
ARM GAS  /var/folders/_2/42wyrlld3p52fkcpt1lv6gxh0000gp/T//cc2cakaW.s 			page 3


 115              	.LBB233:
 116              		.loc 2 24 0
 117 000a 1020     		movs	r0, #16
 118 000c FFF7FEFF 		bl	halPolledDelay
 119              	.LVL8:
 120              	.LBE233:
 121              	.LBE232:
 122              	.LBB234:
 123              	.LBB235:
 124              		.loc 2 93 0
 125 0010 4FF48023 		mov	r3, #262144
 126              	.LBE235:
 127              	.LBE234:
 128              	.LBB237:
 129              	.LBB238:
 130              		.loc 2 24 0
 131 0014 4020     		movs	r0, #64
 132              	.LBE238:
 133              	.LBE237:
 134              	.LBB240:
 135              	.LBB236:
 136              		.loc 2 93 0
 137 0016 A361     		str	r3, [r4, #24]
 138              	.LVL9:
 139              	.LBE236:
 140              	.LBE240:
 141              		.loc 1 116 0
 142 0018 BD46     		mov	sp, r7
 143              	.LCFI4:
 144              		.cfi_def_cfa_register 13
 145              		@ sp needed
 146 001a BDE89840 		pop	{r3, r4, r7, lr}
 147              	.LCFI5:
 148              		.cfi_restore 14
 149              		.cfi_restore 7
 150              		.cfi_restore 4
 151              		.cfi_restore 3
 152              		.cfi_def_cfa_offset 0
 153              	.LBB241:
 154              	.LBB239:
 155              		.loc 2 24 0
 156 001e FFF7FEBF 		b	halPolledDelay
 157              	.LVL10:
 158              	.L9:
 159 0022 00BF     		.align	2
 160              	.L8:
 161 0024 00040240 		.word	1073873920
 162              	.LBE239:
 163              	.LBE241:
 164              		.cfi_endproc
 165              	.LFE116:
 166              		.size	vclock_quick.isra.16, .-vclock_quick.isra.16
 167              		.section	.text.vscan_start.isra.17,"ax",%progbits
 168              		.align	1
 169              		.thumb
 170              		.thumb_func
 171              		.type	vscan_start.isra.17, %function
ARM GAS  /var/folders/_2/42wyrlld3p52fkcpt1lv6gxh0000gp/T//cc2cakaW.s 			page 4


 172              	vscan_start.isra.17:
 173              	.LFB117:
 174              		.loc 1 132 0
 175              		.cfi_startproc
 176              		@ args = 0, pretend = 0, frame = 0
 177              		@ frame_needed = 1, uses_anonymous_args = 0
 178              	.LVL11:
 179 0000 98B5     		push	{r3, r4, r7, lr}
 180              	.LCFI6:
 181              		.cfi_def_cfa_offset 16
 182              		.cfi_offset 3, -16
 183              		.cfi_offset 4, -12
 184              		.cfi_offset 7, -8
 185              		.cfi_offset 14, -4
 186              	.LBB242:
 187              	.LBB243:
 188              		.loc 2 98 0
 189 0002 0A4B     		ldr	r3, .L11
 190 0004 4FF40052 		mov	r2, #8192
 191 0008 9A61     		str	r2, [r3, #24]
 192              	.LVL12:
 193              	.LBE243:
 194              	.LBE242:
 195              		.loc 1 132 0
 196 000a 00AF     		add	r7, sp, #0
 197              	.LCFI7:
 198              		.cfi_def_cfa_register 7
 199              	.LBB244:
 200              	.LBB245:
 201              		.loc 2 103 0
 202 000c 084C     		ldr	r4, .L11+4
 203              	.LBE245:
 204              	.LBE244:
 205              		.loc 1 135 0
 206 000e FFF7FEFF 		bl	vclock_quick.isra.16
 207              	.LVL13:
 208              	.LBB247:
 209              	.LBB246:
 210              		.loc 2 103 0
 211 0012 4FF40033 		mov	r3, #131072
 212 0016 A361     		str	r3, [r4, #24]
 213              	.LVL14:
 214              	.LBE246:
 215              	.LBE247:
 216              		.loc 1 137 0
 217 0018 FFF7FEFF 		bl	vclock_quick.isra.16
 218              	.LVL15:
 219              	.LBB248:
 220              	.LBB249:
 221              		.loc 2 103 0
 222 001c 0223     		movs	r3, #2
 223 001e A361     		str	r3, [r4, #24]
 224              	.LVL16:
 225              	.LBE249:
 226              	.LBE248:
 227              		.loc 1 140 0
 228 0020 BD46     		mov	sp, r7
ARM GAS  /var/folders/_2/42wyrlld3p52fkcpt1lv6gxh0000gp/T//cc2cakaW.s 			page 5


 229              	.LCFI8:
 230              		.cfi_def_cfa_register 13
 231              		@ sp needed
 232 0022 BDE89840 		pop	{r3, r4, r7, lr}
 233              	.LCFI9:
 234              		.cfi_restore 14
 235              		.cfi_restore 7
 236              		.cfi_restore 4
 237              		.cfi_restore 3
 238              		.cfi_def_cfa_offset 0
 239              		.loc 1 139 0
 240 0026 FFF7FEBF 		b	vclock_quick.isra.16
 241              	.LVL17:
 242              	.L12:
 243 002a 00BF     		.align	2
 244              	.L11:
 245 002c 00080240 		.word	1073874944
 246 0030 00040240 		.word	1073873920
 247              		.cfi_endproc
 248              	.LFE117:
 249              		.size	vscan_start.isra.17, .-vscan_start.isra.17
 250              		.section	.text.vscan_stop.isra.18,"ax",%progbits
 251              		.align	1
 252              		.thumb
 253              		.thumb_func
 254              		.type	vscan_stop.isra.18, %function
 255              	vscan_stop.isra.18:
 256              	.LFB118:
 257              		.loc 1 181 0
 258              		.cfi_startproc
 259              		@ args = 0, pretend = 0, frame = 0
 260              		@ frame_needed = 1, uses_anonymous_args = 0
 261              	.LVL18:
 262 0000 80B5     		push	{r7, lr}
 263              	.LCFI10:
 264              		.cfi_def_cfa_offset 8
 265              		.cfi_offset 7, -8
 266              		.cfi_offset 14, -4
 267              	.LBB250:
 268              	.LBB251:
 269              		.loc 2 98 0
 270 0002 094B     		ldr	r3, .L14
 271 0004 4FF00052 		mov	r2, #536870912
 272              	.LBE251:
 273              	.LBE250:
 274              		.loc 1 181 0
 275 0008 00AF     		add	r7, sp, #0
 276              	.LCFI11:
 277              		.cfi_def_cfa_register 7
 278              	.LBB253:
 279              	.LBB252:
 280              		.loc 2 98 0
 281 000a 9A61     		str	r2, [r3, #24]
 282              	.LVL19:
 283              	.LBE252:
 284              	.LBE253:
 285              		.loc 1 184 0
ARM GAS  /var/folders/_2/42wyrlld3p52fkcpt1lv6gxh0000gp/T//cc2cakaW.s 			page 6


 286 000c FFF7FEFF 		bl	vclock_quick.isra.16
 287              	.LVL20:
 288              		.loc 1 185 0
 289 0010 FFF7FEFF 		bl	vclock_quick.isra.16
 290              	.LVL21:
 291              		.loc 1 186 0
 292 0014 FFF7FEFF 		bl	vclock_quick.isra.16
 293              	.LVL22:
 294              		.loc 1 187 0
 295 0018 FFF7FEFF 		bl	vclock_quick.isra.16
 296              	.LVL23:
 297              		.loc 1 189 0
 298 001c BD46     		mov	sp, r7
 299              	.LCFI12:
 300              		.cfi_def_cfa_register 13
 301              		@ sp needed
 302 001e BDE88040 		pop	{r7, lr}
 303              	.LCFI13:
 304              		.cfi_restore 14
 305              		.cfi_restore 7
 306              		.cfi_def_cfa_offset 0
 307              		.loc 1 188 0
 308 0022 FFF7FEBF 		b	vclock_quick.isra.16
 309              	.LVL24:
 310              	.L15:
 311 0026 00BF     		.align	2
 312              	.L14:
 313 0028 00080240 		.word	1073874944
 314              		.cfi_endproc
 315              	.LFE118:
 316              		.size	vscan_stop.isra.18, .-vscan_stop.isra.18
 317              		.section	.text.hscan_write.isra.12,"ax",%progbits
 318              		.align	1
 319              		.thumb
 320              		.thumb_func
 321              		.type	hscan_write.isra.12, %function
 322              	hscan_write.isra.12:
 323              	.LFB112:
 324              		.loc 1 203 0
 325              		.cfi_startproc
 326              		@ args = 0, pretend = 0, frame = 0
 327              		@ frame_needed = 1, uses_anonymous_args = 0
 328              	.LVL25:
 329 0000 F0B5     		push	{r4, r5, r6, r7, lr}
 330              	.LCFI14:
 331              		.cfi_def_cfa_offset 20
 332              		.cfi_offset 4, -20
 333              		.cfi_offset 5, -16
 334              		.cfi_offset 6, -12
 335              		.cfi_offset 7, -8
 336              		.cfi_offset 14, -4
 337              	.LBB262:
 338              	.LBB263:
 339              		.loc 2 88 0
 340 0002 094A     		ldr	r2, .L20
 341              	.LBE263:
 342              	.LBE262:
ARM GAS  /var/folders/_2/42wyrlld3p52fkcpt1lv6gxh0000gp/T//cc2cakaW.s 			page 7


 343              		.loc 1 203 0
 344 0004 00AF     		add	r7, sp, #0
 345              	.LCFI15:
 346              		.cfi_def_cfa_register 7
 347 0006 0144     		add	r1, r1, r0
 348              	.LVL26:
 349              	.LBB265:
 350              	.LBB266:
 351              	.LBB267:
 352              		.loc 2 78 0
 353 0008 0824     		movs	r4, #8
 354              	.LBE267:
 355              	.LBE266:
 356              	.LBB269:
 357              	.LBB270:
 358 000a 4FF40025 		mov	r5, #524288
 359              	.LVL27:
 360              	.L17:
 361              	.LBE270:
 362              	.LBE269:
 363              	.LBE265:
 364              		.loc 1 205 0
 365 000e 8842     		cmp	r0, r1
 366 0010 09D0     		beq	.L19
 367              	.LVL28:
 368              	.LBB274:
 369              	.LBB264:
 370              		.loc 2 88 0
 371 0012 10F8013B 		ldrb	r3, [r0], #1	@ zero_extendqisi2
 372              	.LVL29:
 373 0016 DE43     		mvns	r6, r3
 374 0018 1B02     		lsls	r3, r3, #8
 375 001a 43EA0663 		orr	r3, r3, r6, lsl #24
 376 001e 9361     		str	r3, [r2, #24]
 377              	.LVL30:
 378              	.LBE264:
 379              	.LBE274:
 380              	.LBB275:
 381              	.LBB272:
 382              	.LBB268:
 383              		.loc 2 78 0
 384 0020 9461     		str	r4, [r2, #24]
 385              	.LVL31:
 386              	.LBE268:
 387              	.LBE272:
 388              	.LBB273:
 389              	.LBB271:
 390 0022 9561     		str	r5, [r2, #24]
 391              	.LVL32:
 392 0024 F3E7     		b	.L17
 393              	.LVL33:
 394              	.L19:
 395              	.LBE271:
 396              	.LBE273:
 397              	.LBE275:
 398              		.loc 1 213 0
 399 0026 F0BD     		pop	{r4, r5, r6, r7, pc}
ARM GAS  /var/folders/_2/42wyrlld3p52fkcpt1lv6gxh0000gp/T//cc2cakaW.s 			page 8


 400              	.L21:
 401              		.align	2
 402              	.L20:
 403 0028 00040240 		.word	1073873920
 404              		.cfi_endproc
 405              	.LFE112:
 406              		.size	hscan_write.isra.12, .-hscan_write.isra.12
 407              		.section	.text.subclear.isra.23,"ax",%progbits
 408              		.align	1
 409              		.thumb
 410              		.thumb_func
 411              		.type	subclear.isra.23, %function
 412              	subclear.isra.23:
 413              	.LFB123:
 414              		.loc 1 586 0
 415              		.cfi_startproc
 416              		@ args = 0, pretend = 0, frame = 8
 417              		@ frame_needed = 1, uses_anonymous_args = 0
 418              	.LVL34:
 419 0000 F0B5     		push	{r4, r5, r6, r7, lr}
 420              	.LCFI16:
 421              		.cfi_def_cfa_offset 20
 422              		.cfi_offset 4, -20
 423              		.cfi_offset 5, -16
 424              		.cfi_offset 6, -12
 425              		.cfi_offset 7, -8
 426              		.cfi_offset 14, -4
 427              	.LBB312:
 428              	.LBB313:
 429              	.LBB314:
 430              		.loc 2 68 0
 431 0002 234C     		ldr	r4, .L29
 432              	.LBE314:
 433              	.LBE313:
 434              	.LBE312:
 435              		.loc 1 586 0
 436 0004 83B0     		sub	sp, sp, #12
 437              	.LCFI17:
 438              		.cfi_def_cfa_offset 32
 439              	.LBB325:
 440              	.LBB317:
 441              	.LBB315:
 442              		.loc 2 68 0
 443 0006 4FF48013 		mov	r3, #1048576
 444              	.LBE315:
 445              	.LBE317:
 446              	.LBE325:
 447              		.loc 1 586 0
 448              	.LBB326:
 449              	.LBB318:
 450              	.LBB316:
 451              		.loc 2 68 0
 452 000a A361     		str	r3, [r4, #24]
 453              	.LVL35:
 454              	.LBE316:
 455              	.LBE318:
 456              	.LBB319:
ARM GAS  /var/folders/_2/42wyrlld3p52fkcpt1lv6gxh0000gp/T//cc2cakaW.s 			page 9


 457              	.LBB320:
 458              		.loc 2 73 0
 459 000c 4FF40013 		mov	r3, #2097152
 460 0010 A361     		str	r3, [r4, #24]
 461              	.LVL36:
 462              	.LBE320:
 463              	.LBE319:
 464              	.LBE326:
 465              		.loc 1 591 0
 466 0012 0028     		cmp	r0, #0
 467              	.LBB327:
 468              	.LBB321:
 469              	.LBB322:
 470              		.loc 2 83 0
 471 0014 4FF40003 		mov	r3, #8388608
 472              	.LBE322:
 473              	.LBE321:
 474              	.LBE327:
 475              		.loc 1 586 0
 476 0018 00AF     		add	r7, sp, #0
 477              	.LCFI18:
 478              		.cfi_def_cfa_register 7
 479              	.LBB328:
 480              	.LBB324:
 481              	.LBB323:
 482              		.loc 2 83 0
 483 001a A361     		str	r3, [r4, #24]
 484              	.LVL37:
 485              	.LBE323:
 486              	.LBE324:
 487              	.LBE328:
 488              		.loc 1 591 0
 489 001c 07F10806 		add	r6, r7, #8
 490 0020 14BF     		ite	ne
 491 0022 AA23     		movne	r3, #170
 492 0024 5523     		moveq	r3, #85
 493 0026 06F8013D 		strb	r3, [r6, #-1]!
 494              	.LVL38:
 495 002a 4FF48065 		mov	r5, #1024
 496              	.LVL39:
 497              	.L24:
 498              		.loc 1 594 0
 499 002e 0121     		movs	r1, #1
 500 0030 3046     		mov	r0, r6
 501 0032 FFF7FEFF 		bl	hscan_write.isra.12
 502              	.LVL40:
 503              		.loc 1 592 0
 504 0036 013D     		subs	r5, r5, #1
 505              	.LVL41:
 506 0038 F9D1     		bne	.L24
 507              	.LVL42:
 508              	.LBB329:
 509              	.LBB330:
 510              	.LBB331:
 511              		.loc 2 83 0
 512 003a 8023     		movs	r3, #128
 513 003c A361     		str	r3, [r4, #24]
ARM GAS  /var/folders/_2/42wyrlld3p52fkcpt1lv6gxh0000gp/T//cc2cakaW.s 			page 10


 514              	.LVL43:
 515              	.LBE331:
 516              	.LBE330:
 517              	.LBB332:
 518              	.LBB333:
 519              	.LBB334:
 520              		.loc 2 78 0
 521 003e 0823     		movs	r3, #8
 522 0040 A361     		str	r3, [r4, #24]
 523              	.LVL44:
 524              	.LBE334:
 525              	.LBE333:
 526              	.LBB335:
 527              	.LBB336:
 528 0042 4FF40023 		mov	r3, #524288
 529 0046 A361     		str	r3, [r4, #24]
 530              	.LVL45:
 531              	.LBE336:
 532              	.LBE335:
 533              	.LBE332:
 534              	.LBB337:
 535              	.LBB338:
 536              		.loc 2 68 0
 537 0048 1023     		movs	r3, #16
 538 004a A361     		str	r3, [r4, #24]
 539              	.LVL46:
 540              	.LBE338:
 541              	.LBE337:
 542              	.LBB339:
 543              	.LBB340:
 544 004c 4FF48013 		mov	r3, #1048576
 545 0050 A361     		str	r3, [r4, #24]
 546              	.LVL47:
 547              	.LBE340:
 548              	.LBE339:
 549              	.LBE329:
 550              	.LBB341:
 551              	.LBB342:
 552              		.loc 2 73 0
 553 0052 2023     		movs	r3, #32
 554 0054 A361     		str	r3, [r4, #24]
 555              	.LVL48:
 556              	.LBE342:
 557              	.LBE341:
 558              		.loc 1 599 0
 559 0056 FFF7FEFF 		bl	vscan_start.isra.17
 560              	.LVL49:
 561 005a 4FF44075 		mov	r5, #768
 562              	.LVL50:
 563              	.LBB343:
 564              	.LBB344:
 565              	.LBB345:
 566              		.loc 2 93 0
 567 005e 0426     		movs	r6, #4
 568              	.LVL51:
 569              	.L25:
 570              	.LBE345:
ARM GAS  /var/folders/_2/42wyrlld3p52fkcpt1lv6gxh0000gp/T//cc2cakaW.s 			page 11


 571              	.LBE344:
 572              	.LBB347:
 573              	.LBB348:
 574              		.loc 2 24 0
 575 0060 4FF4A070 		mov	r0, #320
 576              	.LBE348:
 577              	.LBE347:
 578              	.LBB350:
 579              	.LBB346:
 580              		.loc 2 93 0
 581 0064 A661     		str	r6, [r4, #24]
 582              	.LVL52:
 583              	.LBE346:
 584              	.LBE350:
 585              	.LBB351:
 586              	.LBB349:
 587              		.loc 2 24 0
 588 0066 FFF7FEFF 		bl	halPolledDelay
 589              	.LVL53:
 590              	.LBE349:
 591              	.LBE351:
 592              	.LBB352:
 593              	.LBB353:
 594              		.loc 2 93 0
 595 006a 4FF48023 		mov	r3, #262144
 596 006e A361     		str	r3, [r4, #24]
 597              	.LVL54:
 598              	.LBE353:
 599              	.LBE352:
 600              	.LBB354:
 601              	.LBB355:
 602              		.loc 2 24 0
 603 0070 4FF44860 		mov	r0, #3200
 604 0074 FFF7FEFF 		bl	halPolledDelay
 605              	.LVL55:
 606              	.LBE355:
 607              	.LBE354:
 608              	.LBE343:
 609              		.loc 1 600 0
 610 0078 013D     		subs	r5, r5, #1
 611              	.LVL56:
 612 007a F1D1     		bne	.L25
 613              		.loc 1 602 0
 614 007c FFF7FEFF 		bl	vscan_stop.isra.18
 615              	.LVL57:
 616              	.LBB356:
 617              	.LBB357:
 618              		.loc 2 73 0
 619 0080 034B     		ldr	r3, .L29
 620 0082 4FF40012 		mov	r2, #2097152
 621              	.LBE357:
 622              	.LBE356:
 623              		.loc 1 604 0
 624 0086 0C37     		adds	r7, r7, #12
 625              	.LCFI19:
 626              		.cfi_def_cfa_offset 20
 627              	.LBB359:
ARM GAS  /var/folders/_2/42wyrlld3p52fkcpt1lv6gxh0000gp/T//cc2cakaW.s 			page 12


 628              	.LBB358:
 629              		.loc 2 73 0
 630 0088 9A61     		str	r2, [r3, #24]
 631              	.LVL58:
 632              	.LBE358:
 633              	.LBE359:
 634              		.loc 1 604 0
 635 008a BD46     		mov	sp, r7
 636              	.LCFI20:
 637              		.cfi_def_cfa_register 13
 638              		@ sp needed
 639 008c F0BD     		pop	{r4, r5, r6, r7, pc}
 640              	.LVL59:
 641              	.L30:
 642 008e 00BF     		.align	2
 643              	.L29:
 644 0090 00040240 		.word	1073873920
 645              		.cfi_endproc
 646              	.LFE123:
 647              		.size	subclear.isra.23, .-subclear.isra.23
 648              		.section	.text.gdisp_lld_clear,"ax",%progbits
 649              		.align	1
 650              		.thumb
 651              		.thumb_func
 652              		.type	gdisp_lld_clear, %function
 653              	gdisp_lld_clear:
 654              	.LFB99:
 655              		.loc 1 606 0
 656              		.cfi_startproc
 657              		@ args = 0, pretend = 0, frame = 0
 658              		@ frame_needed = 1, uses_anonymous_args = 0
 659              	.LVL60:
 660 0000 B0B5     		push	{r4, r5, r7, lr}
 661              	.LCFI21:
 662              		.cfi_def_cfa_offset 16
 663              		.cfi_offset 4, -16
 664              		.cfi_offset 5, -12
 665              		.cfi_offset 7, -8
 666              		.cfi_offset 14, -4
 667 0002 0546     		mov	r5, r0
 668 0004 00AF     		add	r7, sp, #0
 669              	.LCFI22:
 670              		.cfi_def_cfa_register 7
 671              		.loc 1 609 0
 672 0006 1430     		adds	r0, r0, #20
 673              	.LVL61:
 674 0008 FFF7FEFF 		bl	clear_block_map.isra.15
 675              	.LVL62:
 676              		.loc 1 612 0
 677 000c 95F83000 		ldrb	r0, [r5, #48]	@ zero_extendqisi2
 678              		.loc 1 613 0
 679 0010 0A24     		movs	r4, #10
 680              		.loc 1 612 0
 681 0012 B0FA80F0 		clz	r0, r0
 682 0016 4009     		lsrs	r0, r0, #5
 683 0018 FFF7FEFF 		bl	subclear.isra.23
 684              	.LVL63:
ARM GAS  /var/folders/_2/42wyrlld3p52fkcpt1lv6gxh0000gp/T//cc2cakaW.s 			page 13


 685              		.loc 1 613 0
 686 001c 3220     		movs	r0, #50
 687 001e FFF7FEFF 		bl	gfxSleepMilliseconds
 688              	.LVL64:
 689              	.L32:
 690              		.loc 1 617 0 discriminator 3
 691 0022 95F83000 		ldrb	r0, [r5, #48]	@ zero_extendqisi2
 692 0026 FFF7FEFF 		bl	subclear.isra.23
 693              	.LVL65:
 694              		.loc 1 618 0 discriminator 3
 695 002a 0A20     		movs	r0, #10
 696 002c FFF7FEFF 		bl	gfxSleepMilliseconds
 697              	.LVL66:
 698              		.loc 1 616 0 discriminator 3
 699 0030 013C     		subs	r4, r4, #1
 700              	.LVL67:
 701 0032 F6D1     		bne	.L32
 702              		.loc 1 620 0
 703 0034 B0BD     		pop	{r4, r5, r7, pc}
 704              		.cfi_endproc
 705              	.LFE99:
 706              		.size	gdisp_lld_clear, .-gdisp_lld_clear
 707              		.section	.text.gdisp_lld_flush,"ax",%progbits
 708              		.align	1
 709              		.thumb
 710              		.thumb_func
 711              		.type	gdisp_lld_flush, %function
 712              	gdisp_lld_flush:
 713              	.LFB95:
 714              		.loc 1 460 0
 715              		.cfi_startproc
 716              		@ args = 0, pretend = 0, frame = 16
 717              		@ frame_needed = 1, uses_anonymous_args = 0
 718              	.LVL68:
 719 0000 2DE9F04F 		push	{r4, r5, r6, r7, r8, r9, r10, fp, lr}
 720              	.LCFI23:
 721              		.cfi_def_cfa_offset 36
 722              		.cfi_offset 4, -36
 723              		.cfi_offset 5, -32
 724              		.cfi_offset 6, -28
 725              		.cfi_offset 7, -24
 726              		.cfi_offset 8, -20
 727              		.cfi_offset 9, -16
 728              		.cfi_offset 10, -12
 729              		.cfi_offset 11, -8
 730              		.cfi_offset 14, -4
 731              	.LBB412:
 732              	.LBB413:
 733              	.LBB414:
 734              	.LBB415:
 735              	.LBB416:
 736              		.loc 2 68 0
 737 0004 484D     		ldr	r5, .L56
 738              	.LBE416:
 739              	.LBE415:
 740              	.LBE414:
 741              	.LBE413:
ARM GAS  /var/folders/_2/42wyrlld3p52fkcpt1lv6gxh0000gp/T//cc2cakaW.s 			page 14


 742              	.LBE412:
 743              		.loc 1 460 0
 744 0006 8146     		mov	r9, r0
 745              	.LBB459:
 746              	.LBB457:
 747              	.LBB425:
 748              	.LBB419:
 749              	.LBB417:
 750              		.loc 2 68 0
 751 0008 2C46     		mov	r4, r5
 752              	.LBE417:
 753              	.LBE419:
 754              	.LBE425:
 755              	.LBE457:
 756              	.LBE459:
 757              		.loc 1 460 0
 758 000a 85B0     		sub	sp, sp, #20
 759              	.LCFI24:
 760              		.cfi_def_cfa_offset 56
 761 000c 4FF0030B 		mov	fp, #3
 762 0010 00AF     		add	r7, sp, #0
 763              	.LCFI25:
 764              		.cfi_def_cfa_register 7
 765              	.LVL69:
 766              	.L46:
 767              		.loc 1 464 0
 768 0012 FFF7FEFF 		bl	vscan_start.isra.17
 769              	.LVL70:
 770              		.loc 1 466 0
 771 0016 0026     		movs	r6, #0
 772              	.LVL71:
 773              	.L35:
 774 0018 B301     		lsls	r3, r6, #6
 775              	.LBB460:
 776              	.LBB461:
 777              		.loc 1 340 0
 778 001a D9F81410 		ldr	r1, [r9, #20]
 779 001e 7B60     		str	r3, [r7, #4]
 780 0020 0023     		movs	r3, #0
 781              	.LVL72:
 782              	.L37:
 783 0022 7A68     		ldr	r2, [r7, #4]
 784 0024 1A44     		add	r2, r2, r3
 785 0026 0A44     		add	r2, r2, r1
 786 0028 92F8012F 		ldrb	r2, [r2, #3841]	@ zero_extendqisi2
 787 002c CAB9     		cbnz	r2, .L36
 788              		.loc 1 338 0
 789 002e 0133     		adds	r3, r3, #1
 790              	.LVL73:
 791 0030 402B     		cmp	r3, #64
 792 0032 F6D1     		bne	.L37
 793 0034 4FF00C08 		mov	r8, #12
 794              	.LBE461:
 795              	.LBE460:
 796              	.LBB463:
 797              	.LBB464:
 798              	.LBB465:
ARM GAS  /var/folders/_2/42wyrlld3p52fkcpt1lv6gxh0000gp/T//cc2cakaW.s 			page 15


 799              		.loc 2 93 0
 800 0038 4FF0040A 		mov	r10, #4
 801              	.LVL74:
 802              	.L38:
 803              	.LBE465:
 804              	.LBE464:
 805              	.LBB467:
 806              	.LBB468:
 807              		.loc 2 24 0
 808 003c 1020     		movs	r0, #16
 809              	.LBE468:
 810              	.LBE467:
 811              	.LBB470:
 812              	.LBB466:
 813              		.loc 2 93 0
 814 003e C5F818A0 		str	r10, [r5, #24]
 815              	.LVL75:
 816              	.LBE466:
 817              	.LBE470:
 818              	.LBB471:
 819              	.LBB469:
 820              		.loc 2 24 0
 821 0042 FFF7FEFF 		bl	halPolledDelay
 822              	.LVL76:
 823              	.LBE469:
 824              	.LBE471:
 825              	.LBB472:
 826              	.LBB473:
 827              		.loc 2 93 0
 828 0046 4FF48023 		mov	r3, #262144
 829 004a AB61     		str	r3, [r5, #24]
 830              	.LVL77:
 831              	.LBE473:
 832              	.LBE472:
 833              	.LBB474:
 834              	.LBB475:
 835              		.loc 2 24 0
 836 004c 4FF4C860 		mov	r0, #1600
 837 0050 FFF7FEFF 		bl	halPolledDelay
 838              	.LVL78:
 839              	.LBE475:
 840              	.LBE474:
 841              	.LBE463:
 842              		.loc 1 469 0
 843 0054 B8F10108 		subs	r8, r8, #1
 844              	.LVL79:
 845 0058 F0D1     		bne	.L38
 846              	.LVL80:
 847              	.L45:
 848              		.loc 1 466 0
 849 005a 0136     		adds	r6, r6, #1
 850              	.LVL81:
 851 005c 402E     		cmp	r6, #64
 852 005e DBD1     		bne	.L35
 853 0060 54E0     		b	.L55
 854              	.LVL82:
 855              	.L36:
ARM GAS  /var/folders/_2/42wyrlld3p52fkcpt1lv6gxh0000gp/T//cc2cakaW.s 			page 16


 856              	.LBB476:
 857              	.LBB462:
 858              		.loc 1 340 0
 859 0062 4FF00008 		mov	r8, #0
 860              	.LVL83:
 861              	.L44:
 862              	.LBE462:
 863              	.LBE476:
 864              	.LBB477:
 865              	.LBB458:
 866              	.LBB426:
 867              	.LBB420:
 868              	.LBB418:
 869              		.loc 2 68 0
 870 0066 4FF48013 		mov	r3, #1048576
 871 006a AB61     		str	r3, [r5, #24]
 872              	.LVL84:
 873              	.LBE418:
 874              	.LBE420:
 875              	.LBB421:
 876              	.LBB422:
 877              		.loc 2 73 0
 878 006c 4FF40013 		mov	r3, #2097152
 879 0070 AB61     		str	r3, [r5, #24]
 880              	.LVL85:
 881              	.LBE422:
 882              	.LBE421:
 883              	.LBB423:
 884              	.LBB424:
 885              		.loc 2 83 0
 886 0072 4FF40003 		mov	r3, #8388608
 887 0076 AB61     		str	r3, [r5, #24]
 888              	.LVL86:
 889              	.LBE424:
 890              	.LBE423:
 891              	.LBE426:
 892              		.loc 1 355 0
 893 0078 4FF0000A 		mov	r10, #0
 894              	.LVL87:
 895              	.L43:
 896              		.loc 1 357 0
 897 007c D9F81400 		ldr	r0, [r9, #20]
 898 0080 7B68     		ldr	r3, [r7, #4]
 899 0082 C318     		adds	r3, r0, r3
 900 0084 5344     		add	r3, r3, r10
 901 0086 93F8013F 		ldrb	r3, [r3, #3841]	@ zero_extendqisi2
 902 008a 6BB9     		cbnz	r3, .L40
 903 008c 0423     		movs	r3, #4
 904              	.L41:
 905 008e 3B60     		str	r3, [r7]
 906              	.LVL88:
 907              	.LBB427:
 908              		.loc 1 361 0
 909 0090 4FF00003 		mov	r3, #0
 910              	.LVL89:
 911              		.loc 1 362 0
 912 0094 0121     		movs	r1, #1
ARM GAS  /var/folders/_2/42wyrlld3p52fkcpt1lv6gxh0000gp/T//cc2cakaW.s 			page 17


 913 0096 07F10F00 		add	r0, r7, #15
 914              		.loc 1 361 0
 915 009a FB73     		strb	r3, [r7, #15]
 916              		.loc 1 362 0
 917 009c FFF7FEFF 		bl	hscan_write.isra.12
 918              	.LVL90:
 919              	.LBE427:
 920              		.loc 1 359 0
 921 00a0 3B68     		ldr	r3, [r7]
 922 00a2 013B     		subs	r3, r3, #1
 923 00a4 F3D1     		bne	.L41
 924 00a6 09E0     		b	.L42
 925              	.LVL91:
 926              	.L40:
 927              	.LBB428:
 928              		.loc 1 368 0
 929 00a8 013B     		subs	r3, r3, #1
 930              	.LVL92:
 931 00aa 0C22     		movs	r2, #12
 932 00ac 02FB0383 		mla	r3, r2, r3, r8
 933 00b0 00EB8300 		add	r0, r0, r3, lsl #2
 934 00b4 0421     		movs	r1, #4
 935 00b6 0130     		adds	r0, r0, #1
 936 00b8 FFF7FEFF 		bl	hscan_write.isra.12
 937              	.LVL93:
 938              	.L42:
 939              	.LBE428:
 940              		.loc 1 355 0
 941 00bc 0AF1010A 		add	r10, r10, #1
 942              	.LVL94:
 943 00c0 BAF1400F 		cmp	r10, #64
 944 00c4 DAD1     		bne	.L43
 945              	.LVL95:
 946              	.LBB429:
 947              	.LBB430:
 948              	.LBB431:
 949              		.loc 2 83 0
 950 00c6 8023     		movs	r3, #128
 951 00c8 A361     		str	r3, [r4, #24]
 952              	.LVL96:
 953              	.LBE431:
 954              	.LBE430:
 955              	.LBB432:
 956              	.LBB433:
 957              	.LBB434:
 958              		.loc 2 78 0
 959 00ca 0823     		movs	r3, #8
 960 00cc A361     		str	r3, [r4, #24]
 961              	.LVL97:
 962              	.LBE434:
 963              	.LBE433:
 964              	.LBB435:
 965              	.LBB436:
 966 00ce 4FF40023 		mov	r3, #524288
 967 00d2 A361     		str	r3, [r4, #24]
 968              	.LVL98:
 969              	.LBE436:
ARM GAS  /var/folders/_2/42wyrlld3p52fkcpt1lv6gxh0000gp/T//cc2cakaW.s 			page 18


 970              	.LBE435:
 971              	.LBE432:
 972              	.LBB437:
 973              	.LBB438:
 974              		.loc 2 68 0
 975 00d4 1023     		movs	r3, #16
 976 00d6 A361     		str	r3, [r4, #24]
 977              	.LVL99:
 978              	.LBE438:
 979              	.LBE437:
 980              	.LBB439:
 981              	.LBB440:
 982 00d8 4FF48013 		mov	r3, #1048576
 983 00dc A361     		str	r3, [r4, #24]
 984              	.LVL100:
 985              	.LBE440:
 986              	.LBE439:
 987              	.LBE429:
 988              	.LBB441:
 989              	.LBB442:
 990              	.LBB443:
 991              		.loc 2 93 0
 992 00de 0423     		movs	r3, #4
 993 00e0 A361     		str	r3, [r4, #24]
 994              	.LVL101:
 995              	.LBE443:
 996              	.LBE442:
 997              	.LBB444:
 998              	.LBB445:
 999              		.loc 2 73 0
 1000 00e2 2023     		movs	r3, #32
 1001 00e4 A361     		str	r3, [r4, #24]
 1002              	.LVL102:
 1003              	.LBE445:
 1004              	.LBE444:
 1005              	.LBB446:
 1006              	.LBB447:
 1007              		.loc 2 24 0
 1008 00e6 5020     		movs	r0, #80
 1009 00e8 FFF7FEFF 		bl	halPolledDelay
 1010              	.LVL103:
 1011              	.LBE447:
 1012              	.LBE446:
 1013              	.LBB448:
 1014              	.LBB449:
 1015              		.loc 2 73 0
 1016 00ec 4FF40013 		mov	r3, #2097152
 1017 00f0 A361     		str	r3, [r4, #24]
 1018              	.LVL104:
 1019              	.LBE449:
 1020              	.LBE448:
 1021              	.LBB450:
 1022              	.LBB451:
 1023              		.loc 2 93 0
 1024 00f2 4FF48023 		mov	r3, #262144
 1025 00f6 A361     		str	r3, [r4, #24]
 1026              	.LVL105:
ARM GAS  /var/folders/_2/42wyrlld3p52fkcpt1lv6gxh0000gp/T//cc2cakaW.s 			page 19


 1027              	.LBE451:
 1028              	.LBE450:
 1029              	.LBB452:
 1030              	.LBB453:
 1031              		.loc 2 24 0
 1032 00f8 4FF44860 		mov	r0, #3200
 1033              	.LBE453:
 1034              	.LBE452:
 1035              	.LBE441:
 1036              		.loc 1 352 0
 1037 00fc 08F10108 		add	r8, r8, #1
 1038              	.LVL106:
 1039              	.LBB456:
 1040              	.LBB455:
 1041              	.LBB454:
 1042              		.loc 2 24 0
 1043 0100 FFF7FEFF 		bl	halPolledDelay
 1044              	.LVL107:
 1045              	.LBE454:
 1046              	.LBE455:
 1047              	.LBE456:
 1048              		.loc 1 352 0
 1049 0104 B8F10C0F 		cmp	r8, #12
 1050 0108 ADD1     		bne	.L44
 1051 010a A6E7     		b	.L45
 1052              	.LVL108:
 1053              	.L55:
 1054              	.LBE458:
 1055              	.LBE477:
 1056              		.loc 1 477 0 discriminator 2
 1057 010c FFF7FEFF 		bl	vscan_stop.isra.18
 1058              	.LVL109:
 1059              		.loc 1 463 0 discriminator 2
 1060 0110 BBF1010B 		subs	fp, fp, #1
 1061              	.LVL110:
 1062 0114 7FF47DAF 		bne	.L46
 1063              		.loc 1 480 0
 1064 0118 09F11400 		add	r0, r9, #20
 1065 011c FFF7FEFF 		bl	clear_block_map.isra.15
 1066              	.LVL111:
 1067              		.loc 1 481 0
 1068 0120 1437     		adds	r7, r7, #20
 1069              	.LCFI26:
 1070              		.cfi_def_cfa_offset 36
 1071 0122 BD46     		mov	sp, r7
 1072              	.LCFI27:
 1073              		.cfi_def_cfa_register 13
 1074              		@ sp needed
 1075 0124 BDE8F08F 		pop	{r4, r5, r6, r7, r8, r9, r10, fp, pc}
 1076              	.LVL112:
 1077              	.L57:
 1078              		.align	2
 1079              	.L56:
 1080 0128 00040240 		.word	1073873920
 1081              		.cfi_endproc
 1082              	.LFE95:
 1083              		.size	gdisp_lld_flush, .-gdisp_lld_flush
ARM GAS  /var/folders/_2/42wyrlld3p52fkcpt1lv6gxh0000gp/T//cc2cakaW.s 			page 20


 1084              		.section	.text.gdisp_lld_draw_pixel,"ax",%progbits
 1085              		.align	1
 1086              		.thumb
 1087              		.thumb_func
 1088              		.type	gdisp_lld_draw_pixel, %function
 1089              	gdisp_lld_draw_pixel:
 1090              	.LFB96:
 1091              		.loc 1 485 0
 1092              		.cfi_startproc
 1093              		@ args = 0, pretend = 0, frame = 0
 1094              		@ frame_needed = 1, uses_anonymous_args = 0
 1095              	.LVL113:
 1096 0000 2DE9F84F 		push	{r3, r4, r5, r6, r7, r8, r9, r10, fp, lr}
 1097              	.LCFI28:
 1098              		.cfi_def_cfa_offset 40
 1099              		.cfi_offset 3, -40
 1100              		.cfi_offset 4, -36
 1101              		.cfi_offset 5, -32
 1102              		.cfi_offset 6, -28
 1103              		.cfi_offset 7, -24
 1104              		.cfi_offset 8, -20
 1105              		.cfi_offset 9, -16
 1106              		.cfi_offset 10, -12
 1107              		.cfi_offset 11, -8
 1108              		.cfi_offset 14, -4
 1109              		.loc 1 491 0
 1110 0004 8189     		ldrh	r1, [r0, #12]
 1111              		.loc 1 485 0
 1112 0006 00AF     		add	r7, sp, #0
 1113              	.LCFI29:
 1114              		.cfi_def_cfa_register 7
 1115              		.loc 1 491 0
 1116 0008 B429     		cmp	r1, #180
 1117              		.loc 1 485 0
 1118 000a 0546     		mov	r5, r0
 1119 000c B0F92030 		ldrsh	r3, [r0, #32]
 1120 0010 B0F92220 		ldrsh	r2, [r0, #34]
 1121              		.loc 1 491 0
 1122 0014 33D0     		beq	.L60
 1123 0016 B1F5877F 		cmp	r1, #270
 1124 001a 4FF01008 		mov	r8, #16
 1125 001e 4AD0     		beq	.L61
 1126 0020 5A29     		cmp	r1, #90
 1127 0022 16D0     		beq	.L62
 1128              		.loc 1 495 0
 1129 0024 5848     		ldr	r0, .L76
 1130              	.LVL114:
 1131              		.loc 1 496 0
 1132 0026 4FF00C09 		mov	r9, #12
 1133              		.loc 1 495 0
 1134 002a 1840     		ands	r0, r0, r3
 1135              		.loc 1 494 0
 1136 002c 93FBF8F8 		sdiv	r8, r3, r8
 1137              	.LVL115:
 1138              		.loc 1 496 0
 1139 0030 92FBF9F3 		sdiv	r3, r2, r9
 1140              		.loc 1 495 0
ARM GAS  /var/folders/_2/42wyrlld3p52fkcpt1lv6gxh0000gp/T//cc2cakaW.s 			page 21


 1141 0034 0028     		cmp	r0, #0
 1142              		.loc 1 497 0
 1143 0036 09FB1322 		mls	r2, r9, r3, r2
 1144              		.loc 1 495 0
 1145 003a BEBF     		ittt	lt
 1146 003c 00F1FF30 		addlt	r0, r0, #-1
 1147 0040 60F00F00 		ornlt	r0, r0, #15
 1148 0044 0130     		addlt	r0, r0, #1
 1149 0046 04B2     		sxth	r4, r0
 1150              	.LVL116:
 1151              		.loc 1 496 0
 1152 0048 0FFA83FA 		sxth	r10, r3
 1153              	.LVL117:
 1154              		.loc 1 497 0
 1155 004c 0FFA82F9 		sxth	r9, r2
 1156              	.LVL118:
 1157              		.loc 1 498 0
 1158 0050 4AE0     		b	.L64
 1159              	.LVL119:
 1160              	.L62:
 1161              		.loc 1 502 0
 1162 0052 C3F53F73 		rsb	r3, r3, #764
 1163 0056 0333     		adds	r3, r3, #3
 1164 0058 4FF00C09 		mov	r9, #12
 1165 005c 93FBF9FA 		sdiv	r10, r3, r9
 1166              		.loc 1 501 0
 1167 0060 4948     		ldr	r0, .L76
 1168              	.LVL120:
 1169              		.loc 1 500 0
 1170 0062 92FBF8F8 		sdiv	r8, r2, r8
 1171              	.LVL121:
 1172              		.loc 1 501 0
 1173 0066 1040     		ands	r0, r0, r2
 1174 0068 0028     		cmp	r0, #0
 1175 006a BEBF     		ittt	lt
 1176 006c 00F1FF30 		addlt	r0, r0, #-1
 1177 0070 60F00F00 		ornlt	r0, r0, #15
 1178 0074 0130     		addlt	r0, r0, #1
 1179 0076 04B2     		sxth	r4, r0
 1180              	.LVL122:
 1181              		.loc 1 503 0
 1182 0078 09FB1A39 		mls	r9, r9, r10, r3
 1183              	.LVL123:
 1184              		.loc 1 504 0
 1185 007c 34E0     		b	.L64
 1186              	.LVL124:
 1187              	.L60:
 1188              		.loc 1 508 0
 1189 007e C2F53F72 		rsb	r2, r2, #764
 1190 0082 0332     		adds	r2, r2, #3
 1191 0084 4FF00C09 		mov	r9, #12
 1192 0088 92FBF9FA 		sdiv	r10, r2, r9
 1193              		.loc 1 506 0
 1194 008c C3F57F73 		rsb	r3, r3, #1020
 1195              		.loc 1 507 0
 1196 0090 3D48     		ldr	r0, .L76
 1197              	.LVL125:
ARM GAS  /var/folders/_2/42wyrlld3p52fkcpt1lv6gxh0000gp/T//cc2cakaW.s 			page 22


 1198              		.loc 1 506 0
 1199 0092 0333     		adds	r3, r3, #3
 1200              		.loc 1 507 0
 1201 0094 1840     		ands	r0, r0, r3
 1202 0096 0028     		cmp	r0, #0
 1203 0098 BCBF     		itt	lt
 1204 009a 00F1FF30 		addlt	r0, r0, #-1
 1205 009e 60F00F00 		ornlt	r0, r0, #15
 1206              		.loc 1 506 0
 1207 00a2 4FF01008 		mov	r8, #16
 1208              		.loc 1 507 0
 1209 00a6 B8BF     		it	lt
 1210 00a8 0130     		addlt	r0, r0, #1
 1211              		.loc 1 506 0
 1212 00aa 93FBF8F8 		sdiv	r8, r3, r8
 1213              	.LVL126:
 1214              		.loc 1 507 0
 1215 00ae 0446     		mov	r4, r0
 1216              	.LVL127:
 1217              		.loc 1 509 0
 1218 00b0 09FB1A29 		mls	r9, r9, r10, r2
 1219              	.LVL128:
 1220              		.loc 1 510 0
 1221 00b4 18E0     		b	.L64
 1222              	.LVL129:
 1223              	.L61:
 1224              		.loc 1 512 0
 1225 00b6 C2F57F72 		rsb	r2, r2, #1020
 1226              		.loc 1 513 0
 1227 00ba 3348     		ldr	r0, .L76
 1228              	.LVL130:
 1229              		.loc 1 512 0
 1230 00bc 0332     		adds	r2, r2, #3
 1231              		.loc 1 514 0
 1232 00be 4FF00C09 		mov	r9, #12
 1233              		.loc 1 513 0
 1234 00c2 1040     		ands	r0, r0, r2
 1235              		.loc 1 512 0
 1236 00c4 92FBF8F8 		sdiv	r8, r2, r8
 1237              	.LVL131:
 1238              		.loc 1 514 0
 1239 00c8 93FBF9F2 		sdiv	r2, r3, r9
 1240              		.loc 1 513 0
 1241 00cc 0028     		cmp	r0, #0
 1242 00ce BEBF     		ittt	lt
 1243 00d0 00F1FF30 		addlt	r0, r0, #-1
 1244 00d4 60F00F00 		ornlt	r0, r0, #15
 1245 00d8 0130     		addlt	r0, r0, #1
 1246 00da 0446     		mov	r4, r0
 1247              	.LVL132:
 1248              		.loc 1 515 0
 1249 00dc 09FB1233 		mls	r3, r9, r2, r3
 1250              		.loc 1 514 0
 1251 00e0 0FFA82FA 		sxth	r10, r2
 1252              	.LVL133:
 1253              		.loc 1 515 0
 1254 00e4 0FFA83F9 		sxth	r9, r3
ARM GAS  /var/folders/_2/42wyrlld3p52fkcpt1lv6gxh0000gp/T//cc2cakaW.s 			page 23


 1255              	.LVL134:
 1256              	.L64:
 1257              	.LBB482:
 1258              	.LBB483:
 1259              		.loc 1 412 0
 1260 00e8 D5F814B0 		ldr	fp, [r5, #20]
 1261              	.LVL135:
 1262              		.loc 1 413 0
 1263 00ec 4FEA8A1A 		lsl	r10, r10, #6
 1264              	.LVL136:
 1265 00f0 0BEB0A03 		add	r3, fp, r10
 1266 00f4 4344     		add	r3, r3, r8
 1267 00f6 93F8016F 		ldrb	r6, [r3, #3841]	@ zero_extendqisi2
 1268 00fa 06BB     		cbnz	r6, .L68
 1269              		.loc 1 415 0
 1270 00fc 9BF80030 		ldrb	r3, [fp]	@ zero_extendqisi2
 1271 0100 4F2B     		cmp	r3, #79
 1272 0102 02D9     		bls	.L69
 1273              		.loc 1 416 0
 1274 0104 2846     		mov	r0, r5
 1275 0106 FFF7FEFF 		bl	gdisp_lld_flush
 1276              	.LVL137:
 1277              	.L69:
 1278              		.loc 1 418 0
 1279 010a 9BF80010 		ldrb	r1, [fp]	@ zero_extendqisi2
 1280 010e 3022     		movs	r2, #48
 1281 0110 4A43     		muls	r2, r1, r2
 1282              		.loc 1 419 0
 1283 0112 DA44     		add	r10, r10, fp
 1284 0114 0131     		adds	r1, r1, #1
 1285              		.loc 1 418 0
 1286 0116 0BEB0203 		add	r3, fp, r2
 1287              		.loc 1 419 0
 1288 011a C9B2     		uxtb	r1, r1
 1289 011c 3032     		adds	r2, r2, #48
 1290 011e D044     		add	r8, r8, r10
 1291              	.LVL138:
 1292 0120 88F8011F 		strb	r1, [r8, #3841]
 1293              		.loc 1 418 0
 1294 0124 5E1C     		adds	r6, r3, #1
 1295              	.LVL139:
 1296              		.loc 1 420 0
 1297 0126 8BF80010 		strb	r1, [fp]
 1298              	.LVL140:
 1299 012a 9344     		add	fp, fp, r2
 1300              	.LVL141:
 1301              	.LBB484:
 1302              	.LBB485:
 1303              		.loc 1 400 0
 1304 012c 0022     		movs	r2, #0
 1305              	.LVL142:
 1306              	.L70:
 1307 012e 5A70     		strb	r2, [r3, #1]
 1308              	.LVL143:
 1309 0130 9A70     		strb	r2, [r3, #2]
 1310              	.LVL144:
 1311 0132 DA70     		strb	r2, [r3, #3]
ARM GAS  /var/folders/_2/42wyrlld3p52fkcpt1lv6gxh0000gp/T//cc2cakaW.s 			page 24


 1312              	.LVL145:
 1313 0134 03F8042F 		strb	r2, [r3, #4]!
 1314              	.LVL146:
 1315              		.loc 1 396 0
 1316 0138 9B45     		cmp	fp, r3
 1317 013a F8D1     		bne	.L70
 1318 013c 04E0     		b	.L71
 1319              	.LVL147:
 1320              	.L68:
 1321              	.LBE485:
 1322              	.LBE484:
 1323              		.loc 1 426 0
 1324 013e 013E     		subs	r6, r6, #1
 1325 0140 3023     		movs	r3, #48
 1326 0142 03FB06B6 		mla	r6, r3, r6, fp
 1327 0146 0136     		adds	r6, r6, #1
 1328              	.LVL148:
 1329              	.L71:
 1330              	.LBE483:
 1331              	.LBE482:
 1332              		.loc 1 523 0
 1333 0148 E043     		mvns	r0, r4
 1334              		.loc 1 522 0
 1335 014a 4FEA8909 		lsl	r9, r9, #2
 1336              	.LVL149:
 1337 014e 4FEA940E 		lsr	lr, r4, #2
 1338              		.loc 1 523 0
 1339 0152 00F00300 		and	r0, r0, #3
 1340              		.loc 1 522 0
 1341 0156 06EB0903 		add	r3, r6, r9
 1342              		.loc 1 523 0
 1343 015a 13F80E30 		ldrb	r3, [r3, lr]	@ zero_extendqisi2
 1344 015e 4000     		lsls	r0, r0, #1
 1345 0160 0321     		movs	r1, #3
 1346 0162 8140     		lsls	r1, r1, r0
 1347 0164 23EA0101 		bic	r1, r3, r1
 1348              		.loc 1 524 0
 1349 0168 95F83030 		ldrb	r3, [r5, #48]	@ zero_extendqisi2
 1350              		.loc 1 523 0
 1351 016c 49B2     		sxtb	r1, r1
 1352              	.LVL150:
 1353              		.loc 1 524 0
 1354 016e 0BB1     		cbz	r3, .L72
 1355              		.loc 1 525 0
 1356 0170 0224     		movs	r4, #2
 1357              	.LVL151:
 1358 0172 00E0     		b	.L75
 1359              	.LVL152:
 1360              	.L72:
 1361              		.loc 1 527 0
 1362 0174 0124     		movs	r4, #1
 1363              	.LVL153:
 1364              	.L75:
 1365 0176 04FA00F0 		lsl	r0, r4, r0
 1366 017a 0143     		orrs	r1, r1, r0
 1367              	.LVL154:
 1368 017c C9B2     		uxtb	r1, r1
ARM GAS  /var/folders/_2/42wyrlld3p52fkcpt1lv6gxh0000gp/T//cc2cakaW.s 			page 25


 1369              	.LVL155:
 1370              		.loc 1 528 0
 1371 017e B144     		add	r9, r9, r6
 1372 0180 09F80E10 		strb	r1, [r9, lr]
 1373 0184 BDE8F88F 		pop	{r3, r4, r5, r6, r7, r8, r9, r10, fp, pc}
 1374              	.LVL156:
 1375              	.L77:
 1376              		.align	2
 1377              	.L76:
 1378 0188 0F000080 		.word	-2147483633
 1379              		.cfi_endproc
 1380              	.LFE96:
 1381              		.size	gdisp_lld_draw_pixel, .-gdisp_lld_draw_pixel
 1382              		.section	.text.power_off.isra.27,"ax",%progbits
 1383              		.align	1
 1384              		.thumb
 1385              		.thumb_func
 1386              		.type	power_off.isra.27, %function
 1387              	power_off.isra.27:
 1388              	.LFB127:
 1389              		.loc 1 263 0
 1390              		.cfi_startproc
 1391              		@ args = 0, pretend = 0, frame = 0
 1392              		@ frame_needed = 1, uses_anonymous_args = 0
 1393              	.LVL157:
 1394 0000 2DE9F041 		push	{r4, r5, r6, r7, r8, lr}
 1395              	.LCFI30:
 1396              		.cfi_def_cfa_offset 24
 1397              		.cfi_offset 4, -24
 1398              		.cfi_offset 5, -20
 1399              		.cfi_offset 6, -16
 1400              		.cfi_offset 7, -12
 1401              		.cfi_offset 8, -8
 1402              		.cfi_offset 14, -4
 1403              	.LBB512:
 1404              	.LBB513:
 1405              		.loc 2 63 0
 1406 0004 214D     		ldr	r5, .L79
 1407              	.LBE513:
 1408              	.LBE512:
 1409              	.LBB516:
 1410              	.LBB517:
 1411              		.loc 2 48 0
 1412 0006 224C     		ldr	r4, .L79+4
 1413              	.LBE517:
 1414              	.LBE516:
 1415              	.LBB522:
 1416              	.LBB514:
 1417              		.loc 2 63 0
 1418 0008 4FF48026 		mov	r6, #262144
 1419              	.LBE514:
 1420              	.LBE522:
 1421              	.LBB523:
 1422              	.LBB520:
 1423              		.loc 2 48 0
 1424 000c 0121     		movs	r1, #1
 1425              	.LBE520:
ARM GAS  /var/folders/_2/42wyrlld3p52fkcpt1lv6gxh0000gp/T//cc2cakaW.s 			page 26


 1426              	.LBE523:
 1427              	.LBB524:
 1428              	.LBB515:
 1429              		.loc 2 63 0
 1430 000e AE61     		str	r6, [r5, #24]
 1431              	.LVL158:
 1432              	.LBE515:
 1433              	.LBE524:
 1434              		.loc 1 263 0
 1435 0010 00AF     		add	r7, sp, #0
 1436              	.LCFI31:
 1437              		.cfi_def_cfa_register 7
 1438              	.LBB525:
 1439              	.LBB521:
 1440              		.loc 2 48 0
 1441 0012 A161     		str	r1, [r4, #24]
 1442              	.LBB518:
 1443              		.loc 2 51 0
 1444 0014 2023     		movs	r3, #32
 1445              		.syntax unified
 1446              	@ 51 "src/board_ED060SC4.h" 1
 1447 0016 83F31188 		msr     BASEPRI, r3
 1448              	@ 0 "" 2
 1449              		.thumb
 1450              		.syntax unified
 1451              	.LBE518:
 1452              		.loc 2 55 0
 1453 001a 0022     		movs	r2, #0
 1454 001c 2046     		mov	r0, r4
 1455 001e FFF7FEFF 		bl	_pal_lld_setgroupmode
 1456              	.LVL159:
 1457              	.LBB519:
 1458              		.loc 2 56 0
 1459 0022 0023     		movs	r3, #0
 1460              		.syntax unified
 1461              	@ 56 "src/board_ED060SC4.h" 1
 1462 0024 83F31188 		msr     BASEPRI, r3
 1463              	@ 0 "" 2
 1464              		.thumb
 1465              		.syntax unified
 1466              	.LBE519:
 1467              		.loc 2 58 0
 1468 0028 4FF40028 		mov	r8, #524288
 1469 002c C5F81880 		str	r8, [r5, #24]
 1470              	.LVL160:
 1471              	.LBE521:
 1472              	.LBE525:
 1473              		.loc 1 270 0
 1474 0030 6420     		movs	r0, #100
 1475 0032 FFF7FEFF 		bl	gfxSleepMilliseconds
 1476              	.LVL161:
 1477              	.LBB526:
 1478              	.LBB527:
 1479              		.loc 2 68 0
 1480 0036 4FF48013 		mov	r3, #1048576
 1481 003a A361     		str	r3, [r4, #24]
 1482              	.LVL162:
ARM GAS  /var/folders/_2/42wyrlld3p52fkcpt1lv6gxh0000gp/T//cc2cakaW.s 			page 27


 1483              	.LBE527:
 1484              	.LBE526:
 1485              	.LBB528:
 1486              	.LBB529:
 1487              		.loc 2 73 0
 1488 003c 4FF40013 		mov	r3, #2097152
 1489 0040 A361     		str	r3, [r4, #24]
 1490              	.LVL163:
 1491              	.LBE529:
 1492              	.LBE528:
 1493              	.LBB530:
 1494              	.LBB531:
 1495              		.loc 2 83 0
 1496 0042 4FF40003 		mov	r3, #8388608
 1497              	.LBE531:
 1498              	.LBE530:
 1499              	.LBB533:
 1500              	.LBB534:
 1501              		.loc 2 78 0
 1502 0046 C4F81880 		str	r8, [r4, #24]
 1503              	.LVL164:
 1504              	.LBE534:
 1505              	.LBE533:
 1506              	.LBB535:
 1507              	.LBB532:
 1508              		.loc 2 83 0
 1509 004a A361     		str	r3, [r4, #24]
 1510              	.LVL165:
 1511              	.LBE532:
 1512              	.LBE535:
 1513              	.LBB536:
 1514              	.LBB537:
 1515              		.loc 2 88 0
 1516 004c 4FF07F43 		mov	r3, #-16777216
 1517 0050 A361     		str	r3, [r4, #24]
 1518              	.LVL166:
 1519              	.LBE537:
 1520              	.LBE536:
 1521              	.LBB538:
 1522              	.LBB539:
 1523              		.loc 2 98 0
 1524 0052 03F18243 		add	r3, r3, #1090519040
 1525 0056 4FF00052 		mov	r2, #536870912
 1526 005a 03F50233 		add	r3, r3, #133120
 1527              	.LBE539:
 1528              	.LBE538:
 1529              	.LBB541:
 1530              	.LBB542:
 1531              		.loc 2 93 0
 1532 005e A661     		str	r6, [r4, #24]
 1533              	.LVL167:
 1534              	.LBE542:
 1535              	.LBE541:
 1536              	.LBB543:
 1537              	.LBB540:
 1538              		.loc 2 98 0
 1539 0060 9A61     		str	r2, [r3, #24]
ARM GAS  /var/folders/_2/42wyrlld3p52fkcpt1lv6gxh0000gp/T//cc2cakaW.s 			page 28


 1540              	.LVL168:
 1541              	.LBE540:
 1542              	.LBE543:
 1543              	.LBB544:
 1544              	.LBB545:
 1545              		.loc 2 103 0
 1546 0062 4FF40033 		mov	r3, #131072
 1547 0066 A361     		str	r3, [r4, #24]
 1548              	.LVL169:
 1549              	.LBE545:
 1550              	.LBE544:
 1551              	.LBB546:
 1552              	.LBB547:
 1553              	.LBB548:
 1554              		.loc 2 39 0
 1555 0068 2023     		movs	r3, #32
 1556              		.syntax unified
 1557              	@ 39 "src/board_ED060SC4.h" 1
 1558 006a 83F31188 		msr     BASEPRI, r3
 1559              	@ 0 "" 2
 1560              		.thumb
 1561              		.syntax unified
 1562              	.LBE548:
 1563              		.loc 2 40 0
 1564 006e 4022     		movs	r2, #64
 1565 0070 4FF40041 		mov	r1, #32768
 1566 0074 2846     		mov	r0, r5
 1567 0076 FFF7FEFF 		bl	_pal_lld_setgroupmode
 1568              	.LVL170:
 1569              	.LBB549:
 1570              		.loc 2 41 0
 1571 007a 0023     		movs	r3, #0
 1572              		.syntax unified
 1573              	@ 41 "src/board_ED060SC4.h" 1
 1574 007c 83F31188 		msr     BASEPRI, r3
 1575              	@ 0 "" 2
 1576              		.thumb
 1577              		.syntax unified
 1578              	.LBE549:
 1579              		.loc 2 42 0
 1580 0080 4FF00043 		mov	r3, #-2147483648
 1581 0084 AB61     		str	r3, [r5, #24]
 1582              	.LVL171:
 1583 0086 BDE8F081 		pop	{r4, r5, r6, r7, r8, pc}
 1584              	.L80:
 1585 008a 00BF     		.align	2
 1586              	.L79:
 1587 008c 00000240 		.word	1073872896
 1588 0090 00040240 		.word	1073873920
 1589              	.LBE547:
 1590              	.LBE546:
 1591              		.cfi_endproc
 1592              	.LFE127:
 1593              		.size	power_off.isra.27, .-power_off.isra.27
 1594              		.section	.text.gdisp_lld_control,"ax",%progbits
 1595              		.align	1
 1596              		.thumb
ARM GAS  /var/folders/_2/42wyrlld3p52fkcpt1lv6gxh0000gp/T//cc2cakaW.s 			page 29


 1597              		.thumb_func
 1598              		.type	gdisp_lld_control, %function
 1599              	gdisp_lld_control:
 1600              	.LFB97:
 1601              		.loc 1 534 0
 1602              		.cfi_startproc
 1603              		@ args = 0, pretend = 0, frame = 0
 1604              		@ frame_needed = 1, uses_anonymous_args = 0
 1605              	.LVL172:
 1606 0000 2DE9F041 		push	{r4, r5, r6, r7, r8, lr}
 1607              	.LCFI32:
 1608              		.cfi_def_cfa_offset 24
 1609              		.cfi_offset 4, -24
 1610              		.cfi_offset 5, -20
 1611              		.cfi_offset 6, -16
 1612              		.cfi_offset 7, -12
 1613              		.cfi_offset 8, -8
 1614              		.cfi_offset 14, -4
 1615              		.loc 1 535 0
 1616 0004 B0F92080 		ldrsh	r8, [r0, #32]
 1617              		.loc 1 534 0
 1618 0008 00AF     		add	r7, sp, #0
 1619              	.LCFI33:
 1620              		.cfi_def_cfa_register 7
 1621              		.loc 1 534 0
 1622 000a 0446     		mov	r4, r0
 1623              		.loc 1 535 0
 1624 000c B8F1000F 		cmp	r8, #0
 1625 0010 04D0     		beq	.L83
 1626 0012 B8F1010F 		cmp	r8, #1
 1627 0016 63D0     		beq	.L84
 1628 0018 BDE8F081 		pop	{r4, r5, r6, r7, r8, pc}
 1629              	.L83:
 1630              		.loc 1 537 0
 1631 001c 90F83430 		ldrb	r3, [r0, #52]	@ zero_extendqisi2
 1632 0020 827B     		ldrb	r2, [r0, #14]	@ zero_extendqisi2
 1633 0022 9A42     		cmp	r2, r3
 1634 0024 7BD0     		beq	.L81
 1635              		.loc 1 539 0
 1636 0026 022B     		cmp	r3, #2
 1637 0028 03DD     		ble	.L85
 1638 002a 032B     		cmp	r3, #3
 1639 002c 06D0     		beq	.L86
 1640 002e BDE8F081 		pop	{r4, r5, r6, r7, r8, pc}
 1641              	.L85:
 1642              		.loc 1 543 0
 1643 0032 FFF7FEFF 		bl	gdisp_lld_flush
 1644              	.LVL173:
 1645              		.loc 1 544 0
 1646 0036 FFF7FEFF 		bl	power_off.isra.27
 1647              	.LVL174:
 1648              		.loc 1 545 0
 1649 003a 4DE0     		b	.L87
 1650              	.LVL175:
 1651              	.L86:
 1652              	.LBB584:
 1653              	.LBB585:
ARM GAS  /var/folders/_2/42wyrlld3p52fkcpt1lv6gxh0000gp/T//cc2cakaW.s 			page 30


 1654              	.LBB586:
 1655              	.LBB587:
 1656              	.LBB588:
 1657              	.LBB589:
 1658              		.loc 2 31 0
 1659 003c 2023     		movs	r3, #32
 1660              		.syntax unified
 1661              	@ 31 "src/board_ED060SC4.h" 1
 1662 003e 83F31188 		msr     BASEPRI, r3
 1663              	@ 0 "" 2
 1664              		.thumb
 1665              		.syntax unified
 1666              	.LBE589:
 1667              		.loc 2 32 0
 1668 0042 384E     		ldr	r6, .L107
 1669 0044 0122     		movs	r2, #1
 1670 0046 4FF40041 		mov	r1, #32768
 1671 004a 3046     		mov	r0, r6
 1672              	.LVL176:
 1673 004c FFF7FEFF 		bl	_pal_lld_setgroupmode
 1674              	.LVL177:
 1675              	.LBB590:
 1676              		.loc 2 33 0
 1677 0050 4346     		mov	r3, r8
 1678              		.syntax unified
 1679              	@ 33 "src/board_ED060SC4.h" 1
 1680 0052 83F31188 		msr     BASEPRI, r3
 1681              	@ 0 "" 2
 1682              		.thumb
 1683              		.syntax unified
 1684              	.LBE590:
 1685              	.LBE588:
 1686              	.LBE587:
 1687              	.LBE586:
 1688              	.LBB593:
 1689              	.LBB594:
 1690              		.loc 2 68 0
 1691 0056 344D     		ldr	r5, .L107+4
 1692              	.LBE594:
 1693              	.LBE593:
 1694              	.LBB596:
 1695              	.LBB592:
 1696              	.LBB591:
 1697              		.loc 2 34 0
 1698 0058 4FF40043 		mov	r3, #32768
 1699 005c B361     		str	r3, [r6, #24]
 1700              	.LVL178:
 1701              	.LBE591:
 1702              	.LBE592:
 1703              	.LBE596:
 1704              	.LBB597:
 1705              	.LBB595:
 1706              		.loc 2 68 0
 1707 005e 4FF48013 		mov	r3, #1048576
 1708 0062 AB61     		str	r3, [r5, #24]
 1709              	.LVL179:
 1710              	.LBE595:
ARM GAS  /var/folders/_2/42wyrlld3p52fkcpt1lv6gxh0000gp/T//cc2cakaW.s 			page 31


 1711              	.LBE597:
 1712              	.LBB598:
 1713              	.LBB599:
 1714              		.loc 2 73 0
 1715 0064 4FF40013 		mov	r3, #2097152
 1716 0068 AB61     		str	r3, [r5, #24]
 1717              	.LVL180:
 1718              	.LBE599:
 1719              	.LBE598:
 1720              	.LBB600:
 1721              	.LBB601:
 1722              		.loc 2 78 0
 1723 006a 4FF40023 		mov	r3, #524288
 1724 006e AB61     		str	r3, [r5, #24]
 1725              	.LVL181:
 1726              	.LBE601:
 1727              	.LBE600:
 1728              	.LBB602:
 1729              	.LBB603:
 1730              		.loc 2 83 0
 1731 0070 8023     		movs	r3, #128
 1732 0072 AB61     		str	r3, [r5, #24]
 1733              	.LVL182:
 1734              	.LBE603:
 1735              	.LBE602:
 1736              	.LBB604:
 1737              	.LBB605:
 1738              		.loc 2 88 0
 1739 0074 4FF07F43 		mov	r3, #-16777216
 1740 0078 AB61     		str	r3, [r5, #24]
 1741              	.LVL183:
 1742              	.LBE605:
 1743              	.LBE604:
 1744              	.LBB606:
 1745              	.LBB607:
 1746              		.loc 2 93 0
 1747 007a 4FF48023 		mov	r3, #262144
 1748 007e AB61     		str	r3, [r5, #24]
 1749              	.LVL184:
 1750              	.LBE607:
 1751              	.LBE606:
 1752              	.LBB608:
 1753              	.LBB609:
 1754              		.loc 2 98 0
 1755 0080 03F18043 		add	r3, r3, #1073741824
 1756 0084 4FF00052 		mov	r2, #536870912
 1757 0088 A3F5FC33 		sub	r3, r3, #129024
 1758 008c 9A61     		str	r2, [r3, #24]
 1759              	.LVL185:
 1760              	.LBE609:
 1761              	.LBE608:
 1762              	.LBB610:
 1763              	.LBB611:
 1764              		.loc 2 103 0
 1765 008e 0223     		movs	r3, #2
 1766 0090 AB61     		str	r3, [r5, #24]
 1767              	.LVL186:
ARM GAS  /var/folders/_2/42wyrlld3p52fkcpt1lv6gxh0000gp/T//cc2cakaW.s 			page 32


 1768              	.LBE611:
 1769              	.LBE610:
 1770              		.loc 1 246 0
 1771 0092 6420     		movs	r0, #100
 1772 0094 FFF7FEFF 		bl	gfxSleepMicroseconds
 1773              	.LVL187:
 1774              	.LBB612:
 1775              	.LBB613:
 1776              		.loc 2 48 0
 1777 0098 4FF48033 		mov	r3, #65536
 1778 009c AB61     		str	r3, [r5, #24]
 1779              	.LBB614:
 1780              		.loc 2 51 0
 1781 009e 2023     		movs	r3, #32
 1782              		.syntax unified
 1783              	@ 51 "src/board_ED060SC4.h" 1
 1784 00a0 83F31188 		msr     BASEPRI, r3
 1785              	@ 0 "" 2
 1786              		.thumb
 1787              		.syntax unified
 1788              	.LBE614:
 1789              		.loc 2 53 0
 1790 00a4 0522     		movs	r2, #5
 1791 00a6 0121     		movs	r1, #1
 1792 00a8 2846     		mov	r0, r5
 1793 00aa FFF7FEFF 		bl	_pal_lld_setgroupmode
 1794              	.LVL188:
 1795              	.LBB615:
 1796              		.loc 2 56 0
 1797 00ae 4346     		mov	r3, r8
 1798              		.syntax unified
 1799              	@ 56 "src/board_ED060SC4.h" 1
 1800 00b0 83F31188 		msr     BASEPRI, r3
 1801              	@ 0 "" 2
 1802              		.thumb
 1803              		.syntax unified
 1804              	.LBE615:
 1805              		.loc 2 58 0
 1806 00b4 0823     		movs	r3, #8
 1807 00b6 B361     		str	r3, [r6, #24]
 1808              	.LVL189:
 1809              	.LBE613:
 1810              	.LBE612:
 1811              		.loc 1 250 0
 1812 00b8 4FF47A70 		mov	r0, #1000
 1813 00bc FFF7FEFF 		bl	gfxSleepMicroseconds
 1814              	.LVL190:
 1815              	.LBB616:
 1816              	.LBB617:
 1817              		.loc 2 63 0
 1818 00c0 0423     		movs	r3, #4
 1819 00c2 B361     		str	r3, [r6, #24]
 1820              	.LVL191:
 1821              	.LBE617:
 1822              	.LBE616:
 1823              		.loc 1 256 0
 1824 00c4 FFF7FEFF 		bl	vscan_start.isra.17
ARM GAS  /var/folders/_2/42wyrlld3p52fkcpt1lv6gxh0000gp/T//cc2cakaW.s 			page 33


 1825              	.LVL192:
 1826 00c8 4FF44075 		mov	r5, #768
 1827              	.LVL193:
 1828              	.L88:
 1829              		.loc 1 258 0
 1830 00cc FFF7FEFF 		bl	vclock_quick.isra.16
 1831              	.LVL194:
 1832              		.loc 1 257 0
 1833 00d0 013D     		subs	r5, r5, #1
 1834              	.LVL195:
 1835 00d2 FBD1     		bne	.L88
 1836              		.loc 1 259 0
 1837 00d4 FFF7FEFF 		bl	vscan_stop.isra.18
 1838              	.LVL196:
 1839              	.L87:
 1840              	.LBE585:
 1841              	.LBE584:
 1842              		.loc 1 552 0
 1843 00d8 636B     		ldr	r3, [r4, #52]
 1844 00da A373     		strb	r3, [r4, #14]
 1845              		.loc 1 553 0
 1846 00dc BDE8F081 		pop	{r4, r5, r6, r7, r8, pc}
 1847              	.LVL197:
 1848              	.L84:
 1849              	.LBB618:
 1850              	.LBB619:
 1851              		.loc 1 556 0
 1852 00e0 426B     		ldr	r2, [r0, #52]
 1853 00e2 8189     		ldrh	r1, [r0, #12]
 1854 00e4 93B2     		uxth	r3, r2
 1855 00e6 9942     		cmp	r1, r3
 1856 00e8 19D0     		beq	.L81
 1857              		.loc 1 558 0
 1858 00ea 5A2B     		cmp	r3, #90
 1859 00ec 10D0     		beq	.L89
 1860 00ee 02DC     		bgt	.L90
 1861 00f0 43B1     		cbz	r3, .L91
 1862 00f2 BDE8F081 		pop	{r4, r5, r6, r7, r8, pc}
 1863              	.L90:
 1864 00f6 B42B     		cmp	r3, #180
 1865 00f8 04D0     		beq	.L91
 1866 00fa B3F5877F 		cmp	r3, #270
 1867 00fe 07D0     		beq	.L89
 1868 0100 BDE8F081 		pop	{r4, r5, r6, r7, r8, pc}
 1869              	.L91:
 1870              		.loc 1 561 0
 1871 0104 4FF44073 		mov	r3, #768
 1872 0108 6381     		strh	r3, [r4, #10]	@ movhi
 1873              		.loc 1 562 0
 1874 010a 4FF48063 		mov	r3, #1024
 1875 010e 04E0     		b	.L106
 1876              	.L89:
 1877              		.loc 1 566 0
 1878 0110 4FF48063 		mov	r3, #1024
 1879 0114 6381     		strh	r3, [r4, #10]	@ movhi
 1880              		.loc 1 567 0
 1881 0116 4FF44073 		mov	r3, #768
ARM GAS  /var/folders/_2/42wyrlld3p52fkcpt1lv6gxh0000gp/T//cc2cakaW.s 			page 34


 1882              	.L106:
 1883 011a 2381     		strh	r3, [r4, #8]	@ movhi
 1884              		.loc 1 572 0
 1885 011c A281     		strh	r2, [r4, #12]	@ movhi
 1886              	.LVL198:
 1887              	.L81:
 1888 011e BDE8F081 		pop	{r4, r5, r6, r7, r8, pc}
 1889              	.L108:
 1890 0122 00BF     		.align	2
 1891              	.L107:
 1892 0124 00000240 		.word	1073872896
 1893 0128 00040240 		.word	1073873920
 1894              	.LBE619:
 1895              	.LBE618:
 1896              		.cfi_endproc
 1897              	.LFE97:
 1898              		.size	gdisp_lld_control, .-gdisp_lld_control
 1899              		.section	.text.gdisp_lld_init,"ax",%progbits
 1900              		.align	1
 1901              		.thumb
 1902              		.thumb_func
 1903              		.type	gdisp_lld_init, %function
 1904              	gdisp_lld_init:
 1905              	.LFB94:
 1906              		.loc 1 435 0
 1907              		.cfi_startproc
 1908              		@ args = 0, pretend = 0, frame = 0
 1909              		@ frame_needed = 1, uses_anonymous_args = 0
 1910              	.LVL199:
 1911 0000 B0B5     		push	{r4, r5, r7, lr}
 1912              	.LCFI34:
 1913              		.cfi_def_cfa_offset 16
 1914              		.cfi_offset 4, -16
 1915              		.cfi_offset 5, -12
 1916              		.cfi_offset 7, -8
 1917              		.cfi_offset 14, -4
 1918 0002 0446     		mov	r4, r0
 1919 0004 00AF     		add	r7, sp, #0
 1920              	.LCFI35:
 1921              		.cfi_def_cfa_register 7
 1922              		.loc 1 436 0
 1923 0006 41F60171 		movw	r1, #7937
 1924 000a 0020     		movs	r0, #0
 1925              	.LVL200:
 1926 000c FFF7FEFF 		bl	chHeapAlloc
 1927              	.LVL201:
 1928 0010 2546     		mov	r5, r4
 1929 0012 45F8140F 		str	r0, [r5, #20]!
 1930              	.LVL202:
 1931              		.loc 1 444 0
 1932 0016 FFF7FEFF 		bl	power_off.isra.27
 1933              	.LVL203:
 1934              		.loc 1 446 0
 1935 001a 2846     		mov	r0, r5
 1936 001c FFF7FEFF 		bl	clear_block_map.isra.15
 1937              	.LVL204:
 1938              		.loc 1 449 0
ARM GAS  /var/folders/_2/42wyrlld3p52fkcpt1lv6gxh0000gp/T//cc2cakaW.s 			page 35


 1939 0020 4FF48063 		mov	r3, #1024
 1940 0024 2381     		strh	r3, [r4, #8]	@ movhi
 1941              		.loc 1 450 0
 1942 0026 4FF44073 		mov	r3, #768
 1943 002a 6381     		strh	r3, [r4, #10]	@ movhi
 1944              		.loc 1 451 0
 1945 002c B423     		movs	r3, #180
 1946 002e A381     		strh	r3, [r4, #12]	@ movhi
 1947              		.loc 1 452 0
 1948 0030 0323     		movs	r3, #3
 1949 0032 A373     		strb	r3, [r4, #14]
 1950              		.loc 1 453 0
 1951 0034 6423     		movs	r3, #100
 1952 0036 E373     		strb	r3, [r4, #15]
 1953              		.loc 1 454 0
 1954 0038 2374     		strb	r3, [r4, #16]
 1955              		.loc 1 457 0
 1956 003a 0120     		movs	r0, #1
 1957 003c B0BD     		pop	{r4, r5, r7, pc}
 1958              		.cfi_endproc
 1959              	.LFE94:
 1960              		.size	gdisp_lld_init, .-gdisp_lld_init
 1961              		.global	GDISPVMT_ED060SC4
 1962              		.section	.rodata.GDISPVMT_ED060SC4,"a",%progbits
 1963              		.align	2
 1964              		.type	GDISPVMT_ED060SC4, %object
 1965              		.size	GDISPVMT_ED060SC4, 96
 1966              	GDISPVMT_ED060SC4:
 1967 0000 6700     		.short	103
 1968 0002 0000     		.short	0
 1969 0004 48000000 		.word	72
 1970 0008 00000000 		.word	_gdispInitDriver
 1971 000c 00000000 		.word	_gdispPostInitDriver
 1972 0010 00000000 		.word	_gdispDeInitDriver
 1973 0014 00000000 		.word	gdisp_lld_init
 1974 0018 00000000 		.word	0
 1975 001c 00000000 		.word	0
 1976 0020 00000000 		.word	0
 1977 0024 00000000 		.word	0
 1978 0028 00000000 		.word	0
 1979 002c 00000000 		.word	0
 1980 0030 00000000 		.word	0
 1981 0034 00000000 		.word	0
 1982 0038 00000000 		.word	gdisp_lld_draw_pixel
 1983 003c 00000000 		.word	gdisp_lld_clear
 1984 0040 00000000 		.word	0
 1985 0044 00000000 		.word	0
 1986 0048 00000000 		.word	0
 1987 004c 00000000 		.word	0
 1988 0050 00000000 		.word	gdisp_lld_control
 1989 0054 00000000 		.word	0
 1990 0058 00000000 		.word	0
 1991 005c 00000000 		.word	gdisp_lld_flush
 1992              		.text
 1993              	.Letext0:
 1994              		.file 3 "/Users/ARS/Applications/Eclipse.app/Contents/gcc-arm-none-eabi-5_3-2016q1/arm-none-eabi/i
 1995              		.file 4 "/Users/ARS/Applications/Eclipse.app/Contents/gcc-arm-none-eabi-5_3-2016q1/arm-none-eabi/i
ARM GAS  /var/folders/_2/42wyrlld3p52fkcpt1lv6gxh0000gp/T//cc2cakaW.s 			page 36


 1996              		.file 5 "chibios/os/ports/GCC/ARMCMx/chtypes.h"
 1997              		.file 6 "chibios/os/hal/platforms/STM32/GPIOv2/pal_lld.h"
 1998              		.file 7 "ugfx/src/gdisp/gdisp.h"
 1999              		.file 8 "ugfx/drivers/gdisp/ED060SC4/../../../src/gdisp/gdisp_driver.h"
 2000              		.file 9 "ugfx/src/gdisp/gdisp_colors.h"
 2001              		.file 10 "ugfx/drivers/gdisp/ED060SC4/../../../src/gdisp/../gdriver/gdriver.h"
 2002              		.file 11 "chibios/os/ports/common/ARMCMx/CMSIS/include/core_cm3.h"
 2003              		.file 12 "chibios/os/hal/include/hal.h"
 2004              		.file 13 "ugfx/src/gos/gos_chibios.h"
 2005              		.file 14 "chibios/os/kernel/include/chheap.h"