ARM GAS  /var/folders/_2/42wyrlld3p52fkcpt1lv6gxh0000gp/T//ccC803Ao.s 			page 1


   1              		.syntax unified
   2              		.cpu cortex-m3
   3              		.fpu softvfp
   4              		.eabi_attribute 20, 1
   5              		.eabi_attribute 21, 1
   6              		.eabi_attribute 23, 3
   7              		.eabi_attribute 24, 1
   8              		.eabi_attribute 25, 1
   9              		.eabi_attribute 26, 1
  10              		.eabi_attribute 30, 4
  11              		.eabi_attribute 34, 1
  12              		.eabi_attribute 18, 4
  13              		.thumb
  14              		.syntax unified
  15              		.file	"gdriver.c"
  16              		.text
  17              	.Ltext0:
  18              		.cfi_sections	.debug_frame
  19              		.section	.text._gdriverInit,"ax",%progbits
  20              		.align	1
  21              		.global	_gdriverInit
  22              		.thumb
  23              		.thumb_func
  24              		.type	_gdriverInit, %function
  25              	_gdriverInit:
  26              	.LFB65:
  27              		.file 1 "ugfx/src/gdriver/gdriver.c"
  28              		.loc 1 21 0
  29              		.cfi_startproc
  30              		@ args = 0, pretend = 0, frame = 0
  31              		@ frame_needed = 1, uses_anonymous_args = 0
  32 0000 80B5     		push	{r7, lr}
  33              	.LCFI0:
  34              		.cfi_def_cfa_offset 8
  35              		.cfi_offset 7, -8
  36              		.cfi_offset 14, -4
  37 0002 00AF     		add	r7, sp, #0
  38              	.LCFI1:
  39              		.cfi_def_cfa_register 7
  40 0004 80BD     		pop	{r7, pc}
  41              		.cfi_endproc
  42              	.LFE65:
  43              		.size	_gdriverInit, .-_gdriverInit
  44              		.section	.text.gdriverRegister,"ax",%progbits
  45              		.align	1
  46              		.global	gdriverRegister
  47              		.thumb
  48              		.thumb_func
  49              		.type	gdriverRegister, %function
  50              	gdriverRegister:
  51              	.LFB67:
  52              		.loc 1 31 0
  53              		.cfi_startproc
  54              		@ args = 0, pretend = 0, frame = 8
  55              		@ frame_needed = 1, uses_anonymous_args = 0
  56              	.LVL0:
  57              		.loc 1 31 0
ARM GAS  /var/folders/_2/42wyrlld3p52fkcpt1lv6gxh0000gp/T//ccC803Ao.s 			page 2


  58 0000 2DE9F04F 		push	{r4, r5, r6, r7, r8, r9, r10, fp, lr}
  59              	.LCFI2:
  60              		.cfi_def_cfa_offset 36
  61              		.cfi_offset 4, -36
  62              		.cfi_offset 5, -32
  63              		.cfi_offset 6, -28
  64              		.cfi_offset 7, -24
  65              		.cfi_offset 8, -20
  66              		.cfi_offset 9, -16
  67              		.cfi_offset 10, -12
  68              		.cfi_offset 11, -8
  69              		.cfi_offset 14, -4
  70 0004 83B0     		sub	sp, sp, #12
  71              	.LCFI3:
  72              		.cfi_def_cfa_offset 48
  73              		.loc 1 36 0
  74 0006 4FF00008 		mov	r8, #0
  75              		.loc 1 31 0
  76 000a 0646     		mov	r6, r0
  77 000c 8B46     		mov	fp, r1
  78              		.loc 1 36 0
  79 000e C146     		mov	r9, r8
  80              		.loc 1 37 0
  81 0010 1F4A     		ldr	r2, .L19
  82              		.loc 1 31 0
  83 0012 00AF     		add	r7, sp, #0
  84              	.LCFI4:
  85              		.cfi_def_cfa_register 7
  86              		.loc 1 37 0
  87 0014 1568     		ldr	r5, [r2]
  88              	.LVL1:
  89 0016 7A60     		str	r2, [r7, #4]
  90              	.LVL2:
  91              	.L3:
  92              		.loc 1 37 0 is_stmt 0 discriminator 1
  93 0018 65B1     		cbz	r5, .L18
  94              		.loc 1 38 0 is_stmt 1
  95 001a 6A68     		ldr	r2, [r5, #4]
  96              		.loc 1 37 0
  97 001c 2D68     		ldr	r5, [r5]
  98              	.LVL3:
  99              		.loc 1 38 0
 100 001e B242     		cmp	r2, r6
 101              		.loc 1 40 0
 102 0020 1188     		ldrh	r1, [r2]
 103 0022 3288     		ldrh	r2, [r6]
 104              		.loc 1 39 0
 105 0024 08BF     		it	eq
 106 0026 09F10109 		addeq	r9, r9, #1
 107              	.LVL4:
 108              		.loc 1 40 0
 109 002a 9142     		cmp	r1, r2
 110              		.loc 1 41 0
 111 002c 08BF     		it	eq
 112 002e 08F10108 		addeq	r8, r8, #1
 113              	.LVL5:
 114 0032 F1E7     		b	.L3
ARM GAS  /var/folders/_2/42wyrlld3p52fkcpt1lv6gxh0000gp/T//ccC803Ao.s 			page 3


 115              	.L18:
 116              		.loc 1 46 0
 117 0034 7168     		ldr	r1, [r6, #4]
 118 0036 2846     		mov	r0, r5
 119              	.LVL6:
 120 0038 FFF7FEFF 		bl	chHeapAlloc
 121              	.LVL7:
 122              		.loc 1 47 0
 123 003c 0446     		mov	r4, r0
 124 003e 10B3     		cbz	r0, .L11
 125              		.loc 1 49 0
 126 0040 7268     		ldr	r2, [r6, #4]
 127 0042 2946     		mov	r1, r5
 128 0044 FFF7FEFF 		bl	memset
 129              	.LVL8:
 130              		.loc 1 51 0
 131 0048 D6F808A0 		ldr	r10, [r6, #8]
 132              		.loc 1 50 0
 133 004c 6660     		str	r6, [r4, #4]
 134              		.loc 1 51 0
 135 004e BAF1000F 		cmp	r10, #0
 136 0052 09D0     		beq	.L8
 137              		.loc 1 51 0 is_stmt 0 discriminator 1
 138 0054 4346     		mov	r3, r8
 139 0056 4A46     		mov	r2, r9
 140 0058 5946     		mov	r1, fp
 141 005a 2046     		mov	r0, r4
 142 005c D047     		blx	r10
 143              	.LVL9:
 144 005e 18B9     		cbnz	r0, .L8
 145              		.loc 1 52 0 is_stmt 1
 146 0060 2046     		mov	r0, r4
 147 0062 FFF7FEFF 		bl	chHeapFree
 148              	.LVL10:
 149 0066 0EE0     		b	.L11
 150              	.L8:
 151              		.loc 1 57 0
 152 0068 7B68     		ldr	r3, [r7, #4]
 153 006a 1A68     		ldr	r2, [r3]
 154 006c 094B     		ldr	r3, .L19+4
 155 006e 0AB1     		cbz	r2, .L9
 156              		.loc 1 58 0
 157 0070 1A68     		ldr	r2, [r3]
 158 0072 00E0     		b	.L16
 159              	.L9:
 160              		.loc 1 60 0
 161 0074 064A     		ldr	r2, .L19
 162              	.L16:
 163 0076 1460     		str	r4, [r2]
 164              		.loc 1 61 0
 165 0078 1C60     		str	r4, [r3]
 166              		.loc 1 65 0
 167 007a F368     		ldr	r3, [r6, #12]
 168              		.loc 1 66 0
 169 007c 2046     		mov	r0, r4
 170              		.loc 1 65 0
 171 007e 1BB1     		cbz	r3, .L7
ARM GAS  /var/folders/_2/42wyrlld3p52fkcpt1lv6gxh0000gp/T//ccC803Ao.s 			page 4


 172              	.LVL11:
 173              		.loc 1 66 0
 174 0080 9847     		blx	r3
 175              	.LVL12:
 176 0082 2046     		mov	r0, r4
 177 0084 00E0     		b	.L7
 178              	.L11:
 179              		.loc 1 48 0
 180 0086 2846     		mov	r0, r5
 181              	.L7:
 182              		.loc 1 69 0
 183 0088 0C37     		adds	r7, r7, #12
 184              	.LCFI5:
 185              		.cfi_def_cfa_offset 36
 186 008a BD46     		mov	sp, r7
 187              	.LCFI6:
 188              		.cfi_def_cfa_register 13
 189              		@ sp needed
 190 008c BDE8F08F 		pop	{r4, r5, r6, r7, r8, r9, r10, fp, pc}
 191              	.LVL13:
 192              	.L20:
 193              		.align	2
 194              	.L19:
 195 0090 00000000 		.word	.LANCHOR0
 196 0094 00000000 		.word	.LANCHOR1
 197              		.cfi_endproc
 198              	.LFE67:
 199              		.size	gdriverRegister, .-gdriverRegister
 200              		.section	.text.gdriverUnRegister,"ax",%progbits
 201              		.align	1
 202              		.global	gdriverUnRegister
 203              		.thumb
 204              		.thumb_func
 205              		.type	gdriverUnRegister, %function
 206              	gdriverUnRegister:
 207              	.LFB68:
 208              		.loc 1 77 0
 209              		.cfi_startproc
 210              		@ args = 0, pretend = 0, frame = 0
 211              		@ frame_needed = 1, uses_anonymous_args = 0
 212              	.LVL14:
 213 0000 98B5     		push	{r3, r4, r7, lr}
 214              	.LCFI7:
 215              		.cfi_def_cfa_offset 16
 216              		.cfi_offset 3, -16
 217              		.cfi_offset 4, -12
 218              		.cfi_offset 7, -8
 219              		.cfi_offset 14, -4
 220              		.loc 1 81 0
 221 0002 0446     		mov	r4, r0
 222              		.loc 1 77 0
 223 0004 00AF     		add	r7, sp, #0
 224              	.LCFI8:
 225              		.cfi_def_cfa_register 7
 226              		.loc 1 81 0
 227 0006 D0B1     		cbz	r0, .L21
 228              		.loc 1 85 0
ARM GAS  /var/folders/_2/42wyrlld3p52fkcpt1lv6gxh0000gp/T//ccC803Ao.s 			page 5


 229 0008 0D4A     		ldr	r2, .L35
 230 000a 1368     		ldr	r3, [r2]
 231 000c 9842     		cmp	r0, r3
 232 000e 02D1     		bne	.L25
 233              		.loc 1 86 0
 234 0010 0368     		ldr	r3, [r0]
 235 0012 08E0     		b	.L34
 236              	.LVL15:
 237              	.L30:
 238 0014 1346     		mov	r3, r2
 239              	.LVL16:
 240              	.L25:
 241              		.loc 1 88 0 discriminator 1
 242 0016 1A68     		ldr	r2, [r3]
 243 0018 32B1     		cbz	r2, .L24
 244              		.loc 1 89 0
 245 001a 9442     		cmp	r4, r2
 246 001c FAD1     		bne	.L30
 247              		.loc 1 90 0
 248 001e 2268     		ldr	r2, [r4]
 249 0020 1A60     		str	r2, [r3]
 250              		.loc 1 91 0
 251 0022 0AB9     		cbnz	r2, .L24
 252              		.loc 1 92 0
 253 0024 074A     		ldr	r2, .L35+4
 254              	.LVL17:
 255              	.L34:
 256 0026 1360     		str	r3, [r2]
 257              	.L24:
 258              		.loc 1 99 0
 259 0028 6368     		ldr	r3, [r4, #4]
 260 002a 1B69     		ldr	r3, [r3, #16]
 261 002c 0BB1     		cbz	r3, .L29
 262              		.loc 1 100 0
 263 002e 2046     		mov	r0, r4
 264              	.LVL18:
 265 0030 9847     		blx	r3
 266              	.LVL19:
 267              	.L29:
 268              		.loc 1 103 0
 269 0032 2046     		mov	r0, r4
 270              		.loc 1 104 0
 271 0034 BD46     		mov	sp, r7
 272              	.LCFI9:
 273              		.cfi_remember_state
 274              		.cfi_def_cfa_register 13
 275              		@ sp needed
 276 0036 BDE89840 		pop	{r3, r4, r7, lr}
 277              	.LCFI10:
 278              		.cfi_restore 14
 279              		.cfi_restore 7
 280              		.cfi_restore 4
 281              		.cfi_restore 3
 282              		.cfi_def_cfa_offset 0
 283              	.LVL20:
 284              		.loc 1 103 0
 285 003a FFF7FEBF 		b	chHeapFree
ARM GAS  /var/folders/_2/42wyrlld3p52fkcpt1lv6gxh0000gp/T//ccC803Ao.s 			page 6


 286              	.LVL21:
 287              	.L21:
 288              	.LCFI11:
 289              		.cfi_restore_state
 290 003e 98BD     		pop	{r3, r4, r7, pc}
 291              	.L36:
 292              		.align	2
 293              	.L35:
 294 0040 00000000 		.word	.LANCHOR0
 295 0044 00000000 		.word	.LANCHOR1
 296              		.cfi_endproc
 297              	.LFE68:
 298              		.size	gdriverUnRegister, .-gdriverUnRegister
 299              		.section	.text._gdriverDeinit,"ax",%progbits
 300              		.align	1
 301              		.global	_gdriverDeinit
 302              		.thumb
 303              		.thumb_func
 304              		.type	_gdriverDeinit, %function
 305              	_gdriverDeinit:
 306              	.LFB66:
 307              		.loc 1 25 0
 308              		.cfi_startproc
 309              		@ args = 0, pretend = 0, frame = 0
 310              		@ frame_needed = 1, uses_anonymous_args = 0
 311 0000 98B5     		push	{r3, r4, r7, lr}
 312              	.LCFI12:
 313              		.cfi_def_cfa_offset 16
 314              		.cfi_offset 3, -16
 315              		.cfi_offset 4, -12
 316              		.cfi_offset 7, -8
 317              		.cfi_offset 14, -4
 318              		.loc 1 26 0
 319 0002 044C     		ldr	r4, .L41
 320              		.loc 1 25 0
 321 0004 00AF     		add	r7, sp, #0
 322              	.LCFI13:
 323              		.cfi_def_cfa_register 7
 324              	.L38:
 325              		.loc 1 26 0
 326 0006 2068     		ldr	r0, [r4]
 327 0008 10B1     		cbz	r0, .L40
 328              		.loc 1 27 0
 329 000a FFF7FEFF 		bl	gdriverUnRegister
 330              	.LVL22:
 331 000e FAE7     		b	.L38
 332              	.L40:
 333              		.loc 1 28 0
 334 0010 98BD     		pop	{r3, r4, r7, pc}
 335              	.L42:
 336 0012 00BF     		.align	2
 337              	.L41:
 338 0014 00000000 		.word	.LANCHOR0
 339              		.cfi_endproc
 340              	.LFE66:
 341              		.size	_gdriverDeinit, .-_gdriverDeinit
 342              		.section	.text.gdriverGetInstance,"ax",%progbits
ARM GAS  /var/folders/_2/42wyrlld3p52fkcpt1lv6gxh0000gp/T//ccC803Ao.s 			page 7


 343              		.align	1
 344              		.global	gdriverGetInstance
 345              		.thumb
 346              		.thumb_func
 347              		.type	gdriverGetInstance, %function
 348              	gdriverGetInstance:
 349              	.LFB69:
 350              		.loc 1 106 0
 351              		.cfi_startproc
 352              		@ args = 0, pretend = 0, frame = 0
 353              		@ frame_needed = 1, uses_anonymous_args = 0
 354              	.LVL23:
 355 0000 90B5     		push	{r4, r7, lr}
 356              	.LCFI14:
 357              		.cfi_def_cfa_offset 12
 358              		.cfi_offset 4, -12
 359              		.cfi_offset 7, -8
 360              		.cfi_offset 14, -4
 361              		.loc 1 112 0
 362 0002 084B     		ldr	r3, .L49
 363              		.loc 1 106 0
 364 0004 00AF     		add	r7, sp, #0
 365              	.LCFI15:
 366              		.cfi_def_cfa_register 7
 367              		.loc 1 112 0
 368 0006 1B68     		ldr	r3, [r3]
 369              	.LVL24:
 370              		.loc 1 111 0
 371 0008 0022     		movs	r2, #0
 372              	.LVL25:
 373              	.L44:
 374              		.loc 1 112 0 discriminator 1
 375 000a 43B1     		cbz	r3, .L46
 376              		.loc 1 113 0
 377 000c 5C68     		ldr	r4, [r3, #4]
 378 000e 2488     		ldrh	r4, [r4]
 379 0010 8442     		cmp	r4, r0
 380 0012 02D1     		bne	.L45
 381              		.loc 1 114 0
 382 0014 8A42     		cmp	r2, r1
 383 0016 02D0     		beq	.L46
 384              		.loc 1 116 0
 385 0018 0132     		adds	r2, r2, #1
 386              	.LVL26:
 387              	.L45:
 388              		.loc 1 112 0 discriminator 2
 389 001a 1B68     		ldr	r3, [r3]
 390              	.LVL27:
 391 001c F5E7     		b	.L44
 392              	.L46:
 393              		.loc 1 120 0
 394 001e 1846     		mov	r0, r3
 395              	.LVL28:
 396 0020 90BD     		pop	{r4, r7, pc}
 397              	.L50:
 398 0022 00BF     		.align	2
 399              	.L49:
ARM GAS  /var/folders/_2/42wyrlld3p52fkcpt1lv6gxh0000gp/T//ccC803Ao.s 			page 8


 400 0024 00000000 		.word	.LANCHOR0
 401              		.cfi_endproc
 402              	.LFE69:
 403              		.size	gdriverGetInstance, .-gdriverGetInstance
 404              		.section	.text.gdriverInstanceCount,"ax",%progbits
 405              		.align	1
 406              		.global	gdriverInstanceCount
 407              		.thumb
 408              		.thumb_func
 409              		.type	gdriverInstanceCount, %function
 410              	gdriverInstanceCount:
 411              	.LFB70:
 412              		.loc 1 122 0
 413              		.cfi_startproc
 414              		@ args = 0, pretend = 0, frame = 0
 415              		@ frame_needed = 1, uses_anonymous_args = 0
 416              	.LVL29:
 417 0000 80B5     		push	{r7, lr}
 418              	.LCFI16:
 419              		.cfi_def_cfa_offset 8
 420              		.cfi_offset 7, -8
 421              		.cfi_offset 14, -4
 422              		.loc 1 128 0
 423 0002 074B     		ldr	r3, .L56
 424              		.loc 1 122 0
 425 0004 00AF     		add	r7, sp, #0
 426              	.LCFI17:
 427              		.cfi_def_cfa_register 7
 428              		.loc 1 128 0
 429 0006 1B68     		ldr	r3, [r3]
 430              	.LVL30:
 431              		.loc 1 127 0
 432 0008 0022     		movs	r2, #0
 433              	.LVL31:
 434              	.L52:
 435              		.loc 1 128 0 discriminator 1
 436 000a 33B1     		cbz	r3, .L55
 437              		.loc 1 129 0
 438 000c 5968     		ldr	r1, [r3, #4]
 439              		.loc 1 128 0
 440 000e 1B68     		ldr	r3, [r3]
 441              	.LVL32:
 442              		.loc 1 129 0
 443 0010 0988     		ldrh	r1, [r1]
 444 0012 8142     		cmp	r1, r0
 445              		.loc 1 130 0
 446 0014 08BF     		it	eq
 447 0016 0132     		addeq	r2, r2, #1
 448              	.LVL33:
 449 0018 F7E7     		b	.L52
 450              	.L55:
 451              		.loc 1 133 0
 452 001a 1046     		mov	r0, r2
 453              	.LVL34:
 454 001c 80BD     		pop	{r7, pc}
 455              	.L57:
 456 001e 00BF     		.align	2
ARM GAS  /var/folders/_2/42wyrlld3p52fkcpt1lv6gxh0000gp/T//ccC803Ao.s 			page 9


 457              	.L56:
 458 0020 00000000 		.word	.LANCHOR0
 459              		.cfi_endproc
 460              	.LFE70:
 461              		.size	gdriverInstanceCount, .-gdriverInstanceCount
 462              		.section	.text.gdriverGetNext,"ax",%progbits
 463              		.align	1
 464              		.global	gdriverGetNext
 465              		.thumb
 466              		.thumb_func
 467              		.type	gdriverGetNext, %function
 468              	gdriverGetNext:
 469              	.LFB71:
 470              		.loc 1 135 0
 471              		.cfi_startproc
 472              		@ args = 0, pretend = 0, frame = 0
 473              		@ frame_needed = 1, uses_anonymous_args = 0
 474              	.LVL35:
 475 0000 80B5     		push	{r7, lr}
 476              	.LCFI18:
 477              		.cfi_def_cfa_offset 8
 478              		.cfi_offset 7, -8
 479              		.cfi_offset 14, -4
 480 0002 00AF     		add	r7, sp, #0
 481              	.LCFI19:
 482              		.cfi_def_cfa_register 7
 483              		.loc 1 136 0
 484 0004 09B1     		cbz	r1, .L59
 485              		.loc 1 136 0 is_stmt 0 discriminator 1
 486 0006 0B68     		ldr	r3, [r1]
 487 0008 01E0     		b	.L61
 488              	.L59:
 489              		.loc 1 136 0 discriminator 2
 490 000a 044B     		ldr	r3, .L67
 491              	.LVL36:
 492              	.L63:
 493              		.loc 1 139 0 is_stmt 1
 494 000c 1B68     		ldr	r3, [r3]
 495              	.LVL37:
 496              	.L61:
 497              		.loc 1 138 0
 498 000e 1BB1     		cbz	r3, .L62
 499              		.loc 1 138 0 is_stmt 0 discriminator 1
 500 0010 5A68     		ldr	r2, [r3, #4]
 501 0012 1288     		ldrh	r2, [r2]
 502 0014 8242     		cmp	r2, r0
 503 0016 F9D1     		bne	.L63
 504              	.L62:
 505              		.loc 1 142 0 is_stmt 1
 506 0018 1846     		mov	r0, r3
 507              	.LVL38:
 508 001a 80BD     		pop	{r7, pc}
 509              	.L68:
 510              		.align	2
 511              	.L67:
 512 001c 00000000 		.word	.LANCHOR0
 513              		.cfi_endproc
ARM GAS  /var/folders/_2/42wyrlld3p52fkcpt1lv6gxh0000gp/T//ccC803Ao.s 			page 10


 514              	.LFE71:
 515              		.size	gdriverGetNext, .-gdriverGetNext
 516              		.section	.text.gdriverGetDriverInstanceNumber,"ax",%progbits
 517              		.align	1
 518              		.global	gdriverGetDriverInstanceNumber
 519              		.thumb
 520              		.thumb_func
 521              		.type	gdriverGetDriverInstanceNumber, %function
 522              	gdriverGetDriverInstanceNumber:
 523              	.LFB72:
 524              		.loc 1 144 0
 525              		.cfi_startproc
 526              		@ args = 0, pretend = 0, frame = 0
 527              		@ frame_needed = 1, uses_anonymous_args = 0
 528              	.LVL39:
 529 0000 90B5     		push	{r4, r7, lr}
 530              	.LCFI20:
 531              		.cfi_def_cfa_offset 12
 532              		.cfi_offset 4, -12
 533              		.cfi_offset 7, -8
 534              		.cfi_offset 14, -4
 535              		.loc 1 150 0
 536 0002 0A4B     		ldr	r3, .L76
 537              		.loc 1 144 0
 538 0004 00AF     		add	r7, sp, #0
 539              	.LCFI21:
 540              		.cfi_def_cfa_register 7
 541              		.loc 1 150 0
 542 0006 1A68     		ldr	r2, [r3]
 543              	.LVL40:
 544              		.loc 1 149 0
 545 0008 0023     		movs	r3, #0
 546              	.LVL41:
 547              	.L70:
 548              		.loc 1 150 0 discriminator 1
 549 000a 52B1     		cbz	r2, .L75
 550              		.loc 1 151 0
 551 000c 8242     		cmp	r2, r0
 552 000e 0BD0     		beq	.L74
 553              		.loc 1 153 0
 554 0010 5468     		ldr	r4, [r2, #4]
 555 0012 4168     		ldr	r1, [r0, #4]
 556 0014 2488     		ldrh	r4, [r4]
 557 0016 0988     		ldrh	r1, [r1]
 558              		.loc 1 150 0
 559 0018 1268     		ldr	r2, [r2]
 560              	.LVL42:
 561              		.loc 1 153 0
 562 001a 8C42     		cmp	r4, r1
 563              		.loc 1 154 0
 564 001c 08BF     		it	eq
 565 001e 0133     		addeq	r3, r3, #1
 566              	.LVL43:
 567 0020 F3E7     		b	.L70
 568              	.L75:
 569              		.loc 1 156 0
 570 0022 4FF0FF30 		mov	r0, #-1
ARM GAS  /var/folders/_2/42wyrlld3p52fkcpt1lv6gxh0000gp/T//ccC803Ao.s 			page 11


 571              	.LVL44:
 572 0026 90BD     		pop	{r4, r7, pc}
 573              	.LVL45:
 574              	.L74:
 575 0028 1846     		mov	r0, r3
 576              	.LVL46:
 577              		.loc 1 157 0
 578 002a 90BD     		pop	{r4, r7, pc}
 579              	.L77:
 580              		.align	2
 581              	.L76:
 582 002c 00000000 		.word	.LANCHOR0
 583              		.cfi_endproc
 584              	.LFE72:
 585              		.size	gdriverGetDriverInstanceNumber, .-gdriverGetDriverInstanceNumber
 586              		.section	.bss.dtail,"aw",%nobits
 587              		.align	2
 588              		.set	.LANCHOR1,. + 0
 589              		.type	dtail, %object
 590              		.size	dtail, 4
 591              	dtail:
 592 0000 00000000 		.space	4
 593              		.section	.bss.dhead,"aw",%nobits
 594              		.align	2
 595              		.set	.LANCHOR0,. + 0
 596              		.type	dhead, %object
 597              		.size	dhead, 4
 598              	dhead:
 599 0000 00000000 		.space	4
 600              		.text
 601              	.Letext0:
 602              		.file 2 "/Users/ARS/Applications/Eclipse.app/Contents/gcc-arm-none-eabi-5_3-2016q1/arm-none-eabi/i
 603              		.file 3 "/Users/ARS/Applications/Eclipse.app/Contents/gcc-arm-none-eabi-5_3-2016q1/arm-none-eabi/i
 604              		.file 4 "chibios/os/ports/GCC/ARMCMx/chtypes.h"
 605              		.file 5 "ugfx/src/gdriver/gdriver.h"
 606              		.file 6 "chibios/os/kernel/include/chheap.h"
 607              		.file 7 "chibios/os/ports/common/ARMCMx/CMSIS/include/core_cm3.h"