ARM GAS  /var/folders/_2/42wyrlld3p52fkcpt1lv6gxh0000gp/T//ccVciG7z.s 			page 1


   1              		.syntax unified
   2              		.cpu cortex-m3
   3              		.fpu softvfp
   4              		.eabi_attribute 20, 1
   5              		.eabi_attribute 21, 1
   6              		.eabi_attribute 23, 3
   7              		.eabi_attribute 24, 1
   8              		.eabi_attribute 25, 1
   9              		.eabi_attribute 26, 1
  10              		.eabi_attribute 30, 4
  11              		.eabi_attribute 34, 1
  12              		.eabi_attribute 18, 4
  13              		.thumb
  14              		.syntax unified
  15              		.file	"gfx.c"
  16              		.text
  17              	.Ltext0:
  18              		.cfi_sections	.debug_frame
  19              		.section	.text.gfxInit,"ax",%progbits
  20              		.align	1
  21              		.global	gfxInit
  22              		.thumb
  23              		.thumb_func
  24              		.type	gfxInit, %function
  25              	gfxInit:
  26              	.LFB63:
  27              		.file 1 "ugfx/src/gfx.c"
  28              		.loc 1 82 0
  29              		.cfi_startproc
  30              		@ args = 0, pretend = 0, frame = 0
  31              		@ frame_needed = 1, uses_anonymous_args = 0
  32 0000 80B5     		push	{r7, lr}
  33              	.LCFI0:
  34              		.cfi_def_cfa_offset 8
  35              		.cfi_offset 7, -8
  36              		.cfi_offset 14, -4
  37              		.loc 1 85 0
  38 0002 084B     		ldr	r3, .L4
  39              		.loc 1 82 0
  40 0004 00AF     		add	r7, sp, #0
  41              	.LCFI1:
  42              		.cfi_def_cfa_register 7
  43              		.loc 1 85 0
  44 0006 1A78     		ldrb	r2, [r3]	@ zero_extendqisi2
  45 0008 52B9     		cbnz	r2, .L1
  46              		.loc 1 87 0
  47 000a 0122     		movs	r2, #1
  48 000c 1A70     		strb	r2, [r3]
  49              		.loc 1 94 0
  50 000e FFF7FEFF 		bl	_gosInit
  51              	.LVL0:
  52              		.loc 1 114 0
  53 0012 FFF7FEFF 		bl	_gdriverInit
  54              	.LVL1:
  55              		.loc 1 135 0
  56 0016 BD46     		mov	sp, r7
  57              	.LCFI2:
ARM GAS  /var/folders/_2/42wyrlld3p52fkcpt1lv6gxh0000gp/T//ccVciG7z.s 			page 2


  58              		.cfi_remember_state
  59              		.cfi_def_cfa_register 13
  60              		@ sp needed
  61 0018 BDE88040 		pop	{r7, lr}
  62              	.LCFI3:
  63              		.cfi_restore 14
  64              		.cfi_restore 7
  65              		.cfi_def_cfa_offset 0
  66              		.loc 1 120 0
  67 001c FFF7FEBF 		b	_gdispInit
  68              	.LVL2:
  69              	.L1:
  70              	.LCFI4:
  71              		.cfi_restore_state
  72 0020 80BD     		pop	{r7, pc}
  73              	.L5:
  74 0022 00BF     		.align	2
  75              	.L4:
  76 0024 00000000 		.word	.LANCHOR0
  77              		.cfi_endproc
  78              	.LFE63:
  79              		.size	gfxInit, .-gfxInit
  80              		.section	.text.gfxDeinit,"ax",%progbits
  81              		.align	1
  82              		.global	gfxDeinit
  83              		.thumb
  84              		.thumb_func
  85              		.type	gfxDeinit, %function
  86              	gfxDeinit:
  87              	.LFB64:
  88              		.loc 1 138 0
  89              		.cfi_startproc
  90              		@ args = 0, pretend = 0, frame = 0
  91              		@ frame_needed = 1, uses_anonymous_args = 0
  92 0000 80B5     		push	{r7, lr}
  93              	.LCFI5:
  94              		.cfi_def_cfa_offset 8
  95              		.cfi_offset 7, -8
  96              		.cfi_offset 14, -4
  97              		.loc 1 139 0
  98 0002 084B     		ldr	r3, .L8
  99              		.loc 1 138 0
 100 0004 00AF     		add	r7, sp, #0
 101              	.LCFI6:
 102              		.cfi_def_cfa_register 7
 103              		.loc 1 139 0
 104 0006 1A78     		ldrb	r2, [r3]	@ zero_extendqisi2
 105 0008 52B1     		cbz	r2, .L6
 106              		.loc 1 141 0
 107 000a 0022     		movs	r2, #0
 108 000c 1A70     		strb	r2, [r3]
 109              		.loc 1 157 0
 110 000e FFF7FEFF 		bl	_gdispDeinit
 111              	.LVL3:
 112              		.loc 1 163 0
 113 0012 FFF7FEFF 		bl	_gdriverDeinit
 114              	.LVL4:
ARM GAS  /var/folders/_2/42wyrlld3p52fkcpt1lv6gxh0000gp/T//ccVciG7z.s 			page 3


 115              		.loc 1 184 0
 116 0016 BD46     		mov	sp, r7
 117              	.LCFI7:
 118              		.cfi_remember_state
 119              		.cfi_def_cfa_register 13
 120              		@ sp needed
 121 0018 BDE88040 		pop	{r7, lr}
 122              	.LCFI8:
 123              		.cfi_restore 14
 124              		.cfi_restore 7
 125              		.cfi_def_cfa_offset 0
 126              		.loc 1 183 0
 127 001c FFF7FEBF 		b	_gosDeinit
 128              	.LVL5:
 129              	.L6:
 130              	.LCFI9:
 131              		.cfi_restore_state
 132 0020 80BD     		pop	{r7, pc}
 133              	.L9:
 134 0022 00BF     		.align	2
 135              	.L8:
 136 0024 00000000 		.word	.LANCHOR0
 137              		.cfi_endproc
 138              	.LFE64:
 139              		.size	gfxDeinit, .-gfxDeinit
 140              		.section	.bss.gfxInitDone,"aw",%nobits
 141              		.set	.LANCHOR0,. + 0
 142              		.type	gfxInitDone, %object
 143              		.size	gfxInitDone, 1
 144              	gfxInitDone:
 145 0000 00       		.space	1
 146              		.text
 147              	.Letext0:
 148              		.file 2 "/Users/ARS/Applications/Eclipse.app/Contents/gcc-arm-none-eabi-5_3-2016q1/arm-none-eabi/i
 149              		.file 3 "/Users/ARS/Applications/Eclipse.app/Contents/gcc-arm-none-eabi-5_3-2016q1/arm-none-eabi/i
 150              		.file 4 "chibios/os/ports/GCC/ARMCMx/chtypes.h"
 151              		.file 5 "chibios/os/ports/common/ARMCMx/CMSIS/include/core_cm3.h"