ARM GAS  /var/folders/_2/42wyrlld3p52fkcpt1lv6gxh0000gp/T//ccklod0u.s 			page 1


   1              		.syntax unified
   2              		.cpu cortex-m3
   3              		.fpu softvfp
   4              		.eabi_attribute 20, 1
   5              		.eabi_attribute 21, 1
   6              		.eabi_attribute 23, 3
   7              		.eabi_attribute 24, 1
   8              		.eabi_attribute 25, 1
   9              		.eabi_attribute 26, 1
  10              		.eabi_attribute 30, 4
  11              		.eabi_attribute 34, 1
  12              		.eabi_attribute 18, 4
  13              		.thumb
  14              		.syntax unified
  15              		.file	"gos_chibios.c"
  16              		.text
  17              	.Ltext0:
  18              		.cfi_sections	.debug_frame
  19              		.section	.text._gosInit,"ax",%progbits
  20              		.align	1
  21              		.global	_gosInit
  22              		.thumb
  23              		.thumb_func
  24              		.type	_gosInit, %function
  25              	_gosInit:
  26              	.LFB65:
  27              		.file 1 "ugfx/src/gos/gos_chibios.c"
  28              		.loc 1 37 0
  29              		.cfi_startproc
  30              		@ args = 0, pretend = 0, frame = 0
  31              		@ frame_needed = 1, uses_anonymous_args = 0
  32 0000 80B5     		push	{r7, lr}
  33              	.LCFI0:
  34              		.cfi_def_cfa_offset 8
  35              		.cfi_offset 7, -8
  36              		.cfi_offset 14, -4
  37              		.loc 1 41 0
  38 0002 064B     		ldr	r3, .L4
  39              		.loc 1 37 0
  40 0004 00AF     		add	r7, sp, #0
  41              	.LCFI1:
  42              		.cfi_def_cfa_register 7
  43              		.loc 1 41 0
  44 0006 9B69     		ldr	r3, [r3, #24]
  45 0008 33B9     		cbnz	r3, .L1
  46              		.loc 1 42 0
  47 000a FFF7FEFF 		bl	halInit
  48              	.LVL0:
  49              		.loc 1 54 0
  50 000e BD46     		mov	sp, r7
  51              	.LCFI2:
  52              		.cfi_remember_state
  53              		.cfi_def_cfa_register 13
  54              		@ sp needed
  55 0010 BDE88040 		pop	{r7, lr}
  56              	.LCFI3:
  57              		.cfi_restore 14
ARM GAS  /var/folders/_2/42wyrlld3p52fkcpt1lv6gxh0000gp/T//ccklod0u.s 			page 2


  58              		.cfi_restore 7
  59              		.cfi_def_cfa_offset 0
  60              		.loc 1 43 0
  61 0014 FFF7FEBF 		b	chSysInit
  62              	.LVL1:
  63              	.L1:
  64              	.LCFI4:
  65              		.cfi_restore_state
  66 0018 80BD     		pop	{r7, pc}
  67              	.L5:
  68 001a 00BF     		.align	2
  69              	.L4:
  70 001c 00000000 		.word	rlist
  71              		.cfi_endproc
  72              	.LFE65:
  73              		.size	_gosInit, .-_gosInit
  74              		.section	.text._gosDeinit,"ax",%progbits
  75              		.align	1
  76              		.global	_gosDeinit
  77              		.thumb
  78              		.thumb_func
  79              		.type	_gosDeinit, %function
  80              	_gosDeinit:
  81              	.LFB66:
  82              		.loc 1 57 0
  83              		.cfi_startproc
  84              		@ args = 0, pretend = 0, frame = 0
  85              		@ frame_needed = 1, uses_anonymous_args = 0
  86 0000 80B5     		push	{r7, lr}
  87              	.LCFI5:
  88              		.cfi_def_cfa_offset 8
  89              		.cfi_offset 7, -8
  90              		.cfi_offset 14, -4
  91 0002 00AF     		add	r7, sp, #0
  92              	.LCFI6:
  93              		.cfi_def_cfa_register 7
  94 0004 80BD     		pop	{r7, pc}
  95              		.cfi_endproc
  96              	.LFE66:
  97              		.size	_gosDeinit, .-_gosDeinit
  98              		.section	.text.gfxRealloc,"ax",%progbits
  99              		.align	1
 100              		.global	gfxRealloc
 101              		.thumb
 102              		.thumb_func
 103              		.type	gfxRealloc, %function
 104              	gfxRealloc:
 105              	.LFB67:
 106              		.loc 1 62 0
 107              		.cfi_startproc
 108              		@ args = 0, pretend = 0, frame = 0
 109              		@ frame_needed = 1, uses_anonymous_args = 0
 110              	.LVL2:
 111              		.loc 1 62 0
 112 0000 F8B5     		push	{r3, r4, r5, r6, r7, lr}
 113              	.LCFI7:
 114              		.cfi_def_cfa_offset 24
ARM GAS  /var/folders/_2/42wyrlld3p52fkcpt1lv6gxh0000gp/T//ccklod0u.s 			page 3


 115              		.cfi_offset 3, -24
 116              		.cfi_offset 4, -20
 117              		.cfi_offset 5, -16
 118              		.cfi_offset 6, -12
 119              		.cfi_offset 7, -8
 120              		.cfi_offset 14, -4
 121              		.loc 1 65 0
 122 0002 8A42     		cmp	r2, r1
 123              		.loc 1 62 0
 124 0004 00AF     		add	r7, sp, #0
 125              	.LCFI8:
 126              		.cfi_def_cfa_register 7
 127              		.loc 1 62 0
 128 0006 0646     		mov	r6, r0
 129 0008 0D46     		mov	r5, r1
 130              		.loc 1 65 0
 131 000a 0BD9     		bls	.L9
 132              		.loc 1 68 0
 133 000c 1146     		mov	r1, r2
 134              	.LVL3:
 135 000e 0020     		movs	r0, #0
 136              	.LVL4:
 137 0010 FFF7FEFF 		bl	chHeapAlloc
 138              	.LVL5:
 139              		.loc 1 69 0
 140 0014 0446     		mov	r4, r0
 141 0016 30B1     		cbz	r0, .L11
 142              		.loc 1 72 0
 143 0018 2DB1     		cbz	r5, .L11
 144              		.loc 1 73 0
 145 001a 2A46     		mov	r2, r5
 146 001c 3146     		mov	r1, r6
 147 001e FFF7FEFF 		bl	memcpy
 148              	.LVL6:
 149 0022 00E0     		b	.L11
 150              	.LVL7:
 151              	.L9:
 152 0024 F8BD     		pop	{r3, r4, r5, r6, r7, pc}
 153              	.LVL8:
 154              	.L11:
 155 0026 2046     		mov	r0, r4
 156              		.loc 1 76 0
 157 0028 F8BD     		pop	{r3, r4, r5, r6, r7, pc}
 158              		.cfi_endproc
 159              	.LFE67:
 160              		.size	gfxRealloc, .-gfxRealloc
 161              		.section	.text.gfxSleepMilliseconds,"ax",%progbits
 162              		.align	1
 163              		.global	gfxSleepMilliseconds
 164              		.thumb
 165              		.thumb_func
 166              		.type	gfxSleepMilliseconds, %function
 167              	gfxSleepMilliseconds:
 168              	.LFB68:
 169              		.loc 1 79 0
 170              		.cfi_startproc
 171              		@ args = 0, pretend = 0, frame = 0
ARM GAS  /var/folders/_2/42wyrlld3p52fkcpt1lv6gxh0000gp/T//ccklod0u.s 			page 4


 172              		@ frame_needed = 1, uses_anonymous_args = 0
 173              		@ link register save eliminated.
 174              	.LVL9:
 175 0000 80B4     		push	{r7}
 176              	.LCFI9:
 177              		.cfi_def_cfa_offset 4
 178              		.cfi_offset 7, -4
 179              		.loc 1 80 0
 180 0002 0346     		mov	r3, r0
 181              		.loc 1 79 0
 182 0004 00AF     		add	r7, sp, #0
 183              	.LCFI10:
 184              		.cfi_def_cfa_register 7
 185              		.loc 1 80 0
 186 0006 48B1     		cbz	r0, .L14
 187 0008 421C     		adds	r2, r0, #1
 188 000a 0BD0     		beq	.L17
 189              		.loc 1 83 0
 190 000c 4FF47A70 		mov	r0, #1000
 191              	.LVL10:
 192 0010 4343     		muls	r3, r0, r3
 193              	.LVL11:
 194 0012 013B     		subs	r3, r3, #1
 195 0014 B3FBF0F0 		udiv	r0, r3, r0
 196 0018 0130     		adds	r0, r0, #1
 197 001a 03E0     		b	.L17
 198              	.LVL12:
 199              	.L14:
 200              		.loc 1 85 0
 201 001c BD46     		mov	sp, r7
 202              	.LCFI11:
 203              		.cfi_remember_state
 204              		.cfi_def_cfa_register 13
 205              		@ sp needed
 206 001e 80BC     		pop	{r7}
 207              	.LCFI12:
 208              		.cfi_restore 7
 209              		.cfi_def_cfa_offset 0
 210              		.loc 1 81 0
 211 0020 FFF7FEBF 		b	chThdYield
 212              	.LVL13:
 213              	.L17:
 214              	.LCFI13:
 215              		.cfi_restore_state
 216              		.loc 1 85 0
 217 0024 BD46     		mov	sp, r7
 218              	.LCFI14:
 219              		.cfi_def_cfa_register 13
 220              		@ sp needed
 221 0026 80BC     		pop	{r7}
 222              	.LCFI15:
 223              		.cfi_restore 7
 224              		.cfi_def_cfa_offset 0
 225              		.loc 1 83 0
 226 0028 FFF7FEBF 		b	chThdSleep
 227              	.LVL14:
 228              		.cfi_endproc
ARM GAS  /var/folders/_2/42wyrlld3p52fkcpt1lv6gxh0000gp/T//ccklod0u.s 			page 5


 229              	.LFE68:
 230              		.size	gfxSleepMilliseconds, .-gfxSleepMilliseconds
 231              		.section	.text.gfxSleepMicroseconds,"ax",%progbits
 232              		.align	1
 233              		.global	gfxSleepMicroseconds
 234              		.thumb
 235              		.thumb_func
 236              		.type	gfxSleepMicroseconds, %function
 237              	gfxSleepMicroseconds:
 238              	.LFB69:
 239              		.loc 1 88 0
 240              		.cfi_startproc
 241              		@ args = 0, pretend = 0, frame = 0
 242              		@ frame_needed = 1, uses_anonymous_args = 0
 243              		@ link register save eliminated.
 244              	.LVL15:
 245 0000 80B4     		push	{r7}
 246              	.LCFI16:
 247              		.cfi_def_cfa_offset 4
 248              		.cfi_offset 7, -4
 249              		.loc 1 89 0
 250 0002 0346     		mov	r3, r0
 251              		.loc 1 88 0
 252 0004 00AF     		add	r7, sp, #0
 253              	.LCFI17:
 254              		.cfi_def_cfa_register 7
 255              		.loc 1 89 0
 256 0006 78B1     		cbz	r0, .L18
 257 0008 421C     		adds	r2, r0, #1
 258              		.loc 1 92 0
 259 000a 1FBF     		itttt	ne
 260 000c 4FF47A70 		movne	r0, #1000
 261              	.LVL16:
 262 0010 5843     		mulne	r0, r0, r3
 263 0012 074B     		ldrne	r3, .L24
 264              	.LVL17:
 265 0014 00F1FF30 		addne	r0, r0, #-1
 266 0018 1CBF     		itt	ne
 267 001a B0FBF3F0 		udivne	r0, r0, r3
 268 001e 0130     		addne	r0, r0, #1
 269              		.loc 1 94 0
 270 0020 BD46     		mov	sp, r7
 271              	.LCFI18:
 272              		.cfi_remember_state
 273              		.cfi_def_cfa_register 13
 274              		@ sp needed
 275 0022 80BC     		pop	{r7}
 276              	.LCFI19:
 277              		.cfi_restore 7
 278              		.cfi_def_cfa_offset 0
 279              		.loc 1 92 0
 280 0024 FFF7FEBF 		b	chThdSleep
 281              	.LVL18:
 282              	.L18:
 283              	.LCFI20:
 284              		.cfi_restore_state
 285              		.loc 1 94 0
ARM GAS  /var/folders/_2/42wyrlld3p52fkcpt1lv6gxh0000gp/T//ccklod0u.s 			page 6


 286 0028 BD46     		mov	sp, r7
 287              	.LCFI21:
 288              		.cfi_def_cfa_register 13
 289              		@ sp needed
 290 002a 80BC     		pop	{r7}
 291              	.LCFI22:
 292              		.cfi_restore 7
 293              		.cfi_def_cfa_offset 0
 294 002c 7047     		bx	lr
 295              	.L25:
 296 002e 00BF     		.align	2
 297              	.L24:
 298 0030 40420F00 		.word	1000000
 299              		.cfi_endproc
 300              	.LFE69:
 301              		.size	gfxSleepMicroseconds, .-gfxSleepMicroseconds
 302              		.section	.text.gfxSemInit,"ax",%progbits
 303              		.align	1
 304              		.global	gfxSemInit
 305              		.thumb
 306              		.thumb_func
 307              		.type	gfxSemInit, %function
 308              	gfxSemInit:
 309              	.LFB70:
 310              		.loc 1 97 0
 311              		.cfi_startproc
 312              		@ args = 0, pretend = 0, frame = 0
 313              		@ frame_needed = 1, uses_anonymous_args = 0
 314              		@ link register save eliminated.
 315              	.LVL19:
 316              		.loc 1 104 0
 317 0000 9142     		cmp	r1, r2
 318 0002 A8BF     		it	ge
 319 0004 1146     		movge	r1, r2
 320              	.LVL20:
 321              		.loc 1 97 0
 322 0006 80B4     		push	{r7}
 323              	.LCFI23:
 324              		.cfi_def_cfa_offset 4
 325              		.cfi_offset 7, -4
 326 0008 00AF     		add	r7, sp, #0
 327              	.LCFI24:
 328              		.cfi_def_cfa_register 7
 329              		.loc 1 101 0
 330 000a C260     		str	r2, [r0, #12]
 331              		.loc 1 108 0
 332 000c BD46     		mov	sp, r7
 333              	.LCFI25:
 334              		.cfi_def_cfa_register 13
 335              		@ sp needed
 336 000e 80BC     		pop	{r7}
 337              	.LCFI26:
 338              		.cfi_restore 7
 339              		.cfi_def_cfa_offset 0
 340              		.loc 1 104 0
 341 0010 FFF7FEBF 		b	chSemInit
 342              	.LVL21:
ARM GAS  /var/folders/_2/42wyrlld3p52fkcpt1lv6gxh0000gp/T//ccklod0u.s 			page 7


 343              		.cfi_endproc
 344              	.LFE70:
 345              		.size	gfxSemInit, .-gfxSemInit
 346              		.section	.text.gfxSemDestroy,"ax",%progbits
 347              		.align	1
 348              		.global	gfxSemDestroy
 349              		.thumb
 350              		.thumb_func
 351              		.type	gfxSemDestroy, %function
 352              	gfxSemDestroy:
 353              	.LFB71:
 354              		.loc 1 111 0
 355              		.cfi_startproc
 356              		@ args = 0, pretend = 0, frame = 0
 357              		@ frame_needed = 1, uses_anonymous_args = 0
 358              		@ link register save eliminated.
 359              	.LVL22:
 360 0000 80B4     		push	{r7}
 361              	.LCFI27:
 362              		.cfi_def_cfa_offset 4
 363              		.cfi_offset 7, -4
 364              		.loc 1 112 0
 365 0002 0121     		movs	r1, #1
 366              		.loc 1 111 0
 367 0004 00AF     		add	r7, sp, #0
 368              	.LCFI28:
 369              		.cfi_def_cfa_register 7
 370              		.loc 1 113 0
 371 0006 BD46     		mov	sp, r7
 372              	.LCFI29:
 373              		.cfi_def_cfa_register 13
 374              		@ sp needed
 375 0008 80BC     		pop	{r7}
 376              	.LCFI30:
 377              		.cfi_restore 7
 378              		.cfi_def_cfa_offset 0
 379              		.loc 1 112 0
 380 000a FFF7FEBF 		b	chSemReset
 381              	.LVL23:
 382              		.cfi_endproc
 383              	.LFE71:
 384              		.size	gfxSemDestroy, .-gfxSemDestroy
 385              		.section	.text.gfxSemWait,"ax",%progbits
 386              		.align	1
 387              		.global	gfxSemWait
 388              		.thumb
 389              		.thumb_func
 390              		.type	gfxSemWait, %function
 391              	gfxSemWait:
 392              	.LFB72:
 393              		.loc 1 116 0
 394              		.cfi_startproc
 395              		@ args = 0, pretend = 0, frame = 0
 396              		@ frame_needed = 1, uses_anonymous_args = 0
 397              	.LVL24:
 398 0000 80B5     		push	{r7, lr}
 399              	.LCFI31:
ARM GAS  /var/folders/_2/42wyrlld3p52fkcpt1lv6gxh0000gp/T//ccklod0u.s 			page 8


 400              		.cfi_def_cfa_offset 8
 401              		.cfi_offset 7, -8
 402              		.cfi_offset 14, -4
 403              		.loc 1 118 0
 404 0002 0B46     		mov	r3, r1
 405              		.loc 1 116 0
 406 0004 00AF     		add	r7, sp, #0
 407              	.LCFI32:
 408              		.cfi_def_cfa_register 7
 409              		.loc 1 118 0
 410 0006 61B1     		cbz	r1, .L34
 411 0008 4A1C     		adds	r2, r1, #1
 412 000a 03D1     		bne	.L35
 413              		.loc 1 120 0
 414 000c FFF7FEFF 		bl	chSemWait
 415              	.LVL25:
 416 0010 0120     		movs	r0, #1
 417 0012 80BD     		pop	{r7, pc}
 418              	.LVL26:
 419              	.L35:
 420              		.loc 1 121 0
 421 0014 4FF47A71 		mov	r1, #1000
 422              	.LVL27:
 423 0018 4B43     		muls	r3, r1, r3
 424              	.LVL28:
 425 001a 013B     		subs	r3, r3, #1
 426 001c B3FBF1F1 		udiv	r1, r3, r1
 427 0020 0131     		adds	r1, r1, #1
 428              	.LVL29:
 429              	.L34:
 430 0022 FFF7FEFF 		bl	chSemWaitTimeout
 431              	.LVL30:
 432 0026 0130     		adds	r0, r0, #1
 433 0028 18BF     		it	ne
 434 002a 0120     		movne	r0, #1
 435              		.loc 1 130 0
 436 002c 80BD     		pop	{r7, pc}
 437              		.cfi_endproc
 438              	.LFE72:
 439              		.size	gfxSemWait, .-gfxSemWait
 440              		.section	.text.gfxSemWaitI,"ax",%progbits
 441              		.align	1
 442              		.global	gfxSemWaitI
 443              		.thumb
 444              		.thumb_func
 445              		.type	gfxSemWaitI, %function
 446              	gfxSemWaitI:
 447              	.LFB73:
 448              		.loc 1 133 0
 449              		.cfi_startproc
 450              		@ args = 0, pretend = 0, frame = 0
 451              		@ frame_needed = 1, uses_anonymous_args = 0
 452              	.LVL31:
 453 0000 80B5     		push	{r7, lr}
 454              	.LCFI33:
 455              		.cfi_def_cfa_offset 8
 456              		.cfi_offset 7, -8
ARM GAS  /var/folders/_2/42wyrlld3p52fkcpt1lv6gxh0000gp/T//ccklod0u.s 			page 9


 457              		.cfi_offset 14, -4
 458              		.loc 1 134 0
 459 0002 8368     		ldr	r3, [r0, #8]
 460              		.loc 1 133 0
 461 0004 00AF     		add	r7, sp, #0
 462              	.LCFI34:
 463              		.cfi_def_cfa_register 7
 464              		.loc 1 134 0
 465 0006 002B     		cmp	r3, #0
 466              		.loc 1 136 0
 467 0008 C3BF     		ittte	gt
 468 000a 03F1FF33 		addgt	r3, r3, #-1
 469 000e 8360     		strgt	r3, [r0, #8]
 470              		.loc 1 137 0
 471 0010 0120     		movgt	r0, #1
 472              	.LVL32:
 473              		.loc 1 135 0
 474 0012 0020     		movle	r0, #0
 475              		.loc 1 138 0
 476 0014 80BD     		pop	{r7, pc}
 477              		.cfi_endproc
 478              	.LFE73:
 479              		.size	gfxSemWaitI, .-gfxSemWaitI
 480              		.section	.text.gfxSemSignal,"ax",%progbits
 481              		.align	1
 482              		.global	gfxSemSignal
 483              		.thumb
 484              		.thumb_func
 485              		.type	gfxSemSignal, %function
 486              	gfxSemSignal:
 487              	.LFB74:
 488              		.loc 1 141 0
 489              		.cfi_startproc
 490              		@ args = 0, pretend = 0, frame = 0
 491              		@ frame_needed = 1, uses_anonymous_args = 0
 492              	.LVL33:
 493 0000 80B5     		push	{r7, lr}
 494              	.LCFI35:
 495              		.cfi_def_cfa_offset 8
 496              		.cfi_offset 7, -8
 497              		.cfi_offset 14, -4
 498              	.LBB2:
 499              		.loc 1 142 0
 500 0002 2023     		movs	r3, #32
 501              	.LBE2:
 502              		.loc 1 141 0
 503 0004 00AF     		add	r7, sp, #0
 504              	.LCFI36:
 505              		.cfi_def_cfa_register 7
 506              	.LBB3:
 507              		.loc 1 142 0
 508              		.syntax unified
 509              	@ 142 "ugfx/src/gos/gos_chibios.c" 1
 510 0006 83F31188 		msr     BASEPRI, r3
 511              	@ 0 "" 2
 512              		.thumb
 513              		.syntax unified
ARM GAS  /var/folders/_2/42wyrlld3p52fkcpt1lv6gxh0000gp/T//ccklod0u.s 			page 10


 514              	.LBE3:
 515              		.loc 1 144 0
 516 000a 8168     		ldr	r1, [r0, #8]
 517 000c C368     		ldr	r3, [r0, #12]
 518 000e 9942     		cmp	r1, r3
 519 0010 01DA     		bge	.L40
 520              		.loc 1 145 0
 521 0012 FFF7FEFF 		bl	chSemSignalI
 522              	.LVL34:
 523              	.L40:
 524              		.loc 1 147 0
 525 0016 FFF7FEFF 		bl	chSchRescheduleS
 526              	.LVL35:
 527              	.LBB4:
 528              		.loc 1 148 0
 529 001a 0023     		movs	r3, #0
 530              		.syntax unified
 531              	@ 148 "ugfx/src/gos/gos_chibios.c" 1
 532 001c 83F31188 		msr     BASEPRI, r3
 533              	@ 0 "" 2
 534              		.thumb
 535              		.syntax unified
 536 0020 80BD     		pop	{r7, pc}
 537              	.LBE4:
 538              		.cfi_endproc
 539              	.LFE74:
 540              		.size	gfxSemSignal, .-gfxSemSignal
 541              		.section	.text.gfxSemSignalI,"ax",%progbits
 542              		.align	1
 543              		.global	gfxSemSignalI
 544              		.thumb
 545              		.thumb_func
 546              		.type	gfxSemSignalI, %function
 547              	gfxSemSignalI:
 548              	.LFB75:
 549              		.loc 1 152 0
 550              		.cfi_startproc
 551              		@ args = 0, pretend = 0, frame = 0
 552              		@ frame_needed = 1, uses_anonymous_args = 0
 553              		@ link register save eliminated.
 554              	.LVL36:
 555 0000 80B4     		push	{r7}
 556              	.LCFI37:
 557              		.cfi_def_cfa_offset 4
 558              		.cfi_offset 7, -4
 559              		.loc 1 153 0
 560 0002 8268     		ldr	r2, [r0, #8]
 561 0004 C368     		ldr	r3, [r0, #12]
 562              		.loc 1 152 0
 563 0006 00AF     		add	r7, sp, #0
 564              	.LCFI38:
 565              		.cfi_def_cfa_register 7
 566              		.loc 1 153 0
 567 0008 9A42     		cmp	r2, r3
 568 000a 03DA     		bge	.L41
 569              		.loc 1 155 0
 570 000c BD46     		mov	sp, r7
ARM GAS  /var/folders/_2/42wyrlld3p52fkcpt1lv6gxh0000gp/T//ccklod0u.s 			page 11


 571              	.LCFI39:
 572              		.cfi_remember_state
 573              		.cfi_def_cfa_register 13
 574              		@ sp needed
 575 000e 80BC     		pop	{r7}
 576              	.LCFI40:
 577              		.cfi_restore 7
 578              		.cfi_def_cfa_offset 0
 579              		.loc 1 154 0
 580 0010 FFF7FEBF 		b	chSemSignalI
 581              	.LVL37:
 582              	.L41:
 583              	.LCFI41:
 584              		.cfi_restore_state
 585              		.loc 1 155 0
 586 0014 BD46     		mov	sp, r7
 587              	.LCFI42:
 588              		.cfi_def_cfa_register 13
 589              		@ sp needed
 590 0016 80BC     		pop	{r7}
 591              	.LCFI43:
 592              		.cfi_restore 7
 593              		.cfi_def_cfa_offset 0
 594 0018 7047     		bx	lr
 595              		.cfi_endproc
 596              	.LFE75:
 597              		.size	gfxSemSignalI, .-gfxSemSignalI
 598              		.section	.text.gfxThreadCreate,"ax",%progbits
 599              		.align	1
 600              		.global	gfxThreadCreate
 601              		.thumb
 602              		.thumb_func
 603              		.type	gfxThreadCreate, %function
 604              	gfxThreadCreate:
 605              	.LFB76:
 606              		.loc 1 158 0
 607              		.cfi_startproc
 608              		@ args = 4, pretend = 0, frame = 0
 609              		@ frame_needed = 1, uses_anonymous_args = 0
 610              		@ link register save eliminated.
 611              	.LVL38:
 612 0000 B0B4     		push	{r4, r5, r7}
 613              	.LCFI44:
 614              		.cfi_def_cfa_offset 12
 615              		.cfi_offset 4, -12
 616              		.cfi_offset 5, -8
 617              		.cfi_offset 7, -4
 618 0002 00AF     		add	r7, sp, #0
 619              	.LCFI45:
 620              		.cfi_def_cfa_register 7
 621              		.loc 1 158 0
 622 0004 FD68     		ldr	r5, [r7, #12]
 623              		.loc 1 159 0
 624 0006 38B9     		cbnz	r0, .L44
 625              	.LBB5:
 626              		.loc 1 160 0
 627 0008 0029     		cmp	r1, #0
ARM GAS  /var/folders/_2/42wyrlld3p52fkcpt1lv6gxh0000gp/T//ccklod0u.s 			page 12


 628              	.LVL39:
 629              		.loc 1 161 0
 630 000a 08BF     		it	eq
 631 000c 4FF48071 		moveq	r1, #256
 632              	.LVL40:
 633              	.LBE5:
 634              		.loc 1 168 0
 635 0010 BD46     		mov	sp, r7
 636              	.LCFI46:
 637              		.cfi_remember_state
 638              		.cfi_def_cfa_register 13
 639              		@ sp needed
 640 0012 B0BC     		pop	{r4, r5, r7}
 641              	.LCFI47:
 642              		.cfi_restore 7
 643              		.cfi_restore 5
 644              		.cfi_restore 4
 645              		.cfi_def_cfa_offset 0
 646              	.LBB6:
 647              		.loc 1 161 0
 648 0014 FFF7FEBF 		b	chThdCreateFromHeap
 649              	.LVL41:
 650              	.L44:
 651              	.LCFI48:
 652              		.cfi_restore_state
 653              	.LBE6:
 654              		.loc 1 164 0
 655 0018 21B1     		cbz	r1, .L46
 656              		.loc 1 167 0
 657 001a FD60     		str	r5, [r7, #12]
 658              		.loc 1 168 0
 659 001c BD46     		mov	sp, r7
 660              	.LCFI49:
 661              		.cfi_remember_state
 662              		.cfi_def_cfa_register 13
 663              		@ sp needed
 664 001e B0BC     		pop	{r4, r5, r7}
 665              	.LCFI50:
 666              		.cfi_restore 7
 667              		.cfi_restore 5
 668              		.cfi_restore 4
 669              		.cfi_def_cfa_offset 0
 670              		.loc 1 167 0
 671 0020 FFF7FEBF 		b	chThdCreateStatic
 672              	.LVL42:
 673              	.L46:
 674              	.LCFI51:
 675              		.cfi_restore_state
 676              		.loc 1 168 0
 677 0024 0846     		mov	r0, r1
 678              	.LVL43:
 679 0026 BD46     		mov	sp, r7
 680              	.LCFI52:
 681              		.cfi_def_cfa_register 13
 682              		@ sp needed
 683 0028 B0BC     		pop	{r4, r5, r7}
 684              	.LCFI53:
ARM GAS  /var/folders/_2/42wyrlld3p52fkcpt1lv6gxh0000gp/T//ccklod0u.s 			page 13


 685              		.cfi_restore 7
 686              		.cfi_restore 5
 687              		.cfi_restore 4
 688              		.cfi_def_cfa_offset 0
 689 002a 7047     		bx	lr
 690              		.cfi_endproc
 691              	.LFE76:
 692              		.size	gfxThreadCreate, .-gfxThreadCreate
 693              		.text
 694              	.Letext0:
 695              		.file 2 "/Users/ARS/Applications/Eclipse.app/Contents/gcc-arm-none-eabi-5_3-2016q1/lib/gcc/arm-non
 696              		.file 3 "/Users/ARS/Applications/Eclipse.app/Contents/gcc-arm-none-eabi-5_3-2016q1/arm-none-eabi/i
 697              		.file 4 "/Users/ARS/Applications/Eclipse.app/Contents/gcc-arm-none-eabi-5_3-2016q1/arm-none-eabi/i
 698              		.file 5 "chibios/os/ports/GCC/ARMCMx/chtypes.h"
 699              		.file 6 "chibios/os/kernel/include/chlists.h"
 700              		.file 7 "chibios/os/kernel/include/chthreads.h"
 701              		.file 8 "chibios/os/ports/GCC/ARMCMx/chcore_v7m.h"
 702              		.file 9 "chibios/os/kernel/include/chschd.h"
 703              		.file 10 "chibios/os/kernel/include/chsem.h"
 704              		.file 11 "chibios/os/kernel/include/chmtx.h"
 705              		.file 12 "ugfx/src/gos/../../src/gos/gos_chibios.h"
 706              		.file 13 "chibios/os/ports/common/ARMCMx/CMSIS/include/core_cm3.h"
 707              		.file 14 "chibios/os/hal/include/hal.h"
 708              		.file 15 "chibios/os/kernel/include/chsys.h"
 709              		.file 16 "chibios/os/kernel/include/chheap.h"