ARM GAS  /var/folders/_2/42wyrlld3p52fkcpt1lv6gxh0000gp/T//cccRJwoQ.s 			page 1


   1              		.syntax unified
   2              		.cpu cortex-m3
   3              		.fpu softvfp
   4              		.eabi_attribute 20, 1
   5              		.eabi_attribute 21, 1
   6              		.eabi_attribute 23, 3
   7              		.eabi_attribute 24, 1
   8              		.eabi_attribute 25, 1
   9              		.eabi_attribute 26, 1
  10              		.eabi_attribute 30, 4
  11              		.eabi_attribute 34, 1
  12              		.eabi_attribute 18, 4
  13              		.thumb
  14              		.syntax unified
  15              		.file	"hal.c"
  16              		.text
  17              	.Ltext0:
  18              		.cfi_sections	.debug_frame
  19              		.section	.text.halInit,"ax",%progbits
  20              		.align	1
  21              		.global	halInit
  22              		.thumb
  23              		.thumb_func
  24              		.type	halInit, %function
  25              	halInit:
  26              	.LFB63:
  27              		.file 1 "chibios/os/hal/src/hal.c"
  28              		.loc 1 68 0
  29              		.cfi_startproc
  30              		@ args = 0, pretend = 0, frame = 0
  31              		@ frame_needed = 1, uses_anonymous_args = 0
  32 0000 80B5     		push	{r7, lr}
  33              	.LCFI0:
  34              		.cfi_def_cfa_offset 8
  35              		.cfi_offset 7, -8
  36              		.cfi_offset 14, -4
  37 0002 00AF     		add	r7, sp, #0
  38              	.LCFI1:
  39              		.cfi_def_cfa_register 7
  40              		.loc 1 70 0
  41 0004 FFF7FEFF 		bl	hal_lld_init
  42              	.LVL0:
  43              		.loc 1 76 0
  44 0008 0848     		ldr	r0, .L2
  45 000a FFF7FEFF 		bl	_pal_lld_init
  46              	.LVL1:
  47              		.loc 1 79 0
  48 000e FFF7FEFF 		bl	adcInit
  49              	.LVL2:
  50              		.loc 1 85 0
  51 0012 FFF7FEFF 		bl	extInit
  52              	.LVL3:
  53              		.loc 1 103 0
  54 0016 FFF7FEFF 		bl	sdInit
  55              	.LVL4:
  56              		.loc 1 115 0
  57 001a FFF7FEFF 		bl	usbInit
ARM GAS  /var/folders/_2/42wyrlld3p52fkcpt1lv6gxh0000gp/T//cccRJwoQ.s 			page 2


  58              	.LVL5:
  59              		.loc 1 121 0
  60 001e FFF7FEFF 		bl	sduInit
  61              	.LVL6:
  62              		.loc 1 128 0
  63 0022 BD46     		mov	sp, r7
  64              	.LCFI2:
  65              		.cfi_def_cfa_register 13
  66              		@ sp needed
  67 0024 BDE88040 		pop	{r7, lr}
  68              	.LCFI3:
  69              		.cfi_restore 14
  70              		.cfi_restore 7
  71              		.cfi_def_cfa_offset 0
  72              		.loc 1 127 0
  73 0028 FFF7FEBF 		b	boardInit
  74              	.LVL7:
  75              	.L3:
  76              		.align	2
  77              	.L2:
  78 002c 00000000 		.word	pal_default_config
  79              		.cfi_endproc
  80              	.LFE63:
  81              		.size	halInit, .-halInit
  82              		.section	.text.halIsCounterWithin,"ax",%progbits
  83              		.align	1
  84              		.global	halIsCounterWithin
  85              		.thumb
  86              		.thumb_func
  87              		.type	halIsCounterWithin, %function
  88              	halIsCounterWithin:
  89              	.LFB64:
  90              		.loc 1 174 0
  91              		.cfi_startproc
  92              		@ args = 0, pretend = 0, frame = 0
  93              		@ frame_needed = 1, uses_anonymous_args = 0
  94              	.LVL8:
  95 0000 80B5     		push	{r7, lr}
  96              	.LCFI4:
  97              		.cfi_def_cfa_offset 8
  98              		.cfi_offset 7, -8
  99              		.cfi_offset 14, -4
 100              		.loc 1 175 0
 101 0002 094B     		ldr	r3, .L13
 102              		.loc 1 177 0
 103 0004 8142     		cmp	r1, r0
 104              		.loc 1 174 0
 105 0006 00AF     		add	r7, sp, #0
 106              	.LCFI5:
 107              		.cfi_def_cfa_register 7
 108              		.loc 1 175 0
 109 0008 5B68     		ldr	r3, [r3, #4]
 110              	.LVL9:
 111              		.loc 1 177 0
 112 000a 03D9     		bls	.L5
 113              		.loc 1 177 0 is_stmt 0 discriminator 1
 114 000c 8342     		cmp	r3, r0
ARM GAS  /var/folders/_2/42wyrlld3p52fkcpt1lv6gxh0000gp/T//cccRJwoQ.s 			page 3


 115 000e 03D2     		bcs	.L11
 116              		.loc 1 177 0
 117 0010 0020     		movs	r0, #0
 118              	.LVL10:
 119 0012 80BD     		pop	{r7, pc}
 120              	.LVL11:
 121              	.L5:
 122              		.loc 1 178 0 is_stmt 1
 123 0014 8342     		cmp	r3, r0
 124 0016 04D2     		bcs	.L10
 125              	.L11:
 126              		.loc 1 178 0 is_stmt 0 discriminator 2
 127 0018 8B42     		cmp	r3, r1
 128 001a 2CBF     		ite	cs
 129 001c 0020     		movcs	r0, #0
 130              	.LVL12:
 131 001e 0120     		movcc	r0, #1
 132 0020 80BD     		pop	{r7, pc}
 133              	.LVL13:
 134              	.L10:
 135              		.loc 1 178 0
 136 0022 0120     		movs	r0, #1
 137              	.LVL14:
 138              		.loc 1 179 0 is_stmt 1
 139 0024 80BD     		pop	{r7, pc}
 140              	.L14:
 141 0026 00BF     		.align	2
 142              	.L13:
 143 0028 001000E0 		.word	-536866816
 144              		.cfi_endproc
 145              	.LFE64:
 146              		.size	halIsCounterWithin, .-halIsCounterWithin
 147              		.section	.text.halPolledDelay,"ax",%progbits
 148              		.align	1
 149              		.global	halPolledDelay
 150              		.thumb
 151              		.thumb_func
 152              		.type	halPolledDelay, %function
 153              	halPolledDelay:
 154              	.LFB65:
 155              		.loc 1 193 0
 156              		.cfi_startproc
 157              		@ args = 0, pretend = 0, frame = 0
 158              		@ frame_needed = 1, uses_anonymous_args = 0
 159              	.LVL15:
 160 0000 98B5     		push	{r3, r4, r7, lr}
 161              	.LCFI6:
 162              		.cfi_def_cfa_offset 16
 163              		.cfi_offset 3, -16
 164              		.cfi_offset 4, -12
 165              		.cfi_offset 7, -8
 166              		.cfi_offset 14, -4
 167              		.loc 1 194 0
 168 0002 054B     		ldr	r3, .L18
 169              		.loc 1 193 0
 170 0004 00AF     		add	r7, sp, #0
 171              	.LCFI7:
ARM GAS  /var/folders/_2/42wyrlld3p52fkcpt1lv6gxh0000gp/T//cccRJwoQ.s 			page 4


 172              		.cfi_def_cfa_register 7
 173              		.loc 1 194 0
 174 0006 5A68     		ldr	r2, [r3, #4]
 175              	.LVL16:
 176              		.loc 1 195 0
 177 0008 1418     		adds	r4, r2, r0
 178              	.LVL17:
 179              	.L16:
 180              		.loc 1 196 0 discriminator 1
 181 000a 2146     		mov	r1, r4
 182 000c 1046     		mov	r0, r2
 183 000e FFF7FEFF 		bl	halIsCounterWithin
 184              	.LVL18:
 185 0012 0028     		cmp	r0, #0
 186 0014 F9D1     		bne	.L16
 187              		.loc 1 198 0
 188 0016 98BD     		pop	{r3, r4, r7, pc}
 189              	.LVL19:
 190              	.L19:
 191              		.align	2
 192              	.L18:
 193 0018 001000E0 		.word	-536866816
 194              		.cfi_endproc
 195              	.LFE65:
 196              		.size	halPolledDelay, .-halPolledDelay
 197              		.text
 198              	.Letext0:
 199              		.file 2 "/Users/ARS/Applications/Eclipse.app/Contents/gcc-arm-none-eabi-5_3-2016q1/arm-none-eabi/i
 200              		.file 3 "/Users/ARS/Applications/Eclipse.app/Contents/gcc-arm-none-eabi-5_3-2016q1/arm-none-eabi/i
 201              		.file 4 "chibios/os/ports/GCC/ARMCMx/chtypes.h"
 202              		.file 5 "chibios/os/ports/common/ARMCMx/nvic.h"
 203              		.file 6 "chibios/os/hal/platforms/STM32L1xx/hal_lld.h"
 204              		.file 7 "chibios/os/hal/platforms/STM32/GPIOv2/pal_lld.h"
 205              		.file 8 "chibios/os/ports/common/ARMCMx/CMSIS/include/core_cm3.h"
 206              		.file 9 "chibios/os/hal/include/adc.h"
 207              		.file 10 "chibios/os/hal/include/ext.h"
 208              		.file 11 "chibios/os/hal/include/serial.h"
 209              		.file 12 "chibios/os/hal/include/usb.h"
 210              		.file 13 "chibios/os/hal/include/serial_usb.h"
 211              		.file 14 "src/board.h"