ARM GAS  /var/folders/_2/42wyrlld3p52fkcpt1lv6gxh0000gp/T//cc2mv1E9.s 			page 1


   1              		.syntax unified
   2              		.cpu cortex-m3
   3              		.fpu softvfp
   4              		.eabi_attribute 20, 1
   5              		.eabi_attribute 21, 1
   6              		.eabi_attribute 23, 3
   7              		.eabi_attribute 24, 1
   8              		.eabi_attribute 25, 1
   9              		.eabi_attribute 26, 1
  10              		.eabi_attribute 30, 4
  11              		.eabi_attribute 34, 1
  12              		.eabi_attribute 18, 4
  13              		.thumb
  14              		.syntax unified
  15              		.file	"hal_lld.c"
  16              		.text
  17              	.Ltext0:
  18              		.cfi_sections	.debug_frame
  19              		.section	.text.hal_lld_init,"ax",%progbits
  20              		.align	1
  21              		.global	hal_lld_init
  22              		.thumb
  23              		.thumb_func
  24              		.type	hal_lld_init, %function
  25              	hal_lld_init:
  26              	.LFB64:
  27              		.file 1 "chibios/os/hal/platforms/STM32L1xx/hal_lld.c"
  28              		.loc 1 94 0
  29              		.cfi_startproc
  30              		@ args = 0, pretend = 0, frame = 0
  31              		@ frame_needed = 1, uses_anonymous_args = 0
  32              		@ link register save eliminated.
  33              		.loc 1 102 0
  34 0000 43F67F60 		movw	r0, #15999
  35              		.loc 1 97 0
  36 0004 294B     		ldr	r3, .L11
  37              		.loc 1 94 0
  38 0006 80B4     		push	{r7}
  39              	.LCFI0:
  40              		.cfi_def_cfa_offset 4
  41              		.cfi_offset 7, -4
  42              		.loc 1 97 0
  43 0008 1A69     		ldr	r2, [r3, #16]
  44              		.loc 1 94 0
  45 000a 00AF     		add	r7, sp, #0
  46              	.LCFI1:
  47              		.cfi_def_cfa_register 7
  48              		.loc 1 97 0
  49 000c 62F40042 		orn	r2, r2, #32768
  50 0010 1A61     		str	r2, [r3, #16]
  51 0012 0022     		movs	r2, #0
  52 0014 1A61     		str	r2, [r3, #16]
  53              		.loc 1 98 0
  54 0016 9969     		ldr	r1, [r3, #24]
  55 0018 61F08051 		orn	r1, r1, #268435456
  56 001c 9961     		str	r1, [r3, #24]
  57 001e 9A61     		str	r2, [r3, #24]
ARM GAS  /var/folders/_2/42wyrlld3p52fkcpt1lv6gxh0000gp/T//cc2mv1E9.s 			page 2


  58              		.loc 1 99 0
  59 0020 5969     		ldr	r1, [r3, #20]
  60 0022 4FF0FF31 		mov	r1, #-1
  61 0026 5961     		str	r1, [r3, #20]
  62              		.loc 1 102 0
  63 0028 2149     		ldr	r1, .L11+4
  64              		.loc 1 99 0
  65 002a 5A61     		str	r2, [r3, #20]
  66              		.loc 1 102 0
  67 002c 4860     		str	r0, [r1, #4]
  68              		.loc 1 103 0
  69 002e 8A60     		str	r2, [r1, #8]
  70              		.loc 1 104 0
  71 0030 0722     		movs	r2, #7
  72 0032 0A60     		str	r2, [r1]
  73              		.loc 1 109 0
  74 0034 D1F8EC2D 		ldr	r2, [r1, #3564]
  75 0038 42F08072 		orr	r2, r2, #16777216
  76 003c C1F8EC2D 		str	r2, [r1, #3564]
  77              		.loc 1 110 0
  78 0040 1C49     		ldr	r1, .L11+8
  79 0042 0A68     		ldr	r2, [r1]
  80 0044 42F00102 		orr	r2, r2, #1
  81 0048 0A60     		str	r2, [r1]
  82              		.loc 1 113 0
  83 004a 5A6A     		ldr	r2, [r3, #36]
  84              	.LBB4:
  85              	.LBB5:
  86              		.loc 1 52 0
  87 004c 01F16021 		add	r1, r1, #1610637312
  88              	.LBE5:
  89              	.LBE4:
  90              		.loc 1 113 0
  91 0050 42F08052 		orr	r2, r2, #268435456
  92 0054 5A62     		str	r2, [r3, #36]
  93              	.LBB7:
  94              	.LBB6:
  95              		.loc 1 52 0
  96 0056 0A68     		ldr	r2, [r1]
  97 0058 42F48072 		orr	r2, r2, #256
  98 005c 0A60     		str	r2, [r1]
  99              		.loc 1 55 0
 100 005e 5A6B     		ldr	r2, [r3, #52]
 101 0060 02F44032 		and	r2, r2, #196608
 102 0064 B2F5803F 		cmp	r2, #65536
 103 0068 07D0     		beq	.L2
 104              		.loc 1 57 0
 105 006a 5A6B     		ldr	r2, [r3, #52]
 106 006c 42F40002 		orr	r2, r2, #8388608
 107 0070 5A63     		str	r2, [r3, #52]
 108              		.loc 1 58 0
 109 0072 5A6B     		ldr	r2, [r3, #52]
 110 0074 22F40002 		bic	r2, r2, #8388608
 111 0078 5A63     		str	r2, [r3, #52]
 112              	.L2:
 113              		.loc 1 63 0
 114 007a 5A6B     		ldr	r2, [r3, #52]
ARM GAS  /var/folders/_2/42wyrlld3p52fkcpt1lv6gxh0000gp/T//cc2mv1E9.s 			page 3


 115              		.loc 1 64 0
 116 007c 0B49     		ldr	r1, .L11
 117              		.loc 1 63 0
 118 007e 42F48072 		orr	r2, r2, #256
 119 0082 5A63     		str	r2, [r3, #52]
 120              	.L3:
 121              		.loc 1 64 0
 122 0084 4A6B     		ldr	r2, [r1, #52]
 123 0086 094B     		ldr	r3, .L11
 124 0088 9005     		lsls	r0, r2, #22
 125 008a FBD5     		bpl	.L3
 126              		.loc 1 71 0
 127 008c 5A6B     		ldr	r2, [r3, #52]
 128 008e 5202     		lsls	r2, r2, #9
 129 0090 07D4     		bmi	.L4
 130              		.loc 1 73 0
 131 0092 5A6B     		ldr	r2, [r3, #52]
 132 0094 42F48032 		orr	r2, r2, #65536
 133 0098 5A63     		str	r2, [r3, #52]
 134              		.loc 1 76 0
 135 009a 5A6B     		ldr	r2, [r3, #52]
 136 009c 42F48002 		orr	r2, r2, #4194304
 137 00a0 5A63     		str	r2, [r3, #52]
 138              	.L4:
 139              	.LBE6:
 140              	.LBE7:
 141              		.loc 1 126 0
 142 00a2 BD46     		mov	sp, r7
 143              	.LCFI2:
 144              		.cfi_def_cfa_register 13
 145              		@ sp needed
 146 00a4 80BC     		pop	{r7}
 147              	.LCFI3:
 148              		.cfi_restore 7
 149              		.cfi_def_cfa_offset 0
 150              		.loc 1 119 0
 151 00a6 FFF7FEBF 		b	dmaInit
 152              	.LVL0:
 153              	.L12:
 154 00aa 00BF     		.align	2
 155              	.L11:
 156 00ac 00380240 		.word	1073887232
 157 00b0 10E000E0 		.word	-536813552
 158 00b4 001000E0 		.word	-536866816
 159              		.cfi_endproc
 160              	.LFE64:
 161              		.size	hal_lld_init, .-hal_lld_init
 162              		.section	.text.stm32_clock_init,"ax",%progbits
 163              		.align	1
 164              		.global	stm32_clock_init
 165              		.thumb
 166              		.thumb_func
 167              		.type	stm32_clock_init, %function
 168              	stm32_clock_init:
 169              	.LFB65:
 170              		.loc 1 139 0
 171              		.cfi_startproc
ARM GAS  /var/folders/_2/42wyrlld3p52fkcpt1lv6gxh0000gp/T//cc2mv1E9.s 			page 4


 172              		@ args = 0, pretend = 0, frame = 0
 173              		@ frame_needed = 1, uses_anonymous_args = 0
 174 0000 80B5     		push	{r7, lr}
 175              	.LCFI4:
 176              		.cfi_def_cfa_offset 8
 177              		.cfi_offset 7, -8
 178              		.cfi_offset 14, -4
 179              		.loc 1 143 0
 180 0002 374B     		ldr	r3, .L33
 181 0004 4FF08052 		mov	r2, #268435456
 182 0008 5A62     		str	r2, [r3, #36]
 183              		.loc 1 146 0
 184 000a 364A     		ldr	r2, .L33+4
 185              		.loc 1 139 0
 186 000c 00AF     		add	r7, sp, #0
 187              	.LCFI5:
 188              		.cfi_def_cfa_register 7
 189              	.L14:
 190              		.loc 1 146 0 discriminator 1
 191 000e 5368     		ldr	r3, [r2, #4]
 192 0010 3449     		ldr	r1, .L33+4
 193 0012 13F0100F 		tst	r3, #16
 194 0016 FAD1     		bne	.L14
 195              		.loc 1 148 0
 196 0018 4FF40063 		mov	r3, #2048
 197 001c 0B60     		str	r3, [r1]
 198              	.L15:
 199              		.loc 1 149 0 discriminator 1
 200 001e 4B68     		ldr	r3, [r1, #4]
 201 0020 13F01002 		ands	r2, r3, #16
 202 0024 FBD1     		bne	.L15
 203              		.loc 1 155 0
 204 0026 2E4B     		ldr	r3, .L33
 205 0028 9A60     		str	r2, [r3, #8]
 206              		.loc 1 156 0
 207 002a 5A68     		ldr	r2, [r3, #4]
 208 002c 22F46042 		bic	r2, r2, #57344
 209 0030 42F44042 		orr	r2, r2, #49152
 210 0034 5A60     		str	r2, [r3, #4]
 211              		.loc 1 157 0
 212 0036 4FF08072 		mov	r2, #16777216
 213 003a 5A63     		str	r2, [r3, #52]
 214              		.loc 1 158 0
 215 003c 4FF48072 		mov	r2, #256
 216 0040 1A60     		str	r2, [r3]
 217              	.L16:
 218              		.loc 1 159 0 discriminator 1
 219 0042 1968     		ldr	r1, [r3]
 220 0044 264A     		ldr	r2, .L33
 221 0046 8905     		lsls	r1, r1, #22
 222 0048 FBD5     		bpl	.L16
 223              		.loc 1 164 0
 224 004a 1368     		ldr	r3, [r2]
 225 004c 43F00103 		orr	r3, r3, #1
 226 0050 1360     		str	r3, [r2]
 227              	.L17:
 228              		.loc 1 165 0 discriminator 1
ARM GAS  /var/folders/_2/42wyrlld3p52fkcpt1lv6gxh0000gp/T//cc2mv1E9.s 			page 5


 229 0052 1368     		ldr	r3, [r2]
 230 0054 2249     		ldr	r1, .L33
 231 0056 9B07     		lsls	r3, r3, #30
 232 0058 FBD5     		bpl	.L17
 233              		.loc 1 189 0
 234 005a 4B6B     		ldr	r3, [r1, #52]
 235 005c D805     		lsls	r0, r3, #23
 236 005e 0CD4     		bmi	.L18
 237              		.loc 1 190 0
 238 0060 204B     		ldr	r3, .L33+4
 239 0062 1A68     		ldr	r2, [r3]
 240 0064 42F48072 		orr	r2, r2, #256
 241 0068 1A60     		str	r2, [r3]
 242              		.loc 1 191 0
 243 006a 4A6B     		ldr	r2, [r1, #52]
 244 006c 42F48072 		orr	r2, r2, #256
 245 0070 4A63     		str	r2, [r1, #52]
 246              		.loc 1 192 0
 247 0072 1A68     		ldr	r2, [r3]
 248 0074 22F48072 		bic	r2, r2, #256
 249 0078 1A60     		str	r2, [r3]
 250              	.L18:
 251              		.loc 1 194 0 discriminator 1
 252 007a 1949     		ldr	r1, .L33
 253              	.L19:
 254 007c 4B6B     		ldr	r3, [r1, #52]
 255 007e 184A     		ldr	r2, .L33
 256 0080 13F4007F 		tst	r3, #512
 257 0084 FAD0     		beq	.L19
 258              		.loc 1 200 0
 259 0086 9368     		ldr	r3, [r2, #8]
 260 0088 43F40803 		orr	r3, r3, #8912896
 261 008c 9360     		str	r3, [r2, #8]
 262              		.loc 1 201 0
 263 008e 1368     		ldr	r3, [r2]
 264 0090 43F08073 		orr	r3, r3, #16777216
 265 0094 1360     		str	r3, [r2]
 266              	.L20:
 267              		.loc 1 202 0 discriminator 1
 268 0096 1168     		ldr	r1, [r2]
 269 0098 114B     		ldr	r3, .L33
 270 009a 8901     		lsls	r1, r1, #6
 271 009c FBD5     		bpl	.L20
 272              		.loc 1 207 0
 273 009e 1A68     		ldr	r2, [r3]
 274              		.loc 1 214 0
 275 00a0 0021     		movs	r1, #0
 276              		.loc 1 207 0
 277 00a2 1A60     		str	r2, [r3]
 278              		.loc 1 208 0
 279 00a4 9A68     		ldr	r2, [r3, #8]
 280 00a6 42F42252 		orr	r2, r2, #10368
 281 00aa 9A60     		str	r2, [r3, #8]
 282              		.loc 1 210 0
 283 00ac 5A6B     		ldr	r2, [r3, #52]
 284 00ae 42F48032 		orr	r2, r2, #65536
 285 00b2 5A63     		str	r2, [r3, #52]
ARM GAS  /var/folders/_2/42wyrlld3p52fkcpt1lv6gxh0000gp/T//cc2mv1E9.s 			page 6


 286              		.loc 1 214 0
 287 00b4 0C4A     		ldr	r2, .L33+8
 288 00b6 1160     		str	r1, [r2]
 289              		.loc 1 222 0
 290 00b8 9A68     		ldr	r2, [r3, #8]
 291 00ba 42F00302 		orr	r2, r2, #3
 292 00be 9A60     		str	r2, [r3, #8]
 293              	.L21:
 294              		.loc 1 223 0 discriminator 1
 295 00c0 9968     		ldr	r1, [r3, #8]
 296 00c2 074A     		ldr	r2, .L33
 297 00c4 01F00C01 		and	r1, r1, #12
 298 00c8 0C29     		cmp	r1, #12
 299 00ca F9D1     		bne	.L21
 300              		.loc 1 230 0
 301 00cc 136A     		ldr	r3, [r2, #32]
 302 00ce 43F00103 		orr	r3, r3, #1
 303 00d2 1362     		str	r3, [r2, #32]
 304 00d4 D36A     		ldr	r3, [r2, #44]
 305 00d6 43F00103 		orr	r3, r3, #1
 306 00da D362     		str	r3, [r2, #44]
 307 00dc 80BD     		pop	{r7, pc}
 308              	.L34:
 309 00de 00BF     		.align	2
 310              	.L33:
 311 00e0 00380240 		.word	1073887232
 312 00e4 00700040 		.word	1073770496
 313 00e8 003C0240 		.word	1073888256
 314              		.cfi_endproc
 315              	.LFE65:
 316              		.size	stm32_clock_init, .-stm32_clock_init
 317              		.text
 318              	.Letext0:
 319              		.file 2 "/Users/ARS/Applications/Eclipse.app/Contents/gcc-arm-none-eabi-5_3-2016q1/arm-none-eabi/i
 320              		.file 3 "/Users/ARS/Applications/Eclipse.app/Contents/gcc-arm-none-eabi-5_3-2016q1/arm-none-eabi/i
 321              		.file 4 "chibios/os/ports/common/ARMCMx/nvic.h"
 322              		.file 5 "chibios/os/ports/common/ARMCMx/CMSIS/include/core_cm3.h"
 323              		.file 6 "chibios/os/hal/platforms/STM32L1xx/stm32l1xx.h"
 324              		.file 7 "chibios/os/hal/platforms/STM32L1xx/stm32_dma.h"