ARM GAS  /var/folders/_2/42wyrlld3p52fkcpt1lv6gxh0000gp/T//ccQGe5JG.s 			page 1


   1              		.syntax unified
   2              		.cpu cortex-m3
   3              		.fpu softvfp
   4              		.eabi_attribute 20, 1
   5              		.eabi_attribute 21, 1
   6              		.eabi_attribute 23, 3
   7              		.eabi_attribute 24, 1
   8              		.eabi_attribute 25, 1
   9              		.eabi_attribute 26, 1
  10              		.eabi_attribute 30, 4
  11              		.eabi_attribute 34, 1
  12              		.eabi_attribute 18, 4
  13              		.thumb
  14              		.syntax unified
  15              		.file	"main_logic.c"
  16              		.text
  17              	.Ltext0:
  18              		.cfi_sections	.debug_frame
  19              		.section	.text.main_logic_init,"ax",%progbits
  20              		.align	1
  21              		.global	main_logic_init
  22              		.thumb
  23              		.thumb_func
  24              		.type	main_logic_init, %function
  25              	main_logic_init:
  26              	.LFB63:
  27              		.file 1 "src/main_logic.c"
  28              		.loc 1 14 0
  29              		.cfi_startproc
  30              		@ args = 0, pretend = 0, frame = 0
  31              		@ frame_needed = 1, uses_anonymous_args = 0
  32 0000 98B5     		push	{r3, r4, r7, lr}
  33              	.LCFI0:
  34              		.cfi_def_cfa_offset 16
  35              		.cfi_offset 3, -16
  36              		.cfi_offset 4, -12
  37              		.cfi_offset 7, -8
  38              		.cfi_offset 14, -4
  39              		.loc 1 18 0
  40 0002 0A4C     		ldr	r4, .L2
  41              		.loc 1 14 0
  42 0004 00AF     		add	r7, sp, #0
  43              	.LCFI1:
  44              		.cfi_def_cfa_register 7
  45              		.loc 1 15 0
  46 0006 FFF7FEFF 		bl	sensor_reset_timestamp
  47              	.LVL0:
  48              		.loc 1 16 0
  49 000a FFF7FEFF 		bl	display_clear
  50              	.LVL1:
  51              		.loc 1 17 0
  52 000e FFF7FEFF 		bl	display_update_temperature
  53              	.LVL2:
  54              		.loc 1 18 0
  55 0012 2068     		ldr	r0, [r4]
  56 0014 FFF7FEFF 		bl	display_set_alarm
  57              	.LVL3:
ARM GAS  /var/folders/_2/42wyrlld3p52fkcpt1lv6gxh0000gp/T//ccQGe5JG.s 			page 2


  58              		.loc 1 19 0
  59 0018 2368     		ldr	r3, [r4]
  60 001a 4FF47A70 		mov	r0, #1000
  61 001e 5843     		muls	r0, r3, r0
  62              		.loc 1 21 0
  63 0020 BD46     		mov	sp, r7
  64              	.LCFI2:
  65              		.cfi_def_cfa_register 13
  66              		@ sp needed
  67 0022 BDE89840 		pop	{r3, r4, r7, lr}
  68              	.LCFI3:
  69              		.cfi_restore 14
  70              		.cfi_restore 7
  71              		.cfi_restore 4
  72              		.cfi_restore 3
  73              		.cfi_def_cfa_offset 0
  74              		.loc 1 19 0
  75 0026 FFF7FEBF 		b	alarm_set_limit
  76              	.LVL4:
  77              	.L3:
  78 002a 00BF     		.align	2
  79              	.L2:
  80 002c 00000000 		.word	.LANCHOR0
  81              		.cfi_endproc
  82              	.LFE63:
  83              		.size	main_logic_init, .-main_logic_init
  84              		.section	.text.main_logic_step,"ax",%progbits
  85              		.align	1
  86              		.global	main_logic_step
  87              		.thumb
  88              		.thumb_func
  89              		.type	main_logic_step, %function
  90              	main_logic_step:
  91              	.LFB64:
  92              		.loc 1 24 0
  93              		.cfi_startproc
  94              		@ args = 0, pretend = 0, frame = 0
  95              		@ frame_needed = 1, uses_anonymous_args = 0
  96 0000 B0B5     		push	{r4, r5, r7, lr}
  97              	.LCFI4:
  98              		.cfi_def_cfa_offset 16
  99              		.cfi_offset 4, -16
 100              		.cfi_offset 5, -12
 101              		.cfi_offset 7, -8
 102              		.cfi_offset 14, -4
 103              		.loc 1 37 0
 104 0002 1F4D     		ldr	r5, .L19
 105              		.loc 1 24 0
 106 0004 00AF     		add	r7, sp, #0
 107              	.LCFI5:
 108              		.cfi_def_cfa_register 7
 109              	.L5:
 110              		.loc 1 29 0
 111 0006 FFF7FEFF 		bl	buttons_read_buffer
 112              	.LVL5:
 113              		.loc 1 31 0
 114 000a 0428     		cmp	r0, #4
ARM GAS  /var/folders/_2/42wyrlld3p52fkcpt1lv6gxh0000gp/T//ccQGe5JG.s 			page 3


 115              		.loc 1 29 0
 116 000c 0446     		mov	r4, r0
 117              	.LVL6:
 118              		.loc 1 31 0
 119 000e 02D1     		bne	.L6
 120              		.loc 1 33 0
 121 0010 2B68     		ldr	r3, [r5]
 122 0012 0133     		adds	r3, r3, #1
 123 0014 03E0     		b	.L16
 124              	.L6:
 125              		.loc 1 35 0
 126 0016 0828     		cmp	r0, #8
 127 0018 03D1     		bne	.L8
 128              		.loc 1 37 0
 129 001a 2B68     		ldr	r3, [r5]
 130 001c 013B     		subs	r3, r3, #1
 131              	.L16:
 132 001e 2B60     		str	r3, [r5]
 133 0020 F1E7     		b	.L5
 134              	.L8:
 135              		.loc 1 39 0
 136 0022 0228     		cmp	r0, #2
 137 0024 04D1     		bne	.L10
 138              		.loc 1 41 0
 139 0026 FFF7FEFF 		bl	sensor_reset_timestamp
 140              	.LVL7:
 141              		.loc 1 42 0
 142 002a FFF7FEFF 		bl	display_clear
 143              	.LVL8:
 144 002e EAE7     		b	.L5
 145              	.LVL9:
 146              	.L10:
 147              		.loc 1 44 0
 148 0030 0128     		cmp	r0, #1
 149 0032 02D1     		bne	.L11
 150              	.LVL10:
 151              	.L13:
 152              		.loc 1 46 0
 153 0034 FFF7FEFF 		bl	powersave_sleep
 154              	.LVL11:
 155 0038 03E0     		b	.L12
 156              	.LVL12:
 157              	.L11:
 158              		.loc 1 44 0 discriminator 1
 159 003a FFF7FEFF 		bl	powersave_should_sleep
 160              	.LVL13:
 161 003e 0028     		cmp	r0, #0
 162 0040 F8D1     		bne	.L13
 163              	.L12:
 164              		.loc 1 48 0
 165 0042 002C     		cmp	r4, #0
 166 0044 DFD1     		bne	.L5
 167              		.loc 1 50 0
 168 0046 0E4C     		ldr	r4, .L19
 169 0048 2368     		ldr	r3, [r4]
 170 004a 13F1320F 		cmn	r3, #50
 171 004e 02DA     		bge	.L14
ARM GAS  /var/folders/_2/42wyrlld3p52fkcpt1lv6gxh0000gp/T//ccQGe5JG.s 			page 4


 172              		.loc 1 51 0
 173 0050 6FF03103 		mvn	r3, #49
 174 0054 02E0     		b	.L17
 175              	.L14:
 176              		.loc 1 52 0
 177 0056 FA2B     		cmp	r3, #250
 178 0058 01DD     		ble	.L15
 179              		.loc 1 53 0
 180 005a FA23     		movs	r3, #250
 181              	.L17:
 182 005c 2360     		str	r3, [r4]
 183              	.L15:
 184              		.loc 1 56 0
 185 005e 2068     		ldr	r0, [r4]
 186 0060 FFF7FEFF 		bl	display_set_alarm
 187              	.LVL14:
 188              		.loc 1 57 0
 189 0064 2368     		ldr	r3, [r4]
 190 0066 4FF47A70 		mov	r0, #1000
 191 006a 5843     		muls	r0, r3, r0
 192 006c FFF7FEFF 		bl	alarm_set_limit
 193              	.LVL15:
 194              		.loc 1 59 0
 195 0070 FFF7FEFF 		bl	display_update_temperature
 196              	.LVL16:
 197              		.loc 1 62 0
 198 0074 BD46     		mov	sp, r7
 199              	.LCFI6:
 200              		.cfi_def_cfa_register 13
 201              		@ sp needed
 202 0076 BDE8B040 		pop	{r4, r5, r7, lr}
 203              	.LCFI7:
 204              		.cfi_restore 14
 205              		.cfi_restore 7
 206              		.cfi_restore 5
 207              		.cfi_restore 4
 208              		.cfi_def_cfa_offset 0
 209              		.loc 1 60 0
 210 007a FFF7FEBF 		b	display_partial_redraw
 211              	.LVL17:
 212              	.L20:
 213 007e 00BF     		.align	2
 214              	.L19:
 215 0080 00000000 		.word	.LANCHOR0
 216              		.cfi_endproc
 217              	.LFE64:
 218              		.size	main_logic_step, .-main_logic_step
 219              		.section	.data.g_alarm_limit,"aw",%progbits
 220              		.align	2
 221              		.set	.LANCHOR0,. + 0
 222              		.type	g_alarm_limit, %object
 223              		.size	g_alarm_limit, 4
 224              	g_alarm_limit:
 225 0000 50000000 		.word	80
 226              		.text
 227              	.Letext0:
 228              		.file 2 "/Users/ARS/Applications/Eclipse.app/Contents/gcc-arm-none-eabi-5_3-2016q1/arm-none-eabi/i
ARM GAS  /var/folders/_2/42wyrlld3p52fkcpt1lv6gxh0000gp/T//ccQGe5JG.s 			page 5


 229              		.file 3 "/Users/ARS/Applications/Eclipse.app/Contents/gcc-arm-none-eabi-5_3-2016q1/arm-none-eabi/i
 230              		.file 4 "src/buttons.h"
 231              		.file 5 "src/sensor_task.h"
 232              		.file 6 "src/display.h"
 233              		.file 7 "src/alarm_task.h"
 234              		.file 8 "src/powersave.h"
 235              		.file 9 "chibios/os/ports/common/ARMCMx/CMSIS/include/core_cm3.h"