ARM GAS  /var/folders/_2/42wyrlld3p52fkcpt1lv6gxh0000gp/T//ccb9aJOt.s 			page 1


   1              		.syntax unified
   2              		.cpu cortex-m3
   3              		.fpu softvfp
   4              		.eabi_attribute 20, 1
   5              		.eabi_attribute 21, 1
   6              		.eabi_attribute 23, 3
   7              		.eabi_attribute 24, 1
   8              		.eabi_attribute 25, 1
   9              		.eabi_attribute 26, 1
  10              		.eabi_attribute 30, 4
  11              		.eabi_attribute 34, 1
  12              		.eabi_attribute 18, 4
  13              		.thumb
  14              		.syntax unified
  15              		.file	"mf_bwfont.c"
  16              		.text
  17              	.Ltext0:
  18              		.cfi_sections	.debug_frame
  19              		.section	.text.find_char_range,"ax",%progbits
  20              		.align	1
  21              		.thumb
  22              		.thumb_func
  23              		.type	find_char_range, %function
  24              	find_char_range:
  25              	.LFB63:
  26              		.file 1 "ugfx/src/gdisp/mcufont/mf_bwfont.c"
  27              		.loc 1 17 0
  28              		.cfi_startproc
  29              		@ args = 0, pretend = 0, frame = 0
  30              		@ frame_needed = 1, uses_anonymous_args = 0
  31              	.LVL0:
  32 0000 F0B5     		push	{r4, r5, r6, r7, lr}
  33              	.LCFI0:
  34              		.cfi_def_cfa_offset 20
  35              		.cfi_offset 4, -20
  36              		.cfi_offset 5, -16
  37              		.cfi_offset 6, -12
  38              		.cfi_offset 7, -8
  39              		.cfi_offset 14, -4
  40              		.loc 1 20 0
  41 0002 90F81DE0 		ldrb	lr, [r0, #29]	@ zero_extendqisi2
  42              		.loc 1 17 0
  43 0006 00AF     		add	r7, sp, #0
  44              	.LCFI1:
  45              		.cfi_def_cfa_register 7
  46              		.loc 1 20 0
  47 0008 0025     		movs	r5, #0
  48              		.loc 1 22 0
  49 000a 4FF0180C 		mov	ip, #24
  50              	.LVL1:
  51              	.L2:
  52              		.loc 1 20 0 discriminator 1
  53 000e 7545     		cmp	r5, lr
  54 0010 0FD2     		bcs	.L7
  55              		.loc 1 22 0
  56 0012 0CFB05F4 		mul	r4, ip, r5
  57 0016 066A     		ldr	r6, [r0, #32]
ARM GAS  /var/folders/_2/42wyrlld3p52fkcpt1lv6gxh0000gp/T//ccb9aJOt.s 			page 2


  58 0018 3319     		adds	r3, r6, r4
  59              	.LVL2:
  60              		.loc 1 23 0
  61 001a 345B     		ldrh	r4, [r6, r4]
  62              	.LVL3:
  63              		.loc 1 24 0
  64 001c A142     		cmp	r1, r4
  65 001e 06D3     		bcc	.L3
  66              		.loc 1 24 0 is_stmt 0 discriminator 1
  67 0020 5E88     		ldrh	r6, [r3, #2]
  68 0022 0C1B     		subs	r4, r1, r4
  69              	.LVL4:
  70 0024 B442     		cmp	r4, r6
  71 0026 02D2     		bcs	.L3
  72              		.loc 1 26 0 is_stmt 1
  73 0028 1480     		strh	r4, [r2]	@ movhi
  74              	.LVL5:
  75              		.loc 1 22 0
  76 002a 1846     		mov	r0, r3
  77              	.LVL6:
  78              		.loc 1 27 0
  79 002c F0BD     		pop	{r4, r5, r6, r7, pc}
  80              	.LVL7:
  81              	.L3:
  82              		.loc 1 20 0 discriminator 2
  83 002e 0135     		adds	r5, r5, #1
  84              	.LVL8:
  85 0030 EDE7     		b	.L2
  86              	.LVL9:
  87              	.L7:
  88              		.loc 1 31 0
  89 0032 0020     		movs	r0, #0
  90              	.LVL10:
  91              		.loc 1 32 0
  92 0034 F0BD     		pop	{r4, r5, r6, r7, pc}
  93              		.cfi_endproc
  94              	.LFE63:
  95              		.size	find_char_range, .-find_char_range
  96              		.section	.text.mf_bwfont_render_character,"ax",%progbits
  97              		.align	1
  98              		.global	mf_bwfont_render_character
  99              		.thumb
 100              		.thumb_func
 101              		.type	mf_bwfont_render_character, %function
 102              	mf_bwfont_render_character:
 103              	.LFB66:
 104              		.loc 1 120 0
 105              		.cfi_startproc
 106              		@ args = 8, pretend = 0, frame = 48
 107              		@ frame_needed = 1, uses_anonymous_args = 0
 108              	.LVL11:
 109 0000 2DE9F04F 		push	{r4, r5, r6, r7, r8, r9, r10, fp, lr}
 110              	.LCFI2:
 111              		.cfi_def_cfa_offset 36
 112              		.cfi_offset 4, -36
 113              		.cfi_offset 5, -32
 114              		.cfi_offset 6, -28
ARM GAS  /var/folders/_2/42wyrlld3p52fkcpt1lv6gxh0000gp/T//ccb9aJOt.s 			page 3


 115              		.cfi_offset 7, -24
 116              		.cfi_offset 8, -20
 117              		.cfi_offset 9, -16
 118              		.cfi_offset 10, -12
 119              		.cfi_offset 11, -8
 120              		.cfi_offset 14, -4
 121 0004 8FB0     		sub	sp, sp, #60
 122              	.LCFI3:
 123              		.cfi_def_cfa_offset 96
 124 0006 02AF     		add	r7, sp, #8
 125              	.LCFI4:
 126              		.cfi_def_cfa 7, 88
 127              		.loc 1 120 0
 128 0008 0E46     		mov	r6, r1
 129 000a 9046     		mov	r8, r2
 130              		.loc 1 125 0
 131 000c 1946     		mov	r1, r3
 132              	.LVL12:
 133 000e 07F12E02 		add	r2, r7, #46
 134              	.LVL13:
 135 0012 FFF7FEFF 		bl	find_char_range
 136              	.LVL14:
 137              		.loc 1 126 0
 138 0016 0446     		mov	r4, r0
 139 0018 0028     		cmp	r0, #0
 140 001a 00F09380 		beq	.L20
 141              	.LBB6:
 142              	.LBB7:
 143              		.loc 1 57 0
 144 001e 037A     		ldrb	r3, [r0, #8]	@ zero_extendqisi2
 145              	.LBE7:
 146              	.LBE6:
 147              		.loc 1 129 0
 148 0020 B7F82EA0 		ldrh	r10, [r7, #46]
 149              	.LVL15:
 150              	.LBB11:
 151              	.LBB10:
 152              		.loc 1 57 0
 153 0024 7B62     		str	r3, [r7, #36]
 154 0026 8379     		ldrb	r3, [r0, #6]	@ zero_extendqisi2
 155 0028 4269     		ldr	r2, [r0, #20]
 156 002a BB61     		str	r3, [r7, #24]
 157 002c 7B6A     		ldr	r3, [r7, #36]
 158 002e 33B1     		cbz	r3, .L10
 159              		.loc 1 59 0
 160 0030 0AFB03F3 		mul	r3, r10, r3
 161 0034 B969     		ldr	r1, [r7, #24]
 162 0036 01FB0323 		mla	r3, r1, r3, r2
 163 003a FB60     		str	r3, [r7, #12]
 164              	.LVL16:
 165 003c 0CE0     		b	.L11
 166              	.LVL17:
 167              	.L10:
 168              		.loc 1 64 0
 169 003e 0369     		ldr	r3, [r0, #16]
 170 0040 B969     		ldr	r1, [r7, #24]
 171 0042 33F81A50 		ldrh	r5, [r3, r10, lsl #1]
ARM GAS  /var/folders/_2/42wyrlld3p52fkcpt1lv6gxh0000gp/T//ccb9aJOt.s 			page 4


 172              		.loc 1 65 0
 173 0046 03EB4A03 		add	r3, r3, r10, lsl #1
 174              		.loc 1 64 0
 175 004a 05FB0122 		mla	r2, r5, r1, r2
 176              		.loc 1 65 0
 177 004e 9B78     		ldrb	r3, [r3, #2]	@ zero_extendqisi2
 178              		.loc 1 64 0
 179 0050 FA60     		str	r2, [r7, #12]
 180              	.LVL18:
 181              		.loc 1 65 0
 182 0052 5D1B     		subs	r5, r3, r5
 183 0054 EBB2     		uxtb	r3, r5
 184 0056 7B62     		str	r3, [r7, #36]
 185              	.LVL19:
 186              	.L11:
 187              		.loc 1 69 0
 188 0058 E379     		ldrb	r3, [r4, #7]	@ zero_extendqisi2
 189 005a BB60     		str	r3, [r7, #8]
 190              	.LVL20:
 191              		.loc 1 70 0
 192 005c 6379     		ldrb	r3, [r4, #5]	@ zero_extendqisi2
 193 005e 9844     		add	r8, r8, r3
 194              	.LVL21:
 195 0060 1FFA88F3 		uxth	r3, r8
 196 0064 7B61     		str	r3, [r7, #20]
 197              	.LVL22:
 198              		.loc 1 71 0
 199 0066 2379     		ldrb	r3, [r4, #4]	@ zero_extendqisi2
 200 0068 4FF00008 		mov	r8, #0
 201 006c 1E44     		add	r6, r6, r3
 202              	.LVL23:
 203 006e B3B2     		uxth	r3, r6
 204              		.loc 1 72 0
 205 0070 4646     		mov	r6, r8
 206              		.loc 1 71 0
 207 0072 3B61     		str	r3, [r7, #16]
 208              	.LVL24:
 209              		.loc 1 73 0
 210 0074 C7F82080 		str	r8, [r7, #32]
 211              	.LVL25:
 212              	.L12:
 213              		.loc 1 75 0
 214 0078 BB68     		ldr	r3, [r7, #8]
 215 007a 5FFA88F1 		uxtb	r1, r8
 216              	.LVL26:
 217 007e 8B42     		cmp	r3, r1
 218 0080 56D9     		bls	.L32
 219              		.loc 1 77 0
 220 0082 0123     		movs	r3, #1
 221 0084 B340     		lsls	r3, r3, r6
 222 0086 DBB2     		uxtb	r3, r3
 223              		.loc 1 81 0
 224 0088 3A6A     		ldr	r2, [r7, #32]
 225              		.loc 1 77 0
 226 008a 7B60     		str	r3, [r7, #4]
 227              	.LVL27:
 228              		.loc 1 81 0
ARM GAS  /var/folders/_2/42wyrlld3p52fkcpt1lv6gxh0000gp/T//ccb9aJOt.s 			page 5


 229 008c FB68     		ldr	r3, [r7, #12]
 230 008e 4FF00009 		mov	r9, #0
 231 0092 1344     		add	r3, r3, r2
 232 0094 FB61     		str	r3, [r7, #28]
 233              	.LVL28:
 234              		.loc 1 80 0
 235 0096 4A46     		mov	r2, r9
 236              		.loc 1 79 0
 237 0098 4B46     		mov	r3, r9
 238              	.LVL29:
 239              		.loc 1 89 0
 240 009a 7869     		ldr	r0, [r7, #20]
 241 009c 0144     		add	r1, r1, r0
 242              	.LVL30:
 243 009e 09B2     		sxth	r1, r1
 244 00a0 3960     		str	r1, [r7]
 245              	.LVL31:
 246              	.L13:
 247              		.loc 1 82 0
 248 00a2 786A     		ldr	r0, [r7, #36]
 249 00a4 5FFA89F1 		uxtb	r1, r9
 250 00a8 8842     		cmp	r0, r1
 251 00aa 26D9     		bls	.L33
 252              		.loc 1 84 0
 253 00ac F969     		ldr	r1, [r7, #28]
 254 00ae 7868     		ldr	r0, [r7, #4]
 255 00b0 0978     		ldrb	r1, [r1]	@ zero_extendqisi2
 256 00b2 0842     		tst	r0, r1
 257 00b4 14BF     		ite	ne
 258 00b6 4FF0010B 		movne	fp, #1
 259 00ba 4FF0000B 		moveq	fp, #0
 260              	.LVL32:
 261              		.loc 1 85 0
 262 00be 9B45     		cmp	fp, r3
 263 00c0 0ED0     		beq	.L21
 264              		.loc 1 87 0
 265 00c2 7BB1     		cbz	r3, .L22
 266 00c4 7AB1     		cbz	r2, .L14
 267              		.loc 1 89 0
 268 00c6 3B69     		ldr	r3, [r7, #16]
 269              	.LVL33:
 270 00c8 3968     		ldr	r1, [r7]
 271 00ca 03EB0900 		add	r0, r3, r9
 272 00ce FB6D     		ldr	r3, [r7, #92]
 273 00d0 801A     		subs	r0, r0, r2
 274 00d2 0093     		str	r3, [sp]
 275 00d4 00B2     		sxth	r0, r0
 276 00d6 FF23     		movs	r3, #255
 277 00d8 BD6D     		ldr	r5, [r7, #88]
 278 00da A847     		blx	r5
 279              	.LVL34:
 280              		.loc 1 93 0
 281 00dc 0022     		movs	r2, #0
 282 00de 02E0     		b	.L14
 283              	.LVL35:
 284              	.L21:
 285              		.loc 1 85 0
ARM GAS  /var/folders/_2/42wyrlld3p52fkcpt1lv6gxh0000gp/T//ccb9aJOt.s 			page 6


 286 00e0 9B46     		mov	fp, r3
 287              	.LVL36:
 288 00e2 00E0     		b	.L14
 289              	.LVL37:
 290              	.L22:
 291              		.loc 1 93 0
 292 00e4 1A46     		mov	r2, r3
 293              	.LVL38:
 294              	.L14:
 295 00e6 FB69     		ldr	r3, [r7, #28]
 296 00e8 B969     		ldr	r1, [r7, #24]
 297              		.loc 1 96 0
 298 00ea 0132     		adds	r2, r2, #1
 299              	.LVL39:
 300 00ec 0B44     		add	r3, r3, r1
 301 00ee FB61     		str	r3, [r7, #28]
 302              	.LVL40:
 303 00f0 D2B2     		uxtb	r2, r2
 304              	.LVL41:
 305 00f2 09F10109 		add	r9, r9, #1
 306              	.LVL42:
 307              		.loc 1 82 0
 308 00f6 5B46     		mov	r3, fp
 309              	.LVL43:
 310 00f8 D3E7     		b	.L13
 311              	.LVL44:
 312              	.L33:
 313              		.loc 1 99 0
 314 00fa 6BB1     		cbz	r3, .L16
 315 00fc 62B1     		cbz	r2, .L16
 316              		.loc 1 101 0
 317 00fe 7B69     		ldr	r3, [r7, #20]
 318              	.LVL45:
 319 0100 BD6D     		ldr	r5, [r7, #88]
 320 0102 03EB0801 		add	r1, r3, r8
 321 0106 3B69     		ldr	r3, [r7, #16]
 322 0108 09B2     		sxth	r1, r1
 323 010a 1818     		adds	r0, r3, r0
 324 010c FB6D     		ldr	r3, [r7, #92]
 325 010e 801A     		subs	r0, r0, r2
 326 0110 0093     		str	r3, [sp]
 327 0112 00B2     		sxth	r0, r0
 328 0114 FF23     		movs	r3, #255
 329 0116 A847     		blx	r5
 330              	.LVL46:
 331              	.L16:
 332              		.loc 1 104 0
 333 0118 0136     		adds	r6, r6, #1
 334              	.LVL47:
 335 011a F6B2     		uxtb	r6, r6
 336              	.LVL48:
 337              		.loc 1 105 0
 338 011c 072E     		cmp	r6, #7
 339 011e 04D9     		bls	.L17
 340              	.LVL49:
 341              		.loc 1 108 0
 342 0120 3B6A     		ldr	r3, [r7, #32]
ARM GAS  /var/folders/_2/42wyrlld3p52fkcpt1lv6gxh0000gp/T//ccb9aJOt.s 			page 7


 343              		.loc 1 107 0
 344 0122 0026     		movs	r6, #0
 345              		.loc 1 108 0
 346 0124 0133     		adds	r3, r3, #1
 347 0126 DBB2     		uxtb	r3, r3
 348 0128 3B62     		str	r3, [r7, #32]
 349              	.LVL50:
 350              	.L17:
 351 012a 08F10108 		add	r8, r8, #1
 352              	.LVL51:
 353 012e A3E7     		b	.L12
 354              	.LVL52:
 355              	.L32:
 356              	.LBB8:
 357              	.LBB9:
 358              		.loc 1 36 0
 359 0130 207A     		ldrb	r0, [r4, #8]	@ zero_extendqisi2
 360 0132 18B1     		cbz	r0, .L19
 361              		.loc 1 38 0
 362 0134 2379     		ldrb	r3, [r4, #4]	@ zero_extendqisi2
 363 0136 1844     		add	r0, r0, r3
 364 0138 C0B2     		uxtb	r0, r0
 365 013a 03E0     		b	.L9
 366              	.L19:
 367              		.loc 1 42 0
 368 013c E368     		ldr	r3, [r4, #12]
 369 013e 13F80A00 		ldrb	r0, [r3, r10]	@ zero_extendqisi2
 370 0142 FFE7     		b	.L9
 371              	.LVL53:
 372              	.L20:
 373              	.L9:
 374              	.LBE9:
 375              	.LBE8:
 376              	.LBE10:
 377              	.LBE11:
 378              		.loc 1 130 0
 379 0144 3437     		adds	r7, r7, #52
 380              	.LCFI5:
 381              		.cfi_def_cfa_offset 36
 382 0146 BD46     		mov	sp, r7
 383              	.LCFI6:
 384              		.cfi_def_cfa_register 13
 385              		@ sp needed
 386 0148 BDE8F08F 		pop	{r4, r5, r6, r7, r8, r9, r10, fp, pc}
 387              		.cfi_endproc
 388              	.LFE66:
 389              		.size	mf_bwfont_render_character, .-mf_bwfont_render_character
 390              		.section	.text.mf_bwfont_character_width,"ax",%progbits
 391              		.align	1
 392              		.global	mf_bwfont_character_width
 393              		.thumb
 394              		.thumb_func
 395              		.type	mf_bwfont_character_width, %function
 396              	mf_bwfont_character_width:
 397              	.LFB67:
 398              		.loc 1 134 0
 399              		.cfi_startproc
ARM GAS  /var/folders/_2/42wyrlld3p52fkcpt1lv6gxh0000gp/T//ccb9aJOt.s 			page 8


 400              		@ args = 0, pretend = 0, frame = 8
 401              		@ frame_needed = 1, uses_anonymous_args = 0
 402              	.LVL54:
 403 0000 80B5     		push	{r7, lr}
 404              	.LCFI7:
 405              		.cfi_def_cfa_offset 8
 406              		.cfi_offset 7, -8
 407              		.cfi_offset 14, -4
 408 0002 82B0     		sub	sp, sp, #8
 409              	.LCFI8:
 410              		.cfi_def_cfa_offset 16
 411 0004 00AF     		add	r7, sp, #0
 412              	.LCFI9:
 413              		.cfi_def_cfa_register 7
 414              		.loc 1 139 0
 415 0006 BA1D     		adds	r2, r7, #6
 416 0008 FFF7FEFF 		bl	find_char_range
 417              	.LVL55:
 418              		.loc 1 140 0
 419 000c 40B1     		cbz	r0, .L35
 420              	.LVL56:
 421              	.LBB14:
 422              	.LBB15:
 423              		.loc 1 36 0
 424 000e 027A     		ldrb	r2, [r0, #8]	@ zero_extendqisi2
 425 0010 1AB1     		cbz	r2, .L36
 426              		.loc 1 38 0
 427 0012 0379     		ldrb	r3, [r0, #4]	@ zero_extendqisi2
 428 0014 D018     		adds	r0, r2, r3
 429              	.LVL57:
 430 0016 C0B2     		uxtb	r0, r0
 431 0018 02E0     		b	.L35
 432              	.LVL58:
 433              	.L36:
 434              		.loc 1 42 0
 435 001a FB88     		ldrh	r3, [r7, #6]
 436 001c C268     		ldr	r2, [r0, #12]
 437 001e D05C     		ldrb	r0, [r2, r3]	@ zero_extendqisi2
 438              	.LVL59:
 439              	.L35:
 440              	.LBE15:
 441              	.LBE14:
 442              		.loc 1 144 0
 443 0020 0837     		adds	r7, r7, #8
 444              	.LCFI10:
 445              		.cfi_def_cfa_offset 8
 446 0022 BD46     		mov	sp, r7
 447              	.LCFI11:
 448              		.cfi_def_cfa_register 13
 449              		@ sp needed
 450 0024 80BD     		pop	{r7, pc}
 451              		.cfi_endproc
 452              	.LFE67:
 453              		.size	mf_bwfont_character_width, .-mf_bwfont_character_width
 454              		.text
 455              	.Letext0:
 456              		.file 2 "/Users/ARS/Applications/Eclipse.app/Contents/gcc-arm-none-eabi-5_3-2016q1/arm-none-eabi/i
ARM GAS  /var/folders/_2/42wyrlld3p52fkcpt1lv6gxh0000gp/T//ccb9aJOt.s 			page 9


 457              		.file 3 "/Users/ARS/Applications/Eclipse.app/Contents/gcc-arm-none-eabi-5_3-2016q1/arm-none-eabi/i
 458              		.file 4 "ugfx/src/gdisp/mcufont/mf_font.h"
 459              		.file 5 "ugfx/src/gdisp/mcufont/mf_bwfont.h"
 460              		.file 6 "chibios/os/ports/common/ARMCMx/CMSIS/include/core_cm3.h"