ARM GAS  /var/folders/_2/42wyrlld3p52fkcpt1lv6gxh0000gp/T//cc2LiHbZ.s 			page 1


   1              		.syntax unified
   2              		.cpu cortex-m3
   3              		.fpu softvfp
   4              		.eabi_attribute 20, 1
   5              		.eabi_attribute 21, 1
   6              		.eabi_attribute 23, 3
   7              		.eabi_attribute 24, 1
   8              		.eabi_attribute 25, 1
   9              		.eabi_attribute 26, 1
  10              		.eabi_attribute 30, 4
  11              		.eabi_attribute 34, 1
  12              		.eabi_attribute 18, 4
  13              		.thumb
  14              		.syntax unified
  15              		.file	"mf_encoding.c"
  16              		.text
  17              	.Ltext0:
  18              		.cfi_sections	.debug_frame
  19              		.section	.text.mf_getchar,"ax",%progbits
  20              		.align	1
  21              		.global	mf_getchar
  22              		.thumb
  23              		.thumb_func
  24              		.type	mf_getchar, %function
  25              	mf_getchar:
  26              	.LFB63:
  27              		.file 1 "ugfx/src/gdisp/mcufont/mf_encoding.c"
  28              		.loc 1 15 0
  29              		.cfi_startproc
  30              		@ args = 0, pretend = 0, frame = 0
  31              		@ frame_needed = 1, uses_anonymous_args = 0
  32              	.LVL0:
  33 0000 F0B5     		push	{r4, r5, r6, r7, lr}
  34              	.LCFI0:
  35              		.cfi_def_cfa_offset 20
  36              		.cfi_offset 4, -20
  37              		.cfi_offset 5, -16
  38              		.cfi_offset 6, -12
  39              		.cfi_offset 7, -8
  40              		.cfi_offset 14, -4
  41              		.loc 1 20 0
  42 0002 0268     		ldr	r2, [r0]
  43              		.loc 1 15 0
  44 0004 00AF     		add	r7, sp, #0
  45              	.LCFI1:
  46              		.cfi_def_cfa_register 7
  47              		.loc 1 20 0
  48 0006 1378     		ldrb	r3, [r2]	@ zero_extendqisi2
  49              	.LVL1:
  50              		.loc 1 21 0
  51 0008 8BB3     		cbz	r3, .L9
  52              		.loc 1 24 0
  53 000a 511C     		adds	r1, r2, #1
  54 000c 0160     		str	r1, [r0]
  55              		.loc 1 26 0
  56 000e 1906     		lsls	r1, r3, #24
  57 0010 2BD5     		bpl	.L13
ARM GAS  /var/folders/_2/42wyrlld3p52fkcpt1lv6gxh0000gp/T//cc2LiHbZ.s 			page 2


  58              		.loc 1 31 0
  59 0012 03F0C001 		and	r1, r3, #192
  60 0016 8029     		cmp	r1, #128
  61 0018 27D0     		beq	.L13
  62              		.loc 1 38 0
  63 001a 5278     		ldrb	r2, [r2, #1]	@ zero_extendqisi2
  64 001c 02F0C002 		and	r2, r2, #192
  65 0020 C02A     		cmp	r2, #192
  66 0022 22D0     		beq	.L13
  67 0024 0024     		movs	r4, #0
  68 0026 0225     		movs	r5, #2
  69 0028 2022     		movs	r2, #32
  70              	.L6:
  71              	.LVL2:
  72              		.loc 1 53 0
  73 002a 1A42     		tst	r2, r3
  74 002c 0168     		ldr	r1, [r0]
  75 002e 4FEA8414 		lsl	r4, r4, #6
  76              	.LVL3:
  77 0032 0CD0     		beq	.L7
  78              		.loc 1 53 0 is_stmt 0 discriminator 1
  79 0034 052D     		cmp	r5, #5
  80 0036 0AD0     		beq	.L7
  81              		.loc 1 58 0 is_stmt 1
  82 0038 11F8016B 		ldrb	r6, [r1], #1	@ zero_extendqisi2
  83              		.loc 1 55 0
  84 003c 0135     		adds	r5, r5, #1
  85              	.LVL4:
  86              		.loc 1 58 0
  87 003e 06F03F06 		and	r6, r6, #63
  88 0042 3443     		orrs	r4, r4, r6
  89              		.loc 1 55 0
  90 0044 EDB2     		uxtb	r5, r5
  91              	.LVL5:
  92              		.loc 1 56 0
  93 0046 5208     		lsrs	r2, r2, #1
  94              	.LVL6:
  95              		.loc 1 58 0
  96 0048 A4B2     		uxth	r4, r4
  97              	.LVL7:
  98              		.loc 1 59 0
  99 004a 0160     		str	r1, [r0]
 100 004c EDE7     		b	.L6
 101              	.LVL8:
 102              	.L7:
 103              		.loc 1 65 0
 104 004e 013A     		subs	r2, r2, #1
 105              	.LVL9:
 106 0050 1A40     		ands	r2, r2, r3
 107 0052 013D     		subs	r5, r5, #1
 108              	.LVL10:
 109 0054 0623     		movs	r3, #6
 110              	.LVL11:
 111 0056 6B43     		muls	r3, r5, r3
 112              		.loc 1 62 0
 113 0058 11F8016B 		ldrb	r6, [r1], #1	@ zero_extendqisi2
 114              		.loc 1 65 0
ARM GAS  /var/folders/_2/42wyrlld3p52fkcpt1lv6gxh0000gp/T//cc2LiHbZ.s 			page 3


 115 005c 02FA03F3 		lsl	r3, r2, r3
 116              		.loc 1 62 0
 117 0060 06F03F06 		and	r6, r6, #63
 118 0064 3443     		orrs	r4, r4, r6
 119              	.LVL12:
 120              		.loc 1 63 0
 121 0066 0160     		str	r1, [r0]
 122              		.loc 1 65 0
 123 0068 2343     		orrs	r3, r3, r4
 124              	.LVL13:
 125              	.L13:
 126 006a 98B2     		uxth	r0, r3
 127              	.LVL14:
 128              		.loc 1 66 0
 129 006c F0BD     		pop	{r4, r5, r6, r7, pc}
 130              	.LVL15:
 131              	.L9:
 132              		.loc 1 22 0
 133 006e 1846     		mov	r0, r3
 134              	.LVL16:
 135              		.loc 1 68 0
 136 0070 F0BD     		pop	{r4, r5, r6, r7, pc}
 137              		.cfi_endproc
 138              	.LFE63:
 139              		.size	mf_getchar, .-mf_getchar
 140              		.section	.text.mf_rewind,"ax",%progbits
 141              		.align	1
 142              		.global	mf_rewind
 143              		.thumb
 144              		.thumb_func
 145              		.type	mf_rewind, %function
 146              	mf_rewind:
 147              	.LFB64:
 148              		.loc 1 71 0
 149              		.cfi_startproc
 150              		@ args = 0, pretend = 0, frame = 0
 151              		@ frame_needed = 1, uses_anonymous_args = 0
 152              	.LVL17:
 153 0000 80B5     		push	{r7, lr}
 154              	.LCFI2:
 155              		.cfi_def_cfa_offset 8
 156              		.cfi_offset 7, -8
 157              		.cfi_offset 14, -4
 158              		.loc 1 72 0
 159 0002 0368     		ldr	r3, [r0]
 160              		.loc 1 71 0
 161 0004 00AF     		add	r7, sp, #0
 162              	.LCFI3:
 163              		.cfi_def_cfa_register 7
 164              		.loc 1 72 0
 165 0006 013B     		subs	r3, r3, #1
 166 0008 0360     		str	r3, [r0]
 167              	.L16:
 168              		.loc 1 74 0
 169 000a 0268     		ldr	r2, [r0]
 170 000c 1378     		ldrb	r3, [r2]	@ zero_extendqisi2
 171 000e 1906     		lsls	r1, r3, #24
ARM GAS  /var/folders/_2/42wyrlld3p52fkcpt1lv6gxh0000gp/T//cc2LiHbZ.s 			page 4


 172 0010 06D5     		bpl	.L15
 173              		.loc 1 74 0 is_stmt 0 discriminator 1
 174 0012 03F0C003 		and	r3, r3, #192
 175 0016 C02B     		cmp	r3, #192
 176 0018 02D0     		beq	.L15
 177              		.loc 1 75 0 is_stmt 1
 178 001a 013A     		subs	r2, r2, #1
 179 001c 0260     		str	r2, [r0]
 180 001e F4E7     		b	.L16
 181              	.L15:
 182 0020 80BD     		pop	{r7, pc}
 183              		.cfi_endproc
 184              	.LFE64:
 185              		.size	mf_rewind, .-mf_rewind
 186              		.text
 187              	.Letext0:
 188              		.file 2 "/Users/ARS/Applications/Eclipse.app/Contents/gcc-arm-none-eabi-5_3-2016q1/arm-none-eabi/i
 189              		.file 3 "/Users/ARS/Applications/Eclipse.app/Contents/gcc-arm-none-eabi-5_3-2016q1/arm-none-eabi/i
 190              		.file 4 "ugfx/src/gdisp/mcufont/mf_encoding.h"
 191              		.file 5 "chibios/os/ports/common/ARMCMx/CMSIS/include/core_cm3.h"