ARM GAS  /var/folders/_2/42wyrlld3p52fkcpt1lv6gxh0000gp/T//ccQrwpL6.s 			page 1


   1              		.syntax unified
   2              		.cpu cortex-m3
   3              		.fpu softvfp
   4              		.eabi_attribute 20, 1
   5              		.eabi_attribute 21, 1
   6              		.eabi_attribute 23, 3
   7              		.eabi_attribute 24, 1
   8              		.eabi_attribute 25, 1
   9              		.eabi_attribute 26, 1
  10              		.eabi_attribute 30, 4
  11              		.eabi_attribute 34, 1
  12              		.eabi_attribute 18, 4
  13              		.thumb
  14              		.syntax unified
  15              		.file	"mf_justify.c"
  16              		.text
  17              	.Ltext0:
  18              		.cfi_sections	.debug_frame
  19              		.section	.text.mf_round_to_tab,"ax",%progbits
  20              		.align	1
  21              		.thumb
  22              		.thumb_func
  23              		.type	mf_round_to_tab, %function
  24              	mf_round_to_tab:
  25              	.LFB63:
  26              		.file 1 "ugfx/src/gdisp/mcufont/mf_justify.c"
  27              		.loc 1 17 0
  28              		.cfi_startproc
  29              		@ args = 0, pretend = 0, frame = 0
  30              		@ frame_needed = 1, uses_anonymous_args = 0
  31              	.LVL0:
  32 0000 2DE9F041 		push	{r4, r5, r6, r7, r8, lr}
  33              	.LCFI0:
  34              		.cfi_def_cfa_offset 24
  35              		.cfi_offset 4, -24
  36              		.cfi_offset 5, -20
  37              		.cfi_offset 6, -16
  38              		.cfi_offset 7, -12
  39              		.cfi_offset 8, -8
  40              		.cfi_offset 14, -4
  41 0004 8846     		mov	r8, r1
  42 0006 00AF     		add	r7, sp, #0
  43              	.LCFI1:
  44              		.cfi_def_cfa_register 7
  45              		.loc 1 20 0
  46 0008 6D21     		movs	r1, #109
  47              	.LVL1:
  48              		.loc 1 17 0
  49 000a 1446     		mov	r4, r2
  50 000c 0646     		mov	r6, r0
  51              		.loc 1 20 0
  52 000e FFF7FEFF 		bl	mf_character_width
  53              	.LVL2:
  54 0012 C000     		lsls	r0, r0, #3
  55 0014 85B2     		uxth	r5, r0
  56              	.LVL3:
  57              		.loc 1 23 0
ARM GAS  /var/folders/_2/42wyrlld3p52fkcpt1lv6gxh0000gp/T//ccQrwpL6.s 			page 2


  58 0016 2021     		movs	r1, #32
  59 0018 3046     		mov	r0, r6
  60 001a FFF7FEFF 		bl	mf_character_width
  61              	.LVL4:
  62              		.loc 1 29 0
  63 001e 317B     		ldrb	r1, [r6, #12]	@ zero_extendqisi2
  64              		.loc 1 23 0
  65 0020 2044     		add	r0, r0, r4
  66 0022 83B2     		uxth	r3, r0
  67              	.LVL5:
  68              		.loc 1 29 0
  69 0024 C8EB0101 		rsb	r1, r8, r1
  70 0028 EA18     		adds	r2, r5, r3
  71 002a 0B44     		add	r3, r3, r1
  72              	.LVL6:
  73 002c 1BB2     		sxth	r3, r3
  74 002e 93FBF5F0 		sdiv	r0, r3, r5
  75              	.LVL7:
  76 0032 05FB1030 		mls	r0, r5, r0, r3
  77 0036 101A     		subs	r0, r2, r0
  78              		.loc 1 30 0
  79 0038 00B2     		sxth	r0, r0
  80 003a BDE8F081 		pop	{r4, r5, r6, r7, r8, pc}
  81              		.cfi_endproc
  82              	.LFE63:
  83              		.size	mf_round_to_tab, .-mf_round_to_tab
  84              		.section	.text.render_left,"ax",%progbits
  85              		.align	1
  86              		.thumb
  87              		.thumb_func
  88              		.type	render_left, %function
  89              	render_left:
  90              	.LFB67:
  91              		.loc 1 122 0
  92              		.cfi_startproc
  93              		@ args = 12, pretend = 0, frame = 8
  94              		@ frame_needed = 1, uses_anonymous_args = 0
  95              	.LVL8:
  96 0000 2DE9F04F 		push	{r4, r5, r6, r7, r8, r9, r10, fp, lr}
  97              	.LCFI2:
  98              		.cfi_def_cfa_offset 36
  99              		.cfi_offset 4, -36
 100              		.cfi_offset 5, -32
 101              		.cfi_offset 6, -28
 102              		.cfi_offset 7, -24
 103              		.cfi_offset 8, -20
 104              		.cfi_offset 9, -16
 105              		.cfi_offset 10, -12
 106              		.cfi_offset 11, -8
 107              		.cfi_offset 14, -4
 108 0004 83B0     		sub	sp, sp, #12
 109              	.LCFI3:
 110              		.cfi_def_cfa_offset 48
 111 0006 8146     		mov	r9, r0
 112 0008 8B46     		mov	fp, r1
 113              		.loc 1 126 0
 114 000a 047B     		ldrb	r4, [r0, #12]	@ zero_extendqisi2
ARM GAS  /var/folders/_2/42wyrlld3p52fkcpt1lv6gxh0000gp/T//ccQrwpL6.s 			page 3


 115              		.loc 1 122 0
 116 000c 00AF     		add	r7, sp, #0
 117              	.LCFI4:
 118              		.cfi_def_cfa_register 7
 119              		.loc 1 122 0
 120 000e 07F1080A 		add	r10, r7, #8
 121              		.loc 1 126 0
 122 0012 0C1B     		subs	r4, r1, r4
 123              		.loc 1 127 0
 124 0014 3D8E     		ldrh	r5, [r7, #48]
 125              		.loc 1 122 0
 126 0016 3A60     		str	r2, [r7]
 127 0018 4AF8043D 		str	r3, [r10, #-4]!
 128              		.loc 1 126 0
 129 001c 24B2     		sxth	r4, r4
 130              	.LVL9:
 131              		.loc 1 124 0
 132 001e 0026     		movs	r6, #0
 133              	.LVL10:
 134              	.L3:
 135              		.loc 1 127 0
 136 0020 15B3     		cbz	r5, .L12
 137              		.loc 1 129 0
 138 0022 5046     		mov	r0, r10
 139 0024 FFF7FEFF 		bl	mf_getchar
 140              	.LVL11:
 141              		.loc 1 131 0
 142 0028 0928     		cmp	r0, #9
 143              		.loc 1 129 0
 144 002a 8046     		mov	r8, r0
 145              	.LVL12:
 146              		.loc 1 131 0
 147 002c 08D1     		bne	.L4
 148              		.loc 1 134 0
 149 002e 2246     		mov	r2, r4
 150 0030 5946     		mov	r1, fp
 151 0032 4846     		mov	r0, r9
 152              	.LVL13:
 153 0034 FFF7FEFF 		bl	mf_round_to_tab
 154              	.LVL14:
 155              		.loc 1 135 0
 156 0038 4FF02008 		mov	r8, #32
 157              		.loc 1 134 0
 158 003c 0446     		mov	r4, r0
 159              	.LVL15:
 160              		.loc 1 136 0
 161 003e 0FE0     		b	.L5
 162              	.LVL16:
 163              	.L4:
 164              		.loc 1 142 0
 165 0040 36B1     		cbz	r6, .L6
 166              		.loc 1 143 0
 167 0042 0246     		mov	r2, r0
 168 0044 3146     		mov	r1, r6
 169 0046 4846     		mov	r0, r9
 170              	.LVL17:
 171 0048 FFF7FEFF 		bl	mf_compute_kerning
ARM GAS  /var/folders/_2/42wyrlld3p52fkcpt1lv6gxh0000gp/T//ccQrwpL6.s 			page 4


 172              	.LVL18:
 173 004c 2044     		add	r0, r0, r4
 174 004e 04B2     		sxth	r4, r0
 175              	.LVL19:
 176              	.L6:
 177              		.loc 1 145 0
 178 0050 2046     		mov	r0, r4
 179 0052 BB6B     		ldr	r3, [r7, #56]
 180 0054 4246     		mov	r2, r8
 181 0056 3968     		ldr	r1, [r7]
 182 0058 7E6B     		ldr	r6, [r7, #52]
 183              	.LVL20:
 184 005a B047     		blx	r6
 185              	.LVL21:
 186 005c 2044     		add	r0, r0, r4
 187 005e 04B2     		sxth	r4, r0
 188              	.LVL22:
 189              	.L5:
 190 0060 013D     		subs	r5, r5, #1
 191              	.LVL23:
 192 0062 ADB2     		uxth	r5, r5
 193              		.loc 1 135 0
 194 0064 4646     		mov	r6, r8
 195 0066 DBE7     		b	.L3
 196              	.LVL24:
 197              	.L12:
 198              		.loc 1 148 0
 199 0068 0C37     		adds	r7, r7, #12
 200              	.LCFI5:
 201              		.cfi_def_cfa_offset 36
 202              	.LVL25:
 203 006a BD46     		mov	sp, r7
 204              	.LCFI6:
 205              		.cfi_def_cfa_register 13
 206              		@ sp needed
 207 006c BDE8F08F 		pop	{r4, r5, r6, r7, r8, r9, r10, fp, pc}
 208              		.cfi_endproc
 209              	.LFE67:
 210              		.size	render_left, .-render_left
 211              		.section	.text.mf_get_string_width,"ax",%progbits
 212              		.align	1
 213              		.global	mf_get_string_width
 214              		.thumb
 215              		.thumb_func
 216              		.type	mf_get_string_width, %function
 217              	mf_get_string_width:
 218              	.LFB65:
 219              		.loc 1 53 0
 220              		.cfi_startproc
 221              		@ args = 0, pretend = 0, frame = 8
 222              		@ frame_needed = 1, uses_anonymous_args = 0
 223              	.LVL26:
 224 0000 2DE9F04F 		push	{r4, r5, r6, r7, r8, r9, r10, fp, lr}
 225              	.LCFI7:
 226              		.cfi_def_cfa_offset 36
 227              		.cfi_offset 4, -36
 228              		.cfi_offset 5, -32
ARM GAS  /var/folders/_2/42wyrlld3p52fkcpt1lv6gxh0000gp/T//ccQrwpL6.s 			page 5


 229              		.cfi_offset 6, -28
 230              		.cfi_offset 7, -24
 231              		.cfi_offset 8, -20
 232              		.cfi_offset 9, -16
 233              		.cfi_offset 10, -12
 234              		.cfi_offset 11, -8
 235              		.cfi_offset 14, -4
 236              		.loc 1 58 0
 237 0004 4FF6FF75 		movw	r5, #65535
 238              		.loc 1 68 0
 239 0008 0026     		movs	r6, #0
 240              		.loc 1 53 0
 241 000a 8146     		mov	r9, r0
 242 000c 9B46     		mov	fp, r3
 243              		.loc 1 58 0
 244 000e 002A     		cmp	r2, #0
 245 0010 18BF     		it	ne
 246 0012 1546     		movne	r5, r2
 247              	.LVL27:
 248              		.loc 1 68 0
 249 0014 3446     		mov	r4, r6
 250              		.loc 1 53 0
 251 0016 83B0     		sub	sp, sp, #12
 252              	.LCFI8:
 253              		.cfi_def_cfa_offset 48
 254 0018 00AF     		add	r7, sp, #0
 255              	.LCFI9:
 256              		.cfi_def_cfa_register 7
 257              		.loc 1 53 0
 258 001a 07F1080A 		add	r10, r7, #8
 259 001e 4AF8041D 		str	r1, [r10, #-4]!
 260              	.LVL28:
 261              	.L15:
 262              		.loc 1 60 0 discriminator 1
 263 0022 7B68     		ldr	r3, [r7, #4]
 264 0024 1B78     		ldrb	r3, [r3]	@ zero_extendqisi2
 265 0026 1BB3     		cbz	r3, .L28
 266              		.loc 1 62 0
 267 0028 5046     		mov	r0, r10
 268 002a FFF7FEFF 		bl	mf_getchar
 269              	.LVL29:
 270              		.loc 1 64 0
 271 002e 0928     		cmp	r0, #9
 272              		.loc 1 62 0
 273 0030 8046     		mov	r8, r0
 274              	.LVL30:
 275              		.loc 1 64 0
 276 0032 07D1     		bne	.L16
 277              		.loc 1 67 0
 278 0034 2246     		mov	r2, r4
 279 0036 0021     		movs	r1, #0
 280 0038 4846     		mov	r0, r9
 281              	.LVL31:
 282 003a FFF7FEFF 		bl	mf_round_to_tab
 283              	.LVL32:
 284              		.loc 1 68 0
 285 003e 2026     		movs	r6, #32
ARM GAS  /var/folders/_2/42wyrlld3p52fkcpt1lv6gxh0000gp/T//ccQrwpL6.s 			page 6


 286              	.LVL33:
 287              		.loc 1 67 0
 288 0040 0446     		mov	r4, r0
 289              	.LVL34:
 290              		.loc 1 69 0
 291 0042 11E0     		b	.L17
 292              	.LVL35:
 293              	.L16:
 294              		.loc 1 75 0
 295 0044 BBF1000F 		cmp	fp, #0
 296 0048 07D0     		beq	.L18
 297              		.loc 1 75 0 is_stmt 0 discriminator 1
 298 004a 36B1     		cbz	r6, .L18
 299              		.loc 1 76 0 is_stmt 1
 300 004c 0246     		mov	r2, r0
 301 004e 3146     		mov	r1, r6
 302 0050 4846     		mov	r0, r9
 303              	.LVL36:
 304 0052 FFF7FEFF 		bl	mf_compute_kerning
 305              	.LVL37:
 306 0056 2044     		add	r0, r0, r4
 307 0058 04B2     		sxth	r4, r0
 308              	.LVL38:
 309              	.L18:
 310              		.loc 1 78 0
 311 005a 4146     		mov	r1, r8
 312 005c 4846     		mov	r0, r9
 313 005e FFF7FEFF 		bl	mf_character_width
 314              	.LVL39:
 315 0062 4646     		mov	r6, r8
 316              	.LVL40:
 317 0064 2044     		add	r0, r0, r4
 318 0066 04B2     		sxth	r4, r0
 319              	.LVL41:
 320              	.L17:
 321 0068 013D     		subs	r5, r5, #1
 322              	.LVL42:
 323 006a ADB2     		uxth	r5, r5
 324              	.LVL43:
 325              		.loc 1 60 0
 326 006c 002D     		cmp	r5, #0
 327 006e D8D1     		bne	.L15
 328              	.LVL44:
 329              	.L28:
 330              		.loc 1 83 0
 331 0070 2046     		mov	r0, r4
 332 0072 0C37     		adds	r7, r7, #12
 333              	.LCFI10:
 334              		.cfi_def_cfa_offset 36
 335 0074 BD46     		mov	sp, r7
 336              	.LCFI11:
 337              		.cfi_def_cfa_register 13
 338              		@ sp needed
 339 0076 BDE8F08F 		pop	{r4, r5, r6, r7, r8, r9, r10, fp, pc}
 340              		.cfi_endproc
 341              	.LFE65:
 342              		.size	mf_get_string_width, .-mf_get_string_width
ARM GAS  /var/folders/_2/42wyrlld3p52fkcpt1lv6gxh0000gp/T//ccQrwpL6.s 			page 7


 343              		.section	.text.mf_render_aligned,"ax",%progbits
 344              		.align	1
 345              		.global	mf_render_aligned
 346              		.thumb
 347              		.thumb_func
 348              		.type	mf_render_aligned, %function
 349              	mf_render_aligned:
 350              	.LFB69:
 351              		.loc 1 219 0
 352              		.cfi_startproc
 353              		@ args = 16, pretend = 0, frame = 24
 354              		@ frame_needed = 1, uses_anonymous_args = 0
 355              	.LVL45:
 356 0000 2DE9F04F 		push	{r4, r5, r6, r7, r8, r9, r10, fp, lr}
 357              	.LCFI12:
 358              		.cfi_def_cfa_offset 36
 359              		.cfi_offset 4, -36
 360              		.cfi_offset 5, -32
 361              		.cfi_offset 6, -28
 362              		.cfi_offset 7, -24
 363              		.cfi_offset 8, -20
 364              		.cfi_offset 9, -16
 365              		.cfi_offset 10, -12
 366              		.cfi_offset 11, -8
 367              		.cfi_offset 14, -4
 368 0004 8BB0     		sub	sp, sp, #44
 369              	.LCFI13:
 370              		.cfi_def_cfa_offset 80
 371 0006 8846     		mov	r8, r1
 372              	.LBB8:
 373              	.LBB9:
 374              		.loc 1 92 0
 375 0008 4FF6FF71 		movw	r1, #65535
 376              	.LVL46:
 377              	.LBE9:
 378              	.LBE8:
 379              		.loc 1 219 0
 380 000c 04AF     		add	r7, sp, #16
 381              	.LCFI14:
 382              		.cfi_def_cfa 7, 64
 383              		.loc 1 219 0
 384 000e B7F844A0 		ldrh	r10, [r7, #68]
 385              	.LBB13:
 386              	.LBB10:
 387              		.loc 1 101 0
 388 0012 0026     		movs	r6, #0
 389              	.LBE10:
 390              	.LBE13:
 391              		.loc 1 219 0
 392 0014 0546     		mov	r5, r0
 393              	.LBB14:
 394              	.LBB11:
 395              		.loc 1 92 0
 396 0016 BAF1000F 		cmp	r10, #0
 397 001a 08BF     		it	eq
 398 001c 8A46     		moveq	r10, r1
 399              		.loc 1 101 0
ARM GAS  /var/folders/_2/42wyrlld3p52fkcpt1lv6gxh0000gp/T//ccQrwpL6.s 			page 8


 400 001e 3446     		mov	r4, r6
 401              	.LBE11:
 402              	.LBE14:
 403              		.loc 1 219 0
 404 0020 D7F84090 		ldr	r9, [r7, #64]
 405 0024 9346     		mov	fp, r2
 406 0026 07F11802 		add	r2, r7, #24
 407              	.LVL47:
 408 002a 42F80C9D 		str	r9, [r2, #-12]!
 409              	.LVL48:
 410              	.L31:
 411              	.LBB15:
 412              	.LBB12:
 413              		.loc 1 94 0
 414 002e F968     		ldr	r1, [r7, #12]
 415 0030 0978     		ldrb	r1, [r1]	@ zero_extendqisi2
 416 0032 B1B1     		cbz	r1, .L36
 417              		.loc 1 97 0
 418 0034 1046     		mov	r0, r2
 419 0036 3B60     		str	r3, [r7]
 420 0038 7A60     		str	r2, [r7, #4]
 421 003a FFF7FEFF 		bl	mf_getchar
 422              	.LVL49:
 423              		.loc 1 98 0
 424 003e 20F08001 		bic	r1, r0, #128
 425 0042 89B2     		uxth	r1, r1
 426              		.loc 1 96 0
 427 0044 0134     		adds	r4, r4, #1
 428              	.LVL50:
 429              		.loc 1 98 0
 430 0046 2029     		cmp	r1, #32
 431              		.loc 1 96 0
 432 0048 A4B2     		uxth	r4, r4
 433              	.LVL51:
 434              		.loc 1 98 0
 435 004a 7A68     		ldr	r2, [r7, #4]
 436 004c 3B68     		ldr	r3, [r7]
 437 004e 06D0     		beq	.L32
 438 0050 0D28     		cmp	r0, #13
 439 0052 04D0     		beq	.L32
 440              		.loc 1 99 0
 441 0054 0938     		subs	r0, r0, #9
 442              	.LVL52:
 443 0056 80B2     		uxth	r0, r0
 444              		.loc 1 101 0
 445 0058 0128     		cmp	r0, #1
 446 005a 88BF     		it	hi
 447 005c 2646     		movhi	r6, r4
 448              	.LVL53:
 449              	.L32:
 450              		.loc 1 94 0
 451 005e 5445     		cmp	r4, r10
 452 0060 E5D1     		bne	.L31
 453              	.LVL54:
 454              	.L36:
 455              	.LBE12:
 456              	.LBE15:
ARM GAS  /var/folders/_2/42wyrlld3p52fkcpt1lv6gxh0000gp/T//ccQrwpL6.s 			page 9


 457              		.loc 1 223 0
 458 0062 43B9     		cbnz	r3, .L55
 459              		.loc 1 225 0
 460 0064 FB6C     		ldr	r3, [r7, #76]
 461 0066 0096     		str	r6, [sp]
 462 0068 0293     		str	r3, [sp, #8]
 463 006a BB6C     		ldr	r3, [r7, #72]
 464 006c 5A46     		mov	r2, fp
 465 006e 0193     		str	r3, [sp, #4]
 466 0070 4146     		mov	r1, r8
 467 0072 4B46     		mov	r3, r9
 468 0074 14E0     		b	.L57
 469              	.L55:
 470              		.loc 1 227 0
 471 0076 012B     		cmp	r3, #1
 472 0078 16D1     		bne	.L38
 473              		.loc 1 229 0
 474 007a 0023     		movs	r3, #0
 475 007c 3246     		mov	r2, r6
 476 007e 4946     		mov	r1, r9
 477 0080 2846     		mov	r0, r5
 478 0082 FFF7FEFF 		bl	mf_get_string_width
 479              	.LVL55:
 480              		.loc 1 231 0
 481 0086 FB6C     		ldr	r3, [r7, #76]
 482              		.loc 1 230 0
 483 0088 0221     		movs	r1, #2
 484 008a 90FBF1F0 		sdiv	r0, r0, r1
 485              	.LVL56:
 486              		.loc 1 231 0
 487 008e 0293     		str	r3, [sp, #8]
 488 0090 BB6C     		ldr	r3, [r7, #72]
 489 0092 5A46     		mov	r2, fp
 490 0094 0193     		str	r3, [sp, #4]
 491 0096 4B46     		mov	r3, r9
 492              		.loc 1 230 0
 493 0098 C0EB0801 		rsb	r1, r0, r8
 494              	.LVL57:
 495              		.loc 1 231 0
 496 009c 0096     		str	r6, [sp]
 497 009e 09B2     		sxth	r1, r1
 498              	.LVL58:
 499              	.L57:
 500 00a0 2846     		mov	r0, r5
 501 00a2 FFF7FEFF 		bl	render_left
 502              	.LVL59:
 503 00a6 66E0     		b	.L29
 504              	.LVL60:
 505              	.L38:
 506              		.loc 1 233 0
 507 00a8 022B     		cmp	r3, #2
 508 00aa 64D1     		bne	.L29
 509              	.LVL61:
 510 00ac 07F1180A 		add	r10, r7, #24
 511              	.LVL62:
 512 00b0 4AF8089D 		str	r9, [r10, #-8]!
 513              	.LVL63:
ARM GAS  /var/folders/_2/42wyrlld3p52fkcpt1lv6gxh0000gp/T//ccQrwpL6.s 			page 10


 514 00b4 0024     		movs	r4, #0
 515              	.LVL64:
 516              	.L39:
 517              	.LBB16:
 518              	.LBB17:
 519              		.loc 1 179 0
 520 00b6 A3B2     		uxth	r3, r4
 521 00b8 B342     		cmp	r3, r6
 522 00ba 04D2     		bcs	.L58
 523              		.loc 1 180 0
 524 00bc 5046     		mov	r0, r10
 525 00be FFF7FEFF 		bl	mf_getchar
 526              	.LVL65:
 527 00c2 0134     		adds	r4, r4, #1
 528              	.LVL66:
 529 00c4 F7E7     		b	.L39
 530              	.LVL67:
 531              	.L58:
 532              		.loc 1 182 0
 533 00c6 4FF0000A 		mov	r10, #0
 534              	.LVL68:
 535 00ca 1FFA88F3 		uxth	r3, r8
 536              		.loc 1 175 0
 537 00ce D046     		mov	r8, r10
 538              		.loc 1 182 0
 539 00d0 287B     		ldrb	r0, [r5, #12]	@ zero_extendqisi2
 540 00d2 3B60     		str	r3, [r7]
 541 00d4 181A     		subs	r0, r3, r0
 542 00d6 03B2     		sxth	r3, r0
 543 00d8 7B60     		str	r3, [r7, #4]
 544              	.LVL69:
 545              	.L41:
 546              		.loc 1 183 0
 547 00da 1FFA8AF3 		uxth	r3, r10
 548 00de B342     		cmp	r3, r6
 549 00e0 49D2     		bcs	.L29
 550              		.loc 1 185 0
 551 00e2 07F11000 		add	r0, r7, #16
 552              	.LVL70:
 553 00e6 FFF7FEFF 		bl	mf_rewind
 554              	.LVL71:
 555              		.loc 1 186 0
 556 00ea 3B69     		ldr	r3, [r7, #16]
 557              		.loc 1 187 0
 558 00ec 07F11400 		add	r0, r7, #20
 559              		.loc 1 186 0
 560 00f0 7B61     		str	r3, [r7, #20]
 561              		.loc 1 187 0
 562 00f2 FFF7FEFF 		bl	mf_getchar
 563              	.LVL72:
 564              		.loc 1 190 0
 565 00f6 0928     		cmp	r0, #9
 566              		.loc 1 187 0
 567 00f8 8146     		mov	r9, r0
 568              	.LVL73:
 569              		.loc 1 190 0
 570 00fa 1ED1     		bne	.L42
ARM GAS  /var/folders/_2/42wyrlld3p52fkcpt1lv6gxh0000gp/T//ccQrwpL6.s 			page 11


 571              	.LVL74:
 572              	.LBB18:
 573              	.LBB19:
 574              		.loc 1 38 0
 575 00fc 6D21     		movs	r1, #109
 576 00fe 2846     		mov	r0, r5
 577              	.LVL75:
 578 0100 FFF7FEFF 		bl	mf_character_width
 579              	.LVL76:
 580 0104 C000     		lsls	r0, r0, #3
 581 0106 1FFA80F9 		uxth	r9, r0
 582              	.LVL77:
 583              		.loc 1 41 0
 584 010a 2021     		movs	r1, #32
 585 010c 2846     		mov	r0, r5
 586 010e FFF7FEFF 		bl	mf_character_width
 587              	.LVL78:
 588 0112 7B68     		ldr	r3, [r7, #4]
 589              		.loc 1 45 0
 590 0114 3A68     		ldr	r2, [r7]
 591              		.loc 1 41 0
 592 0116 181A     		subs	r0, r3, r0
 593              		.loc 1 45 0
 594 0118 2B7B     		ldrb	r3, [r5, #12]	@ zero_extendqisi2
 595              		.loc 1 41 0
 596 011a 80B2     		uxth	r0, r0
 597              	.LVL79:
 598              		.loc 1 45 0
 599 011c 1344     		add	r3, r3, r2
 600 011e 1B1A     		subs	r3, r3, r0
 601 0120 1BB2     		sxth	r3, r3
 602 0122 93FBF9F4 		sdiv	r4, r3, r9
 603 0126 09FB1434 		mls	r4, r9, r4, r3
 604 012a C9EB0000 		rsb	r0, r9, r0
 605              	.LVL80:
 606 012e 2044     		add	r0, r0, r4
 607 0130 03B2     		sxth	r3, r0
 608 0132 7B60     		str	r3, [r7, #4]
 609              	.LVL81:
 610              	.LBE19:
 611              	.LBE18:
 612              		.loc 1 194 0
 613 0134 4FF02009 		mov	r9, #32
 614 0138 19E0     		b	.L43
 615              	.LVL82:
 616              	.L42:
 617              		.loc 1 202 0
 618 013a 0146     		mov	r1, r0
 619 013c 2846     		mov	r0, r5
 620              	.LVL83:
 621 013e FFF7FEFF 		bl	mf_character_width
 622              	.LVL84:
 623 0142 7B68     		ldr	r3, [r7, #4]
 624 0144 181A     		subs	r0, r3, r0
 625 0146 84B2     		uxth	r4, r0
 626              	.LVL85:
 627              		.loc 1 205 0
ARM GAS  /var/folders/_2/42wyrlld3p52fkcpt1lv6gxh0000gp/T//ccQrwpL6.s 			page 12


 628 0148 B8F1000F 		cmp	r8, #0
 629 014c 01D1     		bne	.L44
 630              		.loc 1 202 0
 631 014e 23B2     		sxth	r3, r4
 632 0150 06E0     		b	.L56
 633              	.L44:
 634              		.loc 1 206 0
 635 0152 4246     		mov	r2, r8
 636 0154 4946     		mov	r1, r9
 637 0156 2846     		mov	r0, r5
 638 0158 FFF7FEFF 		bl	mf_compute_kerning
 639              	.LVL86:
 640 015c 201A     		subs	r0, r4, r0
 641 015e 03B2     		sxth	r3, r0
 642              	.L56:
 643 0160 7B60     		str	r3, [r7, #4]
 644              	.LVL87:
 645              		.loc 1 208 0
 646 0162 4A46     		mov	r2, r9
 647 0164 FB6C     		ldr	r3, [r7, #76]
 648 0166 5946     		mov	r1, fp
 649 0168 7868     		ldr	r0, [r7, #4]
 650 016a BC6C     		ldr	r4, [r7, #72]
 651 016c A047     		blx	r4
 652              	.LVL88:
 653              	.L43:
 654 016e 0AF1010A 		add	r10, r10, #1
 655              	.LVL89:
 656              		.loc 1 175 0
 657 0172 C846     		mov	r8, r9
 658 0174 B1E7     		b	.L41
 659              	.LVL90:
 660              	.L29:
 661              	.LBE17:
 662              	.LBE16:
 663              		.loc 1 237 0
 664 0176 1C37     		adds	r7, r7, #28
 665              	.LCFI15:
 666              		.cfi_def_cfa_offset 36
 667 0178 BD46     		mov	sp, r7
 668              	.LCFI16:
 669              		.cfi_def_cfa_register 13
 670              	.LVL91:
 671              		@ sp needed
 672 017a BDE8F08F 		pop	{r4, r5, r6, r7, r8, r9, r10, fp, pc}
 673              		.cfi_endproc
 674              	.LFE69:
 675              		.size	mf_render_aligned, .-mf_render_aligned
 676              		.section	.text.mf_render_justified,"ax",%progbits
 677              		.align	1
 678              		.global	mf_render_justified
 679              		.thumb
 680              		.thumb_func
 681              		.type	mf_render_justified, %function
 682              	mf_render_justified:
 683              	.LFB70:
 684              		.loc 1 249 0
ARM GAS  /var/folders/_2/42wyrlld3p52fkcpt1lv6gxh0000gp/T//ccQrwpL6.s 			page 13


 685              		.cfi_startproc
 686              		@ args = 16, pretend = 0, frame = 0
 687              		@ frame_needed = 1, uses_anonymous_args = 0
 688              		@ link register save eliminated.
 689              	.LVL92:
 690 0000 90B4     		push	{r4, r7}
 691              	.LCFI17:
 692              		.cfi_def_cfa_offset 8
 693              		.cfi_offset 4, -8
 694              		.cfi_offset 7, -4
 695 0002 00AF     		add	r7, sp, #0
 696              	.LCFI18:
 697              		.cfi_def_cfa_register 7
 698              		.loc 1 249 0
 699 0004 BB89     		ldrh	r3, [r7, #12]
 700              	.LVL93:
 701              		.loc 1 251 0
 702 0006 FB60     		str	r3, [r7, #12]
 703              	.LVL94:
 704 0008 0023     		movs	r3, #0
 705              		.loc 1 252 0
 706 000a BD46     		mov	sp, r7
 707              	.LCFI19:
 708              		.cfi_def_cfa_register 13
 709              		@ sp needed
 710 000c 90BC     		pop	{r4, r7}
 711              	.LCFI20:
 712              		.cfi_restore 7
 713              		.cfi_restore 4
 714              		.cfi_def_cfa_offset 0
 715              		.loc 1 251 0
 716 000e FFF7FEBF 		b	mf_render_aligned
 717              	.LVL95:
 718              		.cfi_endproc
 719              	.LFE70:
 720              		.size	mf_render_justified, .-mf_render_justified
 721              		.text
 722              	.Letext0:
 723              		.file 2 "/Users/ARS/Applications/Eclipse.app/Contents/gcc-arm-none-eabi-5_3-2016q1/arm-none-eabi/i
 724              		.file 3 "/Users/ARS/Applications/Eclipse.app/Contents/gcc-arm-none-eabi-5_3-2016q1/arm-none-eabi/i
 725              		.file 4 "ugfx/src/gdisp/mcufont/mf_font.h"
 726              		.file 5 "ugfx/src/gdisp/mcufont/mf_encoding.h"
 727              		.file 6 "ugfx/src/gdisp/mcufont/mf_justify.h"
 728              		.file 7 "ugfx/src/gdisp/mcufont/mf_kerning.h"
 729              		.file 8 "chibios/os/ports/common/ARMCMx/CMSIS/include/core_cm3.h"