ARM GAS  /var/folders/_2/42wyrlld3p52fkcpt1lv6gxh0000gp/T//cczn3Pma.s 			page 1


   1              		.syntax unified
   2              		.cpu cortex-m3
   3              		.fpu softvfp
   4              		.eabi_attribute 20, 1
   5              		.eabi_attribute 21, 1
   6              		.eabi_attribute 23, 3
   7              		.eabi_attribute 24, 1
   8              		.eabi_attribute 25, 1
   9              		.eabi_attribute 26, 1
  10              		.eabi_attribute 30, 4
  11              		.eabi_attribute 34, 1
  12              		.eabi_attribute 18, 4
  13              		.thumb
  14              		.syntax unified
  15              		.file	"mf_kerning.c"
  16              		.text
  17              	.Ltext0:
  18              		.cfi_sections	.debug_frame
  19              		.section	.text.fit_leftedge,"ax",%progbits
  20              		.align	1
  21              		.thumb
  22              		.thumb_func
  23              		.type	fit_leftedge, %function
  24              	fit_leftedge:
  25              	.LFB63:
  26              		.file 1 "ugfx/src/gdisp/mcufont/mf_kerning.c"
  27              		.loc 1 26 0
  28              		.cfi_startproc
  29              		@ args = 4, pretend = 0, frame = 0
  30              		@ frame_needed = 1, uses_anonymous_args = 0
  31              	.LVL0:
  32 0000 80B5     		push	{r7, lr}
  33              	.LCFI0:
  34              		.cfi_def_cfa_offset 8
  35              		.cfi_offset 7, -8
  36              		.cfi_offset 14, -4
  37              		.loc 1 30 0
  38 0002 072B     		cmp	r3, #7
  39              		.loc 1 26 0
  40 0004 00AF     		add	r7, sp, #0
  41              	.LCFI1:
  42              		.cfi_def_cfa_register 7
  43              		.loc 1 26 0
  44 0006 BA68     		ldr	r2, [r7, #8]
  45              	.LVL1:
  46              		.loc 1 30 0
  47 0008 07D9     		bls	.L1
  48              	.LVL2:
  49 000a 137C     		ldrb	r3, [r2, #16]	@ zero_extendqisi2
  50              	.LVL3:
  51 000c 91FBF3F1 		sdiv	r1, r1, r3
  52              	.LVL4:
  53 0010 C9B2     		uxtb	r1, r1
  54              	.LBB13:
  55              	.LBB14:
  56              	.LBB15:
  57              		.loc 1 33 0
ARM GAS  /var/folders/_2/42wyrlld3p52fkcpt1lv6gxh0000gp/T//cczn3Pma.s 			page 2


  58 0012 535C     		ldrb	r3, [r2, r1]	@ zero_extendqisi2
  59 0014 9842     		cmp	r0, r3
  60              		.loc 1 34 0
  61 0016 B8BF     		it	lt
  62 0018 5054     		strblt	r0, [r2, r1]
  63              	.LVL5:
  64              	.L1:
  65 001a 80BD     		pop	{r7, pc}
  66              	.LBE15:
  67              	.LBE14:
  68              	.LBE13:
  69              		.cfi_endproc
  70              	.LFE63:
  71              		.size	fit_leftedge, .-fit_leftedge
  72              		.section	.text.fit_rightedge,"ax",%progbits
  73              		.align	1
  74              		.thumb
  75              		.thumb_func
  76              		.type	fit_rightedge, %function
  77              	fit_rightedge:
  78              	.LFB64:
  79              		.loc 1 41 0
  80              		.cfi_startproc
  81              		@ args = 4, pretend = 0, frame = 0
  82              		@ frame_needed = 1, uses_anonymous_args = 0
  83              	.LVL6:
  84 0000 90B5     		push	{r4, r7, lr}
  85              	.LCFI2:
  86              		.cfi_def_cfa_offset 12
  87              		.cfi_offset 4, -12
  88              		.cfi_offset 7, -8
  89              		.cfi_offset 14, -4
  90              		.loc 1 44 0
  91 0002 072B     		cmp	r3, #7
  92              		.loc 1 41 0
  93 0004 00AF     		add	r7, sp, #0
  94              	.LCFI3:
  95              		.cfi_def_cfa_register 7
  96              		.loc 1 41 0
  97 0006 FC68     		ldr	r4, [r7, #12]
  98              	.LVL7:
  99              		.loc 1 44 0
 100 0008 0BD9     		bls	.L4
 101              	.LVL8:
 102 000a 237C     		ldrb	r3, [r4, #16]	@ zero_extendqisi2
 103              	.LVL9:
 104              	.LBB20:
 105              	.LBB21:
 106              	.LBB22:
 107              		.loc 1 47 0
 108 000c 0138     		subs	r0, r0, #1
 109              	.LVL10:
 110 000e 91FBF3F1 		sdiv	r1, r1, r3
 111              	.LVL11:
 112 0012 0244     		add	r2, r2, r0
 113              	.LVL12:
 114 0014 C9B2     		uxtb	r1, r1
ARM GAS  /var/folders/_2/42wyrlld3p52fkcpt1lv6gxh0000gp/T//cczn3Pma.s 			page 3


 115 0016 92B2     		uxth	r2, r2
 116              	.LVL13:
 117              		.loc 1 48 0
 118 0018 635C     		ldrb	r3, [r4, r1]	@ zero_extendqisi2
 119 001a 10B2     		sxth	r0, r2
 120 001c 9842     		cmp	r0, r3
 121              		.loc 1 49 0
 122 001e C8BF     		it	gt
 123 0020 6254     		strbgt	r2, [r4, r1]
 124              	.LVL14:
 125              	.L4:
 126 0022 90BD     		pop	{r4, r7, pc}
 127              	.LBE22:
 128              	.LBE21:
 129              	.LBE20:
 130              		.cfi_endproc
 131              	.LFE64:
 132              		.size	fit_rightedge, .-fit_rightedge
 133              		.section	.text.do_kerning,"ax",%progbits
 134              		.align	1
 135              		.thumb
 136              		.thumb_func
 137              		.type	do_kerning, %function
 138              	do_kerning:
 139              	.LFB65:
 140              		.loc 1 55 0
 141              		.cfi_startproc
 142              		@ args = 0, pretend = 0, frame = 0
 143              		@ frame_needed = 1, uses_anonymous_args = 0
 144              	.LVL15:
 145 0000 80B5     		push	{r7, lr}
 146              	.LCFI4:
 147              		.cfi_def_cfa_offset 8
 148              		.cfi_offset 7, -8
 149              		.cfi_offset 14, -4
 150              	.LBB25:
 151              	.LBB26:
 152              		.loc 1 57 0
 153 0002 A0F10903 		sub	r3, r0, #9
 154 0006 9BB2     		uxth	r3, r3
 155 0008 172B     		cmp	r3, #23
 156              	.LBE26:
 157              	.LBE25:
 158              		.loc 1 55 0
 159 000a 00AF     		add	r7, sp, #0
 160              	.LCFI5:
 161              		.cfi_def_cfa_register 7
 162              		.loc 1 55 0
 163 000c 0146     		mov	r1, r0
 164              	.LBB28:
 165              	.LBB27:
 166              		.loc 1 57 0
 167 000e 07D8     		bhi	.L7
 168 0010 064A     		ldr	r2, .L12
 169 0012 22FA03F3 		lsr	r3, r2, r3
 170 0016 03F00103 		and	r3, r3, #1
 171 001a 83F00100 		eor	r0, r3, #1
ARM GAS  /var/folders/_2/42wyrlld3p52fkcpt1lv6gxh0000gp/T//cczn3Pma.s 			page 4


 172              	.LVL16:
 173 001e 23B9     		cbnz	r3, .L8
 174              	.L7:
 175              		.loc 1 62 0
 176 0020 3039     		subs	r1, r1, #48
 177 0022 0929     		cmp	r1, #9
 178 0024 94BF     		ite	ls
 179 0026 0020     		movls	r0, #0
 180 0028 0120     		movhi	r0, #1
 181              	.L8:
 182              	.LBE27:
 183              	.LBE28:
 184              		.loc 1 66 0
 185 002a 80BD     		pop	{r7, pc}
 186              	.L13:
 187              		.align	2
 188              	.L12:
 189 002c 13008000 		.word	8388627
 190              		.cfi_endproc
 191              	.LFE65:
 192              		.size	do_kerning, .-do_kerning
 193              		.section	.text.mf_compute_kerning,"ax",%progbits
 194              		.align	1
 195              		.global	mf_compute_kerning
 196              		.thumb
 197              		.thumb_func
 198              		.type	mf_compute_kerning, %function
 199              	mf_compute_kerning:
 200              	.LFB68:
 201              		.loc 1 74 0
 202              		.cfi_startproc
 203              		@ args = 0, pretend = 0, frame = 40
 204              		@ frame_needed = 1, uses_anonymous_args = 0
 205              	.LVL17:
 206 0000 2DE9F041 		push	{r4, r5, r6, r7, r8, lr}
 207              	.LCFI6:
 208              		.cfi_def_cfa_offset 24
 209              		.cfi_offset 4, -24
 210              		.cfi_offset 5, -20
 211              		.cfi_offset 6, -16
 212              		.cfi_offset 7, -12
 213              		.cfi_offset 8, -8
 214              		.cfi_offset 14, -4
 215 0004 8CB0     		sub	sp, sp, #48
 216              	.LCFI7:
 217              		.cfi_def_cfa_offset 72
 218              		.loc 1 79 0
 219 0006 C37B     		ldrb	r3, [r0, #15]	@ zero_extendqisi2
 220              		.loc 1 74 0
 221 0008 02AF     		add	r7, sp, #8
 222              	.LCFI8:
 223              		.cfi_def_cfa 7, 64
 224              		.loc 1 79 0
 225 000a DB07     		lsls	r3, r3, #31
 226              		.loc 1 74 0
 227 000c 0546     		mov	r5, r0
 228 000e 0C46     		mov	r4, r1
ARM GAS  /var/folders/_2/42wyrlld3p52fkcpt1lv6gxh0000gp/T//cczn3Pma.s 			page 5


 229 0010 1646     		mov	r6, r2
 230              		.loc 1 79 0
 231 0012 01D5     		bpl	.L15
 232              	.LVL18:
 233              	.L17:
 234              		.loc 1 80 0
 235 0014 0020     		movs	r0, #0
 236 0016 60E0     		b	.L16
 237              	.LVL19:
 238              	.L15:
 239              		.loc 1 82 0
 240 0018 0846     		mov	r0, r1
 241              	.LVL20:
 242 001a FFF7FEFF 		bl	do_kerning
 243              	.LVL21:
 244 001e 0028     		cmp	r0, #0
 245 0020 F8D0     		beq	.L17
 246              		.loc 1 82 0 is_stmt 0 discriminator 1
 247 0022 3046     		mov	r0, r6
 248 0024 FFF7FEFF 		bl	do_kerning
 249              	.LVL22:
 250 0028 0028     		cmp	r0, #0
 251 002a F3D0     		beq	.L17
 252              		.loc 1 86 0 is_stmt 1
 253 002c 6B7A     		ldrb	r3, [r5, #9]	@ zero_extendqisi2
 254              		.loc 1 93 0
 255 002e FF21     		movs	r1, #255
 256              		.loc 1 86 0
 257 0030 0F33     		adds	r3, r3, #15
 258              	.LVL23:
 259              		.loc 1 87 0
 260 0032 1B11     		asrs	r3, r3, #4
 261              	.LVL24:
 262              		.loc 1 86 0
 263 0034 14BF     		ite	ne
 264 0036 DBB2     		uxtbne	r3, r3
 265              		.loc 1 87 0
 266 0038 0123     		moveq	r3, #1
 267              	.LVL25:
 268              		.loc 1 90 0
 269 003a 87F82430 		strb	r3, [r7, #36]
 270 003e 3B74     		strb	r3, [r7, #16]
 271              	.LVL26:
 272 0040 0023     		movs	r3, #0
 273              		.loc 1 94 0
 274 0042 1A46     		mov	r2, r3
 275 0044 07F11408 		add	r8, r7, #20
 276              	.LVL27:
 277              	.L19:
 278              		.loc 1 93 0 discriminator 3
 279 0048 D955     		strb	r1, [r3, r7]
 280              		.loc 1 94 0 discriminator 3
 281 004a 03F80820 		strb	r2, [r3, r8]
 282              	.LVL28:
 283 004e 0133     		adds	r3, r3, #1
 284              	.LVL29:
 285              		.loc 1 91 0 discriminator 3
ARM GAS  /var/folders/_2/42wyrlld3p52fkcpt1lv6gxh0000gp/T//cczn3Pma.s 			page 6


 286 0050 102B     		cmp	r3, #16
 287 0052 F9D1     		bne	.L19
 288              		.loc 1 98 0
 289 0054 234B     		ldr	r3, .L43
 290 0056 0022     		movs	r2, #0
 291 0058 1146     		mov	r1, r2
 292 005a 0093     		str	r3, [sp]
 293 005c CDF80480 		str	r8, [sp, #4]
 294 0060 2346     		mov	r3, r4
 295 0062 2846     		mov	r0, r5
 296 0064 FFF7FEFF 		bl	mf_render_character
 297              	.LVL30:
 298              		.loc 1 99 0
 299 0068 1F4B     		ldr	r3, .L43+4
 300 006a 0022     		movs	r2, #0
 301 006c 0093     		str	r3, [sp]
 302 006e 1146     		mov	r1, r2
 303 0070 3346     		mov	r3, r6
 304              		.loc 1 98 0
 305 0072 0446     		mov	r4, r0
 306              	.LVL31:
 307              		.loc 1 99 0
 308 0074 0197     		str	r7, [sp, #4]
 309 0076 2846     		mov	r0, r5
 310 0078 FFF7FEFF 		bl	mf_render_character
 311              	.LVL32:
 312 007c 0022     		movs	r2, #0
 313              		.loc 1 102 0
 314 007e FF23     		movs	r3, #255
 315              	.LVL33:
 316              	.L21:
 317              	.LBB29:
 318              		.loc 1 106 0
 319 0080 B95C     		ldrb	r1, [r7, r2]	@ zero_extendqisi2
 320 0082 FF29     		cmp	r1, #255
 321 0084 08D0     		beq	.L20
 322              		.loc 1 106 0 is_stmt 0 discriminator 1
 323 0086 18F80250 		ldrb	r5, [r8, r2]	@ zero_extendqisi2
 324 008a 2DB1     		cbz	r5, .L20
 325              		.loc 1 109 0 is_stmt 1
 326 008c 2144     		add	r1, r1, r4
 327 008e 491B     		subs	r1, r1, r5
 328 0090 C9B2     		uxtb	r1, r1
 329              	.LVL34:
 330 0092 8B42     		cmp	r3, r1
 331 0094 28BF     		it	cs
 332 0096 0B46     		movcs	r3, r1
 333              	.LVL35:
 334              	.L20:
 335 0098 0132     		adds	r2, r2, #1
 336              	.LVL36:
 337              	.LBE29:
 338              		.loc 1 103 0 discriminator 2
 339 009a 102A     		cmp	r2, #16
 340 009c F0D1     		bne	.L21
 341              		.loc 1 114 0
 342 009e FF2B     		cmp	r3, #255
ARM GAS  /var/folders/_2/42wyrlld3p52fkcpt1lv6gxh0000gp/T//cczn3Pma.s 			page 7


 343 00a0 B8D0     		beq	.L17
 344              	.LVL37:
 345              		.loc 1 120 0
 346 00a2 0219     		adds	r2, r0, r4
 347 00a4 5210     		asrs	r2, r2, #1
 348 00a6 C2EB0212 		rsb	r2, r2, r2, lsl #4
 349 00aa 6421     		movs	r1, #100
 350 00ac 92FBF1F2 		sdiv	r2, r2, r1
 351 00b0 0332     		adds	r2, r2, #3
 352 00b2 D31A     		subs	r3, r2, r3
 353              	.LVL38:
 354 00b4 1BB2     		sxth	r3, r3
 355              	.LVL39:
 356              		.loc 1 123 0
 357 00b6 002B     		cmp	r3, #0
 358 00b8 0CDC     		bgt	.L25
 359              		.loc 1 121 0
 360 00ba 24B2     		sxth	r4, r4
 361              	.LVL40:
 362 00bc 00B2     		sxth	r0, r0
 363              	.LVL41:
 364 00be A042     		cmp	r0, r4
 365 00c0 B8BF     		it	lt
 366 00c2 2046     		movlt	r0, r4
 367 00c4 6FF00404 		mvn	r4, #4
 368 00c8 90FBF4F0 		sdiv	r0, r0, r4
 369 00cc 00B2     		sxth	r0, r0
 370              		.loc 1 124 0
 371 00ce 8342     		cmp	r3, r0
 372 00d0 02DB     		blt	.L23
 373 00d2 00E0     		b	.L22
 374              	.LVL42:
 375              	.L25:
 376              		.loc 1 123 0
 377 00d4 0023     		movs	r3, #0
 378              	.LVL43:
 379              	.L22:
 380 00d6 1846     		mov	r0, r3
 381              	.L23:
 382              	.LVL44:
 383              		.loc 1 126 0
 384 00d8 40B2     		sxtb	r0, r0
 385              	.LVL45:
 386              	.L16:
 387              		.loc 1 127 0
 388 00da 2837     		adds	r7, r7, #40
 389              	.LCFI9:
 390              		.cfi_def_cfa_offset 24
 391 00dc BD46     		mov	sp, r7
 392              	.LCFI10:
 393              		.cfi_def_cfa_register 13
 394              		@ sp needed
 395 00de BDE8F081 		pop	{r4, r5, r6, r7, r8, pc}
 396              	.L44:
 397 00e2 00BF     		.align	2
 398              	.L43:
 399 00e4 00000000 		.word	fit_rightedge
ARM GAS  /var/folders/_2/42wyrlld3p52fkcpt1lv6gxh0000gp/T//cczn3Pma.s 			page 8


 400 00e8 00000000 		.word	fit_leftedge
 401              		.cfi_endproc
 402              	.LFE68:
 403              		.size	mf_compute_kerning, .-mf_compute_kerning
 404              		.text
 405              	.Letext0:
 406              		.file 2 "/Users/ARS/Applications/Eclipse.app/Contents/gcc-arm-none-eabi-5_3-2016q1/arm-none-eabi/i
 407              		.file 3 "/Users/ARS/Applications/Eclipse.app/Contents/gcc-arm-none-eabi-5_3-2016q1/arm-none-eabi/i
 408              		.file 4 "ugfx/src/gdisp/mcufont/mf_font.h"
 409              		.file 5 "ugfx/src/gdisp/mcufont/mf_encoding.h"
 410              		.file 6 "chibios/os/ports/common/ARMCMx/CMSIS/include/core_cm3.h"