ARM GAS  /var/folders/_2/42wyrlld3p52fkcpt1lv6gxh0000gp/T//cc08V9XA.s 			page 1


   1              		.syntax unified
   2              		.cpu cortex-m3
   3              		.fpu softvfp
   4              		.eabi_attribute 20, 1
   5              		.eabi_attribute 21, 1
   6              		.eabi_attribute 23, 3
   7              		.eabi_attribute 24, 1
   8              		.eabi_attribute 25, 1
   9              		.eabi_attribute 26, 1
  10              		.eabi_attribute 30, 4
  11              		.eabi_attribute 34, 1
  12              		.eabi_attribute 18, 4
  13              		.thumb
  14              		.syntax unified
  15              		.file	"mf_rlefont.c"
  16              		.text
  17              	.Ltext0:
  18              		.cfi_sections	.debug_frame
  19              		.section	.text.find_glyph,"ax",%progbits
  20              		.align	1
  21              		.thumb
  22              		.thumb_func
  23              		.type	find_glyph, %function
  24              	find_glyph:
  25              	.LFB63:
  26              		.file 1 "ugfx/src/gdisp/mcufont/mf_rlefont.c"
  27              		.loc 1 40 0
  28              		.cfi_startproc
  29              		@ args = 0, pretend = 0, frame = 0
  30              		@ frame_needed = 1, uses_anonymous_args = 0
  31              	.LVL0:
  32 0000 F0B5     		push	{r4, r5, r6, r7, lr}
  33              	.LCFI0:
  34              		.cfi_def_cfa_offset 20
  35              		.cfi_offset 4, -20
  36              		.cfi_offset 5, -16
  37              		.cfi_offset 6, -12
  38              		.cfi_offset 7, -8
  39              		.cfi_offset 14, -4
  40              		.loc 1 43 0
  41 0002 90F82A60 		ldrb	r6, [r0, #42]	@ zero_extendqisi2
  42              		.loc 1 40 0
  43 0006 00AF     		add	r7, sp, #0
  44              	.LCFI1:
  45              		.cfi_def_cfa_register 7
  46              		.loc 1 43 0
  47 0008 0022     		movs	r2, #0
  48              		.loc 1 45 0
  49 000a 4FF00C0E 		mov	lr, #12
  50              	.LVL1:
  51              	.L2:
  52              		.loc 1 43 0 discriminator 1
  53 000e B242     		cmp	r2, r6
  54 0010 12D2     		bcs	.L7
  55              		.loc 1 45 0
  56 0012 0EFB02F3 		mul	r3, lr, r2
  57 0016 C56A     		ldr	r5, [r0, #44]
ARM GAS  /var/folders/_2/42wyrlld3p52fkcpt1lv6gxh0000gp/T//cc08V9XA.s 			page 2


  58 0018 EC18     		adds	r4, r5, r3
  59              	.LVL2:
  60              		.loc 1 46 0
  61 001a EB5A     		ldrh	r3, [r5, r3]
  62              	.LVL3:
  63              		.loc 1 47 0
  64 001c 9942     		cmp	r1, r3
  65 001e 09D3     		bcc	.L3
  66              		.loc 1 47 0 is_stmt 0 discriminator 1
  67 0020 6588     		ldrh	r5, [r4, #2]
  68              		.loc 1 46 0 is_stmt 1 discriminator 1
  69 0022 CB1A     		subs	r3, r1, r3
  70              	.LVL4:
  71              		.loc 1 47 0 discriminator 1
  72 0024 AB42     		cmp	r3, r5
  73 0026 05D2     		bcs	.L3
  74              	.LVL5:
  75              	.LBB2:
  76              		.loc 1 49 0
  77 0028 6268     		ldr	r2, [r4, #4]
  78              	.LVL6:
  79              		.loc 1 50 0
  80 002a A068     		ldr	r0, [r4, #8]
  81              	.LVL7:
  82 002c 32F81330 		ldrh	r3, [r2, r3, lsl #1]
  83              	.LVL8:
  84 0030 1844     		add	r0, r0, r3
  85 0032 F0BD     		pop	{r4, r5, r6, r7, pc}
  86              	.LVL9:
  87              	.L3:
  88              	.LBE2:
  89              		.loc 1 43 0 discriminator 2
  90 0034 0132     		adds	r2, r2, #1
  91              	.LVL10:
  92 0036 EAE7     		b	.L2
  93              	.LVL11:
  94              	.L7:
  95              		.loc 1 54 0
  96 0038 0020     		movs	r0, #0
  97              	.LVL12:
  98              		.loc 1 55 0
  99 003a F0BD     		pop	{r4, r5, r6, r7, pc}
 100              		.cfi_endproc
 101              	.LFE63:
 102              		.size	find_glyph, .-find_glyph
 103              		.section	.text.write_pixels,"ax",%progbits
 104              		.align	1
 105              		.thumb
 106              		.thumb_func
 107              		.type	write_pixels, %function
 108              	write_pixels:
 109              	.LFB64:
 110              		.loc 1 74 0
 111              		.cfi_startproc
 112              		@ args = 0, pretend = 0, frame = 0
 113              		@ frame_needed = 1, uses_anonymous_args = 0
 114              	.LVL13:
ARM GAS  /var/folders/_2/42wyrlld3p52fkcpt1lv6gxh0000gp/T//cc08V9XA.s 			page 3


 115 0000 2DE9F043 		push	{r4, r5, r6, r7, r8, r9, lr}
 116              	.LCFI2:
 117              		.cfi_def_cfa_offset 28
 118              		.cfi_offset 4, -28
 119              		.cfi_offset 5, -24
 120              		.cfi_offset 6, -20
 121              		.cfi_offset 7, -16
 122              		.cfi_offset 8, -12
 123              		.cfi_offset 9, -8
 124              		.cfi_offset 14, -4
 125 0004 0446     		mov	r4, r0
 126 0006 0E46     		mov	r6, r1
 127 0008 9146     		mov	r9, r2
 128 000a 83B0     		sub	sp, sp, #12
 129              	.LCFI3:
 130              		.cfi_def_cfa_offset 40
 131 000c 02AF     		add	r7, sp, #8
 132              	.LCFI4:
 133              		.cfi_def_cfa 7, 32
 134              	.LVL14:
 135              	.L9:
 136              		.loc 1 78 0
 137 000e B4F90400 		ldrsh	r0, [r4, #4]
 138 0012 B4F90230 		ldrsh	r3, [r4, #2]
 139 0016 8219     		adds	r2, r0, r6
 140 0018 9A42     		cmp	r2, r3
 141 001a 14DB     		blt	.L15
 142              		.loc 1 80 0
 143 001c 1D1A     		subs	r5, r3, r0
 144              		.loc 1 81 0
 145 001e 2369     		ldr	r3, [r4, #16]
 146              		.loc 1 80 0
 147 0020 5FFA85F8 		uxtb	r8, r5
 148              	.LVL15:
 149              		.loc 1 81 0
 150 0024 0093     		str	r3, [sp]
 151 0026 4246     		mov	r2, r8
 152 0028 4B46     		mov	r3, r9
 153 002a B4F90610 		ldrsh	r1, [r4, #6]
 154 002e E568     		ldr	r5, [r4, #12]
 155 0030 A847     		blx	r5
 156              	.LVL16:
 157              		.loc 1 83 0
 158 0032 2388     		ldrh	r3, [r4]
 159              		.loc 1 82 0
 160 0034 C8EB0608 		rsb	r8, r8, r6
 161              	.LVL17:
 162              		.loc 1 83 0
 163 0038 A380     		strh	r3, [r4, #4]	@ movhi
 164              		.loc 1 84 0
 165 003a E388     		ldrh	r3, [r4, #6]
 166              		.loc 1 82 0
 167 003c 1FFA88F6 		uxth	r6, r8
 168              	.LVL18:
 169              		.loc 1 84 0
 170 0040 0133     		adds	r3, r3, #1
 171 0042 E380     		strh	r3, [r4, #6]	@ movhi
ARM GAS  /var/folders/_2/42wyrlld3p52fkcpt1lv6gxh0000gp/T//cc08V9XA.s 			page 4


 172 0044 E3E7     		b	.L9
 173              	.L15:
 174              		.loc 1 88 0
 175 0046 66B1     		cbz	r6, .L8
 176              		.loc 1 90 0
 177 0048 2369     		ldr	r3, [r4, #16]
 178 004a E568     		ldr	r5, [r4, #12]
 179 004c 0093     		str	r3, [sp]
 180 004e B4F90610 		ldrsh	r1, [r4, #6]
 181 0052 4B46     		mov	r3, r9
 182 0054 F2B2     		uxtb	r2, r6
 183 0056 A847     		blx	r5
 184              	.LVL19:
 185              		.loc 1 91 0
 186 0058 A588     		ldrh	r5, [r4, #4]
 187 005a 06EB0508 		add	r8, r6, r5
 188 005e A4F80480 		strh	r8, [r4, #4]	@ movhi
 189              	.L8:
 190              		.loc 1 93 0
 191 0062 0437     		adds	r7, r7, #4
 192              	.LCFI5:
 193              		.cfi_def_cfa_offset 28
 194 0064 BD46     		mov	sp, r7
 195              	.LCFI6:
 196              		.cfi_def_cfa_register 13
 197              		@ sp needed
 198 0066 BDE8F083 		pop	{r4, r5, r6, r7, r8, r9, pc}
 199              		.cfi_endproc
 200              	.LFE64:
 201              		.size	write_pixels, .-write_pixels
 202              		.section	.text.skip_pixels,"ax",%progbits
 203              		.align	1
 204              		.thumb
 205              		.thumb_func
 206              		.type	skip_pixels, %function
 207              	skip_pixels:
 208              	.LFB65:
 209              		.loc 1 97 0
 210              		.cfi_startproc
 211              		@ args = 0, pretend = 0, frame = 0
 212              		@ frame_needed = 1, uses_anonymous_args = 0
 213              	.LVL20:
 214 0000 90B5     		push	{r4, r7, lr}
 215              	.LCFI7:
 216              		.cfi_def_cfa_offset 12
 217              		.cfi_offset 4, -12
 218              		.cfi_offset 7, -8
 219              		.cfi_offset 14, -4
 220              		.loc 1 98 0
 221 0002 8388     		ldrh	r3, [r0, #4]
 222              		.loc 1 99 0
 223 0004 B0F90220 		ldrsh	r2, [r0, #2]
 224              		.loc 1 98 0
 225 0008 1944     		add	r1, r1, r3
 226              	.LVL21:
 227              		.loc 1 97 0
 228 000a 00AF     		add	r7, sp, #0
ARM GAS  /var/folders/_2/42wyrlld3p52fkcpt1lv6gxh0000gp/T//cc08V9XA.s 			page 5


 229              	.LCFI8:
 230              		.cfi_def_cfa_register 7
 231              		.loc 1 98 0
 232 000c 8180     		strh	r1, [r0, #4]	@ movhi
 233              		.loc 1 101 0
 234 000e 94B2     		uxth	r4, r2
 235              	.L17:
 236              		.loc 1 99 0
 237 0010 B0F90410 		ldrsh	r1, [r0, #4]
 238 0014 9142     		cmp	r1, r2
 239 0016 07DB     		blt	.L19
 240              		.loc 1 101 0
 241 0018 0388     		ldrh	r3, [r0]
 242 001a 0B44     		add	r3, r3, r1
 243 001c 1B1B     		subs	r3, r3, r4
 244 001e 8380     		strh	r3, [r0, #4]	@ movhi
 245              		.loc 1 102 0
 246 0020 C388     		ldrh	r3, [r0, #6]
 247 0022 0133     		adds	r3, r3, #1
 248 0024 C380     		strh	r3, [r0, #6]	@ movhi
 249 0026 F3E7     		b	.L17
 250              	.L19:
 251              		.loc 1 104 0
 252 0028 90BD     		pop	{r4, r7, pc}
 253              		.cfi_endproc
 254              	.LFE65:
 255              		.size	skip_pixels, .-skip_pixels
 256              		.section	.text.write_ref_codeword,"ax",%progbits
 257              		.align	1
 258              		.thumb
 259              		.thumb_func
 260              		.type	write_ref_codeword, %function
 261              	write_ref_codeword:
 262              	.LFB69:
 263              		.loc 1 195 0
 264              		.cfi_startproc
 265              		@ args = 0, pretend = 0, frame = 0
 266              		@ frame_needed = 1, uses_anonymous_args = 0
 267              	.LVL22:
 268 0000 2DE9F843 		push	{r3, r4, r5, r6, r7, r8, r9, lr}
 269              	.LCFI9:
 270              		.cfi_def_cfa_offset 32
 271              		.cfi_offset 3, -32
 272              		.cfi_offset 4, -28
 273              		.cfi_offset 5, -24
 274              		.cfi_offset 6, -20
 275              		.cfi_offset 7, -16
 276              		.cfi_offset 8, -12
 277              		.cfi_offset 9, -8
 278              		.cfi_offset 14, -4
 279              		.loc 1 196 0
 280 0004 0F2A     		cmp	r2, #15
 281              		.loc 1 195 0
 282 0006 00AF     		add	r7, sp, #0
 283              	.LCFI10:
 284              		.cfi_def_cfa_register 7
 285              		.loc 1 195 0
ARM GAS  /var/folders/_2/42wyrlld3p52fkcpt1lv6gxh0000gp/T//cc08V9XA.s 			page 6


 286 0008 0446     		mov	r4, r0
 287 000a 0D46     		mov	r5, r1
 288              		.loc 1 196 0
 289 000c 04D8     		bhi	.L21
 290              	.LVL23:
 291              	.LBB13:
 292              	.LBB14:
 293              		.loc 1 198 0
 294 000e 02EB0212 		add	r2, r2, r2, lsl #4
 295              	.LVL24:
 296 0012 D2B2     		uxtb	r2, r2
 297 0014 0121     		movs	r1, #1
 298              	.LVL25:
 299 0016 73E0     		b	.L52
 300              	.LVL26:
 301              	.L21:
 302              	.LBE14:
 303              	.LBE13:
 304              		.loc 1 200 0
 305 0018 102A     		cmp	r2, #16
 306 001a 03D1     		bne	.L22
 307              		.loc 1 203 0
 308 001c 0B89     		ldrh	r3, [r1, #8]
 309 001e CB80     		strh	r3, [r1, #6]	@ movhi
 310 0020 BDE8F883 		pop	{r3, r4, r5, r6, r7, r8, r9, pc}
 311              	.L22:
 312              		.loc 1 205 0
 313 0024 172A     		cmp	r2, #23
 314 0026 71D9     		bls	.L20
 315              		.loc 1 209 0
 316 0028 90F82830 		ldrb	r3, [r0, #40]	@ zero_extendqisi2
 317 002c 1733     		adds	r3, r3, #23
 318 002e 9342     		cmp	r3, r2
 319 0030 38DB     		blt	.L25
 320              	.LVL27:
 321              	.LBB15:
 322              	.LBB16:
 323              		.loc 1 111 0
 324 0032 436A     		ldr	r3, [r0, #36]
 325 0034 183A     		subs	r2, r2, #24
 326              	.LVL28:
 327 0036 D2B2     		uxtb	r2, r2
 328 0038 33F81280 		ldrh	r8, [r3, r2, lsl #1]
 329              	.LVL29:
 330              		.loc 1 112 0
 331 003c 03EB4202 		add	r2, r3, r2, lsl #1
 332 0040 C146     		mov	r9, r8
 333 0042 5688     		ldrh	r6, [r2, #2]
 334 0044 C8EB0606 		rsb	r6, r8, r6
 335 0048 B6B2     		uxth	r6, r6
 336              	.LVL30:
 337              	.L26:
 338              		.loc 1 115 0
 339 004a C8EB0903 		rsb	r3, r8, r9
 340 004e 9BB2     		uxth	r3, r3
 341 0050 9E42     		cmp	r6, r3
 342 0052 25D9     		bls	.L53
ARM GAS  /var/folders/_2/42wyrlld3p52fkcpt1lv6gxh0000gp/T//cc08V9XA.s 			page 7


 343              	.LBB17:
 344              		.loc 1 117 0
 345 0054 236A     		ldr	r3, [r4, #32]
 346 0056 13F80910 		ldrb	r1, [r3, r9]	@ zero_extendqisi2
 347              	.LVL31:
 348              		.loc 1 118 0
 349 005a 11F0C003 		ands	r3, r1, #192
 350 005e 05D0     		beq	.L50
 351              		.loc 1 122 0
 352 0060 402B     		cmp	r3, #64
 353 0062 07D1     		bne	.L29
 354              		.loc 1 124 0
 355 0064 01F03F01 		and	r1, r1, #63
 356              	.LVL32:
 357 0068 8901     		lsls	r1, r1, #6
 358 006a 4031     		adds	r1, r1, #64
 359              	.L50:
 360 006c 2846     		mov	r0, r5
 361 006e FFF7FEFF 		bl	skip_pixels
 362              	.LVL33:
 363 0072 12E0     		b	.L28
 364              	.LVL34:
 365              	.L29:
 366              		.loc 1 126 0
 367 0074 802B     		cmp	r3, #128
 368 0076 03D1     		bne	.L30
 369              		.loc 1 128 0
 370 0078 01F03F01 		and	r1, r1, #63
 371              	.LVL35:
 372 007c FF22     		movs	r2, #255
 373 007e 08E0     		b	.L51
 374              	.LVL36:
 375              	.L30:
 376              		.loc 1 130 0
 377 0080 C02B     		cmp	r3, #192
 378 0082 0AD1     		bne	.L28
 379              	.LVL37:
 380              	.LBB18:
 381              		.loc 1 135 0
 382 0084 01F00F02 		and	r2, r1, #15
 383 0088 02EB0212 		add	r2, r2, r2, lsl #4
 384 008c C1F30111 		ubfx	r1, r1, #4, #2
 385              	.LVL38:
 386 0090 D2B2     		uxtb	r2, r2
 387              	.LVL39:
 388              	.L51:
 389 0092 0131     		adds	r1, r1, #1
 390 0094 2846     		mov	r0, r5
 391 0096 FFF7FEFF 		bl	write_pixels
 392              	.LVL40:
 393              	.L28:
 394 009a 09F10109 		add	r9, r9, #1
 395 009e D4E7     		b	.L26
 396              	.LVL41:
 397              	.L53:
 398 00a0 BDE8F883 		pop	{r3, r4, r5, r6, r7, r8, r9, pc}
 399              	.LVL42:
ARM GAS  /var/folders/_2/42wyrlld3p52fkcpt1lv6gxh0000gp/T//cc08V9XA.s 			page 8


 400              	.L25:
 401              	.LBE18:
 402              	.LBE17:
 403              	.LBE16:
 404              	.LBE15:
 405              	.LBB19:
 406              	.LBB20:
 407              	.LBB21:
 408              	.LBB22:
 409              		.loc 1 143 0
 410 00a4 FB2A     		cmp	r2, #251
 411 00a6 0AD8     		bhi	.L39
 412              		.loc 1 145 0
 413 00a8 F32A     		cmp	r2, #243
 414 00aa 0AD8     		bhi	.L40
 415              		.loc 1 147 0
 416 00ac E32A     		cmp	r2, #227
 417 00ae 0AD8     		bhi	.L41
 418              		.loc 1 149 0
 419 00b0 C32A     		cmp	r2, #195
 420 00b2 0AD8     		bhi	.L42
 421              		.loc 1 154 0
 422 00b4 832A     		cmp	r2, #131
 423 00b6 8CBF     		ite	hi
 424 00b8 0626     		movhi	r6, #6
 425 00ba 0726     		movls	r6, #7
 426 00bc 06E0     		b	.L33
 427              	.L39:
 428              		.loc 1 144 0
 429 00be 0226     		movs	r6, #2
 430 00c0 04E0     		b	.L33
 431              	.L40:
 432              		.loc 1 146 0
 433 00c2 0326     		movs	r6, #3
 434 00c4 02E0     		b	.L33
 435              	.L41:
 436              		.loc 1 148 0
 437 00c6 0426     		movs	r6, #4
 438 00c8 00E0     		b	.L33
 439              	.L42:
 440              		.loc 1 150 0
 441 00ca 0526     		movs	r6, #5
 442              	.L33:
 443              	.LVL43:
 444              	.LBE22:
 445              	.LBE21:
 446              		.loc 1 163 0
 447 00cc 043A     		subs	r2, r2, #4
 448              	.LVL44:
 449 00ce D4B2     		uxtb	r4, r2
 450              	.LVL45:
 451              		.loc 1 164 0
 452 00d0 0021     		movs	r1, #0
 453              	.LVL46:
 454              	.L34:
 455              		.loc 1 167 0
 456 00d2 013E     		subs	r6, r6, #1
ARM GAS  /var/folders/_2/42wyrlld3p52fkcpt1lv6gxh0000gp/T//cc08V9XA.s 			page 9


 457              	.LVL47:
 458 00d4 F6B2     		uxtb	r6, r6
 459              	.LVL48:
 460 00d6 FF2E     		cmp	r6, #255
 461 00d8 10D0     		beq	.L54
 462              		.loc 1 169 0
 463 00da E307     		lsls	r3, r4, #31
 464 00dc 02D5     		bpl	.L35
 465              		.loc 1 171 0
 466 00de 0131     		adds	r1, r1, #1
 467              	.LVL49:
 468 00e0 C9B2     		uxtb	r1, r1
 469              	.LVL50:
 470 00e2 09E0     		b	.L36
 471              	.L35:
 472              		.loc 1 175 0
 473 00e4 19B1     		cbz	r1, .L37
 474              		.loc 1 177 0
 475 00e6 FF22     		movs	r2, #255
 476 00e8 2846     		mov	r0, r5
 477 00ea FFF7FEFF 		bl	write_pixels
 478              	.LVL51:
 479              	.L37:
 480              		.loc 1 181 0
 481 00ee 0121     		movs	r1, #1
 482 00f0 2846     		mov	r0, r5
 483 00f2 FFF7FEFF 		bl	skip_pixels
 484              	.LVL52:
 485 00f6 0021     		movs	r1, #0
 486              	.LVL53:
 487              	.L36:
 488              		.loc 1 184 0
 489 00f8 6408     		lsrs	r4, r4, #1
 490              	.LVL54:
 491 00fa EAE7     		b	.L34
 492              	.L54:
 493              		.loc 1 187 0
 494 00fc 31B1     		cbz	r1, .L20
 495              		.loc 1 188 0
 496 00fe 3246     		mov	r2, r6
 497              	.LVL55:
 498              	.L52:
 499 0100 2846     		mov	r0, r5
 500              	.LBE20:
 501              	.LBE19:
 502              		.loc 1 217 0
 503 0102 BD46     		mov	sp, r7
 504              	.LCFI11:
 505              		.cfi_remember_state
 506              		.cfi_def_cfa_register 13
 507              		@ sp needed
 508 0104 BDE8F843 		pop	{r3, r4, r5, r6, r7, r8, r9, lr}
 509              	.LCFI12:
 510              		.cfi_restore 14
 511              		.cfi_restore 9
 512              		.cfi_restore 8
 513              		.cfi_restore 7
ARM GAS  /var/folders/_2/42wyrlld3p52fkcpt1lv6gxh0000gp/T//cc08V9XA.s 			page 10


 514              		.cfi_restore 6
 515              		.cfi_restore 5
 516              		.cfi_restore 4
 517              		.cfi_restore 3
 518              		.cfi_def_cfa_offset 0
 519              	.LVL56:
 520              	.LBB24:
 521              	.LBB23:
 522              		.loc 1 188 0
 523 0108 FFF7FEBF 		b	write_pixels
 524              	.LVL57:
 525              	.L20:
 526              	.LCFI13:
 527              		.cfi_restore_state
 528 010c BDE8F883 		pop	{r3, r4, r5, r6, r7, r8, r9, pc}
 529              	.LBE23:
 530              	.LBE24:
 531              		.cfi_endproc
 532              	.LFE69:
 533              		.size	write_ref_codeword, .-write_ref_codeword
 534              		.section	.text.mf_rlefont_render_character,"ax",%progbits
 535              		.align	1
 536              		.global	mf_rlefont_render_character
 537              		.thumb
 538              		.thumb_func
 539              		.type	mf_rlefont_render_character, %function
 540              	mf_rlefont_render_character:
 541              	.LFB72:
 542              		.loc 1 257 0
 543              		.cfi_startproc
 544              		@ args = 8, pretend = 0, frame = 24
 545              		@ frame_needed = 1, uses_anonymous_args = 0
 546              	.LVL58:
 547 0000 2DE9F047 		push	{r4, r5, r6, r7, r8, r9, r10, lr}
 548              	.LCFI14:
 549              		.cfi_def_cfa_offset 32
 550              		.cfi_offset 4, -32
 551              		.cfi_offset 5, -28
 552              		.cfi_offset 6, -24
 553              		.cfi_offset 7, -20
 554              		.cfi_offset 8, -16
 555              		.cfi_offset 9, -12
 556              		.cfi_offset 10, -8
 557              		.cfi_offset 14, -4
 558 0004 86B0     		sub	sp, sp, #24
 559              	.LCFI15:
 560              		.cfi_def_cfa_offset 56
 561              		.loc 1 263 0
 562 0006 047A     		ldrb	r4, [r0, #8]	@ zero_extendqisi2
 563              		.loc 1 257 0
 564 0008 00AF     		add	r7, sp, #0
 565              	.LCFI16:
 566              		.cfi_def_cfa_register 7
 567              		.loc 1 263 0
 568 000a 0C44     		add	r4, r4, r1
 569              		.loc 1 262 0
 570 000c B980     		strh	r1, [r7, #4]	@ movhi
ARM GAS  /var/folders/_2/42wyrlld3p52fkcpt1lv6gxh0000gp/T//cc08V9XA.s 			page 11


 571              		.loc 1 264 0
 572 000e 3981     		strh	r1, [r7, #8]	@ movhi
 573              		.loc 1 266 0
 574 0010 417A     		ldrb	r1, [r0, #9]	@ zero_extendqisi2
 575              	.LVL59:
 576              		.loc 1 265 0
 577 0012 7A81     		strh	r2, [r7, #10]	@ movhi
 578              		.loc 1 266 0
 579 0014 0A44     		add	r2, r2, r1
 580              	.LVL60:
 581 0016 BA81     		strh	r2, [r7, #12]	@ movhi
 582              		.loc 1 267 0
 583 0018 BA6B     		ldr	r2, [r7, #56]
 584              		.loc 1 270 0
 585 001a 1946     		mov	r1, r3
 586              		.loc 1 267 0
 587 001c 3A61     		str	r2, [r7, #16]
 588              		.loc 1 268 0
 589 001e FA6B     		ldr	r2, [r7, #60]
 590              		.loc 1 257 0
 591 0020 0546     		mov	r5, r0
 592              		.loc 1 263 0
 593 0022 FC80     		strh	r4, [r7, #6]	@ movhi
 594              		.loc 1 268 0
 595 0024 7A61     		str	r2, [r7, #20]
 596              		.loc 1 270 0
 597 0026 FFF7FEFF 		bl	find_glyph
 598              	.LVL61:
 599              		.loc 1 271 0
 600 002a B0B3     		cbz	r0, .L56
 601              		.loc 1 274 0
 602 002c 0478     		ldrb	r4, [r0]	@ zero_extendqisi2
 603 002e 461C     		adds	r6, r0, #1
 604              	.LVL62:
 605              	.L57:
 606              		.loc 1 275 0
 607 0030 B7F90A20 		ldrsh	r2, [r7, #10]
 608 0034 B7F90C30 		ldrsh	r3, [r7, #12]
 609 0038 9A42     		cmp	r2, r3
 610 003a 2DDA     		bge	.L64
 611              	.LBB30:
 612              	.LBB31:
 613              		.loc 1 240 0
 614 003c 95F82830 		ldrb	r3, [r5, #40]	@ zero_extendqisi2
 615              	.LBE31:
 616              	.LBE30:
 617              		.loc 1 277 0
 618 0040 16F8012B 		ldrb	r2, [r6], #1	@ zero_extendqisi2
 619              	.LVL63:
 620              	.LBB36:
 621              	.LBB35:
 622              		.loc 1 240 0
 623 0044 1733     		adds	r3, r3, #23
 624 0046 9342     		cmp	r3, r2
 625 0048 21DA     		bge	.L58
 626 004a 95F82930 		ldrb	r3, [r5, #41]	@ zero_extendqisi2
 627 004e 1733     		adds	r3, r3, #23
ARM GAS  /var/folders/_2/42wyrlld3p52fkcpt1lv6gxh0000gp/T//cc08V9XA.s 			page 12


 628 0050 9A42     		cmp	r2, r3
 629 0052 1CDC     		bgt	.L58
 630              	.LVL64:
 631              	.LBB32:
 632              	.LBB33:
 633              		.loc 1 224 0
 634 0054 6B6A     		ldr	r3, [r5, #36]
 635 0056 183A     		subs	r2, r2, #24
 636              	.LVL65:
 637 0058 D2B2     		uxtb	r2, r2
 638              	.LVL66:
 639 005a 33F81290 		ldrh	r9, [r3, r2, lsl #1]
 640              	.LVL67:
 641              		.loc 1 225 0
 642 005e 03EB4202 		add	r2, r3, r2, lsl #1
 643 0062 CA46     		mov	r10, r9
 644 0064 B2F80280 		ldrh	r8, [r2, #2]
 645 0068 C9EB0808 		rsb	r8, r9, r8
 646 006c 1FFA88F8 		uxth	r8, r8
 647              	.LVL68:
 648              	.L59:
 649              		.loc 1 228 0
 650 0070 C9EB0A03 		rsb	r3, r9, r10
 651 0074 9BB2     		uxth	r3, r3
 652 0076 9845     		cmp	r8, r3
 653 0078 DAD9     		bls	.L57
 654              	.LVL69:
 655              	.LBB34:
 656              		.loc 1 230 0
 657 007a 2B6A     		ldr	r3, [r5, #32]
 658              		.loc 1 231 0
 659 007c 391D     		adds	r1, r7, #4
 660              	.LVL70:
 661 007e 13F80A20 		ldrb	r2, [r3, r10]	@ zero_extendqisi2
 662 0082 2846     		mov	r0, r5
 663 0084 FFF7FEFF 		bl	write_ref_codeword
 664              	.LVL71:
 665 0088 0AF1010A 		add	r10, r10, #1
 666 008c F0E7     		b	.L59
 667              	.LVL72:
 668              	.L58:
 669              	.LBE34:
 670              	.LBE33:
 671              	.LBE32:
 672              		.loc 1 247 0
 673 008e 391D     		adds	r1, r7, #4
 674              	.LVL73:
 675 0090 2846     		mov	r0, r5
 676 0092 FFF7FEFF 		bl	write_ref_codeword
 677              	.LVL74:
 678 0096 CBE7     		b	.L57
 679              	.LVL75:
 680              	.L64:
 681              	.LBE35:
 682              	.LBE36:
 683              		.loc 1 280 0
 684 0098 2046     		mov	r0, r4
ARM GAS  /var/folders/_2/42wyrlld3p52fkcpt1lv6gxh0000gp/T//cc08V9XA.s 			page 13


 685              	.LVL76:
 686              	.L56:
 687              		.loc 1 281 0
 688 009a 1837     		adds	r7, r7, #24
 689              	.LCFI17:
 690              		.cfi_def_cfa_offset 32
 691 009c BD46     		mov	sp, r7
 692              	.LCFI18:
 693              		.cfi_def_cfa_register 13
 694              		@ sp needed
 695 009e BDE8F087 		pop	{r4, r5, r6, r7, r8, r9, r10, pc}
 696              		.cfi_endproc
 697              	.LFE72:
 698              		.size	mf_rlefont_render_character, .-mf_rlefont_render_character
 699              		.section	.text.mf_rlefont_character_width,"ax",%progbits
 700              		.align	1
 701              		.global	mf_rlefont_character_width
 702              		.thumb
 703              		.thumb_func
 704              		.type	mf_rlefont_character_width, %function
 705              	mf_rlefont_character_width:
 706              	.LFB73:
 707              		.loc 1 285 0
 708              		.cfi_startproc
 709              		@ args = 0, pretend = 0, frame = 0
 710              		@ frame_needed = 1, uses_anonymous_args = 0
 711              	.LVL77:
 712 0000 80B5     		push	{r7, lr}
 713              	.LCFI19:
 714              		.cfi_def_cfa_offset 8
 715              		.cfi_offset 7, -8
 716              		.cfi_offset 14, -4
 717 0002 00AF     		add	r7, sp, #0
 718              	.LCFI20:
 719              		.cfi_def_cfa_register 7
 720              		.loc 1 287 0
 721 0004 FFF7FEFF 		bl	find_glyph
 722              	.LVL78:
 723              		.loc 1 288 0
 724 0008 00B1     		cbz	r0, .L66
 725              		.loc 1 291 0
 726 000a 0078     		ldrb	r0, [r0]	@ zero_extendqisi2
 727              	.LVL79:
 728              	.L66:
 729              		.loc 1 292 0
 730 000c 80BD     		pop	{r7, pc}
 731              		.cfi_endproc
 732              	.LFE73:
 733              		.size	mf_rlefont_character_width, .-mf_rlefont_character_width
 734              		.text
 735              	.Letext0:
 736              		.file 2 "/Users/ARS/Applications/Eclipse.app/Contents/gcc-arm-none-eabi-5_3-2016q1/arm-none-eabi/i
 737              		.file 3 "/Users/ARS/Applications/Eclipse.app/Contents/gcc-arm-none-eabi-5_3-2016q1/arm-none-eabi/i
 738              		.file 4 "ugfx/src/gdisp/mcufont/mf_font.h"
 739              		.file 5 "ugfx/src/gdisp/mcufont/mf_rlefont.h"
 740              		.file 6 "chibios/os/ports/common/ARMCMx/CMSIS/include/core_cm3.h"