ARM GAS  /var/folders/_2/42wyrlld3p52fkcpt1lv6gxh0000gp/T//cc0oqJF4.s 			page 1


   1              		.syntax unified
   2              		.cpu cortex-m3
   3              		.fpu softvfp
   4              		.eabi_attribute 20, 1
   5              		.eabi_attribute 21, 1
   6              		.eabi_attribute 23, 3
   7              		.eabi_attribute 24, 1
   8              		.eabi_attribute 25, 1
   9              		.eabi_attribute 26, 1
  10              		.eabi_attribute 30, 4
  11              		.eabi_attribute 34, 1
  12              		.eabi_attribute 18, 4
  13              		.thumb
  14              		.syntax unified
  15              		.file	"mf_scaledfont.c"
  16              		.text
  17              	.Ltext0:
  18              		.cfi_sections	.debug_frame
  19              		.section	.text.scaled_pixel_callback,"ax",%progbits
  20              		.align	1
  21              		.thumb
  22              		.thumb_func
  23              		.type	scaled_pixel_callback, %function
  24              	scaled_pixel_callback:
  25              	.LFB63:
  26              		.file 1 "ugfx/src/gdisp/mcufont/mf_scaledfont.c"
  27              		.loc 1 24 0
  28              		.cfi_startproc
  29              		@ args = 4, pretend = 0, frame = 0
  30              		@ frame_needed = 1, uses_anonymous_args = 0
  31              	.LVL0:
  32 0000 2DE9F04F 		push	{r4, r5, r6, r7, r8, r9, r10, fp, lr}
  33              	.LCFI0:
  34              		.cfi_def_cfa_offset 36
  35              		.cfi_offset 4, -36
  36              		.cfi_offset 5, -32
  37              		.cfi_offset 6, -28
  38              		.cfi_offset 7, -24
  39              		.cfi_offset 8, -20
  40              		.cfi_offset 9, -16
  41              		.cfi_offset 10, -12
  42              		.cfi_offset 11, -8
  43              		.cfi_offset 14, -4
  44 0004 83B0     		sub	sp, sp, #12
  45              	.LCFI1:
  46              		.cfi_def_cfa_offset 48
  47 0006 02AF     		add	r7, sp, #8
  48              	.LCFI2:
  49              		.cfi_def_cfa 7, 40
  50              		.loc 1 24 0
  51 0008 BC6A     		ldr	r4, [r7, #40]
  52              	.LVL1:
  53 000a 9B46     		mov	fp, r3
  54              		.loc 1 29 0
  55 000c 6589     		ldrh	r5, [r4, #10]
  56              		.loc 1 28 0
  57 000e 237A     		ldrb	r3, [r4, #8]	@ zero_extendqisi2
ARM GAS  /var/folders/_2/42wyrlld3p52fkcpt1lv6gxh0000gp/T//cc0oqJF4.s 			page 2


  58              	.LVL2:
  59              		.loc 1 30 0
  60 0010 B4F80C80 		ldrh	r8, [r4, #12]
  61              		.loc 1 28 0
  62 0014 5A43     		muls	r2, r3, r2
  63              	.LVL3:
  64              		.loc 1 29 0
  65 0016 03FB0050 		mla	r0, r3, r0, r5
  66              	.LVL4:
  67              		.loc 1 30 0
  68 001a 637A     		ldrb	r3, [r4, #9]	@ zero_extendqisi2
  69              		.loc 1 28 0
  70 001c 5FFA82FA 		uxtb	r10, r2
  71              	.LVL5:
  72              		.loc 1 30 0
  73 0020 03FB0181 		mla	r1, r3, r1, r8
  74              	.LVL6:
  75              		.loc 1 29 0
  76 0024 05B2     		sxth	r5, r0
  77              	.LVL7:
  78              		.loc 1 30 0
  79 0026 1FFA81F8 		uxth	r8, r1
  80              	.LVL8:
  81              		.loc 1 32 0
  82 002a 4FF00009 		mov	r9, #0
  83              	.LVL9:
  84              	.L2:
  85              		.loc 1 32 0 is_stmt 0 discriminator 1
  86 002e 637A     		ldrb	r3, [r4, #9]	@ zero_extendqisi2
  87 0030 5FFA89F1 		uxtb	r1, r9
  88              	.LVL10:
  89 0034 8B42     		cmp	r3, r1
  90 0036 09F10109 		add	r9, r9, #1
  91 003a 09D9     		bls	.L5
  92              		.loc 1 34 0 is_stmt 1 discriminator 3
  93 003c 6368     		ldr	r3, [r4, #4]
  94 003e 4144     		add	r1, r1, r8
  95              	.LVL11:
  96 0040 0093     		str	r3, [sp]
  97 0042 2668     		ldr	r6, [r4]
  98 0044 5B46     		mov	r3, fp
  99 0046 5246     		mov	r2, r10
 100 0048 09B2     		sxth	r1, r1
 101 004a 2846     		mov	r0, r5
 102 004c B047     		blx	r6
 103              	.LVL12:
 104 004e EEE7     		b	.L2
 105              	.LVL13:
 106              	.L5:
 107              		.loc 1 36 0
 108 0050 0437     		adds	r7, r7, #4
 109              	.LCFI3:
 110              		.cfi_def_cfa_offset 36
 111 0052 BD46     		mov	sp, r7
 112              	.LCFI4:
 113              		.cfi_def_cfa_register 13
 114              		@ sp needed
ARM GAS  /var/folders/_2/42wyrlld3p52fkcpt1lv6gxh0000gp/T//cc0oqJF4.s 			page 3


 115 0054 BDE8F08F 		pop	{r4, r5, r6, r7, r8, r9, r10, fp, pc}
 116              		.cfi_endproc
 117              	.LFE63:
 118              		.size	scaled_pixel_callback, .-scaled_pixel_callback
 119              		.section	.text.mf_scaled_character_width,"ax",%progbits
 120              		.align	1
 121              		.global	mf_scaled_character_width
 122              		.thumb
 123              		.thumb_func
 124              		.type	mf_scaled_character_width, %function
 125              	mf_scaled_character_width:
 126              	.LFB64:
 127              		.loc 1 40 0
 128              		.cfi_startproc
 129              		@ args = 0, pretend = 0, frame = 0
 130              		@ frame_needed = 1, uses_anonymous_args = 0
 131              	.LVL14:
 132 0000 98B5     		push	{r3, r4, r7, lr}
 133              	.LCFI5:
 134              		.cfi_def_cfa_offset 16
 135              		.cfi_offset 3, -16
 136              		.cfi_offset 4, -12
 137              		.cfi_offset 7, -8
 138              		.cfi_offset 14, -4
 139 0002 0446     		mov	r4, r0
 140              		.loc 1 44 0
 141 0004 C069     		ldr	r0, [r0, #28]
 142              	.LVL15:
 143              		.loc 1 40 0
 144 0006 00AF     		add	r7, sp, #0
 145              	.LCFI6:
 146              		.cfi_def_cfa_register 7
 147              		.loc 1 44 0
 148 0008 4369     		ldr	r3, [r0, #20]
 149 000a 9847     		blx	r3
 150              	.LVL16:
 151              		.loc 1 46 0
 152 000c 94F82030 		ldrb	r3, [r4, #32]	@ zero_extendqisi2
 153 0010 5843     		muls	r0, r3, r0
 154              	.LVL17:
 155              		.loc 1 47 0
 156 0012 C0B2     		uxtb	r0, r0
 157 0014 98BD     		pop	{r3, r4, r7, pc}
 158              		.cfi_endproc
 159              	.LFE64:
 160              		.size	mf_scaled_character_width, .-mf_scaled_character_width
 161              		.section	.text.mf_scaled_render_character,"ax",%progbits
 162              		.align	1
 163              		.global	mf_scaled_render_character
 164              		.thumb
 165              		.thumb_func
 166              		.type	mf_scaled_render_character, %function
 167              	mf_scaled_render_character:
 168              	.LFB65:
 169              		.loc 1 54 0
 170              		.cfi_startproc
 171              		@ args = 8, pretend = 0, frame = 16
ARM GAS  /var/folders/_2/42wyrlld3p52fkcpt1lv6gxh0000gp/T//cc0oqJF4.s 			page 4


 172              		@ frame_needed = 1, uses_anonymous_args = 0
 173              	.LVL18:
 174 0000 B0B5     		push	{r4, r5, r7, lr}
 175              	.LCFI7:
 176              		.cfi_def_cfa_offset 16
 177              		.cfi_offset 4, -16
 178              		.cfi_offset 5, -12
 179              		.cfi_offset 7, -8
 180              		.cfi_offset 14, -4
 181 0002 86B0     		sub	sp, sp, #24
 182              	.LCFI8:
 183              		.cfi_def_cfa_offset 40
 184 0004 0446     		mov	r4, r0
 185              	.LVL19:
 186 0006 02AF     		add	r7, sp, #8
 187              	.LCFI9:
 188              		.cfi_def_cfa 7, 32
 189              		.loc 1 59 0
 190 0008 386A     		ldr	r0, [r7, #32]
 191              	.LVL20:
 192              		.loc 1 64 0
 193 000a BA81     		strh	r2, [r7, #12]	@ movhi
 194              		.loc 1 59 0
 195 000c 3860     		str	r0, [r7]
 196              		.loc 1 60 0
 197 000e 786A     		ldr	r0, [r7, #36]
 198              		.loc 1 66 0
 199 0010 0B4A     		ldr	r2, .L8
 200              	.LVL21:
 201              		.loc 1 60 0
 202 0012 7860     		str	r0, [r7, #4]
 203              		.loc 1 61 0
 204 0014 94F82000 		ldrb	r0, [r4, #32]	@ zero_extendqisi2
 205              		.loc 1 66 0
 206 0018 0197     		str	r7, [sp, #4]
 207              		.loc 1 61 0
 208 001a 3872     		strb	r0, [r7, #8]
 209              		.loc 1 62 0
 210 001c 94F82100 		ldrb	r0, [r4, #33]	@ zero_extendqisi2
 211              		.loc 1 66 0
 212 0020 0092     		str	r2, [sp]
 213              		.loc 1 62 0
 214 0022 7872     		strb	r0, [r7, #9]
 215              		.loc 1 66 0
 216 0024 E069     		ldr	r0, [r4, #28]
 217 0026 0022     		movs	r2, #0
 218              		.loc 1 63 0
 219 0028 7981     		strh	r1, [r7, #10]	@ movhi
 220              		.loc 1 66 0
 221 002a 8569     		ldr	r5, [r0, #24]
 222 002c 1146     		mov	r1, r2
 223              	.LVL22:
 224 002e A847     		blx	r5
 225              	.LVL23:
 226              		.loc 1 69 0
 227 0030 94F82030 		ldrb	r3, [r4, #32]	@ zero_extendqisi2
 228              		.loc 1 70 0
ARM GAS  /var/folders/_2/42wyrlld3p52fkcpt1lv6gxh0000gp/T//cc0oqJF4.s 			page 5


 229 0034 1037     		adds	r7, r7, #16
 230              	.LCFI10:
 231              		.cfi_def_cfa_offset 16
 232              		.loc 1 69 0
 233 0036 5843     		muls	r0, r3, r0
 234              	.LVL24:
 235              		.loc 1 70 0
 236 0038 C0B2     		uxtb	r0, r0
 237 003a BD46     		mov	sp, r7
 238              	.LCFI11:
 239              		.cfi_def_cfa_register 13
 240              		@ sp needed
 241 003c B0BD     		pop	{r4, r5, r7, pc}
 242              	.LVL25:
 243              	.L9:
 244 003e 00BF     		.align	2
 245              	.L8:
 246 0040 00000000 		.word	scaled_pixel_callback
 247              		.cfi_endproc
 248              	.LFE65:
 249              		.size	mf_scaled_render_character, .-mf_scaled_render_character
 250              		.section	.text.mf_scale_font,"ax",%progbits
 251              		.align	1
 252              		.global	mf_scale_font
 253              		.thumb
 254              		.thumb_func
 255              		.type	mf_scale_font, %function
 256              	mf_scale_font:
 257              	.LFB66:
 258              		.loc 1 75 0
 259              		.cfi_startproc
 260              		@ args = 0, pretend = 0, frame = 0
 261              		@ frame_needed = 1, uses_anonymous_args = 0
 262              	.LVL26:
 263 0000 2DE9F041 		push	{r4, r5, r6, r7, r8, lr}
 264              	.LCFI12:
 265              		.cfi_def_cfa_offset 24
 266              		.cfi_offset 4, -24
 267              		.cfi_offset 5, -20
 268              		.cfi_offset 6, -16
 269              		.cfi_offset 7, -12
 270              		.cfi_offset 8, -8
 271              		.cfi_offset 14, -4
 272              		.loc 1 76 0
 273 0004 0546     		mov	r5, r0
 274 0006 0E46     		mov	r6, r1
 275              		.loc 1 75 0
 276 0008 0446     		mov	r4, r0
 277 000a 9646     		mov	lr, r2
 278 000c 9C46     		mov	ip, r3
 279 000e 8846     		mov	r8, r1
 280              		.loc 1 76 0
 281 0010 0FCE     		ldmia	r6!, {r0, r1, r2, r3}
 282              	.LVL27:
 283 0012 0FC5     		stmia	r5!, {r0, r1, r2, r3}
 284 0014 96E80700 		ldmia	r6, {r0, r1, r2}
 285 0018 85E80700 		stmia	r5, {r0, r1, r2}
ARM GAS  /var/folders/_2/42wyrlld3p52fkcpt1lv6gxh0000gp/T//cc0oqJF4.s 			page 6


 286              		.loc 1 79 0
 287 001c 237A     		ldrb	r3, [r4, #8]	@ zero_extendqisi2
 288              		.loc 1 77 0
 289 001e C4F81C80 		str	r8, [r4, #28]
 290              		.loc 1 79 0
 291 0022 03FB0EF3 		mul	r3, r3, lr
 292 0026 2372     		strb	r3, [r4, #8]
 293              		.loc 1 80 0
 294 0028 637A     		ldrb	r3, [r4, #9]	@ zero_extendqisi2
 295              		.loc 1 75 0
 296 002a 00AF     		add	r7, sp, #0
 297              	.LCFI13:
 298              		.cfi_def_cfa_register 7
 299              		.loc 1 80 0
 300 002c 03FB0CF3 		mul	r3, r3, ip
 301 0030 6372     		strb	r3, [r4, #9]
 302              		.loc 1 81 0
 303 0032 237B     		ldrb	r3, [r4, #12]	@ zero_extendqisi2
 304 0034 03FB0EF3 		mul	r3, r3, lr
 305 0038 2373     		strb	r3, [r4, #12]
 306              		.loc 1 82 0
 307 003a 637B     		ldrb	r3, [r4, #13]	@ zero_extendqisi2
 308 003c 03FB0CF3 		mul	r3, r3, ip
 309 0040 6373     		strb	r3, [r4, #13]
 310              		.loc 1 83 0
 311 0042 A37A     		ldrb	r3, [r4, #10]	@ zero_extendqisi2
 312 0044 03FB0EF3 		mul	r3, r3, lr
 313 0048 A372     		strb	r3, [r4, #10]
 314              		.loc 1 84 0
 315 004a E37A     		ldrb	r3, [r4, #11]	@ zero_extendqisi2
 316 004c 03FB0EF3 		mul	r3, r3, lr
 317 0050 E372     		strb	r3, [r4, #11]
 318              		.loc 1 85 0
 319 0052 A37B     		ldrb	r3, [r4, #14]	@ zero_extendqisi2
 320 0054 03FB0CF3 		mul	r3, r3, ip
 321 0058 A373     		strb	r3, [r4, #14]
 322              		.loc 1 86 0
 323 005a 054B     		ldr	r3, .L11
 324 005c 6361     		str	r3, [r4, #20]
 325              		.loc 1 87 0
 326 005e 054B     		ldr	r3, .L11+4
 327 0060 A361     		str	r3, [r4, #24]
 328              		.loc 1 89 0
 329 0062 84F820E0 		strb	lr, [r4, #32]
 330              		.loc 1 90 0
 331 0066 84F821C0 		strb	ip, [r4, #33]
 332 006a BDE8F081 		pop	{r4, r5, r6, r7, r8, pc}
 333              	.LVL28:
 334              	.L12:
 335 006e 00BF     		.align	2
 336              	.L11:
 337 0070 00000000 		.word	mf_scaled_character_width
 338 0074 00000000 		.word	mf_scaled_render_character
 339              		.cfi_endproc
 340              	.LFE66:
 341              		.size	mf_scale_font, .-mf_scale_font
 342              		.text
ARM GAS  /var/folders/_2/42wyrlld3p52fkcpt1lv6gxh0000gp/T//cc0oqJF4.s 			page 7


 343              	.Letext0:
 344              		.file 2 "/Users/ARS/Applications/Eclipse.app/Contents/gcc-arm-none-eabi-5_3-2016q1/arm-none-eabi/i
 345              		.file 3 "/Users/ARS/Applications/Eclipse.app/Contents/gcc-arm-none-eabi-5_3-2016q1/arm-none-eabi/i
 346              		.file 4 "ugfx/src/gdisp/mcufont/mf_font.h"
 347              		.file 5 "ugfx/src/gdisp/mcufont/mf_scaledfont.h"
 348              		.file 6 "chibios/os/ports/common/ARMCMx/CMSIS/include/core_cm3.h"