ARM GAS  /var/folders/_2/42wyrlld3p52fkcpt1lv6gxh0000gp/T//ccqqgELU.s 			page 1


   1              		.syntax unified
   2              		.cpu cortex-m3
   3              		.fpu softvfp
   4              		.eabi_attribute 20, 1
   5              		.eabi_attribute 21, 1
   6              		.eabi_attribute 23, 3
   7              		.eabi_attribute 24, 1
   8              		.eabi_attribute 25, 1
   9              		.eabi_attribute 26, 1
  10              		.eabi_attribute 30, 4
  11              		.eabi_attribute 34, 1
  12              		.eabi_attribute 18, 4
  13              		.thumb
  14              		.syntax unified
  15              		.file	"mf_wordwrap.c"
  16              		.text
  17              	.Ltext0:
  18              		.cfi_sections	.debug_frame
  19              		.section	.text.mf_wordwrap,"ax",%progbits
  20              		.align	1
  21              		.global	mf_wordwrap
  22              		.thumb
  23              		.thumb_func
  24              		.type	mf_wordwrap, %function
  25              	mf_wordwrap:
  26              	.LFB64:
  27              		.file 1 "ugfx/src/gdisp/mcufont/mf_wordwrap.c"
  28              		.loc 1 230 0
  29              		.cfi_startproc
  30              		@ args = 4, pretend = 0, frame = 24
  31              		@ frame_needed = 1, uses_anonymous_args = 0
  32              	.LVL0:
  33 0000 2DE9F04F 		push	{r4, r5, r6, r7, r8, r9, r10, fp, lr}
  34              	.LCFI0:
  35              		.cfi_def_cfa_offset 36
  36              		.cfi_offset 4, -36
  37              		.cfi_offset 5, -32
  38              		.cfi_offset 6, -28
  39              		.cfi_offset 7, -24
  40              		.cfi_offset 8, -20
  41              		.cfi_offset 9, -16
  42              		.cfi_offset 10, -12
  43              		.cfi_offset 11, -8
  44              		.cfi_offset 14, -4
  45 0004 87B0     		sub	sp, sp, #28
  46              	.LCFI1:
  47              		.cfi_def_cfa_offset 64
  48 0006 00AF     		add	r7, sp, #0
  49              	.LCFI2:
  50              		.cfi_def_cfa_register 7
  51              		.loc 1 230 0
  52 0008 FB60     		str	r3, [r7, #12]
  53              	.LVL1:
  54 000a 8346     		mov	fp, r0
  55              		.loc 1 240 0
  56 000c 1346     		mov	r3, r2
  57              	.LVL2:
ARM GAS  /var/folders/_2/42wyrlld3p52fkcpt1lv6gxh0000gp/T//ccqqgELU.s 			page 2


  58              		.loc 1 230 0
  59 000e 07F1180A 		add	r10, r7, #24
  60 0012 3961     		str	r1, [r7, #16]
  61 0014 4AF8042D 		str	r2, [r10, #-4]!
  62              	.LVL3:
  63              	.L2:
  64              		.loc 1 242 0
  65 0018 7E69     		ldr	r6, [r7, #20]
  66 001a 3278     		ldrb	r2, [r6]	@ zero_extendqisi2
  67 001c 002A     		cmp	r2, #0
  68 001e 3CD0     		beq	.L1
  69 0020 0024     		movs	r4, #0
  70 0022 2546     		mov	r5, r4
  71 0024 A046     		mov	r8, r4
  72              	.LVL4:
  73              	.L12:
  74              		.loc 1 247 0
  75 0026 7A69     		ldr	r2, [r7, #20]
  76 0028 1178     		ldrb	r1, [r2]	@ zero_extendqisi2
  77 002a 51B3     		cbz	r1, .L4
  78              	.LBB5:
  79              		.loc 1 254 0
  80 002c 5046     		mov	r0, r10
  81 002e 7A60     		str	r2, [r7, #4]
  82 0030 BB60     		str	r3, [r7, #8]
  83 0032 FFF7FEFF 		bl	mf_getchar
  84              	.LVL5:
  85 0036 8146     		mov	r9, r0
  86              	.LVL6:
  87              		.loc 1 255 0
  88 0038 0146     		mov	r1, r0
  89 003a 5846     		mov	r0, fp
  90              	.LVL7:
  91 003c FFF7FEFF 		bl	mf_character_width
  92              	.LVL8:
  93              		.loc 1 257 0
  94 0040 B9F10A0F 		cmp	r9, #10
  95              		.loc 1 255 0
  96 0044 4044     		add	r0, r0, r8
  97 0046 0FFA80F8 		sxth	r8, r0
  98              	.LVL9:
  99              		.loc 1 257 0
 100 004a BB68     		ldr	r3, [r7, #8]
 101 004c 7A68     		ldr	r2, [r7, #4]
 102 004e 03D1     		bne	.L3
 103              		.loc 1 259 0
 104 0050 6C1C     		adds	r4, r5, #1
 105 0052 24B2     		sxth	r4, r4
 106              	.LVL10:
 107              		.loc 1 260 0
 108 0054 7E69     		ldr	r6, [r7, #20]
 109              	.LVL11:
 110              		.loc 1 261 0
 111 0056 14E0     		b	.L4
 112              	.LVL12:
 113              	.L3:
 114              		.loc 1 264 0
ARM GAS  /var/folders/_2/42wyrlld3p52fkcpt1lv6gxh0000gp/T//ccqqgELU.s 			page 3


 115 0058 3969     		ldr	r1, [r7, #16]
 116 005a 8845     		cmp	r8, r1
 117 005c 01DD     		ble	.L5
 118              		.loc 1 266 0
 119 005e 7A61     		str	r2, [r7, #20]
 120              		.loc 1 267 0
 121 0060 0FE0     		b	.L4
 122              	.L5:
 123 0062 0135     		adds	r5, r5, #1
 124              	.LVL13:
 125              	.LBB6:
 126              	.LBB7:
 127              		.loc 1 15 0
 128 0064 B9F1200F 		cmp	r9, #32
 129 0068 2DB2     		sxth	r5, r5
 130              	.LVL14:
 131 006a 07D0     		beq	.L6
 132 006c 29F00402 		bic	r2, r9, #4
 133 0070 92B2     		uxth	r2, r2
 134 0072 092A     		cmp	r2, #9
 135 0074 02D0     		beq	.L6
 136              	.LVL15:
 137              	.LBE7:
 138              	.LBE6:
 139              		.loc 1 273 0
 140 0076 B9F12D0F 		cmp	r9, #45
 141 007a D4D1     		bne	.L12
 142              	.L6:
 143              	.LVL16:
 144              		.loc 1 276 0
 145 007c 7E69     		ldr	r6, [r7, #20]
 146              	.LVL17:
 147              		.loc 1 275 0
 148 007e 2C46     		mov	r4, r5
 149 0080 D1E7     		b	.L12
 150              	.LVL18:
 151              	.L4:
 152              	.LBE5:
 153              		.loc 1 281 0
 154 0082 0CB9     		cbnz	r4, .L9
 155              	.LVL19:
 156              		.loc 1 284 0
 157 0084 2C46     		mov	r4, r5
 158 0086 7E69     		ldr	r6, [r7, #20]
 159              	.LVL20:
 160              	.L9:
 161              		.loc 1 287 0
 162 0088 1846     		mov	r0, r3
 163 008a 3A6C     		ldr	r2, [r7, #64]
 164 008c A1B2     		uxth	r1, r4
 165 008e FB68     		ldr	r3, [r7, #12]
 166 0090 9847     		blx	r3
 167              	.LVL21:
 168 0092 10B1     		cbz	r0, .L1
 169              	.LVL22:
 170              		.loc 1 291 0
 171 0094 7E61     		str	r6, [r7, #20]
ARM GAS  /var/folders/_2/42wyrlld3p52fkcpt1lv6gxh0000gp/T//ccqqgELU.s 			page 4


 172              	.LVL23:
 173              		.loc 1 290 0
 174 0096 3346     		mov	r3, r6
 175 0098 BEE7     		b	.L2
 176              	.LVL24:
 177              	.L1:
 178              		.loc 1 295 0
 179 009a 1C37     		adds	r7, r7, #28
 180              	.LCFI3:
 181              		.cfi_def_cfa_offset 36
 182 009c BD46     		mov	sp, r7
 183              	.LCFI4:
 184              		.cfi_def_cfa_register 13
 185              		@ sp needed
 186 009e BDE8F08F 		pop	{r4, r5, r6, r7, r8, r9, r10, fp, pc}
 187              		.cfi_endproc
 188              	.LFE64:
 189              		.size	mf_wordwrap, .-mf_wordwrap
 190              		.text
 191              	.Letext0:
 192              		.file 2 "/Users/ARS/Applications/Eclipse.app/Contents/gcc-arm-none-eabi-5_3-2016q1/arm-none-eabi/i
 193              		.file 3 "/Users/ARS/Applications/Eclipse.app/Contents/gcc-arm-none-eabi-5_3-2016q1/arm-none-eabi/i
 194              		.file 4 "ugfx/src/gdisp/mcufont/mf_font.h"
 195              		.file 5 "ugfx/src/gdisp/mcufont/mf_encoding.h"
 196              		.file 6 "ugfx/src/gdisp/mcufont/mf_wordwrap.h"
 197              		.file 7 "chibios/os/ports/common/ARMCMx/CMSIS/include/core_cm3.h"