ARM GAS  /var/folders/_2/42wyrlld3p52fkcpt1lv6gxh0000gp/T//cc8DsTLi.s 			page 1


   1              		.syntax unified
   2              		.cpu cortex-m3
   3              		.fpu softvfp
   4              		.eabi_attribute 20, 1
   5              		.eabi_attribute 21, 1
   6              		.eabi_attribute 23, 3
   7              		.eabi_attribute 24, 1
   8              		.eabi_attribute 25, 1
   9              		.eabi_attribute 26, 1
  10              		.eabi_attribute 30, 4
  11              		.eabi_attribute 34, 1
  12              		.eabi_attribute 18, 4
  13              		.thumb
  14              		.syntax unified
  15              		.file	"ntc.c"
  16              		.text
  17              	.Ltext0:
  18              		.cfi_sections	.debug_frame
  19              		.section	.text.ntc_connected,"ax",%progbits
  20              		.align	1
  21              		.global	ntc_connected
  22              		.thumb
  23              		.thumb_func
  24              		.type	ntc_connected, %function
  25              	ntc_connected:
  26              	.LFB65:
  27              		.file 1 "src/ntc.c"
  28              		.loc 1 95 0
  29              		.cfi_startproc
  30              		@ args = 0, pretend = 0, frame = 8
  31              		@ frame_needed = 1, uses_anonymous_args = 0
  32 0000 F0B5     		push	{r4, r5, r6, r7, lr}
  33              	.LCFI0:
  34              		.cfi_def_cfa_offset 20
  35              		.cfi_offset 4, -20
  36              		.cfi_offset 5, -16
  37              		.cfi_offset 6, -12
  38              		.cfi_offset 7, -8
  39              		.cfi_offset 14, -4
  40              		.loc 1 96 0
  41 0002 104D     		ldr	r5, .L2
  42              		.loc 1 95 0
  43 0004 83B0     		sub	sp, sp, #12
  44              	.LCFI1:
  45              		.cfi_def_cfa_offset 32
  46              		.loc 1 100 0
  47 0006 104C     		ldr	r4, .L2+4
  48              		.loc 1 96 0
  49 0008 8026     		movs	r6, #128
  50              		.loc 1 95 0
  51              		.loc 1 97 0
  52 000a 3220     		movs	r0, #50
  53              		.loc 1 95 0
  54 000c 00AF     		add	r7, sp, #0
  55              	.LCFI2:
  56              		.cfi_def_cfa_register 7
  57              		.loc 1 96 0
ARM GAS  /var/folders/_2/42wyrlld3p52fkcpt1lv6gxh0000gp/T//cc8DsTLi.s 			page 2


  58 000e 2E83     		strh	r6, [r5, #24]	@ movhi
  59              		.loc 1 97 0
  60 0010 FFF7FEFF 		bl	chThdSleep
  61              	.LVL0:
  62              		.loc 1 100 0
  63 0014 2046     		mov	r0, r4
  64 0016 FFF7FEFF 		bl	adcAcquireBus
  65              	.LVL1:
  66              		.loc 1 101 0
  67 001a BA1D     		adds	r2, r7, #6
  68 001c 0123     		movs	r3, #1
  69 001e 0B49     		ldr	r1, .L2+8
  70 0020 2046     		mov	r0, r4
  71 0022 FFF7FEFF 		bl	adcConvert
  72              	.LVL2:
  73              		.loc 1 102 0
  74 0026 2046     		mov	r0, r4
  75 0028 FFF7FEFF 		bl	adcReleaseBus
  76              	.LVL3:
  77              		.loc 1 110 0
  78 002c 40F6FA73 		movw	r3, #4090
  79              		.loc 1 104 0
  80 0030 6E83     		strh	r6, [r5, #26]	@ movhi
  81              		.loc 1 106 0
  82 0032 F888     		ldrh	r0, [r7, #6]
  83              		.loc 1 110 0
  84 0034 0C37     		adds	r7, r7, #12
  85              	.LCFI3:
  86              		.cfi_def_cfa_offset 20
  87 0036 9842     		cmp	r0, r3
  88 0038 8CBF     		ite	hi
  89 003a 0020     		movhi	r0, #0
  90 003c 0120     		movls	r0, #1
  91 003e BD46     		mov	sp, r7
  92              	.LCFI4:
  93              		.cfi_def_cfa_register 13
  94              		@ sp needed
  95 0040 F0BD     		pop	{r4, r5, r6, r7, pc}
  96              	.L3:
  97 0042 00BF     		.align	2
  98              	.L2:
  99 0044 00000240 		.word	1073872896
 100 0048 00000000 		.word	ADCD1
 101 004c 00000000 		.word	.LANCHOR0
 102              		.cfi_endproc
 103              	.LFE65:
 104              		.size	ntc_connected, .-ntc_connected
 105              		.section	.text.ntc_read,"ax",%progbits
 106              		.align	1
 107              		.global	ntc_read
 108              		.thumb
 109              		.thumb_func
 110              		.type	ntc_read, %function
 111              	ntc_read:
 112              	.LFB66:
 113              		.loc 1 113 0
 114              		.cfi_startproc
ARM GAS  /var/folders/_2/42wyrlld3p52fkcpt1lv6gxh0000gp/T//cc8DsTLi.s 			page 3


 115              		@ args = 0, pretend = 0, frame = 32
 116              		@ frame_needed = 1, uses_anonymous_args = 0
 117 0000 B0B5     		push	{r4, r5, r7, lr}
 118              	.LCFI5:
 119              		.cfi_def_cfa_offset 16
 120              		.cfi_offset 4, -16
 121              		.cfi_offset 5, -12
 122              		.cfi_offset 7, -8
 123              		.cfi_offset 14, -4
 124              		.loc 1 114 0
 125 0002 1F4B     		ldr	r3, .L15
 126              		.loc 1 113 0
 127 0004 88B0     		sub	sp, sp, #32
 128              	.LCFI6:
 129              		.cfi_def_cfa_offset 48
 130              		.loc 1 114 0
 131 0006 8022     		movs	r2, #128
 132              		.loc 1 113 0
 133              		.loc 1 115 0
 134 0008 3220     		movs	r0, #50
 135              		.loc 1 113 0
 136 000a 00AF     		add	r7, sp, #0
 137              	.LCFI7:
 138              		.cfi_def_cfa_register 7
 139              		.loc 1 114 0
 140 000c 1A83     		strh	r2, [r3, #24]	@ movhi
 141              		.loc 1 115 0
 142 000e FFF7FEFF 		bl	chThdSleep
 143              	.LVL4:
 144 0012 1025     		movs	r5, #16
 145              	.LBB9:
 146              	.LBB10:
 147              		.loc 1 75 0
 148 0014 0024     		movs	r4, #0
 149              	.LVL5:
 150              	.L6:
 151              	.LBB11:
 152              	.LBB12:
 153              		.loc 1 81 0
 154 0016 1B48     		ldr	r0, .L15+4
 155 0018 FFF7FEFF 		bl	adcAcquireBus
 156              	.LVL6:
 157              		.loc 1 82 0
 158 001c 1023     		movs	r3, #16
 159 001e 3A46     		mov	r2, r7
 160 0020 1949     		ldr	r1, .L15+8
 161 0022 1848     		ldr	r0, .L15+4
 162 0024 FFF7FEFF 		bl	adcConvert
 163              	.LVL7:
 164              		.loc 1 83 0
 165 0028 1648     		ldr	r0, .L15+4
 166 002a FFF7FEFF 		bl	adcReleaseBus
 167              	.LVL8:
 168              	.LBB13:
 169              		.loc 1 85 0
 170 002e 0023     		movs	r3, #0
 171              	.LVL9:
ARM GAS  /var/folders/_2/42wyrlld3p52fkcpt1lv6gxh0000gp/T//cc8DsTLi.s 			page 4


 172              	.L5:
 173              		.loc 1 87 0
 174 0030 37F81320 		ldrh	r2, [r7, r3, lsl #1]
 175              		.loc 1 85 0
 176 0034 0133     		adds	r3, r3, #1
 177              	.LVL10:
 178 0036 102B     		cmp	r3, #16
 179              		.loc 1 87 0
 180 0038 1444     		add	r4, r4, r2
 181              	.LVL11:
 182              		.loc 1 85 0
 183 003a F9D1     		bne	.L5
 184              	.LVL12:
 185              	.LBE13:
 186              	.LBE12:
 187              		.loc 1 77 0
 188 003c 013D     		subs	r5, r5, #1
 189              	.LVL13:
 190 003e EAD1     		bne	.L6
 191              	.LBE11:
 192              	.LBE10:
 193              	.LBE9:
 194              		.loc 1 117 0
 195 0040 0F4B     		ldr	r3, .L15
 196              	.LVL14:
 197 0042 8022     		movs	r2, #128
 198              	.LBB16:
 199              	.LBB14:
 200              		.loc 1 91 0
 201 0044 0834     		adds	r4, r4, #8
 202              	.LVL15:
 203              	.LBE14:
 204              	.LBE16:
 205              		.loc 1 117 0
 206 0046 5A83     		strh	r2, [r3, #26]	@ movhi
 207              	.LBB17:
 208              	.LBB18:
 209              		.loc 1 34 0
 210 0048 104A     		ldr	r2, .L15+12
 211              	.LBE18:
 212              	.LBE17:
 213              	.LBB21:
 214              	.LBB15:
 215              		.loc 1 91 0
 216 004a 2411     		asrs	r4, r4, #4
 217              	.LVL16:
 218              	.L7:
 219              	.LBE15:
 220              	.LBE21:
 221              	.LBB22:
 222              	.LBB19:
 223              		.loc 1 35 0
 224 004c 9188     		ldrh	r1, [r2, #4]
 225 004e A142     		cmp	r1, r4
 226 0050 03DD     		ble	.L10
 227 0052 1389     		ldrh	r3, [r2, #8]
 228 0054 0BB1     		cbz	r3, .L10
ARM GAS  /var/folders/_2/42wyrlld3p52fkcpt1lv6gxh0000gp/T//cc8DsTLi.s 			page 5


 229              		.loc 1 37 0
 230 0056 0432     		adds	r2, r2, #4
 231              	.LVL17:
 232 0058 F8E7     		b	.L7
 233              	.L10:
 234              		.loc 1 42 0
 235 005a 1588     		ldrh	r5, [r2]
 236              		.loc 1 40 0
 237 005c B2F90200 		ldrsh	r0, [r2, #2]
 238              	.LBE19:
 239              	.LBE22:
 240              		.loc 1 119 0
 241 0060 B2F90620 		ldrsh	r2, [r2, #6]
 242              	.LVL18:
 243              	.LBB23:
 244              	.LBB20:
 245              		.loc 1 40 0
 246 0064 4FF47A73 		mov	r3, #1000
 247 0068 5843     		muls	r0, r3, r0
 248              	.LVL19:
 249              	.LBE20:
 250              	.LBE23:
 251              		.loc 1 119 0
 252 006a 5343     		muls	r3, r2, r3
 253 006c 641B     		subs	r4, r4, r5
 254 006e 1B1A     		subs	r3, r3, r0
 255 0070 6343     		muls	r3, r4, r3
 256 0072 4C1B     		subs	r4, r1, r5
 257 0074 93FBF4F4 		sdiv	r4, r3, r4
 258              		.loc 1 120 0
 259 0078 2037     		adds	r7, r7, #32
 260              	.LCFI8:
 261              		.cfi_def_cfa_offset 16
 262              		.loc 1 119 0
 263 007a 2044     		add	r0, r0, r4
 264              		.loc 1 120 0
 265 007c BD46     		mov	sp, r7
 266              	.LCFI9:
 267              		.cfi_def_cfa_register 13
 268              		@ sp needed
 269 007e B0BD     		pop	{r4, r5, r7, pc}
 270              	.L16:
 271              		.align	2
 272              	.L15:
 273 0080 00000240 		.word	1073872896
 274 0084 00000000 		.word	ADCD1
 275 0088 00000000 		.word	.LANCHOR0
 276 008c 00000000 		.word	.LANCHOR1
 277              		.cfi_endproc
 278              	.LFE66:
 279              		.size	ntc_read, .-ntc_read
 280              		.section	.rodata.convgrp,"a",%progbits
 281              		.align	2
 282              		.set	.LANCHOR0,. + 0
 283              		.type	convgrp, %object
 284              		.size	convgrp, 52
 285              	convgrp:
ARM GAS  /var/folders/_2/42wyrlld3p52fkcpt1lv6gxh0000gp/T//cc8DsTLi.s 			page 6


 286 0000 00       		.byte	0
 287 0001 00       		.space	1
 288 0002 0100     		.short	1
 289 0004 00000000 		.word	0
 290 0008 00000000 		.word	0
 291 000c 00000000 		.word	0
 292 0010 10000040 		.word	1073741840
 293 0014 00000000 		.word	0
 294 0018 00000000 		.word	0
 295 001c 02000000 		.word	2
 296 0020 00000000 		.word	0
 297 0024 00000000 		.word	0
 298 0028 00000000 		.word	0
 299 002c 00000000 		.word	0
 300 0030 06000000 		.word	6
 301              		.section	.rodata.g_ntc_curve,"a",%progbits
 302              		.align	1
 303              		.set	.LANCHOR1,. + 0
 304              		.type	g_ntc_curve, %object
 305              		.size	g_ntc_curve, 292
 306              	g_ntc_curve:
 307 0000 1CFE     		.short	-484
 308 0002 C9FF     		.short	-55
 309 0004 61FD     		.short	-671
 310 0006 CEFF     		.short	-50
 311 0008 69FC     		.short	-919
 312 000a D3FF     		.short	-45
 313 000c 25FB     		.short	-1243
 314 000e D8FF     		.short	-40
 315 0010 83F9     		.short	-1661
 316 0012 DDFF     		.short	-35
 317 0014 6EF7     		.short	-2194
 318 0016 E2FF     		.short	-30
 319 0018 D1F4     		.short	-2863
 320 001a E7FF     		.short	-25
 321 001c 93F1     		.short	-3693
 322 001e ECFF     		.short	-20
 323 0020 9DED     		.short	-4707
 324 0022 F1FF     		.short	-15
 325 0024 D7E8     		.short	-5929
 326 0026 F6FF     		.short	-10
 327 0028 30E3     		.short	-7376
 328 002a FBFF     		.short	-5
 329 002c 99DC     		.short	-9063
 330 002e 0000     		.short	0
 331 0030 0BD5     		.short	-10997
 332 0032 0500     		.short	5
 333 0034 8BCC     		.short	-13173
 334 0036 0A00     		.short	10
 335 0038 27C3     		.short	-15577
 336 003a 0F00     		.short	15
 337 003c F9B8     		.short	-18183
 338 003e 1400     		.short	20
 339 0040 26AE     		.short	-20954
 340 0042 1900     		.short	25
 341 0044 DBA2     		.short	-23845
 342 0046 1E00     		.short	30
ARM GAS  /var/folders/_2/42wyrlld3p52fkcpt1lv6gxh0000gp/T//cc8DsTLi.s 			page 7


 343 0048 4A97     		.short	-26806
 344 004a 2300     		.short	35
 345 004c A98B     		.short	-29783
 346 004e 2800     		.short	40
 347 0050 2A80     		.short	-32726
 348 0052 2D00     		.short	45
 349 0054 FB74     		.short	29947
 350 0056 3200     		.short	50
 351 0058 436A     		.short	27203
 352 005a 3700     		.short	55
 353 005c 2060     		.short	24608
 354 005e 3C00     		.short	60
 355 0060 A656     		.short	22182
 356 0062 4100     		.short	65
 357 0064 E34D     		.short	19939
 358 0066 4600     		.short	70
 359 0068 DA45     		.short	17882
 360 006a 4B00     		.short	75
 361 006c 8B3E     		.short	16011
 362 006e 5000     		.short	80
 363 0070 EF37     		.short	14319
 364 0072 5500     		.short	85
 365 0074 FE31     		.short	12798
 366 0076 5A00     		.short	90
 367 0078 AC2C     		.short	11436
 368 007a 5F00     		.short	95
 369 007c EC27     		.short	10220
 370 007e 6400     		.short	100
 371 0080 B123     		.short	9137
 372 0082 6900     		.short	105
 373 0084 EF1F     		.short	8175
 374 0086 6E00     		.short	110
 375 0088 991C     		.short	7321
 376 008a 7300     		.short	115
 377 008c A419     		.short	6564
 378 008e 7800     		.short	120
 379 0090 0417     		.short	5892
 380 0092 7D00     		.short	125
 381 0094 B014     		.short	5296
 382 0096 8200     		.short	130
 383 0098 A012     		.short	4768
 384 009a 8700     		.short	135
 385 009c CB10     		.short	4299
 386 009e 8C00     		.short	140
 387 00a0 2A0F     		.short	3882
 388 00a2 9100     		.short	145
 389 00a4 B70D     		.short	3511
 390 00a6 9600     		.short	150
 391 00a8 6D0C     		.short	3181
 392 00aa 9B00     		.short	155
 393 00ac 470B     		.short	2887
 394 00ae A000     		.short	160
 395 00b0 410A     		.short	2625
 396 00b2 A500     		.short	165
 397 00b4 5609     		.short	2390
 398 00b6 AA00     		.short	170
 399 00b8 8408     		.short	2180
ARM GAS  /var/folders/_2/42wyrlld3p52fkcpt1lv6gxh0000gp/T//cc8DsTLi.s 			page 8


 400 00ba AF00     		.short	175
 401 00bc C807     		.short	1992
 402 00be B400     		.short	180
 403 00c0 1F07     		.short	1823
 404 00c2 B900     		.short	185
 405 00c4 8606     		.short	1670
 406 00c6 BE00     		.short	190
 407 00c8 FE05     		.short	1534
 408 00ca C300     		.short	195
 409 00cc 8205     		.short	1410
 410 00ce C800     		.short	200
 411 00d0 1205     		.short	1298
 412 00d2 CD00     		.short	205
 413 00d4 AE04     		.short	1198
 414 00d6 D200     		.short	210
 415 00d8 5204     		.short	1106
 416 00da D700     		.short	215
 417 00dc FF03     		.short	1023
 418 00de DC00     		.short	220
 419 00e0 B403     		.short	948
 420 00e2 E100     		.short	225
 421 00e4 6F03     		.short	879
 422 00e6 E600     		.short	230
 423 00e8 3003     		.short	816
 424 00ea EB00     		.short	235
 425 00ec F702     		.short	759
 426 00ee F000     		.short	240
 427 00f0 C302     		.short	707
 428 00f2 F500     		.short	245
 429 00f4 9302     		.short	659
 430 00f6 FA00     		.short	250
 431 00f8 6702     		.short	615
 432 00fa FF00     		.short	255
 433 00fc 3F02     		.short	575
 434 00fe 0401     		.short	260
 435 0100 1A02     		.short	538
 436 0102 0901     		.short	265
 437 0104 F801     		.short	504
 438 0106 0E01     		.short	270
 439 0108 D901     		.short	473
 440 010a 1301     		.short	275
 441 010c BC01     		.short	444
 442 010e 1801     		.short	280
 443 0110 A101     		.short	417
 444 0112 1D01     		.short	285
 445 0114 8901     		.short	393
 446 0116 2201     		.short	290
 447 0118 7201     		.short	370
 448 011a 2701     		.short	295
 449 011c 5D01     		.short	349
 450 011e 2C01     		.short	300
 451 0120 0000     		.short	0
 452 0122 0000     		.short	0
 453              		.text
 454              	.Letext0:
 455              		.file 2 "/Users/ARS/Applications/Eclipse.app/Contents/gcc-arm-none-eabi-5_3-2016q1/lib/gcc/arm-non
 456              		.file 3 "/Users/ARS/Applications/Eclipse.app/Contents/gcc-arm-none-eabi-5_3-2016q1/arm-none-eabi/i
ARM GAS  /var/folders/_2/42wyrlld3p52fkcpt1lv6gxh0000gp/T//cc8DsTLi.s 			page 9


 457              		.file 4 "/Users/ARS/Applications/Eclipse.app/Contents/gcc-arm-none-eabi-5_3-2016q1/arm-none-eabi/i
 458              		.file 5 "chibios/os/ports/GCC/ARMCMx/chtypes.h"
 459              		.file 6 "chibios/os/kernel/include/chlists.h"
 460              		.file 7 "chibios/os/kernel/include/chthreads.h"
 461              		.file 8 "chibios/os/ports/GCC/ARMCMx/chcore_v7m.h"
 462              		.file 9 "chibios/os/kernel/include/chmtx.h"
 463              		.file 10 "chibios/os/hal/platforms/STM32L1xx/stm32l1xx.h"
 464              		.file 11 "chibios/os/hal/platforms/STM32L1xx/stm32_dma.h"
 465              		.file 12 "chibios/os/hal/platforms/STM32/GPIOv2/pal_lld.h"
 466              		.file 13 "chibios/os/hal/include/adc.h"
 467              		.file 14 "chibios/os/hal/platforms/STM32L1xx/adc_lld.h"
 468              		.file 15 "chibios/os/ports/common/ARMCMx/CMSIS/include/core_cm3.h"