ARM GAS  /var/folders/_2/42wyrlld3p52fkcpt1lv6gxh0000gp/T//cc9SYN0R.s 			page 1


   1              		.syntax unified
   2              		.cpu cortex-m3
   3              		.fpu softvfp
   4              		.eabi_attribute 20, 1
   5              		.eabi_attribute 21, 1
   6              		.eabi_attribute 23, 3
   7              		.eabi_attribute 24, 1
   8              		.eabi_attribute 25, 1
   9              		.eabi_attribute 26, 1
  10              		.eabi_attribute 30, 4
  11              		.eabi_attribute 34, 1
  12              		.eabi_attribute 18, 4
  13              		.thumb
  14              		.syntax unified
  15              		.file	"nvic.c"
  16              		.text
  17              	.Ltext0:
  18              		.cfi_sections	.debug_frame
  19              		.section	.text.nvicEnableVector,"ax",%progbits
  20              		.align	1
  21              		.global	nvicEnableVector
  22              		.thumb
  23              		.thumb_func
  24              		.type	nvicEnableVector, %function
  25              	nvicEnableVector:
  26              	.LFB7:
  27              		.file 1 "chibios/os/ports/common/ARMCMx/nvic.c"
  28              		.loc 1 46 0
  29              		.cfi_startproc
  30              		@ args = 0, pretend = 0, frame = 0
  31              		@ frame_needed = 1, uses_anonymous_args = 0
  32              	.LVL0:
  33 0000 20F00302 		bic	r2, r0, #3
  34 0004 02F16042 		add	r2, r2, #-536870912
  35 0008 02F56142 		add	r2, r2, #57600
  36              		.loc 1 47 0
  37 000c C300     		lsls	r3, r0, #3
  38              		.loc 1 46 0
  39 000e B0B5     		push	{r4, r5, r7, lr}
  40              	.LCFI0:
  41              		.cfi_def_cfa_offset 16
  42              		.cfi_offset 4, -16
  43              		.cfi_offset 5, -12
  44              		.cfi_offset 7, -8
  45              		.cfi_offset 14, -4
  46              		.loc 1 47 0
  47 0010 03F01803 		and	r3, r3, #24
  48              	.LVL1:
  49              		.loc 1 49 0
  50 0014 D2F80053 		ldr	r5, [r2, #768]
  51 0018 FF24     		movs	r4, #255
  52 001a 9C40     		lsls	r4, r4, r3
  53 001c 9940     		lsls	r1, r1, r3
  54              	.LVL2:
  55 001e 25EA0404 		bic	r4, r5, r4
  56 0022 2143     		orrs	r1, r1, r4
  57 0024 C2F80013 		str	r1, [r2, #768]
ARM GAS  /var/folders/_2/42wyrlld3p52fkcpt1lv6gxh0000gp/T//cc9SYN0R.s 			page 2


  58              		.loc 1 50 0
  59 0028 00F01F02 		and	r2, r0, #31
  60 002c 4009     		lsrs	r0, r0, #5
  61              	.LVL3:
  62 002e 8000     		lsls	r0, r0, #2
  63 0030 0123     		movs	r3, #1
  64              	.LVL4:
  65 0032 00F16040 		add	r0, r0, #-536870912
  66 0036 9340     		lsls	r3, r3, r2
  67 0038 00F56140 		add	r0, r0, #57600
  68 003c C0F88031 		str	r3, [r0, #384]
  69              		.loc 1 46 0
  70 0040 00AF     		add	r7, sp, #0
  71              	.LCFI1:
  72              		.cfi_def_cfa_register 7
  73              		.loc 1 51 0
  74 0042 0360     		str	r3, [r0]
  75 0044 B0BD     		pop	{r4, r5, r7, pc}
  76              		.cfi_endproc
  77              	.LFE7:
  78              		.size	nvicEnableVector, .-nvicEnableVector
  79              		.section	.text.nvicDisableVector,"ax",%progbits
  80              		.align	1
  81              		.global	nvicDisableVector
  82              		.thumb
  83              		.thumb_func
  84              		.type	nvicDisableVector, %function
  85              	nvicDisableVector:
  86              	.LFB8:
  87              		.loc 1 60 0
  88              		.cfi_startproc
  89              		@ args = 0, pretend = 0, frame = 0
  90              		@ frame_needed = 1, uses_anonymous_args = 0
  91              	.LVL5:
  92              		.loc 1 63 0
  93 0000 00F01F01 		and	r1, r0, #31
  94 0004 0122     		movs	r2, #1
  95 0006 8A40     		lsls	r2, r2, r1
  96 0008 4309     		lsrs	r3, r0, #5
  97 000a 0C49     		ldr	r1, .L3
  98 000c 2033     		adds	r3, r3, #32
  99              		.loc 1 60 0
 100 000e 80B5     		push	{r7, lr}
 101              	.LCFI2:
 102              		.cfi_def_cfa_offset 8
 103              		.cfi_offset 7, -8
 104              		.cfi_offset 14, -4
 105              		.loc 1 63 0
 106 0010 41F82320 		str	r2, [r1, r3, lsl #2]
 107 0014 20F00303 		bic	r3, r0, #3
 108 0018 03F16043 		add	r3, r3, #-536870912
 109 001c 03F56143 		add	r3, r3, #57600
 110              		.loc 1 64 0
 111 0020 C000     		lsls	r0, r0, #3
 112              	.LVL6:
 113 0022 D3F80023 		ldr	r2, [r3, #768]
 114 0026 00F01800 		and	r0, r0, #24
ARM GAS  /var/folders/_2/42wyrlld3p52fkcpt1lv6gxh0000gp/T//cc9SYN0R.s 			page 3


 115              	.LVL7:
 116 002a FF21     		movs	r1, #255
 117 002c 01FA00F0 		lsl	r0, r1, r0
 118              	.LVL8:
 119 0030 22EA0000 		bic	r0, r2, r0
 120              		.loc 1 60 0
 121 0034 00AF     		add	r7, sp, #0
 122              	.LCFI3:
 123              		.cfi_def_cfa_register 7
 124              		.loc 1 64 0
 125 0036 C3F80003 		str	r0, [r3, #768]
 126 003a 80BD     		pop	{r7, pc}
 127              	.L4:
 128              		.align	2
 129              	.L3:
 130 003c 00E100E0 		.word	-536813312
 131              		.cfi_endproc
 132              	.LFE8:
 133              		.size	nvicDisableVector, .-nvicDisableVector
 134              		.section	.text.nvicSetSystemHandlerPriority,"ax",%progbits
 135              		.align	1
 136              		.global	nvicSetSystemHandlerPriority
 137              		.thumb
 138              		.thumb_func
 139              		.type	nvicSetSystemHandlerPriority, %function
 140              	nvicSetSystemHandlerPriority:
 141              	.LFB9:
 142              		.loc 1 74 0
 143              		.cfi_startproc
 144              		@ args = 0, pretend = 0, frame = 0
 145              		@ frame_needed = 1, uses_anonymous_args = 0
 146              	.LVL9:
 147              		.loc 1 75 0
 148 0000 00F00303 		and	r3, r0, #3
 149 0004 20F00300 		bic	r0, r0, #3
 150              	.LVL10:
 151 0008 00F16040 		add	r0, r0, #-536870912
 152              		.loc 1 74 0
 153 000c 90B5     		push	{r4, r7, lr}
 154              	.LCFI4:
 155              		.cfi_def_cfa_offset 12
 156              		.cfi_offset 4, -12
 157              		.cfi_offset 7, -8
 158              		.cfi_offset 14, -4
 159 000e 00F56D40 		add	r0, r0, #60672
 160              		.loc 1 75 0
 161 0012 DB00     		lsls	r3, r3, #3
 162              	.LVL11:
 163              		.loc 1 77 0
 164 0014 8469     		ldr	r4, [r0, #24]
 165              		.loc 1 78 0
 166 0016 FF22     		movs	r2, #255
 167 0018 9A40     		lsls	r2, r2, r3
 168 001a 24EA0202 		bic	r2, r4, r2
 169 001e 9940     		lsls	r1, r1, r3
 170              	.LVL12:
 171 0020 1143     		orrs	r1, r1, r2
ARM GAS  /var/folders/_2/42wyrlld3p52fkcpt1lv6gxh0000gp/T//cc9SYN0R.s 			page 4


 172              		.loc 1 74 0
 173 0022 00AF     		add	r7, sp, #0
 174              	.LCFI5:
 175              		.cfi_def_cfa_register 7
 176              		.loc 1 77 0
 177 0024 8161     		str	r1, [r0, #24]
 178 0026 90BD     		pop	{r4, r7, pc}
 179              		.cfi_endproc
 180              	.LFE9:
 181              		.size	nvicSetSystemHandlerPriority, .-nvicSetSystemHandlerPriority
 182              		.text
 183              	.Letext0:
 184              		.file 2 "/Users/ARS/Applications/Eclipse.app/Contents/gcc-arm-none-eabi-5_3-2016q1/arm-none-eabi/i
 185              		.file 3 "/Users/ARS/Applications/Eclipse.app/Contents/gcc-arm-none-eabi-5_3-2016q1/arm-none-eabi/i
 186              		.file 4 "chibios/os/ports/common/ARMCMx/nvic.h"