ARM GAS  /var/folders/_2/42wyrlld3p52fkcpt1lv6gxh0000gp/T//ccFF0C4w.s 			page 1


   1              		.syntax unified
   2              		.cpu cortex-m3
   3              		.fpu softvfp
   4              		.eabi_attribute 20, 1
   5              		.eabi_attribute 21, 1
   6              		.eabi_attribute 23, 3
   7              		.eabi_attribute 24, 1
   8              		.eabi_attribute 25, 1
   9              		.eabi_attribute 26, 1
  10              		.eabi_attribute 30, 4
  11              		.eabi_attribute 34, 1
  12              		.eabi_attribute 18, 4
  13              		.thumb
  14              		.syntax unified
  15              		.file	"pal.c"
  16              		.text
  17              	.Ltext0:
  18              		.cfi_sections	.debug_frame
  19              		.section	.text.palReadBus,"ax",%progbits
  20              		.align	1
  21              		.global	palReadBus
  22              		.thumb
  23              		.thumb_func
  24              		.type	palReadBus, %function
  25              	palReadBus:
  26              	.LFB63:
  27              		.file 1 "chibios/os/hal/src/pal.c"
  28              		.loc 1 77 0
  29              		.cfi_startproc
  30              		@ args = 0, pretend = 0, frame = 0
  31              		@ frame_needed = 1, uses_anonymous_args = 0
  32              	.LVL0:
  33              		.loc 1 82 0
  34 0000 0368     		ldr	r3, [r0]
  35              		.loc 1 77 0
  36 0002 80B5     		push	{r7, lr}
  37              	.LCFI0:
  38              		.cfi_def_cfa_offset 8
  39              		.cfi_offset 7, -8
  40              		.cfi_offset 14, -4
  41              		.loc 1 82 0
  42 0004 8268     		ldr	r2, [r0, #8]
  43 0006 1B69     		ldr	r3, [r3, #16]
  44 0008 4068     		ldr	r0, [r0, #4]
  45              	.LVL1:
  46 000a D340     		lsrs	r3, r3, r2
  47              		.loc 1 77 0
  48 000c 00AF     		add	r7, sp, #0
  49              	.LCFI1:
  50              		.cfi_def_cfa_register 7
  51              		.loc 1 83 0
  52 000e 1840     		ands	r0, r0, r3
  53 0010 80BD     		pop	{r7, pc}
  54              		.cfi_endproc
  55              	.LFE63:
  56              		.size	palReadBus, .-palReadBus
  57              		.section	.text.palWriteBus,"ax",%progbits
ARM GAS  /var/folders/_2/42wyrlld3p52fkcpt1lv6gxh0000gp/T//ccFF0C4w.s 			page 2


  58              		.align	1
  59              		.global	palWriteBus
  60              		.thumb
  61              		.thumb_func
  62              		.type	palWriteBus, %function
  63              	palWriteBus:
  64              	.LFB64:
  65              		.loc 1 103 0
  66              		.cfi_startproc
  67              		@ args = 0, pretend = 0, frame = 0
  68              		@ frame_needed = 1, uses_anonymous_args = 0
  69              	.LVL2:
  70              		.loc 1 108 0
  71 0000 4368     		ldr	r3, [r0, #4]
  72              		.loc 1 103 0
  73 0002 B0B5     		push	{r4, r5, r7, lr}
  74              	.LCFI2:
  75              		.cfi_def_cfa_offset 16
  76              		.cfi_offset 4, -16
  77              		.cfi_offset 5, -12
  78              		.cfi_offset 7, -8
  79              		.cfi_offset 14, -4
  80              		.loc 1 108 0
  81 0004 0468     		ldr	r4, [r0]
  82 0006 8068     		ldr	r0, [r0, #8]
  83              	.LVL3:
  84 0008 23EA0102 		bic	r2, r3, r1
  85 000c 00F11005 		add	r5, r0, #16
  86 0010 1940     		ands	r1, r1, r3
  87              	.LVL4:
  88 0012 AA40     		lsls	r2, r2, r5
  89 0014 01FA00F3 		lsl	r3, r1, r0
  90 0018 1343     		orrs	r3, r3, r2
  91 001a A361     		str	r3, [r4, #24]
  92              		.loc 1 103 0
  93 001c 00AF     		add	r7, sp, #0
  94              	.LCFI3:
  95              		.cfi_def_cfa_register 7
  96              		.loc 1 108 0
  97 001e B0BD     		pop	{r4, r5, r7, pc}
  98              		.cfi_endproc
  99              	.LFE64:
 100              		.size	palWriteBus, .-palWriteBus
 101              		.section	.text.palSetBusMode,"ax",%progbits
 102              		.align	1
 103              		.global	palSetBusMode
 104              		.thumb
 105              		.thumb_func
 106              		.type	palSetBusMode, %function
 107              	palSetBusMode:
 108              	.LFB65:
 109              		.loc 1 127 0
 110              		.cfi_startproc
 111              		@ args = 0, pretend = 0, frame = 0
 112              		@ frame_needed = 1, uses_anonymous_args = 0
 113              		@ link register save eliminated.
 114              	.LVL5:
ARM GAS  /var/folders/_2/42wyrlld3p52fkcpt1lv6gxh0000gp/T//ccFF0C4w.s 			page 3


 115              		.loc 1 132 0
 116 0000 0A46     		mov	r2, r1
 117              		.loc 1 127 0
 118 0002 90B4     		push	{r4, r7}
 119              	.LCFI4:
 120              		.cfi_def_cfa_offset 8
 121              		.cfi_offset 4, -8
 122              		.cfi_offset 7, -4
 123              		.loc 1 132 0
 124 0004 8368     		ldr	r3, [r0, #8]
 125 0006 4468     		ldr	r4, [r0, #4]
 126 0008 0068     		ldr	r0, [r0]
 127              	.LVL6:
 128              		.loc 1 127 0
 129 000a 00AF     		add	r7, sp, #0
 130              	.LCFI5:
 131              		.cfi_def_cfa_register 7
 132              		.loc 1 132 0
 133 000c 04FA03F1 		lsl	r1, r4, r3
 134              	.LVL7:
 135              		.loc 1 133 0
 136 0010 BD46     		mov	sp, r7
 137              	.LCFI6:
 138              		.cfi_def_cfa_register 13
 139              		@ sp needed
 140 0012 90BC     		pop	{r4, r7}
 141              	.LCFI7:
 142              		.cfi_restore 7
 143              		.cfi_restore 4
 144              		.cfi_def_cfa_offset 0
 145              		.loc 1 132 0
 146 0014 FFF7FEBF 		b	_pal_lld_setgroupmode
 147              	.LVL8:
 148              		.cfi_endproc
 149              	.LFE65:
 150              		.size	palSetBusMode, .-palSetBusMode
 151              		.text
 152              	.Letext0:
 153              		.file 2 "/Users/ARS/Applications/Eclipse.app/Contents/gcc-arm-none-eabi-5_3-2016q1/arm-none-eabi/i
 154              		.file 3 "/Users/ARS/Applications/Eclipse.app/Contents/gcc-arm-none-eabi-5_3-2016q1/arm-none-eabi/i
 155              		.file 4 "/Users/ARS/Applications/Eclipse.app/Contents/gcc-arm-none-eabi-5_3-2016q1/arm-none-eabi/i
 156              		.file 5 "chibios/os/hal/platforms/STM32/GPIOv2/pal_lld.h"
 157              		.file 6 "chibios/os/hal/include/pal.h"
 158              		.file 7 "chibios/os/ports/common/ARMCMx/CMSIS/include/core_cm3.h"