ARM GAS  /var/folders/_2/42wyrlld3p52fkcpt1lv6gxh0000gp/T//cc78T8h4.s 			page 1


   1              		.syntax unified
   2              		.cpu cortex-m3
   3              		.fpu softvfp
   4              		.eabi_attribute 20, 1
   5              		.eabi_attribute 21, 1
   6              		.eabi_attribute 23, 3
   7              		.eabi_attribute 24, 1
   8              		.eabi_attribute 25, 1
   9              		.eabi_attribute 26, 1
  10              		.eabi_attribute 30, 4
  11              		.eabi_attribute 34, 1
  12              		.eabi_attribute 18, 4
  13              		.thumb
  14              		.syntax unified
  15              		.file	"pal_lld.c"
  16              		.text
  17              	.Ltext0:
  18              		.cfi_sections	.debug_frame
  19              		.section	.text.initgpio,"ax",%progbits
  20              		.align	1
  21              		.thumb
  22              		.thumb_func
  23              		.type	initgpio, %function
  24              	initgpio:
  25              	.LFB63:
  26              		.file 1 "chibios/os/hal/platforms/STM32/GPIOv2/pal_lld.c"
  27              		.loc 1 77 0
  28              		.cfi_startproc
  29              		@ args = 0, pretend = 0, frame = 0
  30              		@ frame_needed = 1, uses_anonymous_args = 0
  31              	.LVL0:
  32              		.loc 1 79 0
  33 0000 4B68     		ldr	r3, [r1, #4]
  34              		.loc 1 77 0
  35 0002 80B5     		push	{r7, lr}
  36              	.LCFI0:
  37              		.cfi_def_cfa_offset 8
  38              		.cfi_offset 7, -8
  39              		.cfi_offset 14, -4
  40              		.loc 1 79 0
  41 0004 4360     		str	r3, [r0, #4]
  42              		.loc 1 80 0
  43 0006 8B68     		ldr	r3, [r1, #8]
  44              		.loc 1 77 0
  45 0008 00AF     		add	r7, sp, #0
  46              	.LCFI1:
  47              		.cfi_def_cfa_register 7
  48              		.loc 1 80 0
  49 000a 8360     		str	r3, [r0, #8]
  50              		.loc 1 81 0
  51 000c CB68     		ldr	r3, [r1, #12]
  52 000e C360     		str	r3, [r0, #12]
  53              		.loc 1 82 0
  54 0010 0B69     		ldr	r3, [r1, #16]
  55 0012 4361     		str	r3, [r0, #20]
  56              		.loc 1 83 0
  57 0014 4B69     		ldr	r3, [r1, #20]
ARM GAS  /var/folders/_2/42wyrlld3p52fkcpt1lv6gxh0000gp/T//cc78T8h4.s 			page 2


  58 0016 0362     		str	r3, [r0, #32]
  59              		.loc 1 84 0
  60 0018 8B69     		ldr	r3, [r1, #24]
  61 001a 4362     		str	r3, [r0, #36]
  62              		.loc 1 85 0
  63 001c 0B68     		ldr	r3, [r1]
  64 001e 0360     		str	r3, [r0]
  65 0020 80BD     		pop	{r7, pc}
  66              		.cfi_endproc
  67              	.LFE63:
  68              		.size	initgpio, .-initgpio
  69              		.section	.text._pal_lld_init,"ax",%progbits
  70              		.align	1
  71              		.global	_pal_lld_init
  72              		.thumb
  73              		.thumb_func
  74              		.type	_pal_lld_init, %function
  75              	_pal_lld_init:
  76              	.LFB64:
  77              		.loc 1 104 0
  78              		.cfi_startproc
  79              		@ args = 0, pretend = 0, frame = 0
  80              		@ frame_needed = 1, uses_anonymous_args = 0
  81              	.LVL1:
  82              		.loc 1 110 0
  83 0000 174B     		ldr	r3, .L3
  84              		.loc 1 104 0
  85 0002 80B5     		push	{r7, lr}
  86              	.LCFI2:
  87              		.cfi_def_cfa_offset 8
  88              		.cfi_offset 7, -8
  89              		.cfi_offset 14, -4
  90              		.loc 1 110 0
  91 0004 D969     		ldr	r1, [r3, #28]
  92              		.loc 1 104 0
  93 0006 0246     		mov	r2, r0
  94              		.loc 1 110 0
  95 0008 41F03F01 		orr	r1, r1, #63
  96 000c D961     		str	r1, [r3, #28]
  97 000e 996A     		ldr	r1, [r3, #40]
  98              		.loc 1 104 0
  99 0010 00AF     		add	r7, sp, #0
 100              	.LCFI3:
 101              		.cfi_def_cfa_register 7
 102              		.loc 1 110 0
 103 0012 41F03F01 		orr	r1, r1, #63
 104 0016 9962     		str	r1, [r3, #40]
 105              		.loc 1 111 0
 106 0018 996A     		ldr	r1, [r3, #40]
 107 001a 41F03F01 		orr	r1, r1, #63
 108 001e 9962     		str	r1, [r3, #40]
 109              		.loc 1 124 0
 110 0020 0146     		mov	r1, r0
 111 0022 1048     		ldr	r0, .L3+4
 112              	.LVL2:
 113 0024 FFF7FEFF 		bl	initgpio
 114              	.LVL3:
ARM GAS  /var/folders/_2/42wyrlld3p52fkcpt1lv6gxh0000gp/T//cc78T8h4.s 			page 3


 115              		.loc 1 125 0
 116 0028 0F48     		ldr	r0, .L3+8
 117 002a 02F11C01 		add	r1, r2, #28
 118 002e FFF7FEFF 		bl	initgpio
 119              	.LVL4:
 120              		.loc 1 126 0
 121 0032 0E48     		ldr	r0, .L3+12
 122 0034 02F13801 		add	r1, r2, #56
 123 0038 FFF7FEFF 		bl	initgpio
 124              	.LVL5:
 125              		.loc 1 127 0
 126 003c 0C48     		ldr	r0, .L3+16
 127 003e 02F15401 		add	r1, r2, #84
 128 0042 FFF7FEFF 		bl	initgpio
 129              	.LVL6:
 130              		.loc 1 129 0
 131 0046 0B48     		ldr	r0, .L3+20
 132 0048 02F17001 		add	r1, r2, #112
 133 004c FFF7FEFF 		bl	initgpio
 134              	.LVL7:
 135              		.loc 1 138 0
 136 0050 0948     		ldr	r0, .L3+24
 137 0052 02F18C01 		add	r1, r2, #140
 138              		.loc 1 143 0
 139 0056 BD46     		mov	sp, r7
 140              	.LCFI4:
 141              		.cfi_def_cfa_register 13
 142              		@ sp needed
 143 0058 BDE88040 		pop	{r7, lr}
 144              	.LCFI5:
 145              		.cfi_restore 14
 146              		.cfi_restore 7
 147              		.cfi_def_cfa_offset 0
 148              		.loc 1 138 0
 149 005c FFF7FEBF 		b	initgpio
 150              	.LVL8:
 151              	.L4:
 152              		.align	2
 153              	.L3:
 154 0060 00380240 		.word	1073887232
 155 0064 00000240 		.word	1073872896
 156 0068 00040240 		.word	1073873920
 157 006c 00080240 		.word	1073874944
 158 0070 000C0240 		.word	1073875968
 159 0074 00100240 		.word	1073876992
 160 0078 00140240 		.word	1073878016
 161              		.cfi_endproc
 162              	.LFE64:
 163              		.size	_pal_lld_init, .-_pal_lld_init
 164              		.section	.text._pal_lld_setgroupmode,"ax",%progbits
 165              		.align	1
 166              		.global	_pal_lld_setgroupmode
 167              		.thumb
 168              		.thumb_func
 169              		.type	_pal_lld_setgroupmode, %function
 170              	_pal_lld_setgroupmode:
 171              	.LFB65:
ARM GAS  /var/folders/_2/42wyrlld3p52fkcpt1lv6gxh0000gp/T//cc78T8h4.s 			page 4


 172              		.loc 1 161 0
 173              		.cfi_startproc
 174              		@ args = 0, pretend = 0, frame = 8
 175              		@ frame_needed = 1, uses_anonymous_args = 0
 176              	.LVL9:
 177 0000 2DE9F04F 		push	{r4, r5, r6, r7, r8, r9, r10, fp, lr}
 178              	.LCFI6:
 179              		.cfi_def_cfa_offset 36
 180              		.cfi_offset 4, -36
 181              		.cfi_offset 5, -32
 182              		.cfi_offset 6, -28
 183              		.cfi_offset 7, -24
 184              		.cfi_offset 8, -20
 185              		.cfi_offset 9, -16
 186              		.cfi_offset 10, -12
 187              		.cfi_offset 11, -8
 188              		.cfi_offset 14, -4
 189 0004 83B0     		sub	sp, sp, #12
 190              	.LCFI7:
 191              		.cfi_def_cfa_offset 48
 192              		.loc 1 167 0
 193 0006 C2F3C313 		ubfx	r3, r2, #7, #4
 194              		.loc 1 161 0
 195 000a 00AF     		add	r7, sp, #0
 196              	.LCFI8:
 197              		.cfi_def_cfa_register 7
 198              		.loc 1 163 0
 199 000c 02F00306 		and	r6, r2, #3
 200              	.LVL10:
 201              		.loc 1 164 0
 202 0010 C2F38008 		ubfx	r8, r2, #2, #1
 203              	.LVL11:
 204              		.loc 1 165 0
 205 0014 C2F3C10C 		ubfx	ip, r2, #3, #2
 206              	.LVL12:
 207              		.loc 1 166 0
 208 0018 C2F3411E 		ubfx	lr, r2, #5, #2
 209              	.LVL13:
 210              		.loc 1 167 0
 211 001c 7B60     		str	r3, [r7, #4]
 212              	.LVL14:
 213              		.loc 1 168 0
 214 001e 0022     		movs	r2, #0
 215              	.LVL15:
 216              	.LBB2:
 217              		.loc 1 174 0
 218 0020 4FF00F09 		mov	r9, #15
 219              		.loc 1 180 0
 220 0024 4FF0010A 		mov	r10, #1
 221              		.loc 1 182 0
 222 0028 4FF0030B 		mov	fp, #3
 223              	.LVL16:
 224              	.L10:
 225              	.LBE2:
 226              		.loc 1 170 0
 227 002c CB07     		lsls	r3, r1, #31
 228 002e 2DD5     		bpl	.L6
ARM GAS  /var/folders/_2/42wyrlld3p52fkcpt1lv6gxh0000gp/T//cc78T8h4.s 			page 5


 229              	.LBB3:
 230              		.loc 1 173 0
 231 0030 7C68     		ldr	r4, [r7, #4]
 232 0032 02F00703 		and	r3, r2, #7
 233 0036 9B00     		lsls	r3, r3, #2
 234 0038 04FA03F5 		lsl	r5, r4, r3
 235              	.LVL17:
 236              		.loc 1 174 0
 237 003c 09FA03F3 		lsl	r3, r9, r3
 238              	.LVL18:
 239 0040 DB43     		mvns	r3, r3
 240              		.loc 1 175 0
 241 0042 072A     		cmp	r2, #7
 242              		.loc 1 176 0
 243 0044 95BF     		itete	ls
 244 0046 046A     		ldrls	r4, [r0, #32]
 245              		.loc 1 178 0
 246 0048 446A     		ldrhi	r4, [r0, #36]
 247              		.loc 1 176 0
 248 004a 2340     		andls	r3, r3, r4
 249              		.loc 1 178 0
 250 004c 2340     		andhi	r3, r3, r4
 251              		.loc 1 176 0
 252 004e 95BF     		itete	ls
 253 0050 1D43     		orrls	r5, r5, r3
 254              	.LVL19:
 255              		.loc 1 178 0
 256 0052 1D43     		orrhi	r5, r5, r3
 257              		.loc 1 176 0
 258 0054 0562     		strls	r5, [r0, #32]
 259              		.loc 1 178 0
 260 0056 4562     		strhi	r5, [r0, #36]
 261              	.LVL20:
 262              		.loc 1 180 0
 263 0058 4368     		ldr	r3, [r0, #4]
 264 005a 0AFA02F4 		lsl	r4, r10, r2
 265 005e 23EA0403 		bic	r3, r3, r4
 266 0062 43EA0803 		orr	r3, r3, r8
 267 0066 4360     		str	r3, [r0, #4]
 268              	.LVL21:
 269              		.loc 1 182 0
 270 0068 5300     		lsls	r3, r2, #1
 271 006a 0BFA03F3 		lsl	r3, fp, r3
 272 006e DB43     		mvns	r3, r3
 273 0070 8468     		ldr	r4, [r0, #8]
 274 0072 1C40     		ands	r4, r4, r3
 275 0074 44EA0C04 		orr	r4, r4, ip
 276 0078 8460     		str	r4, [r0, #8]
 277              		.loc 1 183 0
 278 007a C468     		ldr	r4, [r0, #12]
 279 007c 1C40     		ands	r4, r4, r3
 280 007e 44EA0E04 		orr	r4, r4, lr
 281 0082 C460     		str	r4, [r0, #12]
 282              		.loc 1 184 0
 283 0084 0468     		ldr	r4, [r0]
 284 0086 2340     		ands	r3, r3, r4
 285 0088 3343     		orrs	r3, r3, r6
ARM GAS  /var/folders/_2/42wyrlld3p52fkcpt1lv6gxh0000gp/T//cc78T8h4.s 			page 6


 286 008a 0360     		str	r3, [r0]
 287              	.LVL22:
 288              	.L6:
 289              	.LBE3:
 290              		.loc 1 187 0
 291 008c 4908     		lsrs	r1, r1, #1
 292              	.LVL23:
 293 008e 08D0     		beq	.L5
 294              		.loc 1 189 0
 295 0090 4FEA4808 		lsl	r8, r8, #1
 296              	.LVL24:
 297              		.loc 1 190 0
 298 0094 4FEA8C0C 		lsl	ip, ip, #2
 299              	.LVL25:
 300              		.loc 1 191 0
 301 0098 4FEA8E0E 		lsl	lr, lr, #2
 302              	.LVL26:
 303              		.loc 1 192 0
 304 009c B600     		lsls	r6, r6, #2
 305              	.LVL27:
 306              		.loc 1 193 0
 307 009e 0132     		adds	r2, r2, #1
 308              	.LVL28:
 309              		.loc 1 194 0
 310 00a0 C4E7     		b	.L10
 311              	.L5:
 312              		.loc 1 195 0
 313 00a2 0C37     		adds	r7, r7, #12
 314              	.LCFI9:
 315              		.cfi_def_cfa_offset 36
 316 00a4 BD46     		mov	sp, r7
 317              	.LCFI10:
 318              		.cfi_def_cfa_register 13
 319              	.LVL29:
 320              		@ sp needed
 321 00a6 BDE8F08F 		pop	{r4, r5, r6, r7, r8, r9, r10, fp, pc}
 322              		.cfi_endproc
 323              	.LFE65:
 324              		.size	_pal_lld_setgroupmode, .-_pal_lld_setgroupmode
 325              		.text
 326              	.Letext0:
 327              		.file 2 "/Users/ARS/Applications/Eclipse.app/Contents/gcc-arm-none-eabi-5_3-2016q1/arm-none-eabi/i
 328              		.file 3 "/Users/ARS/Applications/Eclipse.app/Contents/gcc-arm-none-eabi-5_3-2016q1/arm-none-eabi/i
 329              		.file 4 "chibios/os/hal/platforms/STM32L1xx/stm32l1xx.h"
 330              		.file 5 "chibios/os/hal/platforms/STM32/GPIOv2/pal_lld.h"
 331              		.file 6 "chibios/os/ports/common/ARMCMx/CMSIS/include/core_cm3.h"