ARM GAS  /var/folders/_2/42wyrlld3p52fkcpt1lv6gxh0000gp/T//cc5woa84.s 			page 1


   1              		.syntax unified
   2              		.cpu cortex-m3
   3              		.fpu softvfp
   4              		.eabi_attribute 20, 1
   5              		.eabi_attribute 21, 1
   6              		.eabi_attribute 23, 3
   7              		.eabi_attribute 24, 1
   8              		.eabi_attribute 25, 1
   9              		.eabi_attribute 26, 1
  10              		.eabi_attribute 30, 4
  11              		.eabi_attribute 34, 1
  12              		.eabi_attribute 18, 4
  13              		.thumb
  14              		.syntax unified
  15              		.file	"powersave.c"
  16              		.text
  17              	.Ltext0:
  18              		.cfi_sections	.debug_frame
  19              		.section	.text.powersave_keep_alive,"ax",%progbits
  20              		.align	1
  21              		.global	powersave_keep_alive
  22              		.thumb
  23              		.thumb_func
  24              		.type	powersave_keep_alive, %function
  25              	powersave_keep_alive:
  26              	.LFB63:
  27              		.file 1 "src/powersave.c"
  28              		.loc 1 16 0
  29              		.cfi_startproc
  30              		@ args = 0, pretend = 0, frame = 0
  31              		@ frame_needed = 1, uses_anonymous_args = 0
  32 0000 80B5     		push	{r7, lr}
  33              	.LCFI0:
  34              		.cfi_def_cfa_offset 8
  35              		.cfi_offset 7, -8
  36              		.cfi_offset 14, -4
  37              	.LBB2:
  38              		.loc 1 17 0
  39 0002 2023     		movs	r3, #32
  40              	.LBE2:
  41              		.loc 1 16 0
  42 0004 00AF     		add	r7, sp, #0
  43              	.LCFI1:
  44              		.cfi_def_cfa_register 7
  45              	.LBB3:
  46              		.loc 1 17 0
  47              		.syntax unified
  48              	@ 17 "src/powersave.c" 1
  49 0006 83F31188 		msr     BASEPRI, r3
  50              	@ 0 "" 2
  51              		.thumb
  52              		.syntax unified
  53              	.LBE3:
  54              		.loc 1 18 0
  55 000a 044B     		ldr	r3, .L2
  56 000c DA68     		ldr	r2, [r3, #12]
  57 000e 044B     		ldr	r3, .L2+4
ARM GAS  /var/folders/_2/42wyrlld3p52fkcpt1lv6gxh0000gp/T//cc5woa84.s 			page 2


  58 0010 1A60     		str	r2, [r3]
  59              	.LBB4:
  60              		.loc 1 19 0
  61 0012 0023     		movs	r3, #0
  62              		.syntax unified
  63              	@ 19 "src/powersave.c" 1
  64 0014 83F31188 		msr     BASEPRI, r3
  65              	@ 0 "" 2
  66              		.thumb
  67              		.syntax unified
  68 0018 80BD     		pop	{r7, pc}
  69              	.L3:
  70 001a 00BF     		.align	2
  71              	.L2:
  72 001c 00000000 		.word	vtlist
  73 0020 00000000 		.word	.LANCHOR0
  74              	.LBE4:
  75              		.cfi_endproc
  76              	.LFE63:
  77              		.size	powersave_keep_alive, .-powersave_keep_alive
  78              		.section	.text.powersave_should_sleep,"ax",%progbits
  79              		.align	1
  80              		.global	powersave_should_sleep
  81              		.thumb
  82              		.thumb_func
  83              		.type	powersave_should_sleep, %function
  84              	powersave_should_sleep:
  85              	.LFB64:
  86              		.loc 1 23 0
  87              		.cfi_startproc
  88              		@ args = 0, pretend = 0, frame = 0
  89              		@ frame_needed = 1, uses_anonymous_args = 0
  90 0000 80B5     		push	{r7, lr}
  91              	.LCFI2:
  92              		.cfi_def_cfa_offset 8
  93              		.cfi_offset 7, -8
  94              		.cfi_offset 14, -4
  95              	.LBB5:
  96              		.loc 1 24 0
  97 0002 2023     		movs	r3, #32
  98              	.LBE5:
  99              		.loc 1 23 0
 100 0004 00AF     		add	r7, sp, #0
 101              	.LCFI3:
 102              		.cfi_def_cfa_register 7
 103              	.LBB6:
 104              		.loc 1 24 0
 105              		.syntax unified
 106              	@ 24 "src/powersave.c" 1
 107 0006 83F31188 		msr     BASEPRI, r3
 108              	@ 0 "" 2
 109              		.thumb
 110              		.syntax unified
 111              	.LBE6:
 112              		.loc 1 25 0
 113 000a 074B     		ldr	r3, .L5
 114 000c 1868     		ldr	r0, [r3]
ARM GAS  /var/folders/_2/42wyrlld3p52fkcpt1lv6gxh0000gp/T//cc5woa84.s 			page 3


 115              	.LVL0:
 116              	.LBB7:
 117              		.loc 1 26 0
 118 000e 0023     		movs	r3, #0
 119              		.syntax unified
 120              	@ 26 "src/powersave.c" 1
 121 0010 83F31188 		msr     BASEPRI, r3
 122              	@ 0 "" 2
 123              		.thumb
 124              		.syntax unified
 125              	.LBE7:
 126              		.loc 1 28 0
 127 0014 054B     		ldr	r3, .L5+4
 128 0016 DB68     		ldr	r3, [r3, #12]
 129              	.LVL1:
 130              		.loc 1 29 0
 131 0018 1B1A     		subs	r3, r3, r0
 132              	.LVL2:
 133              		.loc 1 30 0
 134 001a 0548     		ldr	r0, .L5+8
 135 001c 8342     		cmp	r3, r0
 136 001e 94BF     		ite	ls
 137 0020 0020     		movls	r0, #0
 138 0022 0120     		movhi	r0, #1
 139 0024 80BD     		pop	{r7, pc}
 140              	.L6:
 141 0026 00BF     		.align	2
 142              	.L5:
 143 0028 00000000 		.word	.LANCHOR0
 144 002c 00000000 		.word	vtlist
 145 0030 00BADB00 		.word	14400000
 146              		.cfi_endproc
 147              	.LFE64:
 148              		.size	powersave_should_sleep, .-powersave_should_sleep
 149              		.section	.text.powersave_sleep,"ax",%progbits
 150              		.align	1
 151              		.global	powersave_sleep
 152              		.thumb
 153              		.thumb_func
 154              		.type	powersave_sleep, %function
 155              	powersave_sleep:
 156              	.LFB65:
 157              		.loc 1 33 0
 158              		.cfi_startproc
 159              		@ args = 0, pretend = 0, frame = 0
 160              		@ frame_needed = 1, uses_anonymous_args = 0
 161 0000 2DE9F047 		push	{r4, r5, r6, r7, r8, r9, r10, lr}
 162              	.LCFI4:
 163              		.cfi_def_cfa_offset 32
 164              		.cfi_offset 4, -32
 165              		.cfi_offset 5, -28
 166              		.cfi_offset 6, -24
 167              		.cfi_offset 7, -20
 168              		.cfi_offset 8, -16
 169              		.cfi_offset 9, -12
 170              		.cfi_offset 10, -8
 171              		.cfi_offset 14, -4
ARM GAS  /var/folders/_2/42wyrlld3p52fkcpt1lv6gxh0000gp/T//cc5woa84.s 			page 4


 172              		.loc 1 34 0
 173 0004 4E4C     		ldr	r4, .L18
 174              		.loc 1 33 0
 175 0006 00AF     		add	r7, sp, #0
 176              	.LCFI5:
 177              		.cfi_def_cfa_register 7
 178              		.loc 1 34 0
 179 0008 0322     		movs	r2, #3
 180 000a 0021     		movs	r1, #0
 181 000c 2068     		ldr	r0, [r4]
 182 000e FFF7FEFF 		bl	gdispGControl
 183              	.LVL3:
 184              		.loc 1 35 0
 185 0012 0121     		movs	r1, #1
 186 0014 2068     		ldr	r0, [r4]
 187 0016 FFF7FEFF 		bl	gdispGClear
 188              	.LVL4:
 189              		.loc 1 36 0
 190 001a 0022     		movs	r2, #0
 191 001c 1146     		mov	r1, r2
 192 001e 2068     		ldr	r0, [r4]
 193 0020 FFF7FEFF 		bl	gdispGControl
 194              	.LVL5:
 195              		.loc 1 39 0
 196 0024 FFF7FEFF 		bl	buttons_stop
 197              	.LVL6:
 198              		.loc 1 40 0
 199 0028 FFF7FEFF 		bl	sensor_stop
 200              	.LVL7:
 201              		.loc 1 41 0
 202 002c FFF7FEFF 		bl	alarm_stop
 203              	.LVL8:
 204              		.loc 1 42 0
 205 0030 FFF7FEFF 		bl	stop_usb_usart
 206              	.LVL9:
 207              		.loc 1 43 0
 208 0034 FFF7FEFF 		bl	beeper_deinit
 209              	.LVL10:
 210              	.LBB8:
 211              		.loc 1 57 0
 212 0038 424D     		ldr	r5, .L18+4
 213              	.L8:
 214              		.loc 1 49 0
 215 003a 4348     		ldr	r0, .L18+8
 216 003c FFF7FEFF 		bl	adcStop
 217              	.LVL11:
 218              	.LBB9:
 219              		.loc 1 52 0
 220 0040 2023     		movs	r3, #32
 221              		.syntax unified
 222              	@ 52 "src/powersave.c" 1
 223 0042 83F31188 		msr     BASEPRI, r3
 224              	@ 0 "" 2
 225              		.thumb
 226              		.syntax unified
 227              	.LBE9:
 228              		.loc 1 55 0
ARM GAS  /var/folders/_2/42wyrlld3p52fkcpt1lv6gxh0000gp/T//cc5woa84.s 			page 5


 229 0046 414C     		ldr	r4, .L18+12
 230              		.loc 1 61 0
 231 0048 0022     		movs	r2, #0
 232 004a 2046     		mov	r0, r4
 233 004c 0121     		movs	r1, #1
 234              		.loc 1 55 0
 235 004e D4F800A0 		ldr	r10, [r4]
 236              	.LVL12:
 237              		.loc 1 56 0
 238 0052 D4F81490 		ldr	r9, [r4, #20]
 239              	.LVL13:
 240              		.loc 1 57 0
 241 0056 D5F80080 		ldr	r8, [r5]
 242              	.LVL14:
 243              		.loc 1 58 0
 244 005a 6E69     		ldr	r6, [r5, #20]
 245              	.LVL15:
 246              		.loc 1 61 0
 247 005c FFF7FEFF 		bl	_pal_lld_setgroupmode
 248              	.LVL16:
 249              		.loc 1 62 0
 250 0060 2046     		mov	r0, r4
 251 0062 0022     		movs	r2, #0
 252 0064 2021     		movs	r1, #32
 253 0066 FFF7FEFF 		bl	_pal_lld_setgroupmode
 254              	.LVL17:
 255              		.loc 1 63 0
 256 006a 2046     		mov	r0, r4
 257 006c 0022     		movs	r2, #0
 258 006e 8021     		movs	r1, #128
 259 0070 FFF7FEFF 		bl	_pal_lld_setgroupmode
 260              	.LVL18:
 261              		.loc 1 64 0
 262 0074 2046     		mov	r0, r4
 263 0076 0322     		movs	r2, #3
 264 0078 4FF40061 		mov	r1, #2048
 265 007c FFF7FEFF 		bl	_pal_lld_setgroupmode
 266              	.LVL19:
 267              		.loc 1 65 0
 268 0080 2046     		mov	r0, r4
 269 0082 0322     		movs	r2, #3
 270 0084 4FF48051 		mov	r1, #4096
 271 0088 FFF7FEFF 		bl	_pal_lld_setgroupmode
 272              	.LVL20:
 273              		.loc 1 66 0
 274 008c 2046     		mov	r0, r4
 275 008e 0322     		movs	r2, #3
 276 0090 4FF40051 		mov	r1, #8192
 277 0094 FFF7FEFF 		bl	_pal_lld_setgroupmode
 278              	.LVL21:
 279              		.loc 1 67 0
 280 0098 2046     		mov	r0, r4
 281 009a 0322     		movs	r2, #3
 282 009c 4FF48041 		mov	r1, #16384
 283 00a0 FFF7FEFF 		bl	_pal_lld_setgroupmode
 284              	.LVL22:
 285              		.loc 1 68 0
ARM GAS  /var/folders/_2/42wyrlld3p52fkcpt1lv6gxh0000gp/T//cc5woa84.s 			page 6


 286 00a4 4FF40073 		mov	r3, #512
 287 00a8 6383     		strh	r3, [r4, #26]	@ movhi
 288              		.loc 1 69 0
 289 00aa 2046     		mov	r0, r4
 290 00ac 4022     		movs	r2, #64
 291 00ae 4FF40041 		mov	r1, #32768
 292 00b2 FFF7FEFF 		bl	_pal_lld_setgroupmode
 293              	.LVL23:
 294              		.loc 1 70 0
 295 00b6 0121     		movs	r1, #1
 296 00b8 0022     		movs	r2, #0
 297 00ba 2248     		ldr	r0, .L18+4
 298 00bc FFF7FEFF 		bl	_pal_lld_setgroupmode
 299              	.LVL24:
 300              		.loc 1 72 0
 301 00c0 4AF6AA22 		movw	r2, #43690
 302 00c4 224B     		ldr	r3, .L18+16
 303              		.loc 1 74 0
 304 00c6 43F69820 		movw	r0, #15000
 305              		.loc 1 72 0
 306 00ca 1A60     		str	r2, [r3]
 307              		.loc 1 74 0
 308 00cc FFF7FEFF 		bl	rtc_sleep
 309              	.LVL25:
 310              		.loc 1 77 0
 311 00d0 C4F800A0 		str	r10, [r4]
 312              	.LBB10:
 313              		.loc 1 83 0
 314 00d4 0023     		movs	r3, #0
 315              	.LBE10:
 316              		.loc 1 78 0
 317 00d6 C4F81490 		str	r9, [r4, #20]
 318              		.loc 1 79 0
 319 00da C5F80080 		str	r8, [r5]
 320              		.loc 1 80 0
 321 00de 6E61     		str	r6, [r5, #20]
 322              	.LBB11:
 323              		.loc 1 83 0
 324              		.syntax unified
 325              	@ 83 "src/powersave.c" 1
 326 00e0 83F31188 		msr     BASEPRI, r3
 327              	@ 0 "" 2
 328              		.thumb
 329              		.syntax unified
 330              	.LBE11:
 331              		.loc 1 85 0
 332 00e4 1848     		ldr	r0, .L18+8
 333 00e6 1946     		mov	r1, r3
 334 00e8 FFF7FEFF 		bl	adcStart
 335              	.LVL26:
 336              		.loc 1 88 0
 337 00ec 2369     		ldr	r3, [r4, #16]
 338 00ee DA07     		lsls	r2, r3, #31
 339 00f0 A3D5     		bpl	.L8
 340              		.loc 1 89 0
 341 00f2 FFF7FEFF 		bl	buttons_read_immediate
 342              	.LVL27:
ARM GAS  /var/folders/_2/42wyrlld3p52fkcpt1lv6gxh0000gp/T//cc5woa84.s 			page 7


 343              	.LBE8:
 344              		.loc 1 92 0
 345 00f6 0128     		cmp	r0, #1
 346 00f8 9FD1     		bne	.L8
 347              		.loc 1 95 0
 348 00fa FFF7FEFF 		bl	beeper_init
 349              	.LVL28:
 350              		.loc 1 96 0
 351 00fe FFF7FEFF 		bl	beeper_click
 352              	.LVL29:
 353              		.loc 1 97 0
 354 0102 FFF7FEFF 		bl	powersave_keep_alive
 355              	.LVL30:
 356              	.L10:
 357              		.loc 1 100 0
 358 0106 2369     		ldr	r3, [r4, #16]
 359 0108 DB07     		lsls	r3, r3, #31
 360 010a 03D5     		bpl	.L17
 361              		.loc 1 101 0
 362 010c 3220     		movs	r0, #50
 363 010e FFF7FEFF 		bl	chThdSleep
 364              	.LVL31:
 365 0112 F8E7     		b	.L10
 366              	.L17:
 367              		.loc 1 104 0
 368 0114 FFF7FEFF 		bl	buttons_clear_buffer
 369              	.LVL32:
 370              		.loc 1 105 0
 371 0118 FFF7FEFF 		bl	buttons_start
 372              	.LVL33:
 373              		.loc 1 106 0
 374 011c FFF7FEFF 		bl	sensor_start
 375              	.LVL34:
 376              		.loc 1 107 0
 377 0120 FFF7FEFF 		bl	alarm_start
 378              	.LVL35:
 379              		.loc 1 110 0
 380 0124 FFF7FEFF 		bl	display_samplecount
 381              	.LVL36:
 382 0128 0228     		cmp	r0, #2
 383 012a 03DC     		bgt	.L12
 384              		.loc 1 112 0
 385 012c FFF7FEFF 		bl	sensor_reset_timestamp
 386              	.LVL37:
 387              		.loc 1 113 0
 388 0130 FFF7FEFF 		bl	display_clear
 389              	.LVL38:
 390              	.L12:
 391              		.loc 1 118 0
 392 0134 BD46     		mov	sp, r7
 393              	.LCFI6:
 394              		.cfi_def_cfa_register 13
 395              		@ sp needed
 396 0136 BDE8F047 		pop	{r4, r5, r6, r7, r8, r9, r10, lr}
 397              	.LCFI7:
 398              		.cfi_restore 14
 399              		.cfi_restore 10
ARM GAS  /var/folders/_2/42wyrlld3p52fkcpt1lv6gxh0000gp/T//cc5woa84.s 			page 8


 400              		.cfi_restore 9
 401              		.cfi_restore 8
 402              		.cfi_restore 7
 403              		.cfi_restore 6
 404              		.cfi_restore 5
 405              		.cfi_restore 4
 406              		.cfi_def_cfa_offset 0
 407              	.LVL39:
 408              		.loc 1 117 0
 409 013a FFF7FEBF 		b	display_full_redraw
 410              	.LVL40:
 411              	.L19:
 412 013e 00BF     		.align	2
 413              	.L18:
 414 0140 00000000 		.word	GDISP
 415 0144 00040240 		.word	1073873920
 416 0148 00000000 		.word	ADCD1
 417 014c 00000240 		.word	1073872896
 418 0150 00300040 		.word	1073754112
 419              		.cfi_endproc
 420              	.LFE65:
 421              		.size	powersave_sleep, .-powersave_sleep
 422              		.global	g_last_keep_alive
 423              		.section	.bss.g_last_keep_alive,"aw",%nobits
 424              		.align	2
 425              		.set	.LANCHOR0,. + 0
 426              		.type	g_last_keep_alive, %object
 427              		.size	g_last_keep_alive, 4
 428              	g_last_keep_alive:
 429 0000 00000000 		.space	4
 430              		.text
 431              	.Letext0:
 432              		.file 2 "/Users/ARS/Applications/Eclipse.app/Contents/gcc-arm-none-eabi-5_3-2016q1/lib/gcc/arm-non
 433              		.file 3 "/Users/ARS/Applications/Eclipse.app/Contents/gcc-arm-none-eabi-5_3-2016q1/arm-none-eabi/i
 434              		.file 4 "/Users/ARS/Applications/Eclipse.app/Contents/gcc-arm-none-eabi-5_3-2016q1/arm-none-eabi/i
 435              		.file 5 "chibios/os/ports/GCC/ARMCMx/chtypes.h"
 436              		.file 6 "chibios/os/kernel/include/chlists.h"
 437              		.file 7 "chibios/os/kernel/include/chthreads.h"
 438              		.file 8 "chibios/os/ports/GCC/ARMCMx/chcore_v7m.h"
 439              		.file 9 "chibios/os/kernel/include/chvt.h"
 440              		.file 10 "chibios/os/kernel/include/chmtx.h"
 441              		.file 11 "chibios/os/hal/platforms/STM32L1xx/stm32l1xx.h"
 442              		.file 12 "chibios/os/hal/platforms/STM32L1xx/stm32_dma.h"
 443              		.file 13 "chibios/os/hal/platforms/STM32/GPIOv2/pal_lld.h"
 444              		.file 14 "chibios/os/hal/include/adc.h"
 445              		.file 15 "chibios/os/hal/platforms/STM32L1xx/adc_lld.h"
 446              		.file 16 "ugfx/src/gdisp/gdisp.h"
 447              		.file 17 "src/buttons.h"
 448              		.file 18 "chibios/os/ports/common/ARMCMx/CMSIS/include/core_cm3.h"
 449              		.file 19 "src/stm32l_rtc.h"
 450              		.file 20 "src/sensor_task.h"
 451              		.file 21 "src/alarm_task.h"
 452              		.file 22 "src/usb_usart.h"
 453              		.file 23 "src/beeper.h"
 454              		.file 24 "src/display.h"