ARM GAS  /var/folders/_2/42wyrlld3p52fkcpt1lv6gxh0000gp/T//ccC0nmt3.s 			page 1


   1              		.syntax unified
   2              		.cpu cortex-m3
   3              		.fpu softvfp
   4              		.eabi_attribute 20, 1
   5              		.eabi_attribute 21, 1
   6              		.eabi_attribute 23, 3
   7              		.eabi_attribute 24, 1
   8              		.eabi_attribute 25, 1
   9              		.eabi_attribute 26, 1
  10              		.eabi_attribute 30, 4
  11              		.eabi_attribute 34, 1
  12              		.eabi_attribute 18, 4
  13              		.thumb
  14              		.syntax unified
  15              		.file	"sensor_task.c"
  16              		.text
  17              	.Ltext0:
  18              		.cfi_sections	.debug_frame
  19              		.section	.text.sensor_task,"ax",%progbits
  20              		.align	1
  21              		.thumb
  22              		.thumb_func
  23              		.type	sensor_task, %function
  24              	sensor_task:
  25              	.LFB67:
  26              		.file 1 "src/sensor_task.c"
  27              		.loc 1 162 0
  28              		.cfi_startproc
  29              		@ args = 0, pretend = 0, frame = 16
  30              		@ frame_needed = 1, uses_anonymous_args = 0
  31              	.LVL0:
  32 0000 2DE9F04F 		push	{r4, r5, r6, r7, r8, r9, r10, fp, lr}
  33              	.LCFI0:
  34              		.cfi_def_cfa_offset 36
  35              		.cfi_offset 4, -36
  36              		.cfi_offset 5, -32
  37              		.cfi_offset 6, -28
  38              		.cfi_offset 7, -24
  39              		.cfi_offset 8, -20
  40              		.cfi_offset 9, -16
  41              		.cfi_offset 10, -12
  42              		.cfi_offset 11, -8
  43              		.cfi_offset 14, -4
  44 0004 85B0     		sub	sp, sp, #20
  45              	.LCFI1:
  46              		.cfi_def_cfa_offset 56
  47              		.loc 1 163 0
  48 0006 6E4D     		ldr	r5, .L33
  49 0008 6E4A     		ldr	r2, .L33+4
  50 000a AB69     		ldr	r3, [r5, #24]
  51              		.loc 1 162 0
  52 000c 00AF     		add	r7, sp, #0
  53              	.LCFI2:
  54              		.cfi_def_cfa_register 7
  55              		.loc 1 163 0
  56 000e 9A61     		str	r2, [r3, #24]
  57              		.loc 1 165 0
ARM GAS  /var/folders/_2/42wyrlld3p52fkcpt1lv6gxh0000gp/T//ccC0nmt3.s 			page 2


  58 0010 6D49     		ldr	r1, .L33+8
  59 0012 6E48     		ldr	r0, .L33+12
  60              	.LVL1:
  61 0014 FFF7FEFF 		bl	sdStart
  62              	.LVL2:
  63              	.LBB19:
  64              	.LBB20:
  65              		.loc 1 176 0
  66 0018 DFF8CC81 		ldr	r8, .L33+40
  67              	.L2:
  68              		.loc 1 183 0
  69 001c DFF8CCA1 		ldr	r10, .L33+44
  70              	.L17:
  71              	.LBE20:
  72              	.LBE19:
  73              		.loc 1 167 0
  74 0020 AB69     		ldr	r3, [r5, #24]
  75 0022 93F82140 		ldrb	r4, [r3, #33]	@ zero_extendqisi2
  76 0026 04F00404 		and	r4, r4, #4
  77 002a 04F0FF06 		and	r6, r4, #255
  78 002e 002C     		cmp	r4, #0
  79 0030 40F0BD80 		bne	.L32
  80              	.LVL3:
  81              	.LBB42:
  82              		.loc 1 170 0
  83 0034 FFF7FEFF 		bl	ntc_connected
  84              	.LVL4:
  85 0038 8346     		mov	fp, r0
  86 003a C8B1     		cbz	r0, .L3
  87              	.LBB36:
  88              	.LBB37:
  89              		.loc 1 55 0
  90 003c FFF7FEFF 		bl	ntc_read
  91              	.LVL5:
  92              		.loc 1 57 0
  93 0040 634A     		ldr	r2, .L33+16
  94 0042 00F54343 		add	r3, r0, #49920
  95 0046 5033     		adds	r3, r3, #80
  96 0048 9342     		cmp	r3, r2
  97              		.loc 1 55 0
  98 004a 8146     		mov	r9, r0
  99              	.LVL6:
 100              		.loc 1 57 0
 101 004c 00F29E80 		bhi	.L19
 102              		.loc 1 60 0
 103 0050 FFF7FEFF 		bl	rtc_get
 104              	.LVL7:
 105              	.LBB38:
 106              		.loc 1 61 0
 107 0054 2023     		movs	r3, #32
 108              		.syntax unified
 109              	@ 61 "src/sensor_task.c" 1
 110 0056 83F31188 		msr     BASEPRI, r3
 111              	@ 0 "" 2
 112              		.thumb
 113              		.syntax unified
 114              	.LBE38:
ARM GAS  /var/folders/_2/42wyrlld3p52fkcpt1lv6gxh0000gp/T//ccC0nmt3.s 			page 3


 115              		.loc 1 62 0
 116 005a 5E4B     		ldr	r3, .L33+20
 117 005c C3F80090 		str	r9, [r3]
 118              		.loc 1 63 0
 119 0060 5D4B     		ldr	r3, .L33+24
 120 0062 1860     		str	r0, [r3]
 121              		.loc 1 64 0
 122 0064 88F80040 		strb	r4, [r8]
 123              	.LBB39:
 124              		.loc 1 65 0
 125 0068 3346     		mov	r3, r6
 126              		.syntax unified
 127              	@ 65 "src/sensor_task.c" 1
 128 006a 83F31188 		msr     BASEPRI, r3
 129              	@ 0 "" 2
 130              		.thumb
 131              		.syntax unified
 132 006e 8DE0     		b	.L19
 133              	.LVL8:
 134              	.L3:
 135              	.LBE39:
 136              	.LBE37:
 137              	.LBE36:
 138              	.LBB40:
 139              		.loc 1 176 0
 140 0070 98F80030 		ldrb	r3, [r8]	@ zero_extendqisi2
 141 0074 4BB9     		cbnz	r3, .L5
 142              	.LBB21:
 143              		.loc 1 178 0
 144 0076 2023     		movs	r3, #32
 145              		.syntax unified
 146              	@ 178 "src/sensor_task.c" 1
 147 0078 83F31188 		msr     BASEPRI, r3
 148              	@ 0 "" 2
 149              		.thumb
 150              		.syntax unified
 151              	.LBE21:
 152              		.loc 1 179 0
 153 007c 564B     		ldr	r3, .L33+24
 154 007e 4FF0FF31 		mov	r1, #-1
 155 0082 1960     		str	r1, [r3]
 156              	.LBB22:
 157              		.loc 1 180 0
 158 0084 0346     		mov	r3, r0
 159              		.syntax unified
 160              	@ 180 "src/sensor_task.c" 1
 161 0086 83F31188 		msr     BASEPRI, r3
 162              	@ 0 "" 2
 163              		.thumb
 164              		.syntax unified
 165              	.L5:
 166              	.LBE22:
 167              		.loc 1 183 0
 168 008a 4FF40073 		mov	r3, #512
 169              	.LBB23:
 170              	.LBB24:
 171              		.loc 1 76 0
ARM GAS  /var/folders/_2/42wyrlld3p52fkcpt1lv6gxh0000gp/T//ccC0nmt3.s 			page 4


 172 008e 534E     		ldr	r6, .L33+28
 173              	.LBE24:
 174              	.LBE23:
 175              		.loc 1 183 0
 176 0090 AAF81830 		strh	r3, [r10, #24]	@ movhi
 177              	.LVL9:
 178              	.LBB35:
 179              	.LBB34:
 180              		.loc 1 76 0
 181 0094 F368     		ldr	r3, [r6, #12]
 182              		.loc 1 75 0
 183 0096 DFF85891 		ldr	r9, .L33+48
 184              		.loc 1 76 0
 185 009a 7B60     		str	r3, [r7, #4]
 186              	.LVL10:
 187              	.L30:
 188              	.LBB25:
 189              		.loc 1 143 0
 190 009c 4FF0FF34 		mov	r4, #-1
 191              	.L6:
 192              	.LVL11:
 193              	.LBE25:
 194              		.loc 1 89 0
 195 00a0 7A68     		ldr	r2, [r7, #4]
 196 00a2 F368     		ldr	r3, [r6, #12]
 197 00a4 9B1A     		subs	r3, r3, r2
 198 00a6 4E4A     		ldr	r2, .L33+32
 199 00a8 9342     		cmp	r3, r2
 200 00aa 65D8     		bhi	.L11
 201              		.loc 1 90 0
 202 00ac AB69     		ldr	r3, [r5, #24]
 203              		.loc 1 89 0
 204 00ae 93F82110 		ldrb	r1, [r3, #33]	@ zero_extendqisi2
 205 00b2 01F00401 		and	r1, r1, #4
 206 00b6 01F0FF03 		and	r3, r1, #255
 207 00ba 0029     		cmp	r1, #0
 208 00bc 5CD1     		bne	.L11
 209              		.loc 1 92 0
 210 00be 6421     		movs	r1, #100
 211 00c0 4848     		ldr	r0, .L33+36
 212 00c2 3B60     		str	r3, [r7]
 213 00c4 FFF7FEFF 		bl	chIQGetTimeout
 214              	.LVL12:
 215              		.loc 1 94 0
 216 00c8 011E     		subs	r1, r0, #0
 217 00ca 3B68     		ldr	r3, [r7]
 218 00cc 08DA     		bge	.L7
 219 00ce 3960     		str	r1, [r7]
 220 00d0 FFF7FEFF 		bl	ntc_connected
 221              	.LVL13:
 222 00d4 3968     		ldr	r1, [r7]
 223 00d6 0028     		cmp	r0, #0
 224 00d8 4ED1     		bne	.L11
 225              	.LVL14:
 226              	.L12:
 227              		.loc 1 101 0
 228 00da 621C     		adds	r2, r4, #1
ARM GAS  /var/folders/_2/42wyrlld3p52fkcpt1lv6gxh0000gp/T//ccC0nmt3.s 			page 5


 229 00dc 03D1     		bne	.L9
 230 00de DFE7     		b	.L6
 231              	.LVL15:
 232              	.L7:
 233              		.loc 1 97 0
 234 00e0 CC29     		cmp	r1, #204
 235 00e2 FAD1     		bne	.L12
 236 00e4 44E0     		b	.L21
 237              	.LVL16:
 238              	.L9:
 239              		.loc 1 103 0
 240 00e6 631C     		adds	r3, r4, #1
 241              	.LVL17:
 242 00e8 07F11002 		add	r2, r7, #16
 243              	.LVL18:
 244 00ec 1444     		add	r4, r4, r2
 245              		.loc 1 105 0
 246 00ee 032B     		cmp	r3, #3
 247              		.loc 1 103 0
 248 00f0 04F8041C 		strb	r1, [r4, #-4]
 249              		.loc 1 105 0
 250 00f4 3CD1     		bne	.L21
 251              	.LBB32:
 252              		.loc 1 108 0
 253 00f6 BC7B     		ldrb	r4, [r7, #14]	@ zero_extendqisi2
 254 00f8 7B7B     		ldrb	r3, [r7, #13]	@ zero_extendqisi2
 255              	.LVL19:
 256 00fa 2404     		lsls	r4, r4, #16
 257 00fc 44EA0323 		orr	r3, r4, r3, lsl #8
 258 0100 3C7B     		ldrb	r4, [r7, #12]	@ zero_extendqisi2
 259 0102 1C43     		orrs	r4, r4, r3
 260              	.LVL20:
 261              		.loc 1 112 0
 262 0104 6FEA5403 		mvn	r3, r4, lsr #1
 263 0108 04F05531 		and	r1, r4, #1431655765
 264 010c 03F05533 		and	r3, r3, #1431655765
 265 0110 21F0AA41 		bic	r1, r1, #1426063360
 266 0114 23F0AA43 		bic	r3, r3, #1426063360
 267 0118 9942     		cmp	r1, r3
 268 011a BFD1     		bne	.L30
 269 011c 0023     		movs	r3, #0
 270 011e 1846     		mov	r0, r3
 271              	.L13:
 272              	.LVL21:
 273              	.LBB26:
 274              	.LBB27:
 275              		.loc 1 118 0
 276 0120 4100     		lsls	r1, r0, #1
 277 0122 44FA01F1 		asr	r1, r4, r1
 278 0126 01F00101 		and	r1, r1, #1
 279 012a 8140     		lsls	r1, r1, r0
 280              		.loc 1 116 0
 281 012c 0130     		adds	r0, r0, #1
 282              	.LVL22:
 283 012e 0C28     		cmp	r0, #12
 284              		.loc 1 118 0
 285 0130 43EA0103 		orr	r3, r3, r1
ARM GAS  /var/folders/_2/42wyrlld3p52fkcpt1lv6gxh0000gp/T//ccC0nmt3.s 			page 6


 286              	.LVL23:
 287              		.loc 1 116 0
 288 0134 F4D1     		bne	.L13
 289              	.LBE27:
 290              		.loc 1 120 0
 291 0136 1B01     		lsls	r3, r3, #4
 292              	.LVL24:
 293              		.loc 1 121 0
 294 0138 4FF47A71 		mov	r1, #1000
 295              		.loc 1 120 0
 296 013c 1BB2     		sxth	r3, r3
 297              	.LVL25:
 298              		.loc 1 121 0
 299 013e 4B43     		muls	r3, r1, r3
 300              	.LVL26:
 301 0140 4FF48071 		mov	r1, #256
 302 0144 93FBF1F3 		sdiv	r3, r3, r1
 303              	.LVL27:
 304              		.loc 1 123 0
 305 0148 4B45     		cmp	r3, r9
 306 014a 13D1     		bne	.L23
 307              	.LBB28:
 308              		.loc 1 126 0
 309 014c FFF7FEFF 		bl	rtc_get
 310              	.LVL28:
 311              	.LBB29:
 312              		.loc 1 128 0
 313 0150 2023     		movs	r3, #32
 314              		.syntax unified
 315              	@ 128 "src/sensor_task.c" 1
 316 0152 83F31188 		msr     BASEPRI, r3
 317              	@ 0 "" 2
 318              		.thumb
 319              		.syntax unified
 320              	.LBE29:
 321              		.loc 1 129 0
 322 0156 1F4B     		ldr	r3, .L33+20
 323              		.loc 1 131 0
 324 0158 0122     		movs	r2, #1
 325              		.loc 1 129 0
 326 015a C3F80090 		str	r9, [r3]
 327              		.loc 1 130 0
 328 015e 1E4B     		ldr	r3, .L33+24
 329 0160 1860     		str	r0, [r3]
 330              		.loc 1 131 0
 331 0162 214B     		ldr	r3, .L33+40
 332 0164 1A70     		strb	r2, [r3]
 333              	.LBB30:
 334              		.loc 1 132 0
 335 0166 0023     		movs	r3, #0
 336              		.syntax unified
 337              	@ 132 "src/sensor_task.c" 1
 338 0168 83F31188 		msr     BASEPRI, r3
 339              	@ 0 "" 2
 340              		.thumb
 341              		.syntax unified
 342              	.LBE30:
ARM GAS  /var/folders/_2/42wyrlld3p52fkcpt1lv6gxh0000gp/T//ccC0nmt3.s 			page 7


 343              		.loc 1 134 0
 344 016c 9346     		mov	fp, r2
 345 016e 03E0     		b	.L11
 346              	.LVL29:
 347              	.L21:
 348              	.LBE28:
 349              	.LBE26:
 350              	.LBE32:
 351              		.loc 1 105 0
 352 0170 1C46     		mov	r4, r3
 353 0172 95E7     		b	.L6
 354              	.LVL30:
 355              	.L23:
 356              	.LBB33:
 357              	.LBB31:
 358              		.loc 1 123 0
 359 0174 9946     		mov	r9, r3
 360              	.LVL31:
 361 0176 91E7     		b	.L30
 362              	.LVL32:
 363              	.L11:
 364              	.LBE31:
 365              	.LBE33:
 366              	.LBE34:
 367              	.LBE35:
 368              		.loc 1 185 0
 369 0178 4FF40073 		mov	r3, #512
 370 017c AAF81A30 		strh	r3, [r10, #26]	@ movhi
 371              		.loc 1 187 0
 372 0180 BBF1000F 		cmp	fp, #0
 373 0184 3FF44CAF 		beq	.L17
 374              		.loc 1 190 0
 375 0188 1426     		movs	r6, #20
 376 018a 00E0     		b	.L4
 377              	.LVL33:
 378              	.L19:
 379              	.LBE40:
 380              		.loc 1 169 0
 381 018c 0526     		movs	r6, #5
 382              	.LVL34:
 383              	.L4:
 384              	.LBB41:
 385              		.loc 1 199 0
 386 018e 0A23     		movs	r3, #10
 387 0190 5E43     		muls	r6, r3, r6
 388              	.LVL35:
 389 0192 0024     		movs	r4, #0
 390              	.LVL36:
 391              	.L16:
 392              		.loc 1 201 0
 393 0194 6420     		movs	r0, #100
 394 0196 FFF7FEFF 		bl	chThdSleep
 395              	.LVL37:
 396              		.loc 1 202 0
 397 019a AB69     		ldr	r3, [r5, #24]
 398 019c 93F82130 		ldrb	r3, [r3, #33]	@ zero_extendqisi2
 399 01a0 5B07     		lsls	r3, r3, #29
ARM GAS  /var/folders/_2/42wyrlld3p52fkcpt1lv6gxh0000gp/T//ccC0nmt3.s 			page 8


 400 01a2 3FF53BAF 		bmi	.L2
 401              		.loc 1 199 0 discriminator 2
 402 01a6 0134     		adds	r4, r4, #1
 403              	.LVL38:
 404 01a8 A642     		cmp	r6, r4
 405 01aa F3D1     		bne	.L16
 406 01ac 38E7     		b	.L17
 407              	.LVL39:
 408              	.L32:
 409              	.LBE41:
 410              	.LBE42:
 411              		.loc 1 207 0
 412 01ae 0748     		ldr	r0, .L33+12
 413 01b0 FFF7FEFF 		bl	sdStop
 414              	.LVL40:
 415              		.loc 1 210 0
 416 01b4 0020     		movs	r0, #0
 417 01b6 1437     		adds	r7, r7, #20
 418              	.LCFI3:
 419              		.cfi_def_cfa_offset 36
 420 01b8 BD46     		mov	sp, r7
 421              	.LCFI4:
 422              		.cfi_def_cfa_register 13
 423              		@ sp needed
 424 01ba BDE8F08F 		pop	{r4, r5, r6, r7, r8, r9, r10, fp, pc}
 425              	.L34:
 426 01be 00BF     		.align	2
 427              	.L33:
 428 01c0 00000000 		.word	rlist
 429 01c4 00000000 		.word	.LC0
 430 01c8 00000000 		.word	.LANCHOR0
 431 01cc 00000000 		.word	SD1
 432 01d0 30570500 		.word	350000
 433 01d4 00000000 		.word	.LANCHOR1
 434 01d8 00000000 		.word	.LANCHOR2
 435 01dc 00000000 		.word	vtlist
 436 01e0 BFD40100 		.word	119999
 437 01e4 0C000000 		.word	SD1+12
 438 01e8 00000000 		.word	.LANCHOR3
 439 01ec 00000240 		.word	1073872896
 440 01f0 F1D8FFFF 		.word	-9999
 441              		.cfi_endproc
 442              	.LFE67:
 443              		.size	sensor_task, .-sensor_task
 444              		.section	.text.sensor_get_temperature,"ax",%progbits
 445              		.align	1
 446              		.global	sensor_get_temperature
 447              		.thumb
 448              		.thumb_func
 449              		.type	sensor_get_temperature, %function
 450              	sensor_get_temperature:
 451              	.LFB63:
 452              		.loc 1 16 0
 453              		.cfi_startproc
 454              		@ args = 0, pretend = 0, frame = 0
 455              		@ frame_needed = 1, uses_anonymous_args = 0
 456              	.LVL41:
ARM GAS  /var/folders/_2/42wyrlld3p52fkcpt1lv6gxh0000gp/T//ccC0nmt3.s 			page 9


 457 0000 98B5     		push	{r3, r4, r7, lr}
 458              	.LCFI5:
 459              		.cfi_def_cfa_offset 16
 460              		.cfi_offset 3, -16
 461              		.cfi_offset 4, -12
 462              		.cfi_offset 7, -8
 463              		.cfi_offset 14, -4
 464 0002 0C46     		mov	r4, r1
 465 0004 00AF     		add	r7, sp, #0
 466              	.LCFI6:
 467              		.cfi_def_cfa_register 7
 468              	.LBB43:
 469              		.loc 1 17 0
 470 0006 2023     		movs	r3, #32
 471              		.syntax unified
 472              	@ 17 "src/sensor_task.c" 1
 473 0008 83F31188 		msr     BASEPRI, r3
 474              	@ 0 "" 2
 475              		.thumb
 476              		.syntax unified
 477              	.LBE43:
 478              		.loc 1 18 0
 479 000c 0C4B     		ldr	r3, .L38
 480 000e 1B68     		ldr	r3, [r3]
 481 0010 0360     		str	r3, [r0]
 482              		.loc 1 19 0
 483 0012 0C4B     		ldr	r3, .L38+4
 484 0014 1B68     		ldr	r3, [r3]
 485 0016 0B60     		str	r3, [r1]
 486              		.loc 1 20 0
 487 0018 0B4B     		ldr	r3, .L38+8
 488 001a 1B78     		ldrb	r3, [r3]	@ zero_extendqisi2
 489 001c 1370     		strb	r3, [r2]
 490              	.LBB44:
 491              		.loc 1 21 0
 492 001e 0023     		movs	r3, #0
 493              		.syntax unified
 494              	@ 21 "src/sensor_task.c" 1
 495 0020 83F31188 		msr     BASEPRI, r3
 496              	@ 0 "" 2
 497              		.thumb
 498              		.syntax unified
 499              	.LBE44:
 500              		.loc 1 23 0
 501 0024 FFF7FEFF 		bl	rtc_get
 502              	.LVL42:
 503              		.loc 1 24 0
 504 0028 2368     		ldr	r3, [r4]
 505 002a 002B     		cmp	r3, #0
 506 002c 05DB     		blt	.L37
 507              		.loc 1 24 0 is_stmt 0 discriminator 1
 508 002e 7838     		subs	r0, r0, #120
 509              	.LVL43:
 510 0030 8342     		cmp	r3, r0
 511 0032 B4BF     		ite	lt
 512 0034 0020     		movlt	r0, #0
 513              	.LVL44:
ARM GAS  /var/folders/_2/42wyrlld3p52fkcpt1lv6gxh0000gp/T//ccC0nmt3.s 			page 10


 514 0036 0120     		movge	r0, #1
 515 0038 98BD     		pop	{r3, r4, r7, pc}
 516              	.LVL45:
 517              	.L37:
 518              		.loc 1 25 0 is_stmt 1
 519 003a 0020     		movs	r0, #0
 520              	.LVL46:
 521              		.loc 1 28 0
 522 003c 98BD     		pop	{r3, r4, r7, pc}
 523              	.LVL47:
 524              	.L39:
 525 003e 00BF     		.align	2
 526              	.L38:
 527 0040 00000000 		.word	.LANCHOR1
 528 0044 00000000 		.word	.LANCHOR2
 529 0048 00000000 		.word	.LANCHOR3
 530              		.cfi_endproc
 531              	.LFE63:
 532              		.size	sensor_get_temperature, .-sensor_get_temperature
 533              		.section	.text.sensor_reset_timestamp,"ax",%progbits
 534              		.align	1
 535              		.global	sensor_reset_timestamp
 536              		.thumb
 537              		.thumb_func
 538              		.type	sensor_reset_timestamp, %function
 539              	sensor_reset_timestamp:
 540              	.LFB64:
 541              		.loc 1 31 0
 542              		.cfi_startproc
 543              		@ args = 0, pretend = 0, frame = 0
 544              		@ frame_needed = 1, uses_anonymous_args = 0
 545 0000 80B5     		push	{r7, lr}
 546              	.LCFI7:
 547              		.cfi_def_cfa_offset 8
 548              		.cfi_offset 7, -8
 549              		.cfi_offset 14, -4
 550 0002 00AF     		add	r7, sp, #0
 551              	.LCFI8:
 552              		.cfi_def_cfa_register 7
 553              		.loc 1 32 0
 554 0004 FFF7FEFF 		bl	rtc_get
 555              	.LVL48:
 556              	.LBB45:
 557              		.loc 1 36 0
 558 0008 2023     		movs	r3, #32
 559              		.syntax unified
 560              	@ 36 "src/sensor_task.c" 1
 561 000a 83F31188 		msr     BASEPRI, r3
 562              	@ 0 "" 2
 563              		.thumb
 564              		.syntax unified
 565              	.LBE45:
 566              		.loc 1 39 0
 567 000e 094B     		ldr	r3, .L44
 568 0010 1A68     		ldr	r2, [r3]
 569 0012 002A     		cmp	r2, #0
 570 0014 1A46     		mov	r2, r3
ARM GAS  /var/folders/_2/42wyrlld3p52fkcpt1lv6gxh0000gp/T//ccC0nmt3.s 			page 11


 571 0016 03DB     		blt	.L41
 572              		.loc 1 39 0 is_stmt 0 discriminator 1
 573 0018 1968     		ldr	r1, [r3]
 574 001a 7838     		subs	r0, r0, #120
 575              	.LVL49:
 576 001c 8842     		cmp	r0, r1
 577 001e 03DD     		ble	.L42
 578              	.LVL50:
 579              	.L41:
 580              		.loc 1 41 0 is_stmt 1
 581 0020 4FF0FF33 		mov	r3, #-1
 582 0024 1360     		str	r3, [r2]
 583 0026 01E0     		b	.L43
 584              	.LVL51:
 585              	.L42:
 586              		.loc 1 45 0
 587 0028 0022     		movs	r2, #0
 588 002a 1A60     		str	r2, [r3]
 589              	.LVL52:
 590              	.L43:
 591              	.LBB46:
 592              		.loc 1 47 0
 593 002c 0023     		movs	r3, #0
 594              		.syntax unified
 595              	@ 47 "src/sensor_task.c" 1
 596 002e 83F31188 		msr     BASEPRI, r3
 597              	@ 0 "" 2
 598              		.thumb
 599              		.syntax unified
 600 0032 80BD     		pop	{r7, pc}
 601              	.L45:
 602              		.align	2
 603              	.L44:
 604 0034 00000000 		.word	.LANCHOR2
 605              	.LBE46:
 606              		.cfi_endproc
 607              	.LFE64:
 608              		.size	sensor_reset_timestamp, .-sensor_reset_timestamp
 609              		.section	.text.sensor_start,"ax",%progbits
 610              		.align	1
 611              		.global	sensor_start
 612              		.thumb
 613              		.thumb_func
 614              		.type	sensor_start, %function
 615              	sensor_start:
 616              	.LFB68:
 617              		.loc 1 213 0
 618              		.cfi_startproc
 619              		@ args = 0, pretend = 0, frame = 0
 620              		@ frame_needed = 1, uses_anonymous_args = 0
 621 0000 90B5     		push	{r4, r7, lr}
 622              	.LCFI9:
 623              		.cfi_def_cfa_offset 12
 624              		.cfi_offset 4, -12
 625              		.cfi_offset 7, -8
 626              		.cfi_offset 14, -4
 627 0002 83B0     		sub	sp, sp, #12
ARM GAS  /var/folders/_2/42wyrlld3p52fkcpt1lv6gxh0000gp/T//ccC0nmt3.s 			page 12


 628              	.LCFI10:
 629              		.cfi_def_cfa_offset 24
 630              		.loc 1 214 0
 631 0004 074C     		ldr	r4, .L48
 632              		.loc 1 213 0
 633 0006 02AF     		add	r7, sp, #8
 634              	.LCFI11:
 635              		.cfi_def_cfa 7, 16
 636              		.loc 1 214 0
 637 0008 2368     		ldr	r3, [r4]
 638 000a 43B9     		cbnz	r3, .L46
 639              		.loc 1 217 0
 640 000c 0093     		str	r3, [sp]
 641 000e 4A22     		movs	r2, #74
 642 0010 054B     		ldr	r3, .L48+4
 643 0012 4FF4D071 		mov	r1, #416
 644 0016 0548     		ldr	r0, .L48+8
 645 0018 FFF7FEFF 		bl	chThdCreateStatic
 646              	.LVL53:
 647 001c 2060     		str	r0, [r4]
 648              	.L46:
 649              		.loc 1 219 0
 650 001e 0437     		adds	r7, r7, #4
 651              	.LCFI12:
 652              		.cfi_def_cfa_offset 12
 653 0020 BD46     		mov	sp, r7
 654              	.LCFI13:
 655              		.cfi_def_cfa_register 13
 656              		@ sp needed
 657 0022 90BD     		pop	{r4, r7, pc}
 658              	.L49:
 659              		.align	2
 660              	.L48:
 661 0024 00000000 		.word	.LANCHOR4
 662 0028 00000000 		.word	sensor_task
 663 002c 00000000 		.word	.LANCHOR5
 664              		.cfi_endproc
 665              	.LFE68:
 666              		.size	sensor_start, .-sensor_start
 667              		.section	.text.sensor_stop,"ax",%progbits
 668              		.align	1
 669              		.global	sensor_stop
 670              		.thumb
 671              		.thumb_func
 672              		.type	sensor_stop, %function
 673              	sensor_stop:
 674              	.LFB69:
 675              		.loc 1 222 0
 676              		.cfi_startproc
 677              		@ args = 0, pretend = 0, frame = 0
 678              		@ frame_needed = 1, uses_anonymous_args = 0
 679 0000 98B5     		push	{r3, r4, r7, lr}
 680              	.LCFI14:
 681              		.cfi_def_cfa_offset 16
 682              		.cfi_offset 3, -16
 683              		.cfi_offset 4, -12
 684              		.cfi_offset 7, -8
ARM GAS  /var/folders/_2/42wyrlld3p52fkcpt1lv6gxh0000gp/T//ccC0nmt3.s 			page 13


 685              		.cfi_offset 14, -4
 686              		.loc 1 223 0
 687 0002 064C     		ldr	r4, .L55
 688              		.loc 1 222 0
 689 0004 00AF     		add	r7, sp, #0
 690              	.LCFI15:
 691              		.cfi_def_cfa_register 7
 692              		.loc 1 223 0
 693 0006 2068     		ldr	r0, [r4]
 694 0008 30B1     		cbz	r0, .L50
 695              		.loc 1 225 0
 696 000a FFF7FEFF 		bl	chThdTerminate
 697              	.LVL54:
 698              		.loc 1 226 0
 699 000e 2068     		ldr	r0, [r4]
 700 0010 FFF7FEFF 		bl	chThdWait
 701              	.LVL55:
 702              		.loc 1 227 0
 703 0014 0023     		movs	r3, #0
 704 0016 2360     		str	r3, [r4]
 705              	.L50:
 706 0018 98BD     		pop	{r3, r4, r7, pc}
 707              	.L56:
 708 001a 00BF     		.align	2
 709              	.L55:
 710 001c 00000000 		.word	.LANCHOR4
 711              		.cfi_endproc
 712              	.LFE69:
 713              		.size	sensor_stop, .-sensor_stop
 714              		.section	.data.g_timestamp,"aw",%progbits
 715              		.align	2
 716              		.set	.LANCHOR2,. + 0
 717              		.type	g_timestamp, %object
 718              		.size	g_timestamp, 4
 719              	g_timestamp:
 720 0000 FFFFFFFF 		.word	-1
 721              		.section	.rodata.config,"a",%progbits
 722              		.align	2
 723              		.set	.LANCHOR0,. + 0
 724              		.type	config, %object
 725              		.size	config, 12
 726              	config:
 727 0000 60090000 		.word	2400
 728 0004 0000     		.short	0
 729 0006 0040     		.short	16384
 730 0008 0000     		.short	0
 731 000a 0000     		.space	2
 732              		.section	.bss.sensorThread_wa,"aw",%nobits
 733              		.align	3
 734              		.set	.LANCHOR5,. + 0
 735              		.type	sensorThread_wa, %object
 736              		.size	sensorThread_wa, 416
 737              	sensorThread_wa:
 738 0000 00000000 		.space	416
 738      00000000 
 738      00000000 
 738      00000000 
ARM GAS  /var/folders/_2/42wyrlld3p52fkcpt1lv6gxh0000gp/T//ccC0nmt3.s 			page 14


 738      00000000 
 739              		.section	.rodata.str1.1,"aMS",%progbits,1
 740              	.LC0:
 741 0000 73656E73 		.ascii	"sensor\000"
 741      6F7200
 742              		.section	.bss.g_wireless,"aw",%nobits
 743              		.set	.LANCHOR3,. + 0
 744              		.type	g_wireless, %object
 745              		.size	g_wireless, 1
 746              	g_wireless:
 747 0000 00       		.space	1
 748              		.section	.bss.g_temperature,"aw",%nobits
 749              		.align	2
 750              		.set	.LANCHOR1,. + 0
 751              		.type	g_temperature, %object
 752              		.size	g_temperature, 4
 753              	g_temperature:
 754 0000 00000000 		.space	4
 755              		.section	.bss.sensorThread,"aw",%nobits
 756              		.align	2
 757              		.set	.LANCHOR4,. + 0
 758              		.type	sensorThread, %object
 759              		.size	sensorThread, 4
 760              	sensorThread:
 761 0000 00000000 		.space	4
 762              		.text
 763              	.Letext0:
 764              		.file 2 "/Users/ARS/Applications/Eclipse.app/Contents/gcc-arm-none-eabi-5_3-2016q1/lib/gcc/arm-non
 765              		.file 3 "/Users/ARS/Applications/Eclipse.app/Contents/gcc-arm-none-eabi-5_3-2016q1/arm-none-eabi/i
 766              		.file 4 "/Users/ARS/Applications/Eclipse.app/Contents/gcc-arm-none-eabi-5_3-2016q1/arm-none-eabi/i
 767              		.file 5 "chibios/os/ports/GCC/ARMCMx/chtypes.h"
 768              		.file 6 "chibios/os/kernel/include/chlists.h"
 769              		.file 7 "chibios/os/kernel/include/chthreads.h"
 770              		.file 8 "chibios/os/ports/GCC/ARMCMx/chcore_v7m.h"
 771              		.file 9 "chibios/os/kernel/include/chvt.h"
 772              		.file 10 "chibios/os/kernel/include/chschd.h"
 773              		.file 11 "chibios/os/kernel/include/chmtx.h"
 774              		.file 12 "chibios/os/kernel/include/chevents.h"
 775              		.file 13 "chibios/os/kernel/include/chqueues.h"
 776              		.file 14 "chibios/os/hal/platforms/STM32L1xx/stm32l1xx.h"
 777              		.file 15 "chibios/os/hal/platforms/STM32/GPIOv2/pal_lld.h"
 778              		.file 16 "chibios/os/hal/include/serial.h"
 779              		.file 17 "chibios/os/hal/platforms/STM32/USARTv1/serial_lld.h"
 780              		.file 18 "chibios/os/ports/common/ARMCMx/CMSIS/include/core_cm3.h"
 781              		.file 19 "src/stm32l_rtc.h"
 782              		.file 20 "src/ntc.h"