ARM GAS  /var/folders/_2/42wyrlld3p52fkcpt1lv6gxh0000gp/T//ccIWbVpr.s 			page 1


   1              		.syntax unified
   2              		.cpu cortex-m3
   3              		.fpu softvfp
   4              		.eabi_attribute 20, 1
   5              		.eabi_attribute 21, 1
   6              		.eabi_attribute 23, 3
   7              		.eabi_attribute 24, 1
   8              		.eabi_attribute 25, 1
   9              		.eabi_attribute 26, 1
  10              		.eabi_attribute 30, 4
  11              		.eabi_attribute 34, 1
  12              		.eabi_attribute 18, 4
  13              		.thumb
  14              		.syntax unified
  15              		.file	"serial.c"
  16              		.text
  17              	.Ltext0:
  18              		.cfi_sections	.debug_frame
  19              		.section	.text.readt,"ax",%progbits
  20              		.align	1
  21              		.thumb
  22              		.thumb_func
  23              		.type	readt, %function
  24              	readt:
  25              	.LFB70:
  26              		.file 1 "chibios/os/hal/src/serial.c"
  27              		.loc 1 99 0
  28              		.cfi_startproc
  29              		@ args = 0, pretend = 0, frame = 0
  30              		@ frame_needed = 1, uses_anonymous_args = 0
  31              		@ link register save eliminated.
  32              	.LVL0:
  33 0000 80B4     		push	{r7}
  34              	.LCFI0:
  35              		.cfi_def_cfa_offset 4
  36              		.cfi_offset 7, -4
  37              		.loc 1 101 0
  38 0002 0C30     		adds	r0, r0, #12
  39              	.LVL1:
  40              		.loc 1 99 0
  41 0004 00AF     		add	r7, sp, #0
  42              	.LCFI1:
  43              		.cfi_def_cfa_register 7
  44              		.loc 1 102 0
  45 0006 BD46     		mov	sp, r7
  46              	.LCFI2:
  47              		.cfi_def_cfa_register 13
  48              		@ sp needed
  49 0008 80BC     		pop	{r7}
  50              	.LCFI3:
  51              		.cfi_restore 7
  52              		.cfi_def_cfa_offset 0
  53              		.loc 1 101 0
  54 000a FFF7FEBF 		b	chIQReadTimeout
  55              	.LVL2:
  56              		.cfi_endproc
  57              	.LFE70:
ARM GAS  /var/folders/_2/42wyrlld3p52fkcpt1lv6gxh0000gp/T//ccIWbVpr.s 			page 2


  58              		.size	readt, .-readt
  59              		.section	.text.read,"ax",%progbits
  60              		.align	1
  61              		.thumb
  62              		.thumb_func
  63              		.type	read, %function
  64              	read:
  65              	.LFB64:
  66              		.loc 1 68 0
  67              		.cfi_startproc
  68              		@ args = 0, pretend = 0, frame = 0
  69              		@ frame_needed = 1, uses_anonymous_args = 0
  70              		@ link register save eliminated.
  71              	.LVL3:
  72 0000 80B4     		push	{r7}
  73              	.LCFI4:
  74              		.cfi_def_cfa_offset 4
  75              		.cfi_offset 7, -4
  76              		.loc 1 70 0
  77 0002 4FF0FF33 		mov	r3, #-1
  78              		.loc 1 68 0
  79 0006 00AF     		add	r7, sp, #0
  80              	.LCFI5:
  81              		.cfi_def_cfa_register 7
  82              		.loc 1 70 0
  83 0008 0C30     		adds	r0, r0, #12
  84              	.LVL4:
  85              		.loc 1 72 0
  86 000a BD46     		mov	sp, r7
  87              	.LCFI6:
  88              		.cfi_def_cfa_register 13
  89              		@ sp needed
  90 000c 80BC     		pop	{r7}
  91              	.LCFI7:
  92              		.cfi_restore 7
  93              		.cfi_def_cfa_offset 0
  94              		.loc 1 70 0
  95 000e FFF7FEBF 		b	chIQReadTimeout
  96              	.LVL5:
  97              		.cfi_endproc
  98              	.LFE64:
  99              		.size	read, .-read
 100              		.section	.text.writet,"ax",%progbits
 101              		.align	1
 102              		.thumb
 103              		.thumb_func
 104              		.type	writet, %function
 105              	writet:
 106              	.LFB69:
 107              		.loc 1 94 0
 108              		.cfi_startproc
 109              		@ args = 0, pretend = 0, frame = 0
 110              		@ frame_needed = 1, uses_anonymous_args = 0
 111              		@ link register save eliminated.
 112              	.LVL6:
 113 0000 80B4     		push	{r7}
 114              	.LCFI8:
ARM GAS  /var/folders/_2/42wyrlld3p52fkcpt1lv6gxh0000gp/T//ccIWbVpr.s 			page 3


 115              		.cfi_def_cfa_offset 4
 116              		.cfi_offset 7, -4
 117              		.loc 1 96 0
 118 0002 3030     		adds	r0, r0, #48
 119              	.LVL7:
 120              		.loc 1 94 0
 121 0004 00AF     		add	r7, sp, #0
 122              	.LCFI9:
 123              		.cfi_def_cfa_register 7
 124              		.loc 1 97 0
 125 0006 BD46     		mov	sp, r7
 126              	.LCFI10:
 127              		.cfi_def_cfa_register 13
 128              		@ sp needed
 129 0008 80BC     		pop	{r7}
 130              	.LCFI11:
 131              		.cfi_restore 7
 132              		.cfi_def_cfa_offset 0
 133              		.loc 1 96 0
 134 000a FFF7FEBF 		b	chOQWriteTimeout
 135              	.LVL8:
 136              		.cfi_endproc
 137              	.LFE69:
 138              		.size	writet, .-writet
 139              		.section	.text.write,"ax",%progbits
 140              		.align	1
 141              		.thumb
 142              		.thumb_func
 143              		.type	write, %function
 144              	write:
 145              	.LFB63:
 146              		.loc 1 62 0
 147              		.cfi_startproc
 148              		@ args = 0, pretend = 0, frame = 0
 149              		@ frame_needed = 1, uses_anonymous_args = 0
 150              		@ link register save eliminated.
 151              	.LVL9:
 152 0000 80B4     		push	{r7}
 153              	.LCFI12:
 154              		.cfi_def_cfa_offset 4
 155              		.cfi_offset 7, -4
 156              		.loc 1 64 0
 157 0002 4FF0FF33 		mov	r3, #-1
 158              		.loc 1 62 0
 159 0006 00AF     		add	r7, sp, #0
 160              	.LCFI13:
 161              		.cfi_def_cfa_register 7
 162              		.loc 1 64 0
 163 0008 3030     		adds	r0, r0, #48
 164              	.LVL10:
 165              		.loc 1 66 0
 166 000a BD46     		mov	sp, r7
 167              	.LCFI14:
 168              		.cfi_def_cfa_register 13
 169              		@ sp needed
 170 000c 80BC     		pop	{r7}
 171              	.LCFI15:
ARM GAS  /var/folders/_2/42wyrlld3p52fkcpt1lv6gxh0000gp/T//ccIWbVpr.s 			page 4


 172              		.cfi_restore 7
 173              		.cfi_def_cfa_offset 0
 174              		.loc 1 64 0
 175 000e FFF7FEBF 		b	chOQWriteTimeout
 176              	.LVL11:
 177              		.cfi_endproc
 178              	.LFE63:
 179              		.size	write, .-write
 180              		.section	.text.gett,"ax",%progbits
 181              		.align	1
 182              		.thumb
 183              		.thumb_func
 184              		.type	gett, %function
 185              	gett:
 186              	.LFB68:
 187              		.loc 1 89 0
 188              		.cfi_startproc
 189              		@ args = 0, pretend = 0, frame = 0
 190              		@ frame_needed = 1, uses_anonymous_args = 0
 191              		@ link register save eliminated.
 192              	.LVL12:
 193 0000 80B4     		push	{r7}
 194              	.LCFI16:
 195              		.cfi_def_cfa_offset 4
 196              		.cfi_offset 7, -4
 197              		.loc 1 91 0
 198 0002 0C30     		adds	r0, r0, #12
 199              	.LVL13:
 200              		.loc 1 89 0
 201 0004 00AF     		add	r7, sp, #0
 202              	.LCFI17:
 203              		.cfi_def_cfa_register 7
 204              		.loc 1 92 0
 205 0006 BD46     		mov	sp, r7
 206              	.LCFI18:
 207              		.cfi_def_cfa_register 13
 208              		@ sp needed
 209 0008 80BC     		pop	{r7}
 210              	.LCFI19:
 211              		.cfi_restore 7
 212              		.cfi_def_cfa_offset 0
 213              		.loc 1 91 0
 214 000a FFF7FEBF 		b	chIQGetTimeout
 215              	.LVL14:
 216              		.cfi_endproc
 217              	.LFE68:
 218              		.size	gett, .-gett
 219              		.section	.text.get,"ax",%progbits
 220              		.align	1
 221              		.thumb
 222              		.thumb_func
 223              		.type	get, %function
 224              	get:
 225              	.LFB66:
 226              		.loc 1 79 0
 227              		.cfi_startproc
 228              		@ args = 0, pretend = 0, frame = 0
ARM GAS  /var/folders/_2/42wyrlld3p52fkcpt1lv6gxh0000gp/T//ccIWbVpr.s 			page 5


 229              		@ frame_needed = 1, uses_anonymous_args = 0
 230              		@ link register save eliminated.
 231              	.LVL15:
 232 0000 80B4     		push	{r7}
 233              	.LCFI20:
 234              		.cfi_def_cfa_offset 4
 235              		.cfi_offset 7, -4
 236              		.loc 1 81 0
 237 0002 4FF0FF31 		mov	r1, #-1
 238              		.loc 1 79 0
 239 0006 00AF     		add	r7, sp, #0
 240              	.LCFI21:
 241              		.cfi_def_cfa_register 7
 242              		.loc 1 81 0
 243 0008 0C30     		adds	r0, r0, #12
 244              	.LVL16:
 245              		.loc 1 82 0
 246 000a BD46     		mov	sp, r7
 247              	.LCFI22:
 248              		.cfi_def_cfa_register 13
 249              		@ sp needed
 250 000c 80BC     		pop	{r7}
 251              	.LCFI23:
 252              		.cfi_restore 7
 253              		.cfi_def_cfa_offset 0
 254              		.loc 1 81 0
 255 000e FFF7FEBF 		b	chIQGetTimeout
 256              	.LVL17:
 257              		.cfi_endproc
 258              	.LFE66:
 259              		.size	get, .-get
 260              		.section	.text.putt,"ax",%progbits
 261              		.align	1
 262              		.thumb
 263              		.thumb_func
 264              		.type	putt, %function
 265              	putt:
 266              	.LFB67:
 267              		.loc 1 84 0
 268              		.cfi_startproc
 269              		@ args = 0, pretend = 0, frame = 0
 270              		@ frame_needed = 1, uses_anonymous_args = 0
 271              		@ link register save eliminated.
 272              	.LVL18:
 273 0000 80B4     		push	{r7}
 274              	.LCFI24:
 275              		.cfi_def_cfa_offset 4
 276              		.cfi_offset 7, -4
 277              		.loc 1 86 0
 278 0002 3030     		adds	r0, r0, #48
 279              	.LVL19:
 280              		.loc 1 84 0
 281 0004 00AF     		add	r7, sp, #0
 282              	.LCFI25:
 283              		.cfi_def_cfa_register 7
 284              		.loc 1 87 0
 285 0006 BD46     		mov	sp, r7
ARM GAS  /var/folders/_2/42wyrlld3p52fkcpt1lv6gxh0000gp/T//ccIWbVpr.s 			page 6


 286              	.LCFI26:
 287              		.cfi_def_cfa_register 13
 288              		@ sp needed
 289 0008 80BC     		pop	{r7}
 290              	.LCFI27:
 291              		.cfi_restore 7
 292              		.cfi_def_cfa_offset 0
 293              		.loc 1 86 0
 294 000a FFF7FEBF 		b	chOQPutTimeout
 295              	.LVL20:
 296              		.cfi_endproc
 297              	.LFE67:
 298              		.size	putt, .-putt
 299              		.section	.text.put,"ax",%progbits
 300              		.align	1
 301              		.thumb
 302              		.thumb_func
 303              		.type	put, %function
 304              	put:
 305              	.LFB65:
 306              		.loc 1 74 0
 307              		.cfi_startproc
 308              		@ args = 0, pretend = 0, frame = 0
 309              		@ frame_needed = 1, uses_anonymous_args = 0
 310              		@ link register save eliminated.
 311              	.LVL21:
 312 0000 80B4     		push	{r7}
 313              	.LCFI28:
 314              		.cfi_def_cfa_offset 4
 315              		.cfi_offset 7, -4
 316              		.loc 1 76 0
 317 0002 4FF0FF32 		mov	r2, #-1
 318              		.loc 1 74 0
 319 0006 00AF     		add	r7, sp, #0
 320              	.LCFI29:
 321              		.cfi_def_cfa_register 7
 322              		.loc 1 76 0
 323 0008 3030     		adds	r0, r0, #48
 324              	.LVL22:
 325              		.loc 1 77 0
 326 000a BD46     		mov	sp, r7
 327              	.LCFI30:
 328              		.cfi_def_cfa_register 13
 329              		@ sp needed
 330 000c 80BC     		pop	{r7}
 331              	.LCFI31:
 332              		.cfi_restore 7
 333              		.cfi_def_cfa_offset 0
 334              		.loc 1 76 0
 335 000e FFF7FEBF 		b	chOQPutTimeout
 336              	.LVL23:
 337              		.cfi_endproc
 338              	.LFE65:
 339              		.size	put, .-put
 340              		.section	.text.sdInit,"ax",%progbits
 341              		.align	1
 342              		.global	sdInit
ARM GAS  /var/folders/_2/42wyrlld3p52fkcpt1lv6gxh0000gp/T//ccIWbVpr.s 			page 7


 343              		.thumb
 344              		.thumb_func
 345              		.type	sdInit, %function
 346              	sdInit:
 347              	.LFB71:
 348              		.loc 1 120 0
 349              		.cfi_startproc
 350              		@ args = 0, pretend = 0, frame = 0
 351              		@ frame_needed = 1, uses_anonymous_args = 0
 352              		@ link register save eliminated.
 353 0000 80B4     		push	{r7}
 354              	.LCFI32:
 355              		.cfi_def_cfa_offset 4
 356              		.cfi_offset 7, -4
 357 0002 00AF     		add	r7, sp, #0
 358              	.LCFI33:
 359              		.cfi_def_cfa_register 7
 360              		.loc 1 123 0
 361 0004 BD46     		mov	sp, r7
 362              	.LCFI34:
 363              		.cfi_def_cfa_register 13
 364              		@ sp needed
 365 0006 80BC     		pop	{r7}
 366              	.LCFI35:
 367              		.cfi_restore 7
 368              		.cfi_def_cfa_offset 0
 369              		.loc 1 122 0
 370 0008 FFF7FEBF 		b	sd_lld_init
 371              	.LVL24:
 372              		.cfi_endproc
 373              	.LFE71:
 374              		.size	sdInit, .-sdInit
 375              		.section	.text.sdObjectInit,"ax",%progbits
 376              		.align	1
 377              		.global	sdObjectInit
 378              		.thumb
 379              		.thumb_func
 380              		.type	sdObjectInit, %function
 381              	sdObjectInit:
 382              	.LFB72:
 383              		.loc 1 140 0
 384              		.cfi_startproc
 385              		@ args = 0, pretend = 0, frame = 0
 386              		@ frame_needed = 1, uses_anonymous_args = 0
 387              	.LVL25:
 388              		.loc 1 142 0
 389 0000 0346     		mov	r3, r0
 390              		.loc 1 140 0
 391 0002 B0B5     		push	{r4, r5, r7, lr}
 392              	.LCFI36:
 393              		.cfi_def_cfa_offset 16
 394              		.cfi_offset 4, -16
 395              		.cfi_offset 5, -12
 396              		.cfi_offset 7, -8
 397              		.cfi_offset 14, -4
 398 0004 0446     		mov	r4, r0
 399 0006 1546     		mov	r5, r2
ARM GAS  /var/folders/_2/42wyrlld3p52fkcpt1lv6gxh0000gp/T//ccIWbVpr.s 			page 8


 400              		.loc 1 142 0
 401 0008 0D4A     		ldr	r2, .L11
 402              	.LVL26:
 403              		.loc 1 140 0
 404 000a 82B0     		sub	sp, sp, #8
 405              	.LCFI37:
 406              		.cfi_def_cfa_offset 24
 407              		.loc 1 142 0
 408 000c 43F8042B 		str	r2, [r3], #4
 409              		.loc 1 143 0
 410 0010 4360     		str	r3, [r0, #4]
 411              		.loc 1 144 0
 412 0012 0123     		movs	r3, #1
 413 0014 0372     		strb	r3, [r0, #8]
 414              		.loc 1 140 0
 415 0016 02AF     		add	r7, sp, #8
 416              	.LCFI38:
 417              		.cfi_def_cfa 7, 16
 418              		.loc 1 145 0
 419 0018 0090     		str	r0, [sp]
 420 001a 0B46     		mov	r3, r1
 421 001c 1022     		movs	r2, #16
 422 001e 00F15401 		add	r1, r0, #84
 423              	.LVL27:
 424 0022 0C30     		adds	r0, r0, #12
 425              	.LVL28:
 426 0024 FFF7FEFF 		bl	chIQInit
 427              	.LVL29:
 428              		.loc 1 146 0
 429 0028 0094     		str	r4, [sp]
 430 002a 2B46     		mov	r3, r5
 431 002c 1022     		movs	r2, #16
 432 002e 04F16401 		add	r1, r4, #100
 433 0032 04F13000 		add	r0, r4, #48
 434 0036 FFF7FEFF 		bl	chOQInit
 435              	.LVL30:
 436              		.loc 1 147 0
 437 003a BD46     		mov	sp, r7
 438              	.LCFI39:
 439              		.cfi_def_cfa_register 13
 440              		@ sp needed
 441 003c B0BD     		pop	{r4, r5, r7, pc}
 442              	.LVL31:
 443              	.L12:
 444 003e 00BF     		.align	2
 445              	.L11:
 446 0040 00000000 		.word	.LANCHOR0
 447              		.cfi_endproc
 448              	.LFE72:
 449              		.size	sdObjectInit, .-sdObjectInit
 450              		.section	.text.sdStart,"ax",%progbits
 451              		.align	1
 452              		.global	sdStart
 453              		.thumb
 454              		.thumb_func
 455              		.type	sdStart, %function
 456              	sdStart:
ARM GAS  /var/folders/_2/42wyrlld3p52fkcpt1lv6gxh0000gp/T//ccIWbVpr.s 			page 9


 457              	.LFB73:
 458              		.loc 1 159 0
 459              		.cfi_startproc
 460              		@ args = 0, pretend = 0, frame = 0
 461              		@ frame_needed = 1, uses_anonymous_args = 0
 462              	.LVL32:
 463 0000 98B5     		push	{r3, r4, r7, lr}
 464              	.LCFI40:
 465              		.cfi_def_cfa_offset 16
 466              		.cfi_offset 3, -16
 467              		.cfi_offset 4, -12
 468              		.cfi_offset 7, -8
 469              		.cfi_offset 14, -4
 470 0002 0446     		mov	r4, r0
 471 0004 00AF     		add	r7, sp, #0
 472              	.LCFI41:
 473              		.cfi_def_cfa_register 7
 474              	.LBB2:
 475              		.loc 1 163 0
 476 0006 2023     		movs	r3, #32
 477              		.syntax unified
 478              	@ 163 "chibios/os/hal/src/serial.c" 1
 479 0008 83F31188 		msr     BASEPRI, r3
 480              	@ 0 "" 2
 481              		.thumb
 482              		.syntax unified
 483              	.LBE2:
 484              		.loc 1 167 0
 485 000c FFF7FEFF 		bl	sd_lld_start
 486              	.LVL33:
 487              		.loc 1 168 0
 488 0010 0223     		movs	r3, #2
 489 0012 2372     		strb	r3, [r4, #8]
 490              	.LBB3:
 491              		.loc 1 169 0
 492 0014 0023     		movs	r3, #0
 493              		.syntax unified
 494              	@ 169 "chibios/os/hal/src/serial.c" 1
 495 0016 83F31188 		msr     BASEPRI, r3
 496              	@ 0 "" 2
 497              		.thumb
 498              		.syntax unified
 499 001a 98BD     		pop	{r3, r4, r7, pc}
 500              	.LBE3:
 501              		.cfi_endproc
 502              	.LFE73:
 503              		.size	sdStart, .-sdStart
 504              		.section	.text.sdStop,"ax",%progbits
 505              		.align	1
 506              		.global	sdStop
 507              		.thumb
 508              		.thumb_func
 509              		.type	sdStop, %function
 510              	sdStop:
 511              	.LFB74:
 512              		.loc 1 181 0
 513              		.cfi_startproc
ARM GAS  /var/folders/_2/42wyrlld3p52fkcpt1lv6gxh0000gp/T//ccIWbVpr.s 			page 10


 514              		@ args = 0, pretend = 0, frame = 0
 515              		@ frame_needed = 1, uses_anonymous_args = 0
 516              	.LVL34:
 517 0000 98B5     		push	{r3, r4, r7, lr}
 518              	.LCFI42:
 519              		.cfi_def_cfa_offset 16
 520              		.cfi_offset 3, -16
 521              		.cfi_offset 4, -12
 522              		.cfi_offset 7, -8
 523              		.cfi_offset 14, -4
 524 0002 0446     		mov	r4, r0
 525 0004 00AF     		add	r7, sp, #0
 526              	.LCFI43:
 527              		.cfi_def_cfa_register 7
 528              	.LBB4:
 529              		.loc 1 185 0
 530 0006 2023     		movs	r3, #32
 531              		.syntax unified
 532              	@ 185 "chibios/os/hal/src/serial.c" 1
 533 0008 83F31188 		msr     BASEPRI, r3
 534              	@ 0 "" 2
 535              		.thumb
 536              		.syntax unified
 537              	.LBE4:
 538              		.loc 1 189 0
 539 000c FFF7FEFF 		bl	sd_lld_stop
 540              	.LVL35:
 541              		.loc 1 190 0
 542 0010 0123     		movs	r3, #1
 543 0012 2372     		strb	r3, [r4, #8]
 544              		.loc 1 191 0
 545 0014 04F13000 		add	r0, r4, #48
 546 0018 FFF7FEFF 		bl	chOQResetI
 547              	.LVL36:
 548              		.loc 1 192 0
 549 001c 04F10C00 		add	r0, r4, #12
 550 0020 FFF7FEFF 		bl	chIQResetI
 551              	.LVL37:
 552              		.loc 1 193 0
 553 0024 FFF7FEFF 		bl	chSchRescheduleS
 554              	.LVL38:
 555              	.LBB5:
 556              		.loc 1 194 0
 557 0028 0023     		movs	r3, #0
 558              		.syntax unified
 559              	@ 194 "chibios/os/hal/src/serial.c" 1
 560 002a 83F31188 		msr     BASEPRI, r3
 561              	@ 0 "" 2
 562              		.thumb
 563              		.syntax unified
 564 002e 98BD     		pop	{r3, r4, r7, pc}
 565              	.LBE5:
 566              		.cfi_endproc
 567              	.LFE74:
 568              		.size	sdStop, .-sdStop
 569              		.section	.text.sdIncomingDataI,"ax",%progbits
 570              		.align	1
ARM GAS  /var/folders/_2/42wyrlld3p52fkcpt1lv6gxh0000gp/T//ccIWbVpr.s 			page 11


 571              		.global	sdIncomingDataI
 572              		.thumb
 573              		.thumb_func
 574              		.type	sdIncomingDataI, %function
 575              	sdIncomingDataI:
 576              	.LFB75:
 577              		.loc 1 213 0
 578              		.cfi_startproc
 579              		@ args = 0, pretend = 0, frame = 0
 580              		@ frame_needed = 1, uses_anonymous_args = 0
 581              	.LVL39:
 582 0000 B0B5     		push	{r4, r5, r7, lr}
 583              	.LCFI44:
 584              		.cfi_def_cfa_offset 16
 585              		.cfi_offset 4, -16
 586              		.cfi_offset 5, -12
 587              		.cfi_offset 7, -8
 588              		.cfi_offset 14, -4
 589              		.loc 1 218 0
 590 0002 4369     		ldr	r3, [r0, #20]
 591              		.loc 1 213 0
 592 0004 00AF     		add	r7, sp, #0
 593              	.LCFI45:
 594              		.cfi_def_cfa_register 7
 595              		.loc 1 213 0
 596 0006 0446     		mov	r4, r0
 597 0008 0D46     		mov	r5, r1
 598              		.loc 1 218 0
 599 000a 1BB9     		cbnz	r3, .L16
 600              		.loc 1 219 0
 601 000c 0421     		movs	r1, #4
 602              	.LVL40:
 603 000e 0844     		add	r0, r0, r1
 604              	.LVL41:
 605 0010 FFF7FEFF 		bl	chEvtBroadcastFlagsI
 606              	.LVL42:
 607              	.L16:
 608              		.loc 1 220 0
 609 0014 2946     		mov	r1, r5
 610 0016 04F10C00 		add	r0, r4, #12
 611 001a FFF7FEFF 		bl	chIQPutI
 612              	.LVL43:
 613 001e 0028     		cmp	r0, #0
 614 0020 06DA     		bge	.L15
 615              		.loc 1 221 0
 616 0022 8021     		movs	r1, #128
 617 0024 201D     		adds	r0, r4, #4
 618              		.loc 1 222 0
 619 0026 BD46     		mov	sp, r7
 620              	.LCFI46:
 621              		.cfi_remember_state
 622              		.cfi_def_cfa_register 13
 623              		@ sp needed
 624 0028 BDE8B040 		pop	{r4, r5, r7, lr}
 625              	.LCFI47:
 626              		.cfi_restore 14
 627              		.cfi_restore 7
ARM GAS  /var/folders/_2/42wyrlld3p52fkcpt1lv6gxh0000gp/T//ccIWbVpr.s 			page 12


 628              		.cfi_restore 5
 629              		.cfi_restore 4
 630              		.cfi_def_cfa_offset 0
 631              	.LVL44:
 632              		.loc 1 221 0
 633 002c FFF7FEBF 		b	chEvtBroadcastFlagsI
 634              	.LVL45:
 635              	.L15:
 636              	.LCFI48:
 637              		.cfi_restore_state
 638 0030 B0BD     		pop	{r4, r5, r7, pc}
 639              		.cfi_endproc
 640              	.LFE75:
 641              		.size	sdIncomingDataI, .-sdIncomingDataI
 642              		.section	.text.sdRequestDataI,"ax",%progbits
 643              		.align	1
 644              		.global	sdRequestDataI
 645              		.thumb
 646              		.thumb_func
 647              		.type	sdRequestDataI, %function
 648              	sdRequestDataI:
 649              	.LFB76:
 650              		.loc 1 239 0
 651              		.cfi_startproc
 652              		@ args = 0, pretend = 0, frame = 0
 653              		@ frame_needed = 1, uses_anonymous_args = 0
 654              	.LVL46:
 655 0000 B0B5     		push	{r4, r5, r7, lr}
 656              	.LCFI49:
 657              		.cfi_def_cfa_offset 16
 658              		.cfi_offset 4, -16
 659              		.cfi_offset 5, -12
 660              		.cfi_offset 7, -8
 661              		.cfi_offset 14, -4
 662 0002 0446     		mov	r4, r0
 663 0004 00AF     		add	r7, sp, #0
 664              	.LCFI50:
 665              		.cfi_def_cfa_register 7
 666              		.loc 1 245 0
 667 0006 3030     		adds	r0, r0, #48
 668              	.LVL47:
 669 0008 FFF7FEFF 		bl	chOQGetI
 670              	.LVL48:
 671              		.loc 1 246 0
 672 000c 051E     		subs	r5, r0, #0
 673 000e 03DA     		bge	.L20
 674              		.loc 1 247 0
 675 0010 0821     		movs	r1, #8
 676 0012 201D     		adds	r0, r4, #4
 677              	.LVL49:
 678 0014 FFF7FEFF 		bl	chEvtBroadcastFlagsI
 679              	.LVL50:
 680              	.L20:
 681              		.loc 1 249 0
 682 0018 2846     		mov	r0, r5
 683 001a B0BD     		pop	{r4, r5, r7, pc}
 684              		.cfi_endproc
ARM GAS  /var/folders/_2/42wyrlld3p52fkcpt1lv6gxh0000gp/T//ccIWbVpr.s 			page 13


 685              	.LFE76:
 686              		.size	sdRequestDataI, .-sdRequestDataI
 687              		.section	.rodata.vmt,"a",%progbits
 688              		.align	2
 689              		.set	.LANCHOR0,. + 0
 690              		.type	vmt, %object
 691              		.size	vmt, 32
 692              	vmt:
 693 0000 00000000 		.word	write
 694 0004 00000000 		.word	read
 695 0008 00000000 		.word	put
 696 000c 00000000 		.word	get
 697 0010 00000000 		.word	putt
 698 0014 00000000 		.word	gett
 699 0018 00000000 		.word	writet
 700 001c 00000000 		.word	readt
 701              		.text
 702              	.Letext0:
 703              		.file 2 "/Users/ARS/Applications/Eclipse.app/Contents/gcc-arm-none-eabi-5_3-2016q1/lib/gcc/arm-non
 704              		.file 3 "/Users/ARS/Applications/Eclipse.app/Contents/gcc-arm-none-eabi-5_3-2016q1/arm-none-eabi/i
 705              		.file 4 "/Users/ARS/Applications/Eclipse.app/Contents/gcc-arm-none-eabi-5_3-2016q1/arm-none-eabi/i
 706              		.file 5 "chibios/os/ports/GCC/ARMCMx/chtypes.h"
 707              		.file 6 "chibios/os/kernel/include/chlists.h"
 708              		.file 7 "chibios/os/kernel/include/chthreads.h"
 709              		.file 8 "chibios/os/ports/GCC/ARMCMx/chcore_v7m.h"
 710              		.file 9 "chibios/os/kernel/include/chmtx.h"
 711              		.file 10 "chibios/os/kernel/include/chevents.h"
 712              		.file 11 "chibios/os/kernel/include/chqueues.h"
 713              		.file 12 "chibios/os/hal/platforms/STM32L1xx/stm32l1xx.h"
 714              		.file 13 "chibios/os/hal/include/serial.h"
 715              		.file 14 "chibios/os/hal/platforms/STM32/USARTv1/serial_lld.h"
 716              		.file 15 "chibios/os/kernel/include/chschd.h"
 717              		.file 16 "chibios/os/ports/common/ARMCMx/CMSIS/include/core_cm3.h"