ARM GAS  /var/folders/_2/42wyrlld3p52fkcpt1lv6gxh0000gp/T//cc7gfwhm.s 			page 1


   1              		.syntax unified
   2              		.cpu cortex-m3
   3              		.fpu softvfp
   4              		.eabi_attribute 20, 1
   5              		.eabi_attribute 21, 1
   6              		.eabi_attribute 23, 3
   7              		.eabi_attribute 24, 1
   8              		.eabi_attribute 25, 1
   9              		.eabi_attribute 26, 1
  10              		.eabi_attribute 30, 4
  11              		.eabi_attribute 34, 1
  12              		.eabi_attribute 18, 4
  13              		.thumb
  14              		.syntax unified
  15              		.file	"serial_lld.c"
  16              		.text
  17              	.Ltext0:
  18              		.cfi_sections	.debug_frame
  19              		.section	.text.notify1,"ax",%progbits
  20              		.align	1
  21              		.thumb
  22              		.thumb_func
  23              		.type	notify1, %function
  24              	notify1:
  25              	.LFB67:
  26              		.file 1 "chibios/os/hal/platforms/STM32/USARTv1/serial_lld.c"
  27              		.loc 1 202 0
  28              		.cfi_startproc
  29              		@ args = 0, pretend = 0, frame = 0
  30              		@ frame_needed = 1, uses_anonymous_args = 0
  31              	.LVL0:
  32              		.loc 1 205 0
  33 0000 044A     		ldr	r2, .L2
  34              		.loc 1 202 0
  35 0002 80B5     		push	{r7, lr}
  36              	.LCFI0:
  37              		.cfi_def_cfa_offset 8
  38              		.cfi_offset 7, -8
  39              		.cfi_offset 14, -4
  40              		.loc 1 205 0
  41 0004 9389     		ldrh	r3, [r2, #12]
  42              		.loc 1 202 0
  43 0006 00AF     		add	r7, sp, #0
  44              	.LCFI1:
  45              		.cfi_def_cfa_register 7
  46              		.loc 1 205 0
  47 0008 9BB2     		uxth	r3, r3
  48 000a 43F08003 		orr	r3, r3, #128
  49 000e 9381     		strh	r3, [r2, #12]	@ movhi
  50 0010 80BD     		pop	{r7, pc}
  51              	.L3:
  52 0012 00BF     		.align	2
  53              	.L2:
  54 0014 00380140 		.word	1073821696
  55              		.cfi_endproc
  56              	.LFE67:
  57              		.size	notify1, .-notify1
ARM GAS  /var/folders/_2/42wyrlld3p52fkcpt1lv6gxh0000gp/T//cc7gfwhm.s 			page 2


  58              		.section	.text.VectorD4,"ax",%progbits
  59              		.align	1
  60              		.global	VectorD4
  61              		.thumb
  62              		.thumb_func
  63              		.type	VectorD4, %function
  64              	VectorD4:
  65              	.LFB68:
  66              		.loc 1 262 0
  67              		.cfi_startproc
  68              		@ args = 0, pretend = 0, frame = 0
  69              		@ frame_needed = 1, uses_anonymous_args = 0
  70              	.LVL1:
  71              	.LBB30:
  72              	.LBB31:
  73              		.loc 1 157 0
  74 0000 3F4B     		ldr	r3, .L45
  75              	.LBE31:
  76              	.LBE30:
  77              		.loc 1 262 0
  78 0002 2DE9F041 		push	{r4, r5, r6, r7, r8, lr}
  79              	.LCFI2:
  80              		.cfi_def_cfa_offset 24
  81              		.cfi_offset 4, -24
  82              		.cfi_offset 5, -20
  83              		.cfi_offset 6, -16
  84              		.cfi_offset 7, -12
  85              		.cfi_offset 8, -8
  86              		.cfi_offset 14, -4
  87              	.LBB47:
  88              	.LBB45:
  89              		.loc 1 157 0
  90 0006 5D6F     		ldr	r5, [r3, #116]
  91              	.LVL2:
  92              	.LBE45:
  93              	.LBE47:
  94              		.loc 1 262 0
  95 0008 00AF     		add	r7, sp, #0
  96              	.LCFI3:
  97              		.cfi_def_cfa_register 7
  98              	.LBB48:
  99              	.LBB46:
 100              		.loc 1 158 0
 101 000a AE89     		ldrh	r6, [r5, #12]
 102              		.loc 1 159 0
 103 000c 2C88     		ldrh	r4, [r5]
 104              		.loc 1 160 0
 105 000e B5F80480 		ldrh	r8, [r5, #4]
 106              		.loc 1 159 0
 107 0012 A4B2     		uxth	r4, r4
 108              		.loc 1 163 0
 109 0014 2207     		lsls	r2, r4, #28
 110              		.loc 1 158 0
 111 0016 B6B2     		uxth	r6, r6
 112              	.LVL3:
 113              		.loc 1 160 0
 114 0018 1FFA88F8 		uxth	r8, r8
ARM GAS  /var/folders/_2/42wyrlld3p52fkcpt1lv6gxh0000gp/T//cc7gfwhm.s 			page 3


 115              	.LVL4:
 116              		.loc 1 163 0
 117 001c 19D0     		beq	.L5
 118              	.LVL5:
 119              	.LBB32:
 120              	.LBB33:
 121              		.loc 1 139 0
 122 001e 14F0080F 		tst	r4, #8
 123 0022 0CBF     		ite	eq
 124 0024 0021     		moveq	r1, #0
 125 0026 8021     		movne	r1, #128
 126              	.LVL6:
 127              		.loc 1 140 0
 128 0028 E307     		lsls	r3, r4, #31
 129              		.loc 1 141 0
 130 002a 48BF     		it	mi
 131 002c 41F02001 		orrmi	r1, r1, #32
 132              	.LVL7:
 133              		.loc 1 142 0
 134 0030 A007     		lsls	r0, r4, #30
 135              		.loc 1 143 0
 136 0032 48BF     		it	mi
 137 0034 41F04001 		orrmi	r1, r1, #64
 138              	.LVL8:
 139              		.loc 1 144 0
 140 0038 6207     		lsls	r2, r4, #29
 141              		.loc 1 145 0
 142 003a 48BF     		it	mi
 143 003c 41F48071 		orrmi	r1, r1, #256
 144              	.LVL9:
 145              	.LBB34:
 146              		.loc 1 146 0
 147 0040 2023     		movs	r3, #32
 148              		.syntax unified
 149              	@ 146 "chibios/os/hal/platforms/STM32/USARTv1/serial_lld.c" 1
 150 0042 83F31188 		msr     BASEPRI, r3
 151              	@ 0 "" 2
 152              		.thumb
 153              		.syntax unified
 154              	.LBE34:
 155              		.loc 1 147 0
 156 0046 2F48     		ldr	r0, .L45+4
 157 0048 FFF7FEFF 		bl	chEvtBroadcastFlagsI
 158              	.LVL10:
 159              	.LBB35:
 160              		.loc 1 148 0
 161 004c 0023     		movs	r3, #0
 162              		.syntax unified
 163              	@ 148 "chibios/os/hal/platforms/STM32/USARTv1/serial_lld.c" 1
 164 004e 83F31188 		msr     BASEPRI, r3
 165              	@ 0 "" 2
 166              	.LVL11:
 167              		.thumb
 168              		.syntax unified
 169              	.L5:
 170              	.LBE35:
 171              	.LBE33:
ARM GAS  /var/folders/_2/42wyrlld3p52fkcpt1lv6gxh0000gp/T//cc7gfwhm.s 			page 4


 172              	.LBE32:
 173              		.loc 1 166 0
 174 0052 E305     		lsls	r3, r4, #23
 175 0054 10D5     		bpl	.L10
 176              	.LBB36:
 177              		.loc 1 167 0
 178 0056 2023     		movs	r3, #32
 179              		.syntax unified
 180              	@ 167 "chibios/os/hal/platforms/STM32/USARTv1/serial_lld.c" 1
 181 0058 83F31188 		msr     BASEPRI, r3
 182              	@ 0 "" 2
 183              		.thumb
 184              		.syntax unified
 185              	.LBE36:
 186              		.loc 1 168 0
 187 005c 4FF40071 		mov	r1, #512
 188 0060 2848     		ldr	r0, .L45+4
 189 0062 FFF7FEFF 		bl	chEvtBroadcastFlagsI
 190              	.LVL12:
 191              	.LBB37:
 192              		.loc 1 169 0
 193 0066 0023     		movs	r3, #0
 194              		.syntax unified
 195              	@ 169 "chibios/os/hal/platforms/STM32/USARTv1/serial_lld.c" 1
 196 0068 83F31188 		msr     BASEPRI, r3
 197              	@ 0 "" 2
 198              		.thumb
 199              		.syntax unified
 200              	.LBE37:
 201              		.loc 1 170 0
 202 006c 2B88     		ldrh	r3, [r5]
 203 006e 23F48073 		bic	r3, r3, #256
 204 0072 1B04     		lsls	r3, r3, #16
 205 0074 1B0C     		lsrs	r3, r3, #16
 206 0076 2B80     		strh	r3, [r5]	@ movhi
 207              	.L10:
 208              		.loc 1 173 0
 209 0078 A006     		lsls	r0, r4, #26
 210 007a 0AD5     		bpl	.L11
 211              	.LBB38:
 212              		.loc 1 174 0
 213 007c 2023     		movs	r3, #32
 214              		.syntax unified
 215              	@ 174 "chibios/os/hal/platforms/STM32/USARTv1/serial_lld.c" 1
 216 007e 83F31188 		msr     BASEPRI, r3
 217              	@ 0 "" 2
 218              		.thumb
 219              		.syntax unified
 220              	.LBE38:
 221              		.loc 1 175 0
 222 0082 1F48     		ldr	r0, .L45
 223 0084 5FFA88F1 		uxtb	r1, r8
 224 0088 FFF7FEFF 		bl	sdIncomingDataI
 225              	.LVL13:
 226              	.LBB39:
 227              		.loc 1 176 0
 228 008c 0023     		movs	r3, #0
ARM GAS  /var/folders/_2/42wyrlld3p52fkcpt1lv6gxh0000gp/T//cc7gfwhm.s 			page 5


 229              		.syntax unified
 230              	@ 176 "chibios/os/hal/platforms/STM32/USARTv1/serial_lld.c" 1
 231 008e 83F31188 		msr     BASEPRI, r3
 232              	@ 0 "" 2
 233              		.thumb
 234              		.syntax unified
 235              	.L11:
 236              	.LBE39:
 237              		.loc 1 179 0
 238 0092 3106     		lsls	r1, r6, #24
 239 0094 18D5     		bpl	.L12
 240 0096 2206     		lsls	r2, r4, #24
 241 0098 16D5     		bpl	.L12
 242              	.LBB40:
 243              	.LBB41:
 244              		.loc 1 181 0
 245 009a 2023     		movs	r3, #32
 246              		.syntax unified
 247              	@ 181 "chibios/os/hal/platforms/STM32/USARTv1/serial_lld.c" 1
 248 009c 83F31188 		msr     BASEPRI, r3
 249              	@ 0 "" 2
 250              		.thumb
 251              		.syntax unified
 252              	.LBE41:
 253              		.loc 1 182 0
 254 00a0 1948     		ldr	r0, .L45+8
 255 00a2 FFF7FEFF 		bl	chOQGetI
 256              	.LVL14:
 257              		.loc 1 183 0
 258 00a6 0028     		cmp	r0, #0
 259 00a8 09DA     		bge	.L13
 260              		.loc 1 184 0
 261 00aa 0821     		movs	r1, #8
 262 00ac 1548     		ldr	r0, .L45+4
 263              	.LVL15:
 264 00ae FFF7FEFF 		bl	chEvtBroadcastFlagsI
 265              	.LVL16:
 266              		.loc 1 185 0
 267 00b2 26F0C003 		bic	r3, r6, #192
 268 00b6 43F04003 		orr	r3, r3, #64
 269 00ba AB81     		strh	r3, [r5, #12]	@ movhi
 270 00bc 01E0     		b	.L14
 271              	.LVL17:
 272              	.L13:
 273              		.loc 1 188 0
 274 00be 80B2     		uxth	r0, r0
 275              	.LVL18:
 276 00c0 A880     		strh	r0, [r5, #4]	@ movhi
 277              	.L14:
 278              	.LBB42:
 279              		.loc 1 189 0
 280 00c2 0023     		movs	r3, #0
 281              		.syntax unified
 282              	@ 189 "chibios/os/hal/platforms/STM32/USARTv1/serial_lld.c" 1
 283 00c4 83F31188 		msr     BASEPRI, r3
 284              	@ 0 "" 2
 285              		.thumb
ARM GAS  /var/folders/_2/42wyrlld3p52fkcpt1lv6gxh0000gp/T//cc7gfwhm.s 			page 6


 286              		.syntax unified
 287              	.L12:
 288              	.LBE42:
 289              	.LBE40:
 290              		.loc 1 192 0
 291 00c8 6306     		lsls	r3, r4, #25
 292 00ca 13D5     		bpl	.L15
 293              	.LBB43:
 294              		.loc 1 193 0
 295 00cc 2023     		movs	r3, #32
 296              		.syntax unified
 297              	@ 193 "chibios/os/hal/platforms/STM32/USARTv1/serial_lld.c" 1
 298 00ce 83F31188 		msr     BASEPRI, r3
 299              	@ 0 "" 2
 300              		.thumb
 301              		.syntax unified
 302              	.LBE43:
 303              		.loc 1 194 0
 304 00d2 1021     		movs	r1, #16
 305 00d4 0B48     		ldr	r0, .L45+4
 306 00d6 FFF7FEFF 		bl	chEvtBroadcastFlagsI
 307              	.LVL19:
 308              	.LBB44:
 309              		.loc 1 195 0
 310 00da 0023     		movs	r3, #0
 311              		.syntax unified
 312              	@ 195 "chibios/os/hal/platforms/STM32/USARTv1/serial_lld.c" 1
 313 00dc 83F31188 		msr     BASEPRI, r3
 314              	@ 0 "" 2
 315              		.thumb
 316              		.syntax unified
 317              	.LBE44:
 318              		.loc 1 196 0
 319 00e0 26F04006 		bic	r6, r6, #64
 320              	.LVL20:
 321 00e4 B6B2     		uxth	r6, r6
 322 00e6 AE81     		strh	r6, [r5, #12]	@ movhi
 323              		.loc 1 197 0
 324 00e8 2B88     		ldrh	r3, [r5]
 325 00ea 23F04003 		bic	r3, r3, #64
 326 00ee 1B04     		lsls	r3, r3, #16
 327 00f0 1B0C     		lsrs	r3, r3, #16
 328 00f2 2B80     		strh	r3, [r5]	@ movhi
 329              	.L15:
 330              	.LVL21:
 331              	.LBE46:
 332              	.LBE48:
 333              		.loc 1 269 0
 334 00f4 BD46     		mov	sp, r7
 335              	.LCFI4:
 336              		.cfi_def_cfa_register 13
 337              		@ sp needed
 338 00f6 BDE8F041 		pop	{r4, r5, r6, r7, r8, lr}
 339              	.LCFI5:
 340              		.cfi_restore 14
 341              		.cfi_restore 8
 342              		.cfi_restore 7
ARM GAS  /var/folders/_2/42wyrlld3p52fkcpt1lv6gxh0000gp/T//cc7gfwhm.s 			page 7


 343              		.cfi_restore 6
 344              		.cfi_restore 5
 345              		.cfi_restore 4
 346              		.cfi_def_cfa_offset 0
 347              		.loc 1 268 0
 348 00fa FFF7FEBF 		b	_port_irq_epilogue
 349              	.LVL22:
 350              	.L46:
 351 00fe 00BF     		.align	2
 352              	.L45:
 353 0100 00000000 		.word	.LANCHOR0
 354 0104 04000000 		.word	.LANCHOR0+4
 355 0108 30000000 		.word	.LANCHOR0+48
 356              		.cfi_endproc
 357              	.LFE68:
 358              		.size	VectorD4, .-VectorD4
 359              		.section	.text.sd_lld_init,"ax",%progbits
 360              		.align	1
 361              		.global	sd_lld_init
 362              		.thumb
 363              		.thumb_func
 364              		.type	sd_lld_init, %function
 365              	sd_lld_init:
 366              	.LFB69:
 367              		.loc 1 376 0
 368              		.cfi_startproc
 369              		@ args = 0, pretend = 0, frame = 0
 370              		@ frame_needed = 1, uses_anonymous_args = 0
 371 0000 98B5     		push	{r3, r4, r7, lr}
 372              	.LCFI6:
 373              		.cfi_def_cfa_offset 16
 374              		.cfi_offset 3, -16
 375              		.cfi_offset 4, -12
 376              		.cfi_offset 7, -8
 377              		.cfi_offset 14, -4
 378              		.loc 1 379 0
 379 0002 054C     		ldr	r4, .L48
 380              		.loc 1 376 0
 381 0004 00AF     		add	r7, sp, #0
 382              	.LCFI7:
 383              		.cfi_def_cfa_register 7
 384              		.loc 1 379 0
 385 0006 054A     		ldr	r2, .L48+4
 386 0008 0021     		movs	r1, #0
 387 000a 2046     		mov	r0, r4
 388 000c FFF7FEFF 		bl	sdObjectInit
 389              	.LVL23:
 390              		.loc 1 380 0
 391 0010 034B     		ldr	r3, .L48+8
 392 0012 6367     		str	r3, [r4, #116]
 393 0014 98BD     		pop	{r3, r4, r7, pc}
 394              	.L49:
 395 0016 00BF     		.align	2
 396              	.L48:
 397 0018 00000000 		.word	.LANCHOR0
 398 001c 00000000 		.word	notify1
 399 0020 00380140 		.word	1073821696
ARM GAS  /var/folders/_2/42wyrlld3p52fkcpt1lv6gxh0000gp/T//cc7gfwhm.s 			page 8


 400              		.cfi_endproc
 401              	.LFE69:
 402              		.size	sd_lld_init, .-sd_lld_init
 403              		.section	.text.sd_lld_start,"ax",%progbits
 404              		.align	1
 405              		.global	sd_lld_start
 406              		.thumb
 407              		.thumb_func
 408              		.type	sd_lld_start, %function
 409              	sd_lld_start:
 410              	.LFB70:
 411              		.loc 1 419 0
 412              		.cfi_startproc
 413              		@ args = 0, pretend = 0, frame = 0
 414              		@ frame_needed = 1, uses_anonymous_args = 0
 415              	.LVL24:
 416 0000 B0B5     		push	{r4, r5, r7, lr}
 417              	.LCFI8:
 418              		.cfi_def_cfa_offset 16
 419              		.cfi_offset 4, -16
 420              		.cfi_offset 5, -12
 421              		.cfi_offset 7, -8
 422              		.cfi_offset 14, -4
 423              		.loc 1 424 0
 424 0002 037A     		ldrb	r3, [r0, #8]	@ zero_extendqisi2
 425              		.loc 1 422 0
 426 0004 1A4C     		ldr	r4, .L56
 427              		.loc 1 419 0
 428 0006 00AF     		add	r7, sp, #0
 429              	.LCFI9:
 430              		.cfi_def_cfa_register 7
 431              		.loc 1 422 0
 432 0008 0029     		cmp	r1, #0
 433 000a 18BF     		it	ne
 434 000c 0C46     		movne	r4, r1
 435              	.LVL25:
 436              		.loc 1 424 0
 437 000e 012B     		cmp	r3, #1
 438              		.loc 1 419 0
 439 0010 0546     		mov	r5, r0
 440              		.loc 1 424 0
 441 0012 0BD1     		bne	.L52
 442              		.loc 1 426 0
 443 0014 174B     		ldr	r3, .L56+4
 444 0016 9842     		cmp	r0, r3
 445 0018 08D1     		bne	.L52
 446              		.loc 1 427 0
 447 001a 174A     		ldr	r2, .L56+8
 448              		.loc 1 428 0
 449 001c C021     		movs	r1, #192
 450              		.loc 1 427 0
 451 001e 136A     		ldr	r3, [r2, #32]
 452              		.loc 1 428 0
 453 0020 2520     		movs	r0, #37
 454              	.LVL26:
 455              		.loc 1 427 0
 456 0022 43F48043 		orr	r3, r3, #16384
ARM GAS  /var/folders/_2/42wyrlld3p52fkcpt1lv6gxh0000gp/T//cc7gfwhm.s 			page 9


 457 0026 1362     		str	r3, [r2, #32]
 458              		.loc 1 428 0
 459 0028 FFF7FEFF 		bl	nvicEnableVector
 460              	.LVL27:
 461              	.L52:
 462 002c 6B6F     		ldr	r3, [r5, #116]
 463              	.LVL28:
 464              	.LBB51:
 465              	.LBB52:
 466              		.loc 1 99 0
 467 002e 134A     		ldr	r2, .L56+12
 468 0030 9342     		cmp	r3, r2
 469              		.loc 1 101 0
 470 0032 08BF     		it	eq
 471 0034 1249     		ldreq	r1, .L56+16
 472 0036 2268     		ldr	r2, [r4]
 473              		.loc 1 103 0
 474 0038 18BF     		it	ne
 475 003a 1249     		ldrne	r1, .L56+20
 476 003c B1FBF2F2 		udiv	r2, r1, r2
 477 0040 92B2     		uxth	r2, r2
 478 0042 1A81     		strh	r2, [r3, #8]	@ movhi
 479              		.loc 1 106 0
 480 0044 E288     		ldrh	r2, [r4, #6]
 481 0046 42F04002 		orr	r2, r2, #64
 482 004a 92B2     		uxth	r2, r2
 483 004c 1A82     		strh	r2, [r3, #16]	@ movhi
 484              		.loc 1 107 0
 485 004e 2289     		ldrh	r2, [r4, #8]
 486 0050 42F00102 		orr	r2, r2, #1
 487 0054 92B2     		uxth	r2, r2
 488 0056 9A82     		strh	r2, [r3, #20]	@ movhi
 489              		.loc 1 108 0
 490 0058 A288     		ldrh	r2, [r4, #4]
 491 005a 42F40452 		orr	r2, r2, #8448
 492 005e 42F02C02 		orr	r2, r2, #44
 493 0062 92B2     		uxth	r2, r2
 494 0064 9A81     		strh	r2, [r3, #12]	@ movhi
 495              		.loc 1 111 0
 496 0066 0022     		movs	r2, #0
 497 0068 1A80     		strh	r2, [r3]	@ movhi
 498              		.loc 1 112 0
 499 006a 1A88     		ldrh	r2, [r3]
 500              		.loc 1 113 0
 501 006c 9B88     		ldrh	r3, [r3, #4]
 502              	.LVL29:
 503 006e B0BD     		pop	{r4, r5, r7, pc}
 504              	.LVL30:
 505              	.L57:
 506              		.align	2
 507              	.L56:
 508 0070 00000000 		.word	.LANCHOR1
 509 0074 00000000 		.word	.LANCHOR0
 510 0078 00380240 		.word	1073887232
 511 007c 00380140 		.word	1073821696
 512 0080 00093D00 		.word	4000000
 513 0084 0024F400 		.word	16000000
ARM GAS  /var/folders/_2/42wyrlld3p52fkcpt1lv6gxh0000gp/T//cc7gfwhm.s 			page 10


 514              	.LBE52:
 515              	.LBE51:
 516              		.cfi_endproc
 517              	.LFE70:
 518              		.size	sd_lld_start, .-sd_lld_start
 519              		.section	.text.sd_lld_stop,"ax",%progbits
 520              		.align	1
 521              		.global	sd_lld_stop
 522              		.thumb
 523              		.thumb_func
 524              		.type	sd_lld_stop, %function
 525              	sd_lld_stop:
 526              	.LFB71:
 527              		.loc 1 480 0
 528              		.cfi_startproc
 529              		@ args = 0, pretend = 0, frame = 0
 530              		@ frame_needed = 1, uses_anonymous_args = 0
 531              		@ link register save eliminated.
 532              	.LVL31:
 533 0000 80B4     		push	{r7}
 534              	.LCFI10:
 535              		.cfi_def_cfa_offset 4
 536              		.cfi_offset 7, -4
 537              		.loc 1 482 0
 538 0002 037A     		ldrb	r3, [r0, #8]	@ zero_extendqisi2
 539              		.loc 1 480 0
 540 0004 00AF     		add	r7, sp, #0
 541              	.LCFI11:
 542              		.cfi_def_cfa_register 7
 543              		.loc 1 482 0
 544 0006 022B     		cmp	r3, #2
 545 0008 11D1     		bne	.L58
 546              		.loc 1 483 0
 547 000a 436F     		ldr	r3, [r0, #116]
 548              	.LVL32:
 549              	.LBB53:
 550              	.LBB54:
 551              		.loc 1 124 0
 552 000c 0022     		movs	r2, #0
 553 000e 9A81     		strh	r2, [r3, #12]	@ movhi
 554              		.loc 1 125 0
 555 0010 1A82     		strh	r2, [r3, #16]	@ movhi
 556              		.loc 1 126 0
 557 0012 9A82     		strh	r2, [r3, #20]	@ movhi
 558              	.LVL33:
 559              	.LBE54:
 560              	.LBE53:
 561              		.loc 1 485 0
 562 0014 074B     		ldr	r3, .L62
 563 0016 9842     		cmp	r0, r3
 564 0018 09D1     		bne	.L58
 565              		.loc 1 486 0
 566 001a 074A     		ldr	r2, .L62+4
 567              		.loc 1 487 0
 568 001c 2520     		movs	r0, #37
 569              	.LVL34:
 570              		.loc 1 486 0
ARM GAS  /var/folders/_2/42wyrlld3p52fkcpt1lv6gxh0000gp/T//cc7gfwhm.s 			page 11


 571 001e 136A     		ldr	r3, [r2, #32]
 572 0020 23F48043 		bic	r3, r3, #16384
 573 0024 1362     		str	r3, [r2, #32]
 574              		.loc 1 527 0
 575 0026 BD46     		mov	sp, r7
 576              	.LCFI12:
 577              		.cfi_remember_state
 578              		.cfi_def_cfa_register 13
 579              		@ sp needed
 580 0028 80BC     		pop	{r7}
 581              	.LCFI13:
 582              		.cfi_restore 7
 583              		.cfi_def_cfa_offset 0
 584              		.loc 1 487 0
 585 002a FFF7FEBF 		b	nvicDisableVector
 586              	.LVL35:
 587              	.L58:
 588              	.LCFI14:
 589              		.cfi_restore_state
 590              		.loc 1 527 0
 591 002e BD46     		mov	sp, r7
 592              	.LCFI15:
 593              		.cfi_def_cfa_register 13
 594              		@ sp needed
 595 0030 80BC     		pop	{r7}
 596              	.LCFI16:
 597              		.cfi_restore 7
 598              		.cfi_def_cfa_offset 0
 599 0032 7047     		bx	lr
 600              	.L63:
 601              		.align	2
 602              	.L62:
 603 0034 00000000 		.word	.LANCHOR0
 604 0038 00380240 		.word	1073887232
 605              		.cfi_endproc
 606              	.LFE71:
 607              		.size	sd_lld_stop, .-sd_lld_stop
 608              		.global	SD1
 609              		.section	.rodata.default_config,"a",%progbits
 610              		.align	2
 611              		.set	.LANCHOR1,. + 0
 612              		.type	default_config, %object
 613              		.size	default_config, 12
 614              	default_config:
 615 0000 00C20100 		.word	115200
 616 0004 0000     		.short	0
 617 0006 0040     		.short	16384
 618 0008 0000     		.short	0
 619 000a 0000     		.space	2
 620              		.section	.bss.SD1,"aw",%nobits
 621              		.align	2
 622              		.set	.LANCHOR0,. + 0
 623              		.type	SD1, %object
 624              		.size	SD1, 120
 625              	SD1:
 626 0000 00000000 		.space	120
 626      00000000 
ARM GAS  /var/folders/_2/42wyrlld3p52fkcpt1lv6gxh0000gp/T//cc7gfwhm.s 			page 12


 626      00000000 
 626      00000000 
 626      00000000 
 627              		.text
 628              	.Letext0:
 629              		.file 2 "/Users/ARS/Applications/Eclipse.app/Contents/gcc-arm-none-eabi-5_3-2016q1/lib/gcc/arm-non
 630              		.file 3 "/Users/ARS/Applications/Eclipse.app/Contents/gcc-arm-none-eabi-5_3-2016q1/arm-none-eabi/i
 631              		.file 4 "/Users/ARS/Applications/Eclipse.app/Contents/gcc-arm-none-eabi-5_3-2016q1/arm-none-eabi/i
 632              		.file 5 "chibios/os/ports/GCC/ARMCMx/chtypes.h"
 633              		.file 6 "chibios/os/kernel/include/chlists.h"
 634              		.file 7 "chibios/os/kernel/include/chthreads.h"
 635              		.file 8 "chibios/os/ports/GCC/ARMCMx/chcore_v7m.h"
 636              		.file 9 "chibios/os/kernel/include/chmtx.h"
 637              		.file 10 "chibios/os/kernel/include/chevents.h"
 638              		.file 11 "chibios/os/kernel/include/chqueues.h"
 639              		.file 12 "chibios/os/hal/platforms/STM32L1xx/stm32l1xx.h"
 640              		.file 13 "chibios/os/hal/include/serial.h"
 641              		.file 14 "chibios/os/hal/platforms/STM32/USARTv1/serial_lld.h"
 642              		.file 15 "chibios/os/ports/common/ARMCMx/nvic.h"
 643              		.file 16 "chibios/os/ports/common/ARMCMx/CMSIS/include/core_cm3.h"