ARM GAS  /var/folders/_2/42wyrlld3p52fkcpt1lv6gxh0000gp/T//ccEUijwy.s 			page 1


   1              		.syntax unified
   2              		.cpu cortex-m3
   3              		.fpu softvfp
   4              		.eabi_attribute 20, 1
   5              		.eabi_attribute 21, 1
   6              		.eabi_attribute 23, 3
   7              		.eabi_attribute 24, 1
   8              		.eabi_attribute 25, 1
   9              		.eabi_attribute 26, 1
  10              		.eabi_attribute 30, 4
  11              		.eabi_attribute 34, 1
  12              		.eabi_attribute 18, 4
  13              		.thumb
  14              		.syntax unified
  15              		.file	"serial_usb.c"
  16              		.text
  17              	.Ltext0:
  18              		.cfi_sections	.debug_frame
  19              		.section	.text.onotify,"ax",%progbits
  20              		.align	1
  21              		.thumb
  22              		.thumb_func
  23              		.type	onotify, %function
  24              	onotify:
  25              	.LFB72:
  26              		.file 1 "chibios/os/hal/src/serial_usb.c"
  27              		.loc 1 150 0
  28              		.cfi_startproc
  29              		@ args = 0, pretend = 0, frame = 0
  30              		@ frame_needed = 1, uses_anonymous_args = 0
  31              	.LVL0:
  32 0000 98B5     		push	{r3, r4, r7, lr}
  33              	.LCFI0:
  34              		.cfi_def_cfa_offset 16
  35              		.cfi_offset 3, -16
  36              		.cfi_offset 4, -12
  37              		.cfi_offset 7, -8
  38              		.cfi_offset 14, -4
  39              		.loc 1 152 0
  40 0002 046A     		ldr	r4, [r0, #32]
  41              	.LVL1:
  42              		.loc 1 150 0
  43 0004 00AF     		add	r7, sp, #0
  44              	.LCFI1:
  45              		.cfi_def_cfa_register 7
  46              		.loc 1 156 0
  47 0006 D4F85422 		ldr	r2, [r4, #596]
  48 000a 1368     		ldr	r3, [r2]
  49 000c 1978     		ldrb	r1, [r3]	@ zero_extendqisi2
  50 000e 0429     		cmp	r1, #4
  51 0010 25D1     		bne	.L1
  52              		.loc 1 156 0 is_stmt 0 discriminator 1
  53 0012 217A     		ldrb	r1, [r4, #8]	@ zero_extendqisi2
  54 0014 0229     		cmp	r1, #2
  55 0016 22D1     		bne	.L1
  56              		.loc 1 162 0 is_stmt 1
  57 0018 1B89     		ldrh	r3, [r3, #8]
ARM GAS  /var/folders/_2/42wyrlld3p52fkcpt1lv6gxh0000gp/T//ccEUijwy.s 			page 2


  58 001a 1279     		ldrb	r2, [r2, #4]	@ zero_extendqisi2
  59 001c 1341     		asrs	r3, r3, r2
  60 001e 13F00103 		ands	r3, r3, #1
  61 0022 1CD1     		bne	.L1
  62              		.loc 1 163 0 discriminator 1
  63 0024 E16B     		ldr	r1, [r4, #60]
  64 0026 226C     		ldr	r2, [r4, #64]
  65 0028 521A     		subs	r2, r2, r1
  66 002a A16B     		ldr	r1, [r4, #56]
  67              	.LVL2:
  68              		.loc 1 162 0 discriminator 1
  69 002c 521A     		subs	r2, r2, r1
  70              	.LVL3:
  71 002e 16D0     		beq	.L1
  72              	.LBB2:
  73              		.loc 1 164 0
  74              		.syntax unified
  75              	@ 164 "chibios/os/hal/src/serial_usb.c" 1
  76 0030 83F31188 		msr     BASEPRI, r3
  77              	@ 0 "" 2
  78              		.thumb
  79              		.syntax unified
  80              	.LBE2:
  81              		.loc 1 166 0
  82 0034 D4F85402 		ldr	r0, [r4, #596]
  83              	.LVL4:
  84 0038 1346     		mov	r3, r2
  85 003a 0179     		ldrb	r1, [r0, #4]	@ zero_extendqisi2
  86 003c 04F13002 		add	r2, r4, #48
  87              	.LVL5:
  88 0040 0068     		ldr	r0, [r0]
  89 0042 FFF7FEFF 		bl	usbPrepareQueuedTransmit
  90              	.LVL6:
  91              	.LBB3:
  92              		.loc 1 170 0
  93 0046 2023     		movs	r3, #32
  94              		.syntax unified
  95              	@ 170 "chibios/os/hal/src/serial_usb.c" 1
  96 0048 83F31188 		msr     BASEPRI, r3
  97              	@ 0 "" 2
  98              		.thumb
  99              		.syntax unified
 100              	.LBE3:
 101              		.loc 1 171 0
 102 004c D4F85432 		ldr	r3, [r4, #596]
 103 0050 1979     		ldrb	r1, [r3, #4]	@ zero_extendqisi2
 104 0052 1868     		ldr	r0, [r3]
 105              		.loc 1 173 0
 106 0054 BD46     		mov	sp, r7
 107              	.LCFI2:
 108              		.cfi_remember_state
 109              		.cfi_def_cfa_register 13
 110              		@ sp needed
 111 0056 BDE89840 		pop	{r3, r4, r7, lr}
 112              	.LCFI3:
 113              		.cfi_restore 14
 114              		.cfi_restore 7
ARM GAS  /var/folders/_2/42wyrlld3p52fkcpt1lv6gxh0000gp/T//ccEUijwy.s 			page 3


 115              		.cfi_restore 4
 116              		.cfi_restore 3
 117              		.cfi_def_cfa_offset 0
 118              	.LVL7:
 119              		.loc 1 171 0
 120 005a FFF7FEBF 		b	usbStartTransmitI
 121              	.LVL8:
 122              	.L1:
 123              	.LCFI4:
 124              		.cfi_restore_state
 125 005e 98BD     		pop	{r3, r4, r7, pc}
 126              		.cfi_endproc
 127              	.LFE72:
 128              		.size	onotify, .-onotify
 129              		.section	.text.inotify,"ax",%progbits
 130              		.align	1
 131              		.thumb
 132              		.thumb_func
 133              		.type	inotify, %function
 134              	inotify:
 135              	.LFB71:
 136              		.loc 1 119 0
 137              		.cfi_startproc
 138              		@ args = 0, pretend = 0, frame = 0
 139              		@ frame_needed = 1, uses_anonymous_args = 0
 140              	.LVL9:
 141 0000 98B5     		push	{r3, r4, r7, lr}
 142              	.LCFI5:
 143              		.cfi_def_cfa_offset 16
 144              		.cfi_offset 3, -16
 145              		.cfi_offset 4, -12
 146              		.cfi_offset 7, -8
 147              		.cfi_offset 14, -4
 148              		.loc 1 121 0
 149 0002 046A     		ldr	r4, [r0, #32]
 150              	.LVL10:
 151              		.loc 1 119 0
 152 0004 00AF     		add	r7, sp, #0
 153              	.LCFI6:
 154              		.cfi_def_cfa_register 7
 155              		.loc 1 125 0
 156 0006 D4F85432 		ldr	r3, [r4, #596]
 157 000a 1A68     		ldr	r2, [r3]
 158 000c 1178     		ldrb	r1, [r2]	@ zero_extendqisi2
 159 000e 0429     		cmp	r1, #4
 160 0010 2CD1     		bne	.L7
 161              		.loc 1 125 0 is_stmt 0 discriminator 1
 162 0012 217A     		ldrb	r1, [r4, #8]	@ zero_extendqisi2
 163 0014 0229     		cmp	r1, #2
 164 0016 29D1     		bne	.L7
 165              		.loc 1 132 0 is_stmt 1
 166 0018 5979     		ldrb	r1, [r3, #5]	@ zero_extendqisi2
 167              	.LVL11:
 168              		.loc 1 133 0
 169 001a 5389     		ldrh	r3, [r2, #10]
 170 001c 0B41     		asrs	r3, r3, r1
 171 001e 13F00103 		ands	r3, r3, #1
ARM GAS  /var/folders/_2/42wyrlld3p52fkcpt1lv6gxh0000gp/T//ccEUijwy.s 			page 4


 172 0022 23D1     		bne	.L7
 173              		.loc 1 132 0 discriminator 1
 174 0024 02EB8102 		add	r2, r2, r1, lsl #2
 175              	.LVL12:
 176 0028 D268     		ldr	r2, [r2, #12]
 177              		.loc 1 134 0 discriminator 1
 178 002a A069     		ldr	r0, [r4, #24]
 179              	.LVL13:
 180              		.loc 1 132 0 discriminator 1
 181 002c 518A     		ldrh	r1, [r2, #18]
 182              	.LVL14:
 183              		.loc 1 134 0 discriminator 1
 184 002e E269     		ldr	r2, [r4, #28]
 185 0030 121A     		subs	r2, r2, r0
 186 0032 6069     		ldr	r0, [r4, #20]
 187 0034 121A     		subs	r2, r2, r0
 188              	.LVL15:
 189              		.loc 1 133 0 discriminator 1
 190 0036 9142     		cmp	r1, r2
 191 0038 18D8     		bhi	.L7
 192              	.LBB4:
 193              		.loc 1 135 0
 194              		.syntax unified
 195              	@ 135 "chibios/os/hal/src/serial_usb.c" 1
 196 003a 83F31188 		msr     BASEPRI, r3
 197              	@ 0 "" 2
 198              		.thumb
 199              		.syntax unified
 200              	.LBE4:
 201              		.loc 1 137 0
 202 003e B2FBF1F3 		udiv	r3, r2, r1
 203              	.LVL16:
 204              		.loc 1 138 0
 205 0042 D4F85402 		ldr	r0, [r4, #596]
 206 0046 4B43     		muls	r3, r1, r3
 207              	.LVL17:
 208 0048 04F10C02 		add	r2, r4, #12
 209 004c 4179     		ldrb	r1, [r0, #5]	@ zero_extendqisi2
 210 004e 0068     		ldr	r0, [r0]
 211 0050 FFF7FEFF 		bl	usbPrepareQueuedReceive
 212              	.LVL18:
 213              	.LBB5:
 214              		.loc 1 142 0
 215 0054 2023     		movs	r3, #32
 216              		.syntax unified
 217              	@ 142 "chibios/os/hal/src/serial_usb.c" 1
 218 0056 83F31188 		msr     BASEPRI, r3
 219              	@ 0 "" 2
 220              		.thumb
 221              		.syntax unified
 222              	.LBE5:
 223              		.loc 1 143 0
 224 005a D4F85432 		ldr	r3, [r4, #596]
 225 005e 5979     		ldrb	r1, [r3, #5]	@ zero_extendqisi2
 226 0060 1868     		ldr	r0, [r3]
 227              		.loc 1 145 0
 228 0062 BD46     		mov	sp, r7
ARM GAS  /var/folders/_2/42wyrlld3p52fkcpt1lv6gxh0000gp/T//ccEUijwy.s 			page 5


 229              	.LCFI7:
 230              		.cfi_remember_state
 231              		.cfi_def_cfa_register 13
 232              		@ sp needed
 233 0064 BDE89840 		pop	{r3, r4, r7, lr}
 234              	.LCFI8:
 235              		.cfi_restore 14
 236              		.cfi_restore 7
 237              		.cfi_restore 4
 238              		.cfi_restore 3
 239              		.cfi_def_cfa_offset 0
 240              	.LVL19:
 241              		.loc 1 143 0
 242 0068 FFF7FEBF 		b	usbStartReceiveI
 243              	.LVL20:
 244              	.L7:
 245              	.LCFI9:
 246              		.cfi_restore_state
 247 006c 98BD     		pop	{r3, r4, r7, pc}
 248              		.cfi_endproc
 249              	.LFE71:
 250              		.size	inotify, .-inotify
 251              		.section	.text.readt,"ax",%progbits
 252              		.align	1
 253              		.thumb
 254              		.thumb_func
 255              		.type	readt, %function
 256              	readt:
 257              	.LFB70:
 258              		.loc 1 106 0
 259              		.cfi_startproc
 260              		@ args = 0, pretend = 0, frame = 0
 261              		@ frame_needed = 1, uses_anonymous_args = 0
 262              		@ link register save eliminated.
 263              	.LVL21:
 264 0000 80B4     		push	{r7}
 265              	.LCFI10:
 266              		.cfi_def_cfa_offset 4
 267              		.cfi_offset 7, -4
 268              		.loc 1 108 0
 269 0002 0C30     		adds	r0, r0, #12
 270              	.LVL22:
 271              		.loc 1 106 0
 272 0004 00AF     		add	r7, sp, #0
 273              	.LCFI11:
 274              		.cfi_def_cfa_register 7
 275              		.loc 1 109 0
 276 0006 BD46     		mov	sp, r7
 277              	.LCFI12:
 278              		.cfi_def_cfa_register 13
 279              		@ sp needed
 280 0008 80BC     		pop	{r7}
 281              	.LCFI13:
 282              		.cfi_restore 7
 283              		.cfi_def_cfa_offset 0
 284              		.loc 1 108 0
 285 000a FFF7FEBF 		b	chIQReadTimeout
ARM GAS  /var/folders/_2/42wyrlld3p52fkcpt1lv6gxh0000gp/T//ccEUijwy.s 			page 6


 286              	.LVL23:
 287              		.cfi_endproc
 288              	.LFE70:
 289              		.size	readt, .-readt
 290              		.section	.text.read,"ax",%progbits
 291              		.align	1
 292              		.thumb
 293              		.thumb_func
 294              		.type	read, %function
 295              	read:
 296              	.LFB64:
 297              		.loc 1 75 0
 298              		.cfi_startproc
 299              		@ args = 0, pretend = 0, frame = 0
 300              		@ frame_needed = 1, uses_anonymous_args = 0
 301              		@ link register save eliminated.
 302              	.LVL24:
 303 0000 80B4     		push	{r7}
 304              	.LCFI14:
 305              		.cfi_def_cfa_offset 4
 306              		.cfi_offset 7, -4
 307              		.loc 1 77 0
 308 0002 4FF0FF33 		mov	r3, #-1
 309              		.loc 1 75 0
 310 0006 00AF     		add	r7, sp, #0
 311              	.LCFI15:
 312              		.cfi_def_cfa_register 7
 313              		.loc 1 77 0
 314 0008 0C30     		adds	r0, r0, #12
 315              	.LVL25:
 316              		.loc 1 79 0
 317 000a BD46     		mov	sp, r7
 318              	.LCFI16:
 319              		.cfi_def_cfa_register 13
 320              		@ sp needed
 321 000c 80BC     		pop	{r7}
 322              	.LCFI17:
 323              		.cfi_restore 7
 324              		.cfi_def_cfa_offset 0
 325              		.loc 1 77 0
 326 000e FFF7FEBF 		b	chIQReadTimeout
 327              	.LVL26:
 328              		.cfi_endproc
 329              	.LFE64:
 330              		.size	read, .-read
 331              		.section	.text.writet,"ax",%progbits
 332              		.align	1
 333              		.thumb
 334              		.thumb_func
 335              		.type	writet, %function
 336              	writet:
 337              	.LFB69:
 338              		.loc 1 101 0
 339              		.cfi_startproc
 340              		@ args = 0, pretend = 0, frame = 0
 341              		@ frame_needed = 1, uses_anonymous_args = 0
 342              		@ link register save eliminated.
ARM GAS  /var/folders/_2/42wyrlld3p52fkcpt1lv6gxh0000gp/T//ccEUijwy.s 			page 7


 343              	.LVL27:
 344 0000 80B4     		push	{r7}
 345              	.LCFI18:
 346              		.cfi_def_cfa_offset 4
 347              		.cfi_offset 7, -4
 348              		.loc 1 103 0
 349 0002 3030     		adds	r0, r0, #48
 350              	.LVL28:
 351              		.loc 1 101 0
 352 0004 00AF     		add	r7, sp, #0
 353              	.LCFI19:
 354              		.cfi_def_cfa_register 7
 355              		.loc 1 104 0
 356 0006 BD46     		mov	sp, r7
 357              	.LCFI20:
 358              		.cfi_def_cfa_register 13
 359              		@ sp needed
 360 0008 80BC     		pop	{r7}
 361              	.LCFI21:
 362              		.cfi_restore 7
 363              		.cfi_def_cfa_offset 0
 364              		.loc 1 103 0
 365 000a FFF7FEBF 		b	chOQWriteTimeout
 366              	.LVL29:
 367              		.cfi_endproc
 368              	.LFE69:
 369              		.size	writet, .-writet
 370              		.section	.text.write,"ax",%progbits
 371              		.align	1
 372              		.thumb
 373              		.thumb_func
 374              		.type	write, %function
 375              	write:
 376              	.LFB63:
 377              		.loc 1 69 0
 378              		.cfi_startproc
 379              		@ args = 0, pretend = 0, frame = 0
 380              		@ frame_needed = 1, uses_anonymous_args = 0
 381              		@ link register save eliminated.
 382              	.LVL30:
 383 0000 80B4     		push	{r7}
 384              	.LCFI22:
 385              		.cfi_def_cfa_offset 4
 386              		.cfi_offset 7, -4
 387              		.loc 1 71 0
 388 0002 4FF0FF33 		mov	r3, #-1
 389              		.loc 1 69 0
 390 0006 00AF     		add	r7, sp, #0
 391              	.LCFI23:
 392              		.cfi_def_cfa_register 7
 393              		.loc 1 71 0
 394 0008 3030     		adds	r0, r0, #48
 395              	.LVL31:
 396              		.loc 1 73 0
 397 000a BD46     		mov	sp, r7
 398              	.LCFI24:
 399              		.cfi_def_cfa_register 13
ARM GAS  /var/folders/_2/42wyrlld3p52fkcpt1lv6gxh0000gp/T//ccEUijwy.s 			page 8


 400              		@ sp needed
 401 000c 80BC     		pop	{r7}
 402              	.LCFI25:
 403              		.cfi_restore 7
 404              		.cfi_def_cfa_offset 0
 405              		.loc 1 71 0
 406 000e FFF7FEBF 		b	chOQWriteTimeout
 407              	.LVL32:
 408              		.cfi_endproc
 409              	.LFE63:
 410              		.size	write, .-write
 411              		.section	.text.gett,"ax",%progbits
 412              		.align	1
 413              		.thumb
 414              		.thumb_func
 415              		.type	gett, %function
 416              	gett:
 417              	.LFB68:
 418              		.loc 1 96 0
 419              		.cfi_startproc
 420              		@ args = 0, pretend = 0, frame = 0
 421              		@ frame_needed = 1, uses_anonymous_args = 0
 422              		@ link register save eliminated.
 423              	.LVL33:
 424 0000 80B4     		push	{r7}
 425              	.LCFI26:
 426              		.cfi_def_cfa_offset 4
 427              		.cfi_offset 7, -4
 428              		.loc 1 98 0
 429 0002 0C30     		adds	r0, r0, #12
 430              	.LVL34:
 431              		.loc 1 96 0
 432 0004 00AF     		add	r7, sp, #0
 433              	.LCFI27:
 434              		.cfi_def_cfa_register 7
 435              		.loc 1 99 0
 436 0006 BD46     		mov	sp, r7
 437              	.LCFI28:
 438              		.cfi_def_cfa_register 13
 439              		@ sp needed
 440 0008 80BC     		pop	{r7}
 441              	.LCFI29:
 442              		.cfi_restore 7
 443              		.cfi_def_cfa_offset 0
 444              		.loc 1 98 0
 445 000a FFF7FEBF 		b	chIQGetTimeout
 446              	.LVL35:
 447              		.cfi_endproc
 448              	.LFE68:
 449              		.size	gett, .-gett
 450              		.section	.text.get,"ax",%progbits
 451              		.align	1
 452              		.thumb
 453              		.thumb_func
 454              		.type	get, %function
 455              	get:
 456              	.LFB66:
ARM GAS  /var/folders/_2/42wyrlld3p52fkcpt1lv6gxh0000gp/T//ccEUijwy.s 			page 9


 457              		.loc 1 86 0
 458              		.cfi_startproc
 459              		@ args = 0, pretend = 0, frame = 0
 460              		@ frame_needed = 1, uses_anonymous_args = 0
 461              		@ link register save eliminated.
 462              	.LVL36:
 463 0000 80B4     		push	{r7}
 464              	.LCFI30:
 465              		.cfi_def_cfa_offset 4
 466              		.cfi_offset 7, -4
 467              		.loc 1 88 0
 468 0002 4FF0FF31 		mov	r1, #-1
 469              		.loc 1 86 0
 470 0006 00AF     		add	r7, sp, #0
 471              	.LCFI31:
 472              		.cfi_def_cfa_register 7
 473              		.loc 1 88 0
 474 0008 0C30     		adds	r0, r0, #12
 475              	.LVL37:
 476              		.loc 1 89 0
 477 000a BD46     		mov	sp, r7
 478              	.LCFI32:
 479              		.cfi_def_cfa_register 13
 480              		@ sp needed
 481 000c 80BC     		pop	{r7}
 482              	.LCFI33:
 483              		.cfi_restore 7
 484              		.cfi_def_cfa_offset 0
 485              		.loc 1 88 0
 486 000e FFF7FEBF 		b	chIQGetTimeout
 487              	.LVL38:
 488              		.cfi_endproc
 489              	.LFE66:
 490              		.size	get, .-get
 491              		.section	.text.putt,"ax",%progbits
 492              		.align	1
 493              		.thumb
 494              		.thumb_func
 495              		.type	putt, %function
 496              	putt:
 497              	.LFB67:
 498              		.loc 1 91 0
 499              		.cfi_startproc
 500              		@ args = 0, pretend = 0, frame = 0
 501              		@ frame_needed = 1, uses_anonymous_args = 0
 502              		@ link register save eliminated.
 503              	.LVL39:
 504 0000 80B4     		push	{r7}
 505              	.LCFI34:
 506              		.cfi_def_cfa_offset 4
 507              		.cfi_offset 7, -4
 508              		.loc 1 93 0
 509 0002 3030     		adds	r0, r0, #48
 510              	.LVL40:
 511              		.loc 1 91 0
 512 0004 00AF     		add	r7, sp, #0
 513              	.LCFI35:
ARM GAS  /var/folders/_2/42wyrlld3p52fkcpt1lv6gxh0000gp/T//ccEUijwy.s 			page 10


 514              		.cfi_def_cfa_register 7
 515              		.loc 1 94 0
 516 0006 BD46     		mov	sp, r7
 517              	.LCFI36:
 518              		.cfi_def_cfa_register 13
 519              		@ sp needed
 520 0008 80BC     		pop	{r7}
 521              	.LCFI37:
 522              		.cfi_restore 7
 523              		.cfi_def_cfa_offset 0
 524              		.loc 1 93 0
 525 000a FFF7FEBF 		b	chOQPutTimeout
 526              	.LVL41:
 527              		.cfi_endproc
 528              	.LFE67:
 529              		.size	putt, .-putt
 530              		.section	.text.put,"ax",%progbits
 531              		.align	1
 532              		.thumb
 533              		.thumb_func
 534              		.type	put, %function
 535              	put:
 536              	.LFB65:
 537              		.loc 1 81 0
 538              		.cfi_startproc
 539              		@ args = 0, pretend = 0, frame = 0
 540              		@ frame_needed = 1, uses_anonymous_args = 0
 541              		@ link register save eliminated.
 542              	.LVL42:
 543 0000 80B4     		push	{r7}
 544              	.LCFI38:
 545              		.cfi_def_cfa_offset 4
 546              		.cfi_offset 7, -4
 547              		.loc 1 83 0
 548 0002 4FF0FF32 		mov	r2, #-1
 549              		.loc 1 81 0
 550 0006 00AF     		add	r7, sp, #0
 551              	.LCFI39:
 552              		.cfi_def_cfa_register 7
 553              		.loc 1 83 0
 554 0008 3030     		adds	r0, r0, #48
 555              	.LVL43:
 556              		.loc 1 84 0
 557 000a BD46     		mov	sp, r7
 558              	.LCFI40:
 559              		.cfi_def_cfa_register 13
 560              		@ sp needed
 561 000c 80BC     		pop	{r7}
 562              	.LCFI41:
 563              		.cfi_restore 7
 564              		.cfi_def_cfa_offset 0
 565              		.loc 1 83 0
 566 000e FFF7FEBF 		b	chOQPutTimeout
 567              	.LVL44:
 568              		.cfi_endproc
 569              	.LFE65:
 570              		.size	put, .-put
ARM GAS  /var/folders/_2/42wyrlld3p52fkcpt1lv6gxh0000gp/T//ccEUijwy.s 			page 11


 571              		.section	.text.sduInit,"ax",%progbits
 572              		.align	1
 573              		.global	sduInit
 574              		.thumb
 575              		.thumb_func
 576              		.type	sduInit, %function
 577              	sduInit:
 578              	.LFB73:
 579              		.loc 1 186 0
 580              		.cfi_startproc
 581              		@ args = 0, pretend = 0, frame = 0
 582              		@ frame_needed = 1, uses_anonymous_args = 0
 583 0000 80B5     		push	{r7, lr}
 584              	.LCFI42:
 585              		.cfi_def_cfa_offset 8
 586              		.cfi_offset 7, -8
 587              		.cfi_offset 14, -4
 588 0002 00AF     		add	r7, sp, #0
 589              	.LCFI43:
 590              		.cfi_def_cfa_register 7
 591 0004 80BD     		pop	{r7, pc}
 592              		.cfi_endproc
 593              	.LFE73:
 594              		.size	sduInit, .-sduInit
 595              		.section	.text.sduObjectInit,"ax",%progbits
 596              		.align	1
 597              		.global	sduObjectInit
 598              		.thumb
 599              		.thumb_func
 600              		.type	sduObjectInit, %function
 601              	sduObjectInit:
 602              	.LFB74:
 603              		.loc 1 198 0
 604              		.cfi_startproc
 605              		@ args = 0, pretend = 0, frame = 0
 606              		@ frame_needed = 1, uses_anonymous_args = 0
 607              	.LVL45:
 608              		.loc 1 200 0
 609 0000 0346     		mov	r3, r0
 610              		.loc 1 198 0
 611 0002 90B5     		push	{r4, r7, lr}
 612              	.LCFI44:
 613              		.cfi_def_cfa_offset 12
 614              		.cfi_offset 4, -12
 615              		.cfi_offset 7, -8
 616              		.cfi_offset 14, -4
 617 0004 0446     		mov	r4, r0
 618              		.loc 1 200 0
 619 0006 0F4A     		ldr	r2, .L19
 620              		.loc 1 198 0
 621 0008 83B0     		sub	sp, sp, #12
 622              	.LCFI45:
 623              		.cfi_def_cfa_offset 24
 624              		.loc 1 200 0
 625 000a 43F8042B 		str	r2, [r3], #4
 626              		.loc 1 201 0
 627 000e 4360     		str	r3, [r0, #4]
ARM GAS  /var/folders/_2/42wyrlld3p52fkcpt1lv6gxh0000gp/T//ccEUijwy.s 			page 12


 628              		.loc 1 202 0
 629 0010 0123     		movs	r3, #1
 630 0012 0372     		strb	r3, [r0, #8]
 631              		.loc 1 198 0
 632 0014 02AF     		add	r7, sp, #8
 633              	.LCFI46:
 634              		.cfi_def_cfa 7, 16
 635              		.loc 1 203 0
 636 0016 0090     		str	r0, [sp]
 637 0018 00F15401 		add	r1, r0, #84
 638 001c 0A4B     		ldr	r3, .L19+4
 639 001e 4FF48072 		mov	r2, #256
 640 0022 0C30     		adds	r0, r0, #12
 641              	.LVL46:
 642 0024 FFF7FEFF 		bl	chIQInit
 643              	.LVL47:
 644              		.loc 1 204 0
 645 0028 0094     		str	r4, [sp]
 646 002a 084B     		ldr	r3, .L19+8
 647 002c 4FF48072 		mov	r2, #256
 648 0030 04F5AA71 		add	r1, r4, #340
 649 0034 04F13000 		add	r0, r4, #48
 650 0038 FFF7FEFF 		bl	chOQInit
 651              	.LVL48:
 652              		.loc 1 205 0
 653 003c 0437     		adds	r7, r7, #4
 654              	.LCFI47:
 655              		.cfi_def_cfa_offset 12
 656 003e BD46     		mov	sp, r7
 657              	.LCFI48:
 658              		.cfi_def_cfa_register 13
 659              		@ sp needed
 660 0040 90BD     		pop	{r4, r7, pc}
 661              	.LVL49:
 662              	.L20:
 663 0042 00BF     		.align	2
 664              	.L19:
 665 0044 00000000 		.word	.LANCHOR0
 666 0048 00000000 		.word	inotify
 667 004c 00000000 		.word	onotify
 668              		.cfi_endproc
 669              	.LFE74:
 670              		.size	sduObjectInit, .-sduObjectInit
 671              		.section	.text.sduStart,"ax",%progbits
 672              		.align	1
 673              		.global	sduStart
 674              		.thumb
 675              		.thumb_func
 676              		.type	sduStart, %function
 677              	sduStart:
 678              	.LFB75:
 679              		.loc 1 215 0
 680              		.cfi_startproc
 681              		@ args = 0, pretend = 0, frame = 0
 682              		@ frame_needed = 1, uses_anonymous_args = 0
 683              	.LVL50:
 684 0000 80B5     		push	{r7, lr}
ARM GAS  /var/folders/_2/42wyrlld3p52fkcpt1lv6gxh0000gp/T//ccEUijwy.s 			page 13


 685              	.LCFI49:
 686              		.cfi_def_cfa_offset 8
 687              		.cfi_offset 7, -8
 688              		.cfi_offset 14, -4
 689              		.loc 1 216 0
 690 0002 0A68     		ldr	r2, [r1]
 691              	.LVL51:
 692              		.loc 1 215 0
 693 0004 00AF     		add	r7, sp, #0
 694              	.LCFI50:
 695              		.cfi_def_cfa_register 7
 696              	.LBB6:
 697              		.loc 1 220 0
 698 0006 2023     		movs	r3, #32
 699              		.syntax unified
 700              	@ 220 "chibios/os/hal/src/serial_usb.c" 1
 701 0008 83F31188 		msr     BASEPRI, r3
 702              	@ 0 "" 2
 703              		.thumb
 704              		.syntax unified
 705              	.LBE6:
 706              		.loc 1 224 0
 707 000c 0B79     		ldrb	r3, [r1, #4]	@ zero_extendqisi2
 708 000e 02EB8303 		add	r3, r2, r3, lsl #2
 709 0012 9862     		str	r0, [r3, #40]
 710              		.loc 1 225 0
 711 0014 4B79     		ldrb	r3, [r1, #5]	@ zero_extendqisi2
 712 0016 1133     		adds	r3, r3, #17
 713 0018 42F82300 		str	r0, [r2, r3, lsl #2]
 714              		.loc 1 226 0
 715 001c 8B79     		ldrb	r3, [r1, #6]	@ zero_extendqisi2
 716 001e 02EB8302 		add	r2, r2, r3, lsl #2
 717              	.LVL52:
 718              		.loc 1 228 0
 719 0022 0223     		movs	r3, #2
 720              		.loc 1 226 0
 721 0024 9062     		str	r0, [r2, #40]
 722              		.loc 1 228 0
 723 0026 0372     		strb	r3, [r0, #8]
 724              		.loc 1 227 0
 725 0028 C0F85412 		str	r1, [r0, #596]
 726              	.LBB7:
 727              		.loc 1 229 0
 728 002c 0023     		movs	r3, #0
 729              		.syntax unified
 730              	@ 229 "chibios/os/hal/src/serial_usb.c" 1
 731 002e 83F31188 		msr     BASEPRI, r3
 732              	@ 0 "" 2
 733              		.thumb
 734              		.syntax unified
 735 0032 80BD     		pop	{r7, pc}
 736              	.LBE7:
 737              		.cfi_endproc
 738              	.LFE75:
 739              		.size	sduStart, .-sduStart
 740              		.section	.text.sduStop,"ax",%progbits
 741              		.align	1
ARM GAS  /var/folders/_2/42wyrlld3p52fkcpt1lv6gxh0000gp/T//ccEUijwy.s 			page 14


 742              		.global	sduStop
 743              		.thumb
 744              		.thumb_func
 745              		.type	sduStop, %function
 746              	sduStop:
 747              	.LFB76:
 748              		.loc 1 241 0
 749              		.cfi_startproc
 750              		@ args = 0, pretend = 0, frame = 0
 751              		@ frame_needed = 1, uses_anonymous_args = 0
 752              	.LVL53:
 753 0000 B0B5     		push	{r4, r5, r7, lr}
 754              	.LCFI51:
 755              		.cfi_def_cfa_offset 16
 756              		.cfi_offset 4, -16
 757              		.cfi_offset 5, -12
 758              		.cfi_offset 7, -8
 759              		.cfi_offset 14, -4
 760              		.loc 1 242 0
 761 0002 D0F85432 		ldr	r3, [r0, #596]
 762              		.loc 1 241 0
 763 0006 00AF     		add	r7, sp, #0
 764              	.LCFI52:
 765              		.cfi_def_cfa_register 7
 766              		.loc 1 242 0
 767 0008 1A68     		ldr	r2, [r3]
 768              	.LVL54:
 769              		.loc 1 241 0
 770 000a 0446     		mov	r4, r0
 771              	.LBB8:
 772              		.loc 1 246 0
 773 000c 2023     		movs	r3, #32
 774              		.syntax unified
 775              	@ 246 "chibios/os/hal/src/serial_usb.c" 1
 776 000e 83F31188 		msr     BASEPRI, r3
 777              	@ 0 "" 2
 778              		.thumb
 779              		.syntax unified
 780              	.LBE8:
 781              		.loc 1 253 0
 782 0012 D0F85432 		ldr	r3, [r0, #596]
 783 0016 0025     		movs	r5, #0
 784 0018 1979     		ldrb	r1, [r3, #4]	@ zero_extendqisi2
 785              		.loc 1 259 0
 786 001a 0430     		adds	r0, r0, #4
 787              	.LVL55:
 788              		.loc 1 253 0
 789 001c 0931     		adds	r1, r1, #9
 790 001e 02EB8101 		add	r1, r2, r1, lsl #2
 791 0022 4D60     		str	r5, [r1, #4]
 792              		.loc 1 254 0
 793 0024 5979     		ldrb	r1, [r3, #5]	@ zero_extendqisi2
 794 0026 1131     		adds	r1, r1, #17
 795 0028 42F82150 		str	r5, [r2, r1, lsl #2]
 796              		.loc 1 255 0
 797 002c 9B79     		ldrb	r3, [r3, #6]	@ zero_extendqisi2
 798              		.loc 1 259 0
ARM GAS  /var/folders/_2/42wyrlld3p52fkcpt1lv6gxh0000gp/T//ccEUijwy.s 			page 15


 799 002e 0221     		movs	r1, #2
 800              		.loc 1 255 0
 801 0030 0933     		adds	r3, r3, #9
 802 0032 02EB8302 		add	r2, r2, r3, lsl #2
 803              	.LVL56:
 804              		.loc 1 256 0
 805 0036 0123     		movs	r3, #1
 806              		.loc 1 255 0
 807 0038 5560     		str	r5, [r2, #4]
 808              		.loc 1 256 0
 809 003a 0371     		strb	r3, [r0, #4]
 810              		.loc 1 259 0
 811 003c FFF7FEFF 		bl	chEvtBroadcastFlagsI
 812              	.LVL57:
 813              		.loc 1 260 0
 814 0040 04F10C00 		add	r0, r4, #12
 815 0044 FFF7FEFF 		bl	chIQResetI
 816              	.LVL58:
 817              		.loc 1 261 0
 818 0048 04F13000 		add	r0, r4, #48
 819 004c FFF7FEFF 		bl	chOQResetI
 820              	.LVL59:
 821              		.loc 1 262 0
 822 0050 FFF7FEFF 		bl	chSchRescheduleS
 823              	.LVL60:
 824              	.LBB9:
 825              		.loc 1 264 0
 826 0054 2B46     		mov	r3, r5
 827              		.syntax unified
 828              	@ 264 "chibios/os/hal/src/serial_usb.c" 1
 829 0056 83F31188 		msr     BASEPRI, r3
 830              	@ 0 "" 2
 831              		.thumb
 832              		.syntax unified
 833 005a B0BD     		pop	{r4, r5, r7, pc}
 834              	.LBE9:
 835              		.cfi_endproc
 836              	.LFE76:
 837              		.size	sduStop, .-sduStop
 838              		.section	.text.sduConfigureHookI,"ax",%progbits
 839              		.align	1
 840              		.global	sduConfigureHookI
 841              		.thumb
 842              		.thumb_func
 843              		.type	sduConfigureHookI, %function
 844              	sduConfigureHookI:
 845              	.LFB77:
 846              		.loc 1 274 0
 847              		.cfi_startproc
 848              		@ args = 0, pretend = 0, frame = 0
 849              		@ frame_needed = 1, uses_anonymous_args = 0
 850              	.LVL61:
 851 0000 F8B5     		push	{r3, r4, r5, r6, r7, lr}
 852              	.LCFI53:
 853              		.cfi_def_cfa_offset 24
 854              		.cfi_offset 3, -24
 855              		.cfi_offset 4, -20
ARM GAS  /var/folders/_2/42wyrlld3p52fkcpt1lv6gxh0000gp/T//ccEUijwy.s 			page 16


 856              		.cfi_offset 5, -16
 857              		.cfi_offset 6, -12
 858              		.cfi_offset 7, -8
 859              		.cfi_offset 14, -4
 860 0002 0446     		mov	r4, r0
 861              		.loc 1 275 0
 862 0004 D0F85432 		ldr	r3, [r0, #596]
 863              		.loc 1 277 0
 864 0008 00F10C06 		add	r6, r0, #12
 865              		.loc 1 274 0
 866 000c 00AF     		add	r7, sp, #0
 867              	.LCFI54:
 868              		.cfi_def_cfa_register 7
 869              		.loc 1 277 0
 870 000e 3046     		mov	r0, r6
 871              	.LVL62:
 872              		.loc 1 275 0
 873 0010 1D68     		ldr	r5, [r3]
 874              	.LVL63:
 875              		.loc 1 277 0
 876 0012 FFF7FEFF 		bl	chIQResetI
 877              	.LVL64:
 878              		.loc 1 278 0
 879 0016 04F13000 		add	r0, r4, #48
 880 001a FFF7FEFF 		bl	chOQResetI
 881              	.LVL65:
 882              		.loc 1 279 0
 883 001e 201D     		adds	r0, r4, #4
 884 0020 0121     		movs	r1, #1
 885 0022 FFF7FEFF 		bl	chEvtBroadcastFlagsI
 886              	.LVL66:
 887              		.loc 1 283 0
 888 0026 D4F85432 		ldr	r3, [r4, #596]
 889              		.loc 1 282 0
 890 002a 2846     		mov	r0, r5
 891              		.loc 1 283 0
 892 002c 5979     		ldrb	r1, [r3, #5]	@ zero_extendqisi2
 893              		.loc 1 282 0
 894 002e 3246     		mov	r2, r6
 895              		.loc 1 283 0
 896 0030 05EB8103 		add	r3, r5, r1, lsl #2
 897 0034 DB68     		ldr	r3, [r3, #12]
 898              		.loc 1 282 0
 899 0036 5B8A     		ldrh	r3, [r3, #18]
 900 0038 FFF7FEFF 		bl	usbPrepareQueuedReceive
 901              	.LVL67:
 902              		.loc 1 284 0
 903 003c 2846     		mov	r0, r5
 904 003e D4F85432 		ldr	r3, [r4, #596]
 905 0042 5979     		ldrb	r1, [r3, #5]	@ zero_extendqisi2
 906              		.loc 1 285 0
 907 0044 BD46     		mov	sp, r7
 908              	.LCFI55:
 909              		.cfi_def_cfa_register 13
 910              		@ sp needed
 911 0046 BDE8F840 		pop	{r3, r4, r5, r6, r7, lr}
 912              	.LCFI56:
ARM GAS  /var/folders/_2/42wyrlld3p52fkcpt1lv6gxh0000gp/T//ccEUijwy.s 			page 17


 913              		.cfi_restore 14
 914              		.cfi_restore 7
 915              		.cfi_restore 6
 916              		.cfi_restore 5
 917              		.cfi_restore 4
 918              		.cfi_restore 3
 919              		.cfi_def_cfa_offset 0
 920              	.LVL68:
 921              		.loc 1 284 0
 922 004a FFF7FEBF 		b	usbStartReceiveI
 923              	.LVL69:
 924              		.cfi_endproc
 925              	.LFE77:
 926              		.size	sduConfigureHookI, .-sduConfigureHookI
 927              		.section	.text.sduRequestsHook,"ax",%progbits
 928              		.align	1
 929              		.global	sduRequestsHook
 930              		.thumb
 931              		.thumb_func
 932              		.type	sduRequestsHook, %function
 933              	sduRequestsHook:
 934              	.LFB78:
 935              		.loc 1 302 0
 936              		.cfi_startproc
 937              		@ args = 0, pretend = 0, frame = 0
 938              		@ frame_needed = 1, uses_anonymous_args = 0
 939              	.LVL70:
 940 0000 80B5     		push	{r7, lr}
 941              	.LCFI57:
 942              		.cfi_def_cfa_offset 8
 943              		.cfi_offset 7, -8
 944              		.cfi_offset 14, -4
 945              		.loc 1 304 0
 946 0002 90F87430 		ldrb	r3, [r0, #116]	@ zero_extendqisi2
 947              		.loc 1 302 0
 948 0006 00AF     		add	r7, sp, #0
 949              	.LCFI58:
 950              		.cfi_def_cfa_register 7
 951              		.loc 1 304 0
 952 0008 03F06003 		and	r3, r3, #96
 953 000c 202B     		cmp	r3, #32
 954 000e 19D1     		bne	.L29
 955              		.loc 1 305 0
 956 0010 90F87520 		ldrb	r2, [r0, #117]	@ zero_extendqisi2
 957 0014 212A     		cmp	r2, #33
 958 0016 0AD0     		beq	.L26
 959 0018 222A     		cmp	r2, #34
 960 001a 4FF00003 		mov	r3, #0
 961 001e 0CD0     		beq	.L27
 962 0020 202A     		cmp	r2, #32
 963 0022 0FD1     		bne	.L29
 964              		.loc 1 310 0
 965 0024 084A     		ldr	r2, .L33
 966 0026 8266     		str	r2, [r0, #104]
 967 0028 0722     		movs	r2, #7
 968 002a C266     		str	r2, [r0, #108]
 969 002c 07E0     		b	.L32
ARM GAS  /var/folders/_2/42wyrlld3p52fkcpt1lv6gxh0000gp/T//ccEUijwy.s 			page 18


 970              	.L26:
 971              		.loc 1 307 0
 972 002e 064B     		ldr	r3, .L33
 973 0030 8366     		str	r3, [r0, #104]
 974 0032 0723     		movs	r3, #7
 975 0034 C366     		str	r3, [r0, #108]
 976 0036 0023     		movs	r3, #0
 977 0038 01E0     		b	.L32
 978              	.L27:
 979              		.loc 1 314 0
 980 003a 8366     		str	r3, [r0, #104]
 981 003c C366     		str	r3, [r0, #108]
 982              	.L32:
 983 003e 0367     		str	r3, [r0, #112]
 984              		.loc 1 315 0
 985 0040 0120     		movs	r0, #1
 986              	.LVL71:
 987 0042 80BD     		pop	{r7, pc}
 988              	.LVL72:
 989              	.L29:
 990              		.loc 1 320 0
 991 0044 0020     		movs	r0, #0
 992              	.LVL73:
 993 0046 80BD     		pop	{r7, pc}
 994              	.L34:
 995              		.align	2
 996              	.L33:
 997 0048 00000000 		.word	.LANCHOR1
 998              		.cfi_endproc
 999              	.LFE78:
 1000              		.size	sduRequestsHook, .-sduRequestsHook
 1001              		.section	.text.sduDataTransmitted,"ax",%progbits
 1002              		.align	1
 1003              		.global	sduDataTransmitted
 1004              		.thumb
 1005              		.thumb_func
 1006              		.type	sduDataTransmitted, %function
 1007              	sduDataTransmitted:
 1008              	.LFB79:
 1009              		.loc 1 331 0
 1010              		.cfi_startproc
 1011              		@ args = 0, pretend = 0, frame = 0
 1012              		@ frame_needed = 1, uses_anonymous_args = 0
 1013              	.LVL74:
 1014 0000 2DE9F041 		push	{r4, r5, r6, r7, r8, lr}
 1015              	.LCFI59:
 1016              		.cfi_def_cfa_offset 24
 1017              		.cfi_offset 4, -24
 1018              		.cfi_offset 5, -20
 1019              		.cfi_offset 6, -16
 1020              		.cfi_offset 7, -12
 1021              		.cfi_offset 8, -8
 1022              		.cfi_offset 14, -4
 1023 0004 00EB8108 		add	r8, r0, r1, lsl #2
 1024              		.loc 1 333 0
 1025 0008 D8F82840 		ldr	r4, [r8, #40]
 1026              	.LVL75:
ARM GAS  /var/folders/_2/42wyrlld3p52fkcpt1lv6gxh0000gp/T//ccEUijwy.s 			page 19


 1027              		.loc 1 331 0
 1028 000c 00AF     		add	r7, sp, #0
 1029              	.LCFI60:
 1030              		.cfi_def_cfa_register 7
 1031              		.loc 1 331 0
 1032 000e 0546     		mov	r5, r0
 1033 0010 0E46     		mov	r6, r1
 1034              		.loc 1 335 0
 1035 0012 64B3     		cbz	r4, .L35
 1036              	.LBB10:
 1037              		.loc 1 338 0
 1038 0014 2023     		movs	r3, #32
 1039              		.syntax unified
 1040              	@ 338 "chibios/os/hal/src/serial_usb.c" 1
 1041 0016 83F31188 		msr     BASEPRI, r3
 1042              	@ 0 "" 2
 1043              		.thumb
 1044              		.syntax unified
 1045              	.LBE10:
 1046              		.loc 1 339 0
 1047 001a 0821     		movs	r1, #8
 1048              	.LVL76:
 1049 001c 201D     		adds	r0, r4, #4
 1050              	.LVL77:
 1051 001e FFF7FEFF 		bl	chEvtBroadcastFlagsI
 1052              	.LVL78:
 1053              		.loc 1 341 0
 1054 0022 E26B     		ldr	r2, [r4, #60]
 1055 0024 236C     		ldr	r3, [r4, #64]
 1056 0026 9B1A     		subs	r3, r3, r2
 1057 0028 A26B     		ldr	r2, [r4, #56]
 1058              	.LVL79:
 1059 002a 9A1A     		subs	r2, r3, r2
 1060              	.LVL80:
 1061 002c 04D0     		beq	.L37
 1062              	.LBB11:
 1063              		.loc 1 344 0
 1064 002e 0023     		movs	r3, #0
 1065              		.syntax unified
 1066              	@ 344 "chibios/os/hal/src/serial_usb.c" 1
 1067 0030 83F31188 		msr     BASEPRI, r3
 1068              	@ 0 "" 2
 1069              		.thumb
 1070              		.syntax unified
 1071              	.LBE11:
 1072              		.loc 1 346 0
 1073 0034 1346     		mov	r3, r2
 1074 0036 0AE0     		b	.L45
 1075              	.L37:
 1076              		.loc 1 351 0
 1077 0038 D8F80C30 		ldr	r3, [r8, #12]
 1078 003c 5A69     		ldr	r2, [r3, #20]
 1079              	.LVL81:
 1080 003e 5168     		ldr	r1, [r2, #4]
 1081 0040 91B1     		cbz	r1, .L38
 1082              		.loc 1 351 0 is_stmt 0 discriminator 1
 1083 0042 1A8A     		ldrh	r2, [r3, #16]
ARM GAS  /var/folders/_2/42wyrlld3p52fkcpt1lv6gxh0000gp/T//ccEUijwy.s 			page 20


 1084 0044 531E     		subs	r3, r2, #1
 1085 0046 0B40     		ands	r3, r3, r1
 1086 0048 0ED1     		bne	.L38
 1087              	.LBB12:
 1088              		.loc 1 358 0 is_stmt 1
 1089              		.syntax unified
 1090              	@ 358 "chibios/os/hal/src/serial_usb.c" 1
 1091 004a 83F31188 		msr     BASEPRI, r3
 1092              	@ 0 "" 2
 1093              		.thumb
 1094              		.syntax unified
 1095              	.L45:
 1096              	.LBE12:
 1097              		.loc 1 360 0
 1098 004e 04F13002 		add	r2, r4, #48
 1099 0052 3146     		mov	r1, r6
 1100 0054 2846     		mov	r0, r5
 1101 0056 FFF7FEFF 		bl	usbPrepareQueuedTransmit
 1102              	.LVL82:
 1103              	.LBB13:
 1104              		.loc 1 362 0
 1105 005a 2023     		movs	r3, #32
 1106              		.syntax unified
 1107              	@ 362 "chibios/os/hal/src/serial_usb.c" 1
 1108 005c 83F31188 		msr     BASEPRI, r3
 1109              	@ 0 "" 2
 1110              		.thumb
 1111              		.syntax unified
 1112              	.LBE13:
 1113              		.loc 1 363 0
 1114 0060 3146     		mov	r1, r6
 1115 0062 2846     		mov	r0, r5
 1116 0064 FFF7FEFF 		bl	usbStartTransmitI
 1117              	.LVL83:
 1118              	.L38:
 1119              	.LBB14:
 1120              		.loc 1 366 0
 1121 0068 0023     		movs	r3, #0
 1122              		.syntax unified
 1123              	@ 366 "chibios/os/hal/src/serial_usb.c" 1
 1124 006a 83F31188 		msr     BASEPRI, r3
 1125              	@ 0 "" 2
 1126              		.thumb
 1127              		.syntax unified
 1128              	.L35:
 1129 006e BDE8F081 		pop	{r4, r5, r6, r7, r8, pc}
 1130              	.LBE14:
 1131              		.cfi_endproc
 1132              	.LFE79:
 1133              		.size	sduDataTransmitted, .-sduDataTransmitted
 1134              		.section	.text.sduDataReceived,"ax",%progbits
 1135              		.align	1
 1136              		.global	sduDataReceived
 1137              		.thumb
 1138              		.thumb_func
 1139              		.type	sduDataReceived, %function
 1140              	sduDataReceived:
ARM GAS  /var/folders/_2/42wyrlld3p52fkcpt1lv6gxh0000gp/T//ccEUijwy.s 			page 21


 1141              	.LFB80:
 1142              		.loc 1 377 0
 1143              		.cfi_startproc
 1144              		@ args = 0, pretend = 0, frame = 0
 1145              		@ frame_needed = 1, uses_anonymous_args = 0
 1146              	.LVL84:
 1147 0000 2DE9F041 		push	{r4, r5, r6, r7, r8, lr}
 1148              	.LCFI61:
 1149              		.cfi_def_cfa_offset 24
 1150              		.cfi_offset 4, -24
 1151              		.cfi_offset 5, -20
 1152              		.cfi_offset 6, -16
 1153              		.cfi_offset 7, -12
 1154              		.cfi_offset 8, -8
 1155              		.cfi_offset 14, -4
 1156 0004 00EB8108 		add	r8, r0, r1, lsl #2
 1157              		.loc 1 379 0
 1158 0008 D8F84440 		ldr	r4, [r8, #68]
 1159              	.LVL85:
 1160              		.loc 1 377 0
 1161 000c 00AF     		add	r7, sp, #0
 1162              	.LCFI62:
 1163              		.cfi_def_cfa_register 7
 1164              		.loc 1 377 0
 1165 000e 0546     		mov	r5, r0
 1166 0010 0E46     		mov	r6, r1
 1167              		.loc 1 381 0
 1168 0012 34B3     		cbz	r4, .L46
 1169              	.LBB15:
 1170              		.loc 1 384 0
 1171 0014 2023     		movs	r3, #32
 1172              		.syntax unified
 1173              	@ 384 "chibios/os/hal/src/serial_usb.c" 1
 1174 0016 83F31188 		msr     BASEPRI, r3
 1175              	@ 0 "" 2
 1176              		.thumb
 1177              		.syntax unified
 1178              	.LBE15:
 1179              		.loc 1 385 0
 1180 001a 0421     		movs	r1, #4
 1181              	.LVL86:
 1182 001c 6018     		adds	r0, r4, r1
 1183              	.LVL87:
 1184 001e FFF7FEFF 		bl	chEvtBroadcastFlagsI
 1185              	.LVL88:
 1186              		.loc 1 389 0
 1187 0022 D8F80C30 		ldr	r3, [r8, #12]
 1188              		.loc 1 390 0
 1189 0026 A169     		ldr	r1, [r4, #24]
 1190              		.loc 1 389 0
 1191 0028 5A8A     		ldrh	r2, [r3, #18]
 1192              	.LVL89:
 1193              		.loc 1 390 0
 1194 002a E369     		ldr	r3, [r4, #28]
 1195 002c 5B1A     		subs	r3, r3, r1
 1196 002e 6169     		ldr	r1, [r4, #20]
 1197 0030 591A     		subs	r1, r3, r1
ARM GAS  /var/folders/_2/42wyrlld3p52fkcpt1lv6gxh0000gp/T//ccEUijwy.s 			page 22


 1198              	.LVL90:
 1199 0032 8A42     		cmp	r2, r1
 1200 0034 12D8     		bhi	.L48
 1201              	.LBB16:
 1202              		.loc 1 393 0
 1203 0036 0023     		movs	r3, #0
 1204              		.syntax unified
 1205              	@ 393 "chibios/os/hal/src/serial_usb.c" 1
 1206 0038 83F31188 		msr     BASEPRI, r3
 1207              	@ 0 "" 2
 1208              		.thumb
 1209              		.syntax unified
 1210              	.LBE16:
 1211              		.loc 1 395 0
 1212 003c B1FBF2F3 		udiv	r3, r1, r2
 1213              	.LVL91:
 1214              		.loc 1 396 0
 1215 0040 2846     		mov	r0, r5
 1216 0042 5343     		muls	r3, r2, r3
 1217              	.LVL92:
 1218 0044 3146     		mov	r1, r6
 1219 0046 04F10C02 		add	r2, r4, #12
 1220              	.LVL93:
 1221 004a FFF7FEFF 		bl	usbPrepareQueuedReceive
 1222              	.LVL94:
 1223              	.LBB17:
 1224              		.loc 1 398 0
 1225 004e 2023     		movs	r3, #32
 1226              		.syntax unified
 1227              	@ 398 "chibios/os/hal/src/serial_usb.c" 1
 1228 0050 83F31188 		msr     BASEPRI, r3
 1229              	@ 0 "" 2
 1230              		.thumb
 1231              		.syntax unified
 1232              	.LBE17:
 1233              		.loc 1 399 0
 1234 0054 3146     		mov	r1, r6
 1235 0056 2846     		mov	r0, r5
 1236 0058 FFF7FEFF 		bl	usbStartReceiveI
 1237              	.LVL95:
 1238              	.L48:
 1239              	.LBB18:
 1240              		.loc 1 402 0
 1241 005c 0023     		movs	r3, #0
 1242              		.syntax unified
 1243              	@ 402 "chibios/os/hal/src/serial_usb.c" 1
 1244 005e 83F31188 		msr     BASEPRI, r3
 1245              	@ 0 "" 2
 1246              		.thumb
 1247              		.syntax unified
 1248              	.L46:
 1249 0062 BDE8F081 		pop	{r4, r5, r6, r7, r8, pc}
 1250              	.LBE18:
 1251              		.cfi_endproc
 1252              	.LFE80:
 1253              		.size	sduDataReceived, .-sduDataReceived
 1254              		.section	.text.sduInterruptTransmitted,"ax",%progbits
ARM GAS  /var/folders/_2/42wyrlld3p52fkcpt1lv6gxh0000gp/T//ccEUijwy.s 			page 23


 1255              		.align	1
 1256              		.global	sduInterruptTransmitted
 1257              		.thumb
 1258              		.thumb_func
 1259              		.type	sduInterruptTransmitted, %function
 1260              	sduInterruptTransmitted:
 1261              	.LFB81:
 1262              		.loc 1 413 0
 1263              		.cfi_startproc
 1264              		@ args = 0, pretend = 0, frame = 0
 1265              		@ frame_needed = 1, uses_anonymous_args = 0
 1266              	.LVL96:
 1267 0000 80B5     		push	{r7, lr}
 1268              	.LCFI63:
 1269              		.cfi_def_cfa_offset 8
 1270              		.cfi_offset 7, -8
 1271              		.cfi_offset 14, -4
 1272 0002 00AF     		add	r7, sp, #0
 1273              	.LCFI64:
 1274              		.cfi_def_cfa_register 7
 1275 0004 80BD     		pop	{r7, pc}
 1276              		.cfi_endproc
 1277              	.LFE81:
 1278              		.size	sduInterruptTransmitted, .-sduInterruptTransmitted
 1279              		.section	.rodata.vmt,"a",%progbits
 1280              		.align	2
 1281              		.set	.LANCHOR0,. + 0
 1282              		.type	vmt, %object
 1283              		.size	vmt, 32
 1284              	vmt:
 1285 0000 00000000 		.word	write
 1286 0004 00000000 		.word	read
 1287 0008 00000000 		.word	put
 1288 000c 00000000 		.word	get
 1289 0010 00000000 		.word	putt
 1290 0014 00000000 		.word	gett
 1291 0018 00000000 		.word	writet
 1292 001c 00000000 		.word	readt
 1293              		.section	.data.linecoding,"aw",%progbits
 1294              		.set	.LANCHOR1,. + 0
 1295              		.type	linecoding, %object
 1296              		.size	linecoding, 7
 1297              	linecoding:
 1298 0000 00       		.byte	0
 1299 0001 96       		.byte	-106
 1300 0002 00       		.byte	0
 1301 0003 00       		.byte	0
 1302 0004 00       		.byte	0
 1303 0005 00       		.byte	0
 1304 0006 08       		.byte	8
 1305              		.text
 1306              	.Letext0:
 1307              		.file 2 "/Users/ARS/Applications/Eclipse.app/Contents/gcc-arm-none-eabi-5_3-2016q1/lib/gcc/arm-non
 1308              		.file 3 "/Users/ARS/Applications/Eclipse.app/Contents/gcc-arm-none-eabi-5_3-2016q1/arm-none-eabi/i
 1309              		.file 4 "/Users/ARS/Applications/Eclipse.app/Contents/gcc-arm-none-eabi-5_3-2016q1/arm-none-eabi/i
 1310              		.file 5 "chibios/os/ports/GCC/ARMCMx/chtypes.h"
 1311              		.file 6 "chibios/os/kernel/include/chlists.h"
ARM GAS  /var/folders/_2/42wyrlld3p52fkcpt1lv6gxh0000gp/T//ccEUijwy.s 			page 24


 1312              		.file 7 "chibios/os/kernel/include/chthreads.h"
 1313              		.file 8 "chibios/os/ports/GCC/ARMCMx/chcore_v7m.h"
 1314              		.file 9 "chibios/os/kernel/include/chmtx.h"
 1315              		.file 10 "chibios/os/kernel/include/chevents.h"
 1316              		.file 11 "chibios/os/kernel/include/chqueues.h"
 1317              		.file 12 "chibios/os/hal/include/usb.h"
 1318              		.file 13 "chibios/os/hal/platforms/STM32/USBv1/usb_lld.h"
 1319              		.file 14 "chibios/os/hal/include/serial_usb.h"
 1320              		.file 15 "chibios/os/kernel/include/chschd.h"
 1321              		.file 16 "chibios/os/ports/common/ARMCMx/CMSIS/include/core_cm3.h"