ARM GAS  /var/folders/_2/42wyrlld3p52fkcpt1lv6gxh0000gp/T//cc5dhkeM.s 			page 1


   1              		.syntax unified
   2              		.cpu cortex-m3
   3              		.fpu softvfp
   4              		.eabi_attribute 20, 1
   5              		.eabi_attribute 21, 1
   6              		.eabi_attribute 23, 3
   7              		.eabi_attribute 24, 1
   8              		.eabi_attribute 25, 1
   9              		.eabi_attribute 26, 1
  10              		.eabi_attribute 30, 4
  11              		.eabi_attribute 34, 1
  12              		.eabi_attribute 18, 4
  13              		.thumb
  14              		.syntax unified
  15              		.file	"shell_commands.c"
  16              		.text
  17              	.Ltext0:
  18              		.cfi_sections	.debug_frame
  19              		.section	.text.cmd_reboot,"ax",%progbits
  20              		.align	1
  21              		.thumb
  22              		.thumb_func
  23              		.type	cmd_reboot, %function
  24              	cmd_reboot:
  25              	.LFB81:
  26              		.file 1 "src/shell_commands.c"
  27              		.loc 1 65 0
  28              		.cfi_startproc
  29              		@ args = 0, pretend = 0, frame = 0
  30              		@ frame_needed = 1, uses_anonymous_args = 0
  31              	.LVL0:
  32 0000 80B5     		push	{r7, lr}
  33              	.LCFI0:
  34              		.cfi_def_cfa_offset 8
  35              		.cfi_offset 7, -8
  36              		.cfi_offset 14, -4
  37              		.loc 1 66 0
  38 0002 024A     		ldr	r2, .L2
  39              	.LVL1:
  40 0004 024B     		ldr	r3, .L2+4
  41              		.loc 1 65 0
  42 0006 00AF     		add	r7, sp, #0
  43              	.LCFI1:
  44              		.cfi_def_cfa_register 7
  45              		.loc 1 66 0
  46 0008 DA60     		str	r2, [r3, #12]
  47 000a 80BD     		pop	{r7, pc}
  48              	.L3:
  49              		.align	2
  50              	.L2:
  51 000c 0400FA05 		.word	100270084
  52 0010 00ED00E0 		.word	-536810240
  53              		.cfi_endproc
  54              	.LFE81:
  55              		.size	cmd_reboot, .-cmd_reboot
  56              		.section	.text.cmd_data,"ax",%progbits
  57              		.align	1
ARM GAS  /var/folders/_2/42wyrlld3p52fkcpt1lv6gxh0000gp/T//cc5dhkeM.s 			page 2


  58              		.thumb
  59              		.thumb_func
  60              		.type	cmd_data, %function
  61              	cmd_data:
  62              	.LFB88:
  63              		.loc 1 125 0
  64              		.cfi_startproc
  65              		@ args = 0, pretend = 0, frame = 0
  66              		@ frame_needed = 1, uses_anonymous_args = 0
  67              		@ link register save eliminated.
  68              	.LVL2:
  69 0000 80B4     		push	{r7}
  70              	.LCFI2:
  71              		.cfi_def_cfa_offset 4
  72              		.cfi_offset 7, -4
  73 0002 00AF     		add	r7, sp, #0
  74              	.LCFI3:
  75              		.cfi_def_cfa_register 7
  76              		.loc 1 127 0
  77 0004 BD46     		mov	sp, r7
  78              	.LCFI4:
  79              		.cfi_def_cfa_register 13
  80              		@ sp needed
  81 0006 80BC     		pop	{r7}
  82              	.LCFI5:
  83              		.cfi_restore 7
  84              		.cfi_def_cfa_offset 0
  85              		.loc 1 126 0
  86 0008 FFF7FEBF 		b	display_export_csv
  87              	.LVL3:
  88              		.cfi_endproc
  89              	.LFE88:
  90              		.size	cmd_data, .-cmd_data
  91              		.section	.text.cmd_battery,"ax",%progbits
  92              		.align	1
  93              		.thumb
  94              		.thumb_func
  95              		.type	cmd_battery, %function
  96              	cmd_battery:
  97              	.LFB87:
  98              		.loc 1 119 0
  99              		.cfi_startproc
 100              		@ args = 0, pretend = 0, frame = 0
 101              		@ frame_needed = 1, uses_anonymous_args = 0
 102              	.LVL4:
 103 0000 B0B5     		push	{r4, r5, r7, lr}
 104              	.LCFI6:
 105              		.cfi_def_cfa_offset 16
 106              		.cfi_offset 4, -16
 107              		.cfi_offset 5, -12
 108              		.cfi_offset 7, -8
 109              		.cfi_offset 14, -4
 110 0002 00AF     		add	r7, sp, #0
 111              	.LCFI7:
 112              		.cfi_def_cfa_register 7
 113              		.loc 1 119 0
 114 0004 0446     		mov	r4, r0
ARM GAS  /var/folders/_2/42wyrlld3p52fkcpt1lv6gxh0000gp/T//cc5dhkeM.s 			page 3


 115              		.loc 1 120 0
 116 0006 FFF7FEFF 		bl	battery_vcc_voltage
 117              	.LVL5:
 118 000a 0546     		mov	r5, r0
 119              		.loc 1 121 0
 120 000c FFF7FEFF 		bl	battery_low
 121              	.LVL6:
 122              		.loc 1 120 0
 123 0010 2A46     		mov	r2, r5
 124 0012 0346     		mov	r3, r0
 125 0014 2046     		mov	r0, r4
 126 0016 0349     		ldr	r1, .L6
 127              		.loc 1 122 0
 128 0018 BD46     		mov	sp, r7
 129              	.LCFI8:
 130              		.cfi_def_cfa_register 13
 131              		@ sp needed
 132 001a BDE8B040 		pop	{r4, r5, r7, lr}
 133              	.LCFI9:
 134              		.cfi_restore 14
 135              		.cfi_restore 7
 136              		.cfi_restore 5
 137              		.cfi_restore 4
 138              		.cfi_def_cfa_offset 0
 139              	.LVL7:
 140              		.loc 1 120 0
 141 001e FFF7FEBF 		b	chprintf
 142              	.LVL8:
 143              	.L7:
 144 0022 00BF     		.align	2
 145              	.L6:
 146 0024 00000000 		.word	.LC0
 147              		.cfi_endproc
 148              	.LFE87:
 149              		.size	cmd_battery, .-cmd_battery
 150              		.section	.text.cmd_temperature,"ax",%progbits
 151              		.align	1
 152              		.thumb
 153              		.thumb_func
 154              		.type	cmd_temperature, %function
 155              	cmd_temperature:
 156              	.LFB86:
 157              		.loc 1 103 0
 158              		.cfi_startproc
 159              		@ args = 0, pretend = 0, frame = 16
 160              		@ frame_needed = 1, uses_anonymous_args = 0
 161              	.LVL9:
 162 0000 B0B5     		push	{r4, r5, r7, lr}
 163              	.LCFI10:
 164              		.cfi_def_cfa_offset 16
 165              		.cfi_offset 4, -16
 166              		.cfi_offset 5, -12
 167              		.cfi_offset 7, -8
 168              		.cfi_offset 14, -4
 169 0002 86B0     		sub	sp, sp, #24
 170              	.LCFI11:
 171              		.cfi_def_cfa_offset 40
ARM GAS  /var/folders/_2/42wyrlld3p52fkcpt1lv6gxh0000gp/T//cc5dhkeM.s 			page 4


 172 0004 02AF     		add	r7, sp, #8
 173              	.LCFI12:
 174              		.cfi_def_cfa 7, 32
 175              		.loc 1 103 0
 176 0006 0446     		mov	r4, r0
 177              		.loc 1 108 0
 178 0008 FA1D     		adds	r2, r7, #7
 179              	.LVL10:
 180 000a 07F10C01 		add	r1, r7, #12
 181              	.LVL11:
 182 000e 07F10800 		add	r0, r7, #8
 183              	.LVL12:
 184 0012 FFF7FEFF 		bl	sensor_get_temperature
 185              	.LVL13:
 186 0016 60B1     		cbz	r0, .L9
 187              	.LBB2:
 188              		.loc 1 110 0
 189 0018 BD68     		ldr	r5, [r7, #8]
 190 001a FFF7FEFF 		bl	rtc_get
 191              	.LVL14:
 192 001e FB79     		ldrb	r3, [r7, #7]	@ zero_extendqisi2
 193 0020 2A46     		mov	r2, r5
 194 0022 0093     		str	r3, [sp]
 195 0024 FB68     		ldr	r3, [r7, #12]
 196 0026 0649     		ldr	r1, .L12
 197 0028 C31A     		subs	r3, r0, r3
 198 002a 2046     		mov	r0, r4
 199 002c FFF7FEFF 		bl	chprintf
 200              	.LVL15:
 201              	.LBE2:
 202 0030 03E0     		b	.L8
 203              	.L9:
 204              		.loc 1 114 0
 205 0032 0449     		ldr	r1, .L12+4
 206 0034 2046     		mov	r0, r4
 207 0036 FFF7FEFF 		bl	chprintf
 208              	.LVL16:
 209              	.L8:
 210              		.loc 1 116 0
 211 003a 1037     		adds	r7, r7, #16
 212              	.LCFI13:
 213              		.cfi_def_cfa_offset 16
 214 003c BD46     		mov	sp, r7
 215              	.LCFI14:
 216              		.cfi_def_cfa_register 13
 217              		@ sp needed
 218 003e B0BD     		pop	{r4, r5, r7, pc}
 219              	.LVL17:
 220              	.L13:
 221              		.align	2
 222              	.L12:
 223 0040 1F000000 		.word	.LC1
 224 0044 3D000000 		.word	.LC2
 225              		.cfi_endproc
 226              	.LFE86:
 227              		.size	cmd_temperature, .-cmd_temperature
 228              		.section	.text.cmd_ntc,"ax",%progbits
ARM GAS  /var/folders/_2/42wyrlld3p52fkcpt1lv6gxh0000gp/T//cc5dhkeM.s 			page 5


 229              		.align	1
 230              		.thumb
 231              		.thumb_func
 232              		.type	cmd_ntc, %function
 233              	cmd_ntc:
 234              	.LFB85:
 235              		.loc 1 98 0
 236              		.cfi_startproc
 237              		@ args = 0, pretend = 0, frame = 0
 238              		@ frame_needed = 1, uses_anonymous_args = 0
 239              	.LVL18:
 240 0000 98B5     		push	{r3, r4, r7, lr}
 241              	.LCFI15:
 242              		.cfi_def_cfa_offset 16
 243              		.cfi_offset 3, -16
 244              		.cfi_offset 4, -12
 245              		.cfi_offset 7, -8
 246              		.cfi_offset 14, -4
 247 0002 00AF     		add	r7, sp, #0
 248              	.LCFI16:
 249              		.cfi_def_cfa_register 7
 250              		.loc 1 98 0
 251 0004 0446     		mov	r4, r0
 252              		.loc 1 99 0
 253 0006 FFF7FEFF 		bl	ntc_read
 254              	.LVL19:
 255 000a 0246     		mov	r2, r0
 256 000c 2046     		mov	r0, r4
 257 000e 0349     		ldr	r1, .L15
 258              		.loc 1 100 0
 259 0010 BD46     		mov	sp, r7
 260              	.LCFI17:
 261              		.cfi_def_cfa_register 13
 262              		@ sp needed
 263 0012 BDE89840 		pop	{r3, r4, r7, lr}
 264              	.LCFI18:
 265              		.cfi_restore 14
 266              		.cfi_restore 7
 267              		.cfi_restore 4
 268              		.cfi_restore 3
 269              		.cfi_def_cfa_offset 0
 270              	.LVL20:
 271              		.loc 1 99 0
 272 0016 FFF7FEBF 		b	chprintf
 273              	.LVL21:
 274              	.L16:
 275 001a 00BF     		.align	2
 276              	.L15:
 277 001c 46000000 		.word	.LC3
 278              		.cfi_endproc
 279              	.LFE85:
 280              		.size	cmd_ntc, .-cmd_ntc
 281              		.section	.text.beep_cb,"ax",%progbits
 282              		.align	1
 283              		.thumb
 284              		.thumb_func
 285              		.type	beep_cb, %function
ARM GAS  /var/folders/_2/42wyrlld3p52fkcpt1lv6gxh0000gp/T//cc5dhkeM.s 			page 6


 286              	beep_cb:
 287              	.LFB83:
 288              		.loc 1 80 0
 289              		.cfi_startproc
 290              		@ args = 0, pretend = 0, frame = 0
 291              		@ frame_needed = 1, uses_anonymous_args = 0
 292 0000 80B5     		push	{r7, lr}
 293              	.LCFI19:
 294              		.cfi_def_cfa_offset 8
 295              		.cfi_offset 7, -8
 296              		.cfi_offset 14, -4
 297 0002 00AF     		add	r7, sp, #0
 298              	.LCFI20:
 299              		.cfi_def_cfa_register 7
 300              		.loc 1 81 0
 301 0004 FFF7FEFF 		bl	buttons_read_buffer
 302              	.LVL22:
 303              		.loc 1 82 0
 304 0008 B0FA80F0 		clz	r0, r0
 305 000c 4009     		lsrs	r0, r0, #5
 306 000e 80BD     		pop	{r7, pc}
 307              		.cfi_endproc
 308              	.LFE83:
 309              		.size	beep_cb, .-beep_cb
 310              		.section	.text.cmd_buttons,"ax",%progbits
 311              		.align	1
 312              		.thumb
 313              		.thumb_func
 314              		.type	cmd_buttons, %function
 315              	cmd_buttons:
 316              	.LFB82:
 317              		.loc 1 70 0
 318              		.cfi_startproc
 319              		@ args = 0, pretend = 0, frame = 0
 320              		@ frame_needed = 1, uses_anonymous_args = 0
 321              	.LVL23:
 322 0000 B0B5     		push	{r4, r5, r7, lr}
 323              	.LCFI21:
 324              		.cfi_def_cfa_offset 16
 325              		.cfi_offset 4, -16
 326              		.cfi_offset 5, -12
 327              		.cfi_offset 7, -8
 328              		.cfi_offset 14, -4
 329 0002 0546     		mov	r5, r0
 330 0004 00AF     		add	r7, sp, #0
 331              	.LCFI22:
 332              		.cfi_def_cfa_register 7
 333              	.LVL24:
 334              	.L19:
 335              		.loc 1 74 0 discriminator 1
 336 0006 FFF7FEFF 		bl	buttons_read_buffer
 337              	.LVL25:
 338 000a 0446     		mov	r4, r0
 339              	.LVL26:
 340              		.loc 1 75 0 discriminator 1
 341 000c 0246     		mov	r2, r0
 342 000e 0349     		ldr	r1, .L21
ARM GAS  /var/folders/_2/42wyrlld3p52fkcpt1lv6gxh0000gp/T//cc5dhkeM.s 			page 7


 343 0010 2846     		mov	r0, r5
 344              	.LVL27:
 345 0012 FFF7FEFF 		bl	chprintf
 346              	.LVL28:
 347              		.loc 1 76 0 discriminator 1
 348 0016 002C     		cmp	r4, #0
 349 0018 F5D1     		bne	.L19
 350              		.loc 1 77 0
 351 001a B0BD     		pop	{r4, r5, r7, pc}
 352              	.LVL29:
 353              	.L22:
 354              		.align	2
 355              	.L21:
 356 001c 4D000000 		.word	.LC4
 357              		.cfi_endproc
 358              	.LFE82:
 359              		.size	cmd_buttons, .-cmd_buttons
 360              		.section	.text.cmd_threads,"ax",%progbits
 361              		.align	1
 362              		.thumb
 363              		.thumb_func
 364              		.type	cmd_threads, %function
 365              	cmd_threads:
 366              	.LFB80:
 367              		.loc 1 45 0
 368              		.cfi_startproc
 369              		@ args = 0, pretend = 0, frame = 0
 370              		@ frame_needed = 1, uses_anonymous_args = 0
 371              	.LVL30:
 372 0000 2DE9F04F 		push	{r4, r5, r6, r7, r8, r9, r10, fp, lr}
 373              	.LCFI23:
 374              		.cfi_def_cfa_offset 36
 375              		.cfi_offset 4, -36
 376              		.cfi_offset 5, -32
 377              		.cfi_offset 6, -28
 378              		.cfi_offset 7, -24
 379              		.cfi_offset 8, -20
 380              		.cfi_offset 9, -16
 381              		.cfi_offset 10, -12
 382              		.cfi_offset 11, -8
 383              		.cfi_offset 14, -4
 384 0004 87B0     		sub	sp, sp, #28
 385              	.LCFI24:
 386              		.cfi_def_cfa_offset 64
 387              		.loc 1 49 0
 388 0006 1F49     		ldr	r1, .L31
 389              	.LVL31:
 390              		.loc 1 45 0
 391 0008 06AF     		add	r7, sp, #24
 392              	.LCFI25:
 393              		.cfi_def_cfa 7, 40
 394              		.loc 1 45 0
 395 000a 0546     		mov	r5, r0
 396              		.loc 1 49 0
 397 000c FFF7FEFF 		bl	chprintf
 398              	.LVL32:
 399              		.loc 1 50 0
ARM GAS  /var/folders/_2/42wyrlld3p52fkcpt1lv6gxh0000gp/T//cc5dhkeM.s 			page 8


 400 0010 FFF7FEFF 		bl	chRegFirstThread
 401              	.LVL33:
 402 0014 0446     		mov	r4, r0
 403              	.LVL34:
 404              	.LBB6:
 405              	.LBB7:
 406              	.LBB8:
 407              		.loc 1 31 0
 408 0016 DFF87080 		ldr	r8, .L31+4
 409              		.loc 1 32 0
 410 001a DFF87490 		ldr	r9, .L31+12
 411              	.LBE8:
 412              	.LBE7:
 413              		.loc 1 55 0
 414 001e DFF874B0 		ldr	fp, .L31+16
 415              	.L27:
 416              	.LVL35:
 417              	.LBB10:
 418              	.LBB9:
 419              		.loc 1 29 0 discriminator 1
 420 0022 E168     		ldr	r1, [r4, #12]
 421              	.LVL36:
 422              		.loc 1 31 0 discriminator 1
 423 0024 184A     		ldr	r2, .L31+4
 424 0026 4145     		cmp	r1, r8
 425 0028 01D3     		bcc	.L24
 426              		.loc 1 32 0
 427 002a 4945     		cmp	r1, r9
 428 002c 01D9     		bls	.L25
 429              	.L24:
 430              		.loc 1 35 0
 431 002e 04F13C02 		add	r2, r4, #60
 432              	.LVL37:
 433              	.L25:
 434              		.loc 1 40 0
 435 0032 1346     		mov	r3, r2
 436 0034 1068     		ldr	r0, [r2]
 437              	.LVL38:
 438              		.loc 1 37 0
 439 0036 C2EB010E 		rsb	lr, r2, r1
 440              	.LVL39:
 441              	.L26:
 442              		.loc 1 41 0
 443 003a 1E68     		ldr	r6, [r3]
 444 003c 03F1040A 		add	r10, r3, #4
 445 0040 B042     		cmp	r0, r6
 446 0042 01D1     		bne	.L30
 447 0044 5346     		mov	r3, r10
 448              	.LVL40:
 449 0046 F8E7     		b	.L26
 450              	.LVL41:
 451              	.L30:
 452              	.LBE9:
 453              	.LBE10:
 454              		.loc 1 58 0
 455 0048 606A     		ldr	r0, [r4, #36]
 456              		.loc 1 55 0
ARM GAS  /var/folders/_2/42wyrlld3p52fkcpt1lv6gxh0000gp/T//cc5dhkeM.s 			page 9


 457 004a 9B1A     		subs	r3, r3, r2
 458              	.LVL42:
 459 004c CDF810E0 		str	lr, [sp, #16]
 460 0050 0390     		str	r0, [sp, #12]
 461 0052 0593     		str	r3, [sp, #20]
 462 0054 94F82030 		ldrb	r3, [r4, #32]	@ zero_extendqisi2
 463              	.LVL43:
 464 0058 2846     		mov	r0, r5
 465 005a 5BF82330 		ldr	r3, [fp, r3, lsl #2]
 466 005e 0293     		str	r3, [sp, #8]
 467 0060 A368     		ldr	r3, [r4, #8]
 468 0062 8DE80A00 		stmia	sp, {r1, r3}
 469 0066 2346     		mov	r3, r4
 470 0068 A269     		ldr	r2, [r4, #24]
 471 006a 0849     		ldr	r1, .L31+8
 472 006c FFF7FEFF 		bl	chprintf
 473              	.LVL44:
 474              		.loc 1 60 0
 475 0070 2046     		mov	r0, r4
 476 0072 FFF7FEFF 		bl	chRegNextThread
 477              	.LVL45:
 478              	.LBE6:
 479              		.loc 1 61 0
 480 0076 0446     		mov	r4, r0
 481 0078 0028     		cmp	r0, #0
 482 007a D2D1     		bne	.L27
 483              		.loc 1 62 0
 484 007c 0437     		adds	r7, r7, #4
 485              	.LCFI26:
 486              		.cfi_def_cfa_offset 36
 487 007e BD46     		mov	sp, r7
 488              	.LCFI27:
 489              		.cfi_def_cfa_register 13
 490              		@ sp needed
 491 0080 BDE8F08F 		pop	{r4, r5, r6, r7, r8, r9, r10, fp, pc}
 492              	.LVL46:
 493              	.L32:
 494              		.align	2
 495              	.L31:
 496 0084 5B000000 		.word	.LC5
 497 0088 00000000 		.word	__main_thread_stack_base__
 498 008c A4000000 		.word	.LC6
 499 0090 00000000 		.word	__main_thread_stack_end__
 500 0094 00000000 		.word	.LANCHOR0
 501              		.cfi_endproc
 502              	.LFE80:
 503              		.size	cmd_threads, .-cmd_threads
 504              		.section	.text.cmd_mem,"ax",%progbits
 505              		.align	1
 506              		.thumb
 507              		.thumb_func
 508              		.type	cmd_mem, %function
 509              	cmd_mem:
 510              	.LFB78:
 511              		.loc 1 17 0
 512              		.cfi_startproc
 513              		@ args = 0, pretend = 0, frame = 8
ARM GAS  /var/folders/_2/42wyrlld3p52fkcpt1lv6gxh0000gp/T//cc5dhkeM.s 			page 10


 514              		@ frame_needed = 1, uses_anonymous_args = 0
 515              	.LVL47:
 516 0000 B0B5     		push	{r4, r5, r7, lr}
 517              	.LCFI28:
 518              		.cfi_def_cfa_offset 16
 519              		.cfi_offset 4, -16
 520              		.cfi_offset 5, -12
 521              		.cfi_offset 7, -8
 522              		.cfi_offset 14, -4
 523 0002 82B0     		sub	sp, sp, #8
 524              	.LCFI29:
 525              		.cfi_def_cfa_offset 24
 526 0004 00AF     		add	r7, sp, #0
 527              	.LCFI30:
 528              		.cfi_def_cfa_register 7
 529              		.loc 1 17 0
 530 0006 0446     		mov	r4, r0
 531              		.loc 1 20 0
 532 0008 391D     		adds	r1, r7, #4
 533              	.LVL48:
 534 000a 0020     		movs	r0, #0
 535              	.LVL49:
 536 000c FFF7FEFF 		bl	chHeapStatus
 537              	.LVL50:
 538 0010 0546     		mov	r5, r0
 539              	.LVL51:
 540              		.loc 1 21 0
 541 0012 FFF7FEFF 		bl	chCoreStatus
 542              	.LVL52:
 543 0016 0949     		ldr	r1, .L34
 544 0018 0246     		mov	r2, r0
 545 001a 2046     		mov	r0, r4
 546 001c FFF7FEFF 		bl	chprintf
 547              	.LVL53:
 548              		.loc 1 22 0
 549 0020 2A46     		mov	r2, r5
 550 0022 2046     		mov	r0, r4
 551 0024 0649     		ldr	r1, .L34+4
 552 0026 FFF7FEFF 		bl	chprintf
 553              	.LVL54:
 554              		.loc 1 23 0
 555 002a 7A68     		ldr	r2, [r7, #4]
 556 002c 0549     		ldr	r1, .L34+8
 557 002e 2046     		mov	r0, r4
 558 0030 FFF7FEFF 		bl	chprintf
 559              	.LVL55:
 560              		.loc 1 24 0
 561 0034 0837     		adds	r7, r7, #8
 562              	.LCFI31:
 563              		.cfi_def_cfa_offset 16
 564 0036 BD46     		mov	sp, r7
 565              	.LCFI32:
 566              		.cfi_def_cfa_register 13
 567              		@ sp needed
 568 0038 B0BD     		pop	{r4, r5, r7, pc}
 569              	.LVL56:
 570              	.L35:
ARM GAS  /var/folders/_2/42wyrlld3p52fkcpt1lv6gxh0000gp/T//cc5dhkeM.s 			page 11


 571 003a 00BF     		.align	2
 572              	.L34:
 573 003c CC000000 		.word	.LC7
 574 0040 EA000000 		.word	.LC8
 575 0044 02010000 		.word	.LC9
 576              		.cfi_endproc
 577              	.LFE78:
 578              		.size	cmd_mem, .-cmd_mem
 579              		.section	.text.cmd_beep,"ax",%progbits
 580              		.align	1
 581              		.thumb
 582              		.thumb_func
 583              		.type	cmd_beep, %function
 584              	cmd_beep:
 585              	.LFB84:
 586              		.loc 1 85 0
 587              		.cfi_startproc
 588              		@ args = 0, pretend = 0, frame = 0
 589              		@ frame_needed = 1, uses_anonymous_args = 0
 590              	.LVL57:
 591 0000 2DE9F041 		push	{r4, r5, r6, r7, r8, lr}
 592              	.LCFI33:
 593              		.cfi_def_cfa_offset 24
 594              		.cfi_offset 4, -24
 595              		.cfi_offset 5, -20
 596              		.cfi_offset 6, -16
 597              		.cfi_offset 7, -12
 598              		.cfi_offset 8, -8
 599              		.cfi_offset 14, -4
 600              		.loc 1 86 0
 601 0004 0229     		cmp	r1, #2
 602              		.loc 1 85 0
 603 0006 00AF     		add	r7, sp, #0
 604              	.LCFI34:
 605              		.cfi_def_cfa_register 7
 606              		.loc 1 85 0
 607 0008 1446     		mov	r4, r2
 608              		.loc 1 86 0
 609 000a 08DC     		bgt	.L37
 610              	.LVL58:
 611              	.LBB13:
 612              	.LBB14:
 613              		.loc 1 88 0
 614 000c 0E49     		ldr	r1, .L38
 615              	.LVL59:
 616 000e FFF7FEFF 		bl	chprintf
 617              	.LVL60:
 618              		.loc 1 90 0
 619 0012 0E48     		ldr	r0, .L38+4
 620              	.LBE14:
 621              	.LBE13:
 622              		.loc 1 95 0
 623 0014 BD46     		mov	sp, r7
 624              	.LCFI35:
 625              		.cfi_remember_state
 626              		.cfi_def_cfa_register 13
 627              		@ sp needed
ARM GAS  /var/folders/_2/42wyrlld3p52fkcpt1lv6gxh0000gp/T//cc5dhkeM.s 			page 12


 628 0016 BDE8F041 		pop	{r4, r5, r6, r7, r8, lr}
 629              	.LCFI36:
 630              		.cfi_restore 14
 631              		.cfi_restore 8
 632              		.cfi_restore 7
 633              		.cfi_restore 6
 634              		.cfi_restore 5
 635              		.cfi_restore 4
 636              		.cfi_def_cfa_offset 0
 637              	.LVL61:
 638              	.LBB16:
 639              	.LBB15:
 640              		.loc 1 90 0
 641 001a FFF7FEBF 		b	beeper_midi
 642              	.LVL62:
 643              	.L37:
 644              	.LCFI37:
 645              		.cfi_restore_state
 646              	.LBE15:
 647              	.LBE16:
 648              		.loc 1 94 0
 649 001e 1068     		ldr	r0, [r2]
 650              	.LVL63:
 651 0020 FFF7FEFF 		bl	atoi
 652              	.LVL64:
 653 0024 0546     		mov	r5, r0
 654 0026 6068     		ldr	r0, [r4, #4]
 655 0028 FFF7FEFF 		bl	atoi
 656              	.LVL65:
 657 002c 0646     		mov	r6, r0
 658 002e A068     		ldr	r0, [r4, #8]
 659 0030 FFF7FEFF 		bl	atoi
 660              	.LVL66:
 661 0034 3146     		mov	r1, r6
 662 0036 0246     		mov	r2, r0
 663 0038 2846     		mov	r0, r5
 664 003a 6423     		movs	r3, #100
 665              		.loc 1 95 0
 666 003c BD46     		mov	sp, r7
 667              	.LCFI38:
 668              		.cfi_def_cfa_register 13
 669              		@ sp needed
 670 003e BDE8F041 		pop	{r4, r5, r6, r7, r8, lr}
 671              	.LCFI39:
 672              		.cfi_restore 14
 673              		.cfi_restore 8
 674              		.cfi_restore 7
 675              		.cfi_restore 6
 676              		.cfi_restore 5
 677              		.cfi_restore 4
 678              		.cfi_def_cfa_offset 0
 679              	.LVL67:
 680              		.loc 1 94 0
 681 0042 FFF7FEBF 		b	beeper_bling
 682              	.LVL68:
 683              	.L39:
 684 0046 00BF     		.align	2
ARM GAS  /var/folders/_2/42wyrlld3p52fkcpt1lv6gxh0000gp/T//cc5dhkeM.s 			page 13


 685              	.L38:
 686 0048 20010000 		.word	.LC10
 687 004c 00000000 		.word	beep_cb
 688              		.cfi_endproc
 689              	.LFE84:
 690              		.size	cmd_beep, .-cmd_beep
 691              		.global	shell_commands
 692              		.section	.rodata.str1.1,"aMS",%progbits,1
 693              	.LC0:
 694 0000 56636320 		.ascii	"Vcc = %d mV, battery_low = %d\012\000"
 694      3D202564 
 694      206D562C 
 694      20626174 
 694      74657279 
 695              	.LC1:
 696 001f 2564206D 		.ascii	"%d mC, %d s ago, wireless=%d\012\000"
 696      432C2025 
 696      64207320 
 696      61676F2C 
 696      20776972 
 697              	.LC2:
 698 003d 6E6F2064 		.ascii	"no data\012\000"
 698      6174610A 
 698      00
 699              	.LC3:
 700 0046 2564206D 		.ascii	"%d mC\012\000"
 700      430A00
 701              	.LC4:
 702 004d 62757474 		.ascii	"buttons = %d\012\000"
 702      6F6E7320 
 702      3D202564 
 702      0A00
 703              	.LC5:
 704 005b 20202020 		.ascii	"             addr    stack prio     state time     "
 704      20202020 
 704      20202020 
 704      20616464 
 704      72202020 
 705 008e 20667265 		.ascii	" free stack now/min\015\012\000"
 705      65207374 
 705      61636B20 
 705      6E6F772F 
 705      6D696E0D 
 706              	.LC6:
 707 00a4 25387320 		.ascii	"%8s %.8lx %.8lx %4lu %9s %8lu %lu/%lu\015\012\000"
 707      252E386C 
 707      7820252E 
 707      386C7820 
 707      25346C75 
 708              	.LC7:
 709 00cc 636F7265 		.ascii	"core free memory : %u bytes\015\012\000"
 709      20667265 
 709      65206D65 
 709      6D6F7279 
 709      203A2025 
 710              	.LC8:
 711 00ea 68656170 		.ascii	"heap fragments   : %u\015\012\000"
ARM GAS  /var/folders/_2/42wyrlld3p52fkcpt1lv6gxh0000gp/T//cc5dhkeM.s 			page 14


 711      20667261 
 711      676D656E 
 711      74732020 
 711      203A2025 
 712              	.LC9:
 713 0102 68656170 		.ascii	"heap free total  : %u bytes\015\012\000"
 713      20667265 
 713      6520746F 
 713      74616C20 
 713      203A2025 
 714              	.LC10:
 715 0120 55736167 		.ascii	"Usage: beep <freq> <decay> <length>\012\000"
 715      653A2062 
 715      65657020 
 715      3C667265 
 715      713E203C 
 716              	.LC11:
 717 0145 52454144 		.ascii	"READY\000"
 717      5900
 718              	.LC12:
 719 014b 43555252 		.ascii	"CURRENT\000"
 719      454E5400 
 720              	.LC13:
 721 0153 53555350 		.ascii	"SUSPENDED\000"
 721      454E4445 
 721      4400
 722              	.LC14:
 723 015d 57545345 		.ascii	"WTSEM\000"
 723      4D00
 724              	.LC15:
 725 0163 57544D54 		.ascii	"WTMTX\000"
 725      5800
 726              	.LC16:
 727 0169 5754434F 		.ascii	"WTCOND\000"
 727      4E4400
 728              	.LC17:
 729 0170 534C4545 		.ascii	"SLEEPING\000"
 729      50494E47 
 729      00
 730              	.LC18:
 731 0179 57544558 		.ascii	"WTEXIT\000"
 731      495400
 732              	.LC19:
 733 0180 57544F52 		.ascii	"WTOREVT\000"
 733      45565400 
 734              	.LC20:
 735 0188 5754414E 		.ascii	"WTANDEVT\000"
 735      44455654 
 735      00
 736              	.LC21:
 737 0191 534E444D 		.ascii	"SNDMSGQ\000"
 737      53475100 
 738              	.LC22:
 739 0199 534E444D 		.ascii	"SNDMSG\000"
 739      534700
 740              	.LC23:
 741 01a0 57544D53 		.ascii	"WTMSG\000"
ARM GAS  /var/folders/_2/42wyrlld3p52fkcpt1lv6gxh0000gp/T//cc5dhkeM.s 			page 15


 741      4700
 742              	.LC24:
 743 01a6 57545155 		.ascii	"WTQUEUE\000"
 743      45554500 
 744              	.LC25:
 745 01ae 46494E41 		.ascii	"FINAL\000"
 745      4C00
 746              	.LC26:
 747 01b4 6D656D00 		.ascii	"mem\000"
 748              	.LC27:
 749 01b8 74687265 		.ascii	"threads\000"
 749      61647300 
 750              	.LC28:
 751 01c0 7265626F 		.ascii	"reboot\000"
 751      6F7400
 752              	.LC29:
 753 01c7 62757474 		.ascii	"buttons\000"
 753      6F6E7300 
 754              	.LC30:
 755 01cf 62656570 		.ascii	"beep\000"
 755      00
 756              	.LC31:
 757 01d4 6E746300 		.ascii	"ntc\000"
 758              	.LC32:
 759 01d8 74656D70 		.ascii	"temperature\000"
 759      65726174 
 759      75726500 
 760              	.LC33:
 761 01e4 62617474 		.ascii	"battery\000"
 761      65727900 
 762              	.LC34:
 763 01ec 64617461 		.ascii	"data\000"
 763      00
 764              		.section	.rodata.shell_commands,"a",%progbits
 765              		.align	2
 766              		.type	shell_commands, %object
 767              		.size	shell_commands, 80
 768              	shell_commands:
 769 0000 B4010000 		.word	.LC26
 770 0004 00000000 		.word	cmd_mem
 771 0008 B8010000 		.word	.LC27
 772 000c 00000000 		.word	cmd_threads
 773 0010 C0010000 		.word	.LC28
 774 0014 00000000 		.word	cmd_reboot
 775 0018 C7010000 		.word	.LC29
 776 001c 00000000 		.word	cmd_buttons
 777 0020 CF010000 		.word	.LC30
 778 0024 00000000 		.word	cmd_beep
 779 0028 D4010000 		.word	.LC31
 780 002c 00000000 		.word	cmd_ntc
 781 0030 D8010000 		.word	.LC32
 782 0034 00000000 		.word	cmd_temperature
 783 0038 E4010000 		.word	.LC33
 784 003c 00000000 		.word	cmd_battery
 785 0040 EC010000 		.word	.LC34
 786 0044 00000000 		.word	cmd_data
 787 0048 00000000 		.word	0
ARM GAS  /var/folders/_2/42wyrlld3p52fkcpt1lv6gxh0000gp/T//cc5dhkeM.s 			page 16


 788 004c 00000000 		.word	0
 789              		.section	.rodata.states.7150,"a",%progbits
 790              		.align	2
 791              		.set	.LANCHOR0,. + 0
 792              		.type	states.7150, %object
 793              		.size	states.7150, 60
 794              	states.7150:
 795 0000 45010000 		.word	.LC11
 796 0004 4B010000 		.word	.LC12
 797 0008 53010000 		.word	.LC13
 798 000c 5D010000 		.word	.LC14
 799 0010 63010000 		.word	.LC15
 800 0014 69010000 		.word	.LC16
 801 0018 70010000 		.word	.LC17
 802 001c 79010000 		.word	.LC18
 803 0020 80010000 		.word	.LC19
 804 0024 88010000 		.word	.LC20
 805 0028 91010000 		.word	.LC21
 806 002c 99010000 		.word	.LC22
 807 0030 A0010000 		.word	.LC23
 808 0034 A6010000 		.word	.LC24
 809 0038 AE010000 		.word	.LC25
 810              		.text
 811              	.Letext0:
 812              		.file 2 "/Users/ARS/Applications/Eclipse.app/Contents/gcc-arm-none-eabi-5_3-2016q1/lib/gcc/arm-non
 813              		.file 3 "/Users/ARS/Applications/Eclipse.app/Contents/gcc-arm-none-eabi-5_3-2016q1/arm-none-eabi/i
 814              		.file 4 "/Users/ARS/Applications/Eclipse.app/Contents/gcc-arm-none-eabi-5_3-2016q1/arm-none-eabi/i
 815              		.file 5 "chibios/os/ports/GCC/ARMCMx/chtypes.h"
 816              		.file 6 "chibios/os/kernel/include/chlists.h"
 817              		.file 7 "chibios/os/kernel/include/chthreads.h"
 818              		.file 8 "chibios/os/ports/GCC/ARMCMx/chcore_v7m.h"
 819              		.file 9 "chibios/os/kernel/include/chmtx.h"
 820              		.file 10 "chibios/os/kernel/include/chstreams.h"
 821              		.file 11 "chibios/os/ports/common/ARMCMx/CMSIS/include/core_cm3.h"
 822              		.file 12 "baselibc/include/stdio.h"
 823              		.file 13 "chibios/os/various/shell.h"
 824              		.file 14 "src/buttons.h"
 825              		.file 15 "src/display.h"
 826              		.file 16 "src/battery.h"
 827              		.file 17 "chibios/os/various/chprintf.h"
 828              		.file 18 "src/sensor_task.h"
 829              		.file 19 "src/ntc.h"
 830              		.file 20 "chibios/os/kernel/include/chregistry.h"
 831              		.file 21 "chibios/os/kernel/include/chheap.h"
 832              		.file 22 "chibios/os/kernel/include/chmemcore.h"
 833              		.file 23 "src/beeper.h"
 834              		.file 24 "baselibc/include/stdlib.h"