ARM GAS  /var/folders/_2/42wyrlld3p52fkcpt1lv6gxh0000gp/T//ccCcHvTh.s 			page 1


   1              		.syntax unified
   2              		.cpu cortex-m3
   3              		.fpu softvfp
   4              		.eabi_attribute 20, 1
   5              		.eabi_attribute 21, 1
   6              		.eabi_attribute 23, 3
   7              		.eabi_attribute 24, 1
   8              		.eabi_attribute 25, 1
   9              		.eabi_attribute 26, 1
  10              		.eabi_attribute 30, 4
  11              		.eabi_attribute 34, 1
  12              		.eabi_attribute 18, 4
  13              		.thumb
  14              		.syntax unified
  15              		.file	"shell.c"
  16              		.text
  17              	.Ltext0:
  18              		.cfi_sections	.debug_frame
  19              		.section	.text._strtok.constprop.2,"ax",%progbits
  20              		.align	1
  21              		.thumb
  22              		.thumb_func
  23              		.type	_strtok.constprop.2, %function
  24              	_strtok.constprop.2:
  25              	.LFB77:
  26              		.file 1 "chibios/os/various/shell.c"
  27              		.loc 1 37 0
  28              		.cfi_startproc
  29              		@ args = 0, pretend = 0, frame = 0
  30              		@ frame_needed = 1, uses_anonymous_args = 0
  31              	.LVL0:
  32 0000 2DE9F041 		push	{r4, r5, r6, r7, r8, lr}
  33              	.LCFI0:
  34              		.cfi_def_cfa_offset 24
  35              		.cfi_offset 4, -24
  36              		.cfi_offset 5, -20
  37              		.cfi_offset 6, -16
  38              		.cfi_offset 7, -12
  39              		.cfi_offset 8, -8
  40              		.cfi_offset 14, -4
  41 0004 0E46     		mov	r6, r1
  42 0006 00AF     		add	r7, sp, #0
  43              	.LCFI1:
  44              		.cfi_def_cfa_register 7
  45              		.loc 1 39 0
  46 0008 00B1     		cbz	r0, .L2
  47              		.loc 1 40 0
  48 000a 0860     		str	r0, [r1]
  49              	.L2:
  50              		.loc 1 41 0
  51 000c 3568     		ldr	r5, [r6]
  52              	.LVL1:
  53              		.loc 1 43 0
  54 000e 15B9     		cbnz	r5, .L3
  55              	.LVL2:
  56              	.L7:
  57              		.loc 1 44 0
ARM GAS  /var/folders/_2/42wyrlld3p52fkcpt1lv6gxh0000gp/T//ccCcHvTh.s 			page 2


  58 0010 0020     		movs	r0, #0
  59 0012 BDE8F081 		pop	{r4, r5, r6, r7, r8, pc}
  60              	.LVL3:
  61              	.L3:
  62              		.loc 1 46 0
  63 0016 0C49     		ldr	r1, .L15
  64              	.LVL4:
  65 0018 2846     		mov	r0, r5
  66              	.LVL5:
  67 001a FFF7FEFF 		bl	strspn
  68              	.LVL6:
  69 001e 2C18     		adds	r4, r5, r0
  70              	.LVL7:
  71 0020 8046     		mov	r8, r0
  72              		.loc 1 47 0
  73 0022 0949     		ldr	r1, .L15
  74 0024 2046     		mov	r0, r4
  75 0026 FFF7FEFF 		bl	strpbrk
  76              	.LVL8:
  77              		.loc 1 48 0
  78 002a 08B9     		cbnz	r0, .L5
  79              		.loc 1 47 0
  80 002c 3060     		str	r0, [r6]
  81 002e 03E0     		b	.L6
  82              	.L5:
  83              		.loc 1 49 0
  84 0030 431C     		adds	r3, r0, #1
  85 0032 3360     		str	r3, [r6]
  86 0034 0023     		movs	r3, #0
  87 0036 0370     		strb	r3, [r0]
  88              	.L6:
  89              		.loc 1 51 0
  90 0038 15F80830 		ldrb	r3, [r5, r8]	@ zero_extendqisi2
  91 003c 002B     		cmp	r3, #0
  92 003e E7D0     		beq	.L7
  93 0040 2046     		mov	r0, r4
  94              		.loc 1 52 0
  95 0042 BDE8F081 		pop	{r4, r5, r6, r7, r8, pc}
  96              	.LVL9:
  97              	.L16:
  98 0046 00BF     		.align	2
  99              	.L15:
 100 0048 00000000 		.word	.LC0
 101              		.cfi_endproc
 102              	.LFE77:
 103              		.size	_strtok.constprop.2, .-_strtok.constprop.2
 104              		.section	.text.cmd_systime,"ax",%progbits
 105              		.align	1
 106              		.thumb
 107              		.thumb_func
 108              		.type	cmd_systime, %function
 109              	cmd_systime:
 110              	.LFB69:
 111              		.loc 1 99 0
 112              		.cfi_startproc
 113              		@ args = 0, pretend = 0, frame = 0
 114              		@ frame_needed = 1, uses_anonymous_args = 0
ARM GAS  /var/folders/_2/42wyrlld3p52fkcpt1lv6gxh0000gp/T//ccCcHvTh.s 			page 3


 115              		@ link register save eliminated.
 116              	.LVL10:
 117 0000 80B4     		push	{r7}
 118              	.LCFI2:
 119              		.cfi_def_cfa_offset 4
 120              		.cfi_offset 7, -4
 121              		.loc 1 102 0
 122 0002 0029     		cmp	r1, #0
 123              	.LVL11:
 124              	.LBB6:
 125              	.LBB7:
 126              		.loc 1 106 0
 127 0004 D3BF     		iteet	le
 128 0006 054B     		ldrle	r3, .L20
 129              	.LBE7:
 130              	.LBE6:
 131              	.LBB10:
 132              	.LBB11:
 133              		.loc 1 56 0
 134 0008 054A     		ldrgt	r2, .L20+4
 135              	.LVL12:
 136 000a 0649     		ldrgt	r1, .L20+8
 137              	.LVL13:
 138              	.LBE11:
 139              	.LBE10:
 140              	.LBB12:
 141              	.LBB8:
 142              		.loc 1 106 0
 143 000c DA68     		ldrle	r2, [r3, #12]
 144 000e D8BF     		it	le
 145 0010 0549     		ldrle	r1, .L20+12
 146              	.LBE8:
 147              	.LBE12:
 148              		.loc 1 99 0
 149 0012 00AF     		add	r7, sp, #0
 150              	.LCFI3:
 151              		.cfi_def_cfa_register 7
 152              		.loc 1 107 0
 153 0014 BD46     		mov	sp, r7
 154              	.LCFI4:
 155              		.cfi_def_cfa_register 13
 156              		@ sp needed
 157 0016 80BC     		pop	{r7}
 158              	.LCFI5:
 159              		.cfi_restore 7
 160              		.cfi_def_cfa_offset 0
 161              	.LBB13:
 162              	.LBB9:
 163              		.loc 1 106 0
 164 0018 FFF7FEBF 		b	chprintf
 165              	.LVL14:
 166              	.L21:
 167              		.align	2
 168              	.L20:
 169 001c 00000000 		.word	vtlist
 170 0020 03000000 		.word	.LC1
 171 0024 0B000000 		.word	.LC2
ARM GAS  /var/folders/_2/42wyrlld3p52fkcpt1lv6gxh0000gp/T//ccCcHvTh.s 			page 4


 172 0028 17000000 		.word	.LC3
 173              	.LBE9:
 174              	.LBE13:
 175              		.cfi_endproc
 176              	.LFE69:
 177              		.size	cmd_systime, .-cmd_systime
 178              		.section	.text.cmd_info,"ax",%progbits
 179              		.align	1
 180              		.thumb
 181              		.thumb_func
 182              		.type	cmd_info, %function
 183              	cmd_info:
 184              	.LFB68:
 185              		.loc 1 67 0
 186              		.cfi_startproc
 187              		@ args = 0, pretend = 0, frame = 0
 188              		@ frame_needed = 1, uses_anonymous_args = 0
 189              	.LVL15:
 190 0000 90B5     		push	{r4, r7, lr}
 191              	.LCFI6:
 192              		.cfi_def_cfa_offset 12
 193              		.cfi_offset 4, -12
 194              		.cfi_offset 7, -8
 195              		.cfi_offset 14, -4
 196              		.loc 1 70 0
 197 0002 0029     		cmp	r1, #0
 198              		.loc 1 67 0
 199 0004 83B0     		sub	sp, sp, #12
 200              	.LCFI7:
 201              		.cfi_def_cfa_offset 24
 202 0006 0446     		mov	r4, r0
 203 0008 02AF     		add	r7, sp, #8
 204              	.LCFI8:
 205              		.cfi_def_cfa 7, 16
 206              		.loc 1 70 0
 207 000a 07DD     		ble	.L23
 208              	.LVL16:
 209              	.LBB18:
 210              	.LBB19:
 211              		.loc 1 56 0
 212 000c 1A4A     		ldr	r2, .L24
 213              	.LVL17:
 214 000e 1B49     		ldr	r1, .L24+4
 215              	.LVL18:
 216              	.LBE19:
 217              	.LBE18:
 218              		.loc 1 97 0
 219 0010 0437     		adds	r7, r7, #4
 220              	.LCFI9:
 221              		.cfi_remember_state
 222              		.cfi_def_cfa_offset 12
 223 0012 BD46     		mov	sp, r7
 224              	.LCFI10:
 225              		.cfi_def_cfa_register 13
 226              		@ sp needed
 227 0014 BDE89040 		pop	{r4, r7, lr}
 228              	.LCFI11:
ARM GAS  /var/folders/_2/42wyrlld3p52fkcpt1lv6gxh0000gp/T//ccCcHvTh.s 			page 5


 229              		.cfi_restore 14
 230              		.cfi_restore 7
 231              		.cfi_restore 4
 232              		.cfi_def_cfa_offset 0
 233              	.LBB21:
 234              	.LBB20:
 235              		.loc 1 56 0
 236 0018 FFF7FEBF 		b	chprintf
 237              	.LVL19:
 238              	.L23:
 239              	.LCFI12:
 240              		.cfi_restore_state
 241              	.LBE20:
 242              	.LBE21:
 243              	.LBB22:
 244              	.LBB23:
 245              		.loc 1 75 0
 246 001c 184A     		ldr	r2, .L24+8
 247              	.LVL20:
 248 001e 1949     		ldr	r1, .L24+12
 249              	.LVL21:
 250 0020 FFF7FEFF 		bl	chprintf
 251              	.LVL22:
 252              		.loc 1 77 0
 253 0024 2046     		mov	r0, r4
 254 0026 184A     		ldr	r2, .L24+16
 255 0028 1849     		ldr	r1, .L24+20
 256 002a FFF7FEFF 		bl	chprintf
 257              	.LVL23:
 258              		.loc 1 79 0
 259 002e 2046     		mov	r0, r4
 260 0030 174A     		ldr	r2, .L24+24
 261 0032 1849     		ldr	r1, .L24+28
 262 0034 FFF7FEFF 		bl	chprintf
 263              	.LVL24:
 264              		.loc 1 81 0
 265 0038 2046     		mov	r0, r4
 266 003a 174A     		ldr	r2, .L24+32
 267 003c 1749     		ldr	r1, .L24+36
 268 003e FFF7FEFF 		bl	chprintf
 269              	.LVL25:
 270              		.loc 1 84 0
 271 0042 2046     		mov	r0, r4
 272 0044 164A     		ldr	r2, .L24+40
 273 0046 1749     		ldr	r1, .L24+44
 274 0048 FFF7FEFF 		bl	chprintf
 275              	.LVL26:
 276              		.loc 1 87 0
 277 004c 2046     		mov	r0, r4
 278 004e 164A     		ldr	r2, .L24+48
 279 0050 1649     		ldr	r1, .L24+52
 280 0052 FFF7FEFF 		bl	chprintf
 281              	.LVL27:
 282              		.loc 1 90 0
 283 0056 2046     		mov	r0, r4
 284 0058 154A     		ldr	r2, .L24+56
 285 005a 1649     		ldr	r1, .L24+60
ARM GAS  /var/folders/_2/42wyrlld3p52fkcpt1lv6gxh0000gp/T//ccCcHvTh.s 			page 6


 286 005c FFF7FEFF 		bl	chprintf
 287              	.LVL28:
 288              		.loc 1 94 0
 289 0060 154B     		ldr	r3, .L24+64
 290 0062 164A     		ldr	r2, .L24+68
 291 0064 0093     		str	r3, [sp]
 292 0066 1649     		ldr	r1, .L24+72
 293 0068 164B     		ldr	r3, .L24+76
 294 006a 2046     		mov	r0, r4
 295 006c FFF7FEFF 		bl	chprintf
 296              	.LVL29:
 297              	.LBE23:
 298              	.LBE22:
 299              		.loc 1 97 0
 300 0070 0437     		adds	r7, r7, #4
 301              	.LCFI13:
 302              		.cfi_def_cfa_offset 12
 303 0072 BD46     		mov	sp, r7
 304              	.LCFI14:
 305              		.cfi_def_cfa_register 13
 306              		@ sp needed
 307 0074 90BD     		pop	{r4, r7, pc}
 308              	.LVL30:
 309              	.L25:
 310 0076 00BF     		.align	2
 311              	.L24:
 312 0078 1D000000 		.word	.LC4
 313 007c 0B000000 		.word	.LC2
 314 0080 22000000 		.word	.LC5
 315 0084 28000000 		.word	.LC6
 316 0088 3B000000 		.word	.LC7
 317 008c 80000000 		.word	.LC8
 318 0090 93000000 		.word	.LC9
 319 0094 9B000000 		.word	.LC10
 320 0098 AE000000 		.word	.LC11
 321 009c B8000000 		.word	.LC12
 322 00a0 CB000000 		.word	.LC13
 323 00a4 E0000000 		.word	.LC14
 324 00a8 F3000000 		.word	.LC15
 325 00ac 1C010000 		.word	.LC16
 326 00b0 2F010000 		.word	.LC17
 327 00b4 3B010000 		.word	.LC18
 328 00b8 75010000 		.word	.LC22
 329 00bc 52010000 		.word	.LC20
 330 00c0 5E010000 		.word	.LC21
 331 00c4 4E010000 		.word	.LC19
 332              		.cfi_endproc
 333              	.LFE68:
 334              		.size	cmd_info, .-cmd_info
 335              		.section	.text.shellInit,"ax",%progbits
 336              		.align	1
 337              		.global	shellInit
 338              		.thumb
 339              		.thumb_func
 340              		.type	shellInit, %function
 341              	shellInit:
 342              	.LFB72:
ARM GAS  /var/folders/_2/42wyrlld3p52fkcpt1lv6gxh0000gp/T//ccCcHvTh.s 			page 7


 343              		.loc 1 204 0
 344              		.cfi_startproc
 345              		@ args = 0, pretend = 0, frame = 0
 346              		@ frame_needed = 1, uses_anonymous_args = 0
 347 0000 80B5     		push	{r7, lr}
 348              	.LCFI15:
 349              		.cfi_def_cfa_offset 8
 350              		.cfi_offset 7, -8
 351              		.cfi_offset 14, -4
 352              		.loc 1 206 0
 353 0002 024B     		ldr	r3, .L27
 354              		.loc 1 204 0
 355 0004 00AF     		add	r7, sp, #0
 356              	.LCFI16:
 357              		.cfi_def_cfa_register 7
 358              		.loc 1 206 0
 359 0006 1B60     		str	r3, [r3]
 360 0008 80BD     		pop	{r7, pc}
 361              	.L28:
 362 000a 00BF     		.align	2
 363              	.L27:
 364 000c 00000000 		.word	.LANCHOR0
 365              		.cfi_endproc
 366              	.LFE72:
 367              		.size	shellInit, .-shellInit
 368              		.section	.text.shellCreateStatic,"ax",%progbits
 369              		.align	1
 370              		.global	shellCreateStatic
 371              		.thumb
 372              		.thumb_func
 373              		.type	shellCreateStatic, %function
 374              	shellCreateStatic:
 375              	.LFB73:
 376              		.loc 1 236 0
 377              		.cfi_startproc
 378              		@ args = 0, pretend = 0, frame = 0
 379              		@ frame_needed = 1, uses_anonymous_args = 0
 380              	.LVL31:
 381 0000 90B5     		push	{r4, r7, lr}
 382              	.LCFI17:
 383              		.cfi_def_cfa_offset 12
 384              		.cfi_offset 4, -12
 385              		.cfi_offset 7, -8
 386              		.cfi_offset 14, -4
 387 0002 0C46     		mov	r4, r1
 388 0004 83B0     		sub	sp, sp, #12
 389              	.LCFI18:
 390              		.cfi_def_cfa_offset 24
 391 0006 1146     		mov	r1, r2
 392              	.LVL32:
 393 0008 02AF     		add	r7, sp, #8
 394              	.LCFI19:
 395              		.cfi_def_cfa 7, 16
 396              		.loc 1 236 0
 397 000a 1A46     		mov	r2, r3
 398              	.LVL33:
 399              		.loc 1 238 0
ARM GAS  /var/folders/_2/42wyrlld3p52fkcpt1lv6gxh0000gp/T//ccCcHvTh.s 			page 8


 400 000c 0090     		str	r0, [sp]
 401 000e 034B     		ldr	r3, .L30
 402              	.LVL34:
 403 0010 2046     		mov	r0, r4
 404              	.LVL35:
 405 0012 FFF7FEFF 		bl	chThdCreateStatic
 406              	.LVL36:
 407              		.loc 1 239 0
 408 0016 0437     		adds	r7, r7, #4
 409              	.LCFI20:
 410              		.cfi_def_cfa_offset 12
 411 0018 BD46     		mov	sp, r7
 412              	.LCFI21:
 413              		.cfi_def_cfa_register 13
 414              		@ sp needed
 415 001a 90BD     		pop	{r4, r7, pc}
 416              	.LVL37:
 417              	.L31:
 418              		.align	2
 419              	.L30:
 420 001c 00000000 		.word	shell_thread
 421              		.cfi_endproc
 422              	.LFE73:
 423              		.size	shellCreateStatic, .-shellCreateStatic
 424              		.section	.text.shellGetLine,"ax",%progbits
 425              		.align	1
 426              		.global	shellGetLine
 427              		.thumb
 428              		.thumb_func
 429              		.type	shellGetLine, %function
 430              	shellGetLine:
 431              	.LFB74:
 432              		.loc 1 251 0
 433              		.cfi_startproc
 434              		@ args = 0, pretend = 0, frame = 8
 435              		@ frame_needed = 1, uses_anonymous_args = 0
 436              	.LVL38:
 437 0000 2DE9F041 		push	{r4, r5, r6, r7, r8, lr}
 438              	.LCFI22:
 439              		.cfi_def_cfa_offset 24
 440              		.cfi_offset 4, -24
 441              		.cfi_offset 5, -20
 442              		.cfi_offset 6, -16
 443              		.cfi_offset 7, -12
 444              		.cfi_offset 8, -8
 445              		.cfi_offset 14, -4
 446 0004 0446     		mov	r4, r0
 447 0006 0E46     		mov	r6, r1
 448 0008 0D46     		mov	r5, r1
 449 000a 82B0     		sub	sp, sp, #8
 450              	.LCFI23:
 451              		.cfi_def_cfa_offset 32
 452              	.LBB24:
 453              		.loc 1 279 0
 454 000c 013A     		subs	r2, r2, #1
 455              	.LVL39:
 456              	.LBE24:
ARM GAS  /var/folders/_2/42wyrlld3p52fkcpt1lv6gxh0000gp/T//ccCcHvTh.s 			page 9


 457              		.loc 1 251 0
 458              	.LBB25:
 459              		.loc 1 279 0
 460 000e 01EB0208 		add	r8, r1, r2
 461              	.LBE25:
 462              		.loc 1 251 0
 463 0012 00AF     		add	r7, sp, #0
 464              	.LCFI24:
 465              		.cfi_def_cfa_register 7
 466              	.LVL40:
 467              	.L33:
 468              	.LBB26:
 469              		.loc 1 257 0
 470 0014 2368     		ldr	r3, [r4]
 471 0016 0122     		movs	r2, #1
 472 0018 5B68     		ldr	r3, [r3, #4]
 473 001a F91D     		adds	r1, r7, #7
 474 001c 2046     		mov	r0, r4
 475 001e 9847     		blx	r3
 476              	.LVL41:
 477 0020 0028     		cmp	r0, #0
 478 0022 31D0     		beq	.L41
 479              		.loc 1 259 0
 480 0024 F979     		ldrb	r1, [r7, #7]	@ zero_extendqisi2
 481 0026 0429     		cmp	r1, #4
 482 0028 04D1     		bne	.L35
 483              		.loc 1 260 0
 484 002a 1A49     		ldr	r1, .L44
 485 002c 2046     		mov	r0, r4
 486 002e FFF7FEFF 		bl	chprintf
 487              	.LVL42:
 488 0032 29E0     		b	.L41
 489              	.L35:
 490              		.loc 1 263 0
 491 0034 0829     		cmp	r1, #8
 492 0036 11D1     		bne	.L36
 493              		.loc 1 264 0
 494 0038 B542     		cmp	r5, r6
 495 003a EBD0     		beq	.L33
 496              		.loc 1 265 0
 497 003c 2368     		ldr	r3, [r4]
 498 003e 2046     		mov	r0, r4
 499 0040 9B68     		ldr	r3, [r3, #8]
 500 0042 9847     		blx	r3
 501              	.LVL43:
 502              		.loc 1 266 0
 503 0044 2368     		ldr	r3, [r4]
 504 0046 2021     		movs	r1, #32
 505 0048 9B68     		ldr	r3, [r3, #8]
 506 004a 2046     		mov	r0, r4
 507 004c 9847     		blx	r3
 508              	.LVL44:
 509              		.loc 1 267 0
 510 004e 2368     		ldr	r3, [r4]
 511 0050 F979     		ldrb	r1, [r7, #7]	@ zero_extendqisi2
 512 0052 9B68     		ldr	r3, [r3, #8]
 513 0054 2046     		mov	r0, r4
ARM GAS  /var/folders/_2/42wyrlld3p52fkcpt1lv6gxh0000gp/T//ccCcHvTh.s 			page 10


 514 0056 9847     		blx	r3
 515              	.LVL45:
 516              		.loc 1 268 0
 517 0058 013D     		subs	r5, r5, #1
 518              	.LVL46:
 519 005a DBE7     		b	.L33
 520              	.L36:
 521              		.loc 1 272 0
 522 005c 0D29     		cmp	r1, #13
 523 005e 06D1     		bne	.L38
 524              		.loc 1 273 0
 525 0060 2046     		mov	r0, r4
 526 0062 0D49     		ldr	r1, .L44+4
 527 0064 FFF7FEFF 		bl	chprintf
 528              	.LVL47:
 529              		.loc 1 274 0
 530 0068 0020     		movs	r0, #0
 531 006a 2870     		strb	r0, [r5]
 532              		.loc 1 275 0
 533 006c 0DE0     		b	.L43
 534              	.L38:
 535              		.loc 1 277 0
 536 006e 1F29     		cmp	r1, #31
 537 0070 D0D9     		bls	.L33
 538              		.loc 1 279 0
 539 0072 4545     		cmp	r5, r8
 540 0074 CED2     		bcs	.L33
 541              		.loc 1 280 0
 542 0076 2368     		ldr	r3, [r4]
 543 0078 2046     		mov	r0, r4
 544 007a 9B68     		ldr	r3, [r3, #8]
 545 007c 9847     		blx	r3
 546              	.LVL48:
 547              		.loc 1 281 0
 548 007e FB79     		ldrb	r3, [r7, #7]	@ zero_extendqisi2
 549 0080 0135     		adds	r5, r5, #1
 550              	.LVL49:
 551 0082 05F8013C 		strb	r3, [r5, #-1]
 552 0086 C5E7     		b	.L33
 553              	.L41:
 554              		.loc 1 258 0
 555 0088 0120     		movs	r0, #1
 556              	.L43:
 557              	.LBE26:
 558              		.loc 1 284 0
 559 008a 0837     		adds	r7, r7, #8
 560              	.LCFI25:
 561              		.cfi_def_cfa_offset 24
 562 008c BD46     		mov	sp, r7
 563              	.LCFI26:
 564              		.cfi_def_cfa_register 13
 565              		@ sp needed
 566 008e BDE8F081 		pop	{r4, r5, r6, r7, r8, pc}
 567              	.LVL50:
 568              	.L45:
 569 0092 00BF     		.align	2
 570              	.L44:
ARM GAS  /var/folders/_2/42wyrlld3p52fkcpt1lv6gxh0000gp/T//ccCcHvTh.s 			page 11


 571 0094 7E010000 		.word	.LC23
 572 0098 81010000 		.word	.LC24
 573              		.cfi_endproc
 574              	.LFE74:
 575              		.size	shellGetLine, .-shellGetLine
 576              		.section	.text.shell_thread,"ax",%progbits
 577              		.align	1
 578              		.thumb
 579              		.thumb_func
 580              		.type	shell_thread, %function
 581              	shell_thread:
 582              	.LFB71:
 583              		.loc 1 139 0
 584              		.cfi_startproc
 585              		@ args = 0, pretend = 0, frame = 88
 586              		@ frame_needed = 1, uses_anonymous_args = 0
 587              	.LVL51:
 588 0000 2DE9F043 		push	{r4, r5, r6, r7, r8, r9, lr}
 589              	.LCFI27:
 590              		.cfi_def_cfa_offset 28
 591              		.cfi_offset 4, -28
 592              		.cfi_offset 5, -24
 593              		.cfi_offset 6, -20
 594              		.cfi_offset 7, -16
 595              		.cfi_offset 8, -12
 596              		.cfi_offset 9, -8
 597              		.cfi_offset 14, -4
 598 0004 97B0     		sub	sp, sp, #92
 599              	.LCFI28:
 600              		.cfi_def_cfa_offset 120
 601              		.loc 1 147 0
 602 0006 554B     		ldr	r3, .L89
 603 0008 554A     		ldr	r2, .L89+4
 604 000a 9B69     		ldr	r3, [r3, #24]
 605              		.loc 1 148 0
 606 000c 5549     		ldr	r1, .L89+8
 607              		.loc 1 143 0
 608 000e 90E84001 		ldmia	r0, {r6, r8}
 609              	.LVL52:
 610              		.loc 1 139 0
 611 0012 00AF     		add	r7, sp, #0
 612              	.LCFI29:
 613              		.cfi_def_cfa_register 7
 614              		.loc 1 147 0
 615 0014 9A61     		str	r2, [r3, #24]
 616              	.LVL53:
 617              	.L84:
 618              		.loc 1 148 0
 619 0016 3046     		mov	r0, r6
 620 0018 FFF7FEFF 		bl	chprintf
 621              	.LVL54:
 622              	.L54:
 623              		.loc 1 150 0
 624 001c 5249     		ldr	r1, .L89+12
 625 001e 3046     		mov	r0, r6
 626 0020 FFF7FEFF 		bl	chprintf
 627              	.LVL55:
ARM GAS  /var/folders/_2/42wyrlld3p52fkcpt1lv6gxh0000gp/T//ccCcHvTh.s 			page 12


 628              		.loc 1 151 0
 629 0024 4022     		movs	r2, #64
 630 0026 07F11801 		add	r1, r7, #24
 631 002a 3046     		mov	r0, r6
 632 002c FFF7FEFF 		bl	shellGetLine
 633              	.LVL56:
 634 0030 0446     		mov	r4, r0
 635 0032 20B1     		cbz	r0, .L48
 636              		.loc 1 152 0
 637 0034 4D49     		ldr	r1, .L89+16
 638 0036 3046     		mov	r0, r6
 639 0038 FFF7FEFF 		bl	chprintf
 640              	.LVL57:
 641              		.loc 1 153 0
 642 003c 7EE0     		b	.L49
 643              	.L48:
 644              		.loc 1 155 0
 645 003e 3946     		mov	r1, r7
 646 0040 07F11800 		add	r0, r7, #24
 647 0044 FFF7FEFF 		bl	_strtok.constprop.2
 648              	.LVL58:
 649 0048 8146     		mov	r9, r0
 650              	.LVL59:
 651              	.L50:
 652              		.loc 1 158 0
 653 004a 3946     		mov	r1, r7
 654 004c 0020     		movs	r0, #0
 655              	.LVL60:
 656 004e FFF7FEFF 		bl	_strtok.constprop.2
 657              	.LVL61:
 658 0052 68B1     		cbz	r0, .L52
 659              		.loc 1 159 0
 660 0054 042C     		cmp	r4, #4
 661 0056 06D1     		bne	.L51
 662              		.loc 1 160 0
 663 0058 4549     		ldr	r1, .L89+20
 664 005a 3046     		mov	r0, r6
 665              	.LVL62:
 666 005c FFF7FEFF 		bl	chprintf
 667              	.LVL63:
 668              		.loc 1 161 0
 669 0060 4FF00009 		mov	r9, #0
 670              		.loc 1 162 0
 671 0064 04E0     		b	.L52
 672              	.LVL64:
 673              	.L51:
 674              		.loc 1 164 0
 675 0066 3B1D     		adds	r3, r7, #4
 676 0068 43F82400 		str	r0, [r3, r4, lsl #2]
 677 006c 0134     		adds	r4, r4, #1
 678              	.LVL65:
 679 006e ECE7     		b	.L50
 680              	.LVL66:
 681              	.L52:
 682              		.loc 1 166 0
 683 0070 07F15803 		add	r3, r7, #88
 684 0074 0022     		movs	r2, #0
ARM GAS  /var/folders/_2/42wyrlld3p52fkcpt1lv6gxh0000gp/T//ccCcHvTh.s 			page 13


 685 0076 03EB8403 		add	r3, r3, r4, lsl #2
 686 007a 43F8542C 		str	r2, [r3, #-84]
 687              		.loc 1 167 0
 688 007e B9F1000F 		cmp	r9, #0
 689 0082 CBD0     		beq	.L54
 690              		.loc 1 168 0
 691 0084 3B49     		ldr	r1, .L89+24
 692 0086 4846     		mov	r0, r9
 693 0088 FFF7FEFF 		bl	strcasecmp
 694              	.LVL67:
 695 008c 18B9     		cbnz	r0, .L55
 696              		.loc 1 169 0
 697 008e 002C     		cmp	r4, #0
 698 0090 54D0     		beq	.L49
 699              	.LVL68:
 700              	.LBB40:
 701              	.LBB41:
 702              		.loc 1 56 0
 703 0092 384A     		ldr	r2, .L89+24
 704 0094 08E0     		b	.L85
 705              	.LVL69:
 706              	.L55:
 707              	.LBE41:
 708              	.LBE40:
 709              		.loc 1 175 0
 710 0096 3849     		ldr	r1, .L89+28
 711 0098 4846     		mov	r0, r9
 712 009a FFF7FEFF 		bl	strcasecmp
 713              	.LVL70:
 714 009e 08B1     		cbz	r0, .L57
 715 00a0 364D     		ldr	r5, .L89+32
 716 00a2 2CE0     		b	.L58
 717              	.L57:
 718              		.loc 1 176 0
 719 00a4 2CB1     		cbz	r4, .L59
 720              	.LVL71:
 721              	.LBB42:
 722              	.LBB43:
 723              		.loc 1 56 0
 724 00a6 344A     		ldr	r2, .L89+28
 725              	.LVL72:
 726              	.L85:
 727 00a8 3549     		ldr	r1, .L89+36
 728 00aa 3046     		mov	r0, r6
 729 00ac FFF7FEFF 		bl	chprintf
 730              	.LVL73:
 731              	.LBE43:
 732              	.LBE42:
 733              		.loc 1 178 0
 734 00b0 B4E7     		b	.L54
 735              	.L59:
 736              		.loc 1 180 0
 737 00b2 3449     		ldr	r1, .L89+40
 738 00b4 3046     		mov	r0, r6
 739 00b6 FFF7FEFF 		bl	chprintf
 740              	.LVL74:
 741              	.LBB44:
ARM GAS  /var/folders/_2/42wyrlld3p52fkcpt1lv6gxh0000gp/T//ccCcHvTh.s 			page 14


 742              	.LBB45:
 743              		.loc 1 61 0
 744 00ba 304D     		ldr	r5, .L89+32
 745              	.LVL75:
 746              	.L60:
 747 00bc 0134     		adds	r4, r4, #1
 748              	.LVL76:
 749 00be 05EBC403 		add	r3, r5, r4, lsl #3
 750 00c2 53F8082C 		ldr	r2, [r3, #-8]
 751 00c6 22B1     		cbz	r2, .L86
 752              		.loc 1 62 0
 753 00c8 2F49     		ldr	r1, .L89+44
 754 00ca 3046     		mov	r0, r6
 755 00cc FFF7FEFF 		bl	chprintf
 756              	.LVL77:
 757 00d0 F4E7     		b	.L60
 758              	.LVL78:
 759              	.L86:
 760              	.LBE45:
 761              	.LBE44:
 762              		.loc 1 182 0
 763 00d2 B8F1000F 		cmp	r8, #0
 764 00d6 01D1     		bne	.L62
 765              	.L65:
 766              		.loc 1 184 0
 767 00d8 2C49     		ldr	r1, .L89+48
 768 00da 9CE7     		b	.L84
 769              	.L62:
 770 00dc 08F10804 		add	r4, r8, #8
 771              	.L63:
 772              	.LVL79:
 773 00e0 0834     		adds	r4, r4, #8
 774              	.LVL80:
 775              	.LBB46:
 776              	.LBB47:
 777              		.loc 1 61 0
 778 00e2 54F8102C 		ldr	r2, [r4, #-16]
 779 00e6 002A     		cmp	r2, #0
 780 00e8 F6D0     		beq	.L65
 781              		.loc 1 62 0
 782 00ea 2749     		ldr	r1, .L89+44
 783 00ec 3046     		mov	r0, r6
 784 00ee FFF7FEFF 		bl	chprintf
 785              	.LVL81:
 786 00f2 F5E7     		b	.L63
 787              	.LVL82:
 788              	.L67:
 789              	.LBE47:
 790              	.LBE46:
 791              	.LBB48:
 792              	.LBB49:
 793              		.loc 1 122 0
 794 00f4 4946     		mov	r1, r9
 795 00f6 FFF7FEFF 		bl	strcasecmp
 796              	.LVL83:
 797 00fa 20B1     		cbz	r0, .L83
 798              		.loc 1 126 0
ARM GAS  /var/folders/_2/42wyrlld3p52fkcpt1lv6gxh0000gp/T//ccCcHvTh.s 			page 15


 799 00fc 0835     		adds	r5, r5, #8
 800              	.LVL84:
 801              	.L58:
 802              		.loc 1 121 0
 803 00fe 2868     		ldr	r0, [r5]
 804 0100 0028     		cmp	r0, #0
 805 0102 F7D1     		bne	.L67
 806 0104 05E0     		b	.L87
 807              	.LVL85:
 808              	.L83:
 809              	.LBE49:
 810              	.LBE48:
 811              	.LBB50:
 812              	.LBB51:
 813              		.loc 1 123 0
 814 0106 6B68     		ldr	r3, [r5, #4]
 815 0108 3A1D     		adds	r2, r7, #4
 816 010a 2146     		mov	r1, r4
 817 010c 3046     		mov	r0, r6
 818 010e 9847     		blx	r3
 819              	.LVL86:
 820 0110 84E7     		b	.L54
 821              	.LVL87:
 822              	.L87:
 823              	.LBE51:
 824              	.LBE50:
 825              		.loc 1 186 0
 826 0112 B8F1000F 		cmp	r8, #0
 827 0116 06D1     		bne	.L88
 828              	.L71:
 829              		.loc 1 188 0
 830 0118 1D49     		ldr	r1, .L89+52
 831 011a 4A46     		mov	r2, r9
 832 011c 3046     		mov	r0, r6
 833 011e FFF7FEFF 		bl	chprintf
 834              	.LVL88:
 835              		.loc 1 189 0
 836 0122 1C49     		ldr	r1, .L89+56
 837 0124 77E7     		b	.L84
 838              	.L88:
 839 0126 4546     		mov	r5, r8
 840              	.L72:
 841              	.LVL89:
 842              	.LBB53:
 843              	.LBB52:
 844              		.loc 1 121 0
 845 0128 2868     		ldr	r0, [r5]
 846 012a 0028     		cmp	r0, #0
 847 012c F4D0     		beq	.L71
 848              		.loc 1 122 0
 849 012e 4946     		mov	r1, r9
 850 0130 FFF7FEFF 		bl	strcasecmp
 851              	.LVL90:
 852 0134 0028     		cmp	r0, #0
 853 0136 E6D0     		beq	.L83
 854              		.loc 1 126 0
 855 0138 0835     		adds	r5, r5, #8
ARM GAS  /var/folders/_2/42wyrlld3p52fkcpt1lv6gxh0000gp/T//ccCcHvTh.s 			page 16


 856              	.LVL91:
 857 013a F5E7     		b	.L72
 858              	.LVL92:
 859              	.L49:
 860              	.LBE52:
 861              	.LBE53:
 862              	.LBB54:
 863              		.loc 1 195 0
 864 013c 2023     		movs	r3, #32
 865              		.syntax unified
 866              	@ 195 "chibios/os/various/shell.c" 1
 867 013e 83F31188 		msr     BASEPRI, r3
 868              	@ 0 "" 2
 869              		.thumb
 870              		.syntax unified
 871              	.LBE54:
 872              		.loc 1 196 0
 873 0142 0021     		movs	r1, #0
 874 0144 1448     		ldr	r0, .L89+60
 875 0146 FFF7FEFF 		bl	chEvtBroadcastFlagsI
 876              	.LVL93:
 877              		.loc 1 197 0
 878 014a 0020     		movs	r0, #0
 879 014c FFF7FEFF 		bl	chThdExitS
 880              	.LVL94:
 881              		.loc 1 199 0
 882 0150 0020     		movs	r0, #0
 883 0152 5C37     		adds	r7, r7, #92
 884              	.LCFI30:
 885              		.cfi_def_cfa_offset 28
 886 0154 BD46     		mov	sp, r7
 887              	.LCFI31:
 888              		.cfi_def_cfa_register 13
 889              		@ sp needed
 890 0156 BDE8F083 		pop	{r4, r5, r6, r7, r8, r9, pc}
 891              	.LVL95:
 892              	.L90:
 893 015a 00BF     		.align	2
 894              	.L89:
 895 015c 00000000 		.word	rlist
 896 0160 84010000 		.word	.LC25
 897 0164 8A010000 		.word	.LC26
 898 0168 9F010000 		.word	.LC27
 899 016c A4010000 		.word	.LC28
 900 0170 AD010000 		.word	.LC29
 901 0174 C2010000 		.word	.LC30
 902 0178 C7010000 		.word	.LC31
 903 017c 00000000 		.word	.LANCHOR1
 904 0180 0B000000 		.word	.LC2
 905 0184 CC010000 		.word	.LC32
 906 0188 E1010000 		.word	.LC33
 907 018c 81010000 		.word	.LC24
 908 0190 E5010000 		.word	.LC34
 909 0194 E8010000 		.word	.LC35
 910 0198 00000000 		.word	.LANCHOR0
 911              		.cfi_endproc
 912              	.LFE71:
ARM GAS  /var/folders/_2/42wyrlld3p52fkcpt1lv6gxh0000gp/T//ccCcHvTh.s 			page 17


 913              		.size	shell_thread, .-shell_thread
 914              		.global	shell_terminated
 915              		.section	.rodata.str1.1,"aMS",%progbits,1
 916              	.LC0:
 917 0000 200900   		.ascii	" \011\000"
 918              	.LC1:
 919 0003 73797374 		.ascii	"systime\000"
 919      696D6500 
 920              	.LC2:
 921 000b 55736167 		.ascii	"Usage: %s\015\012\000"
 921      653A2025 
 921      730D0A00 
 922              	.LC3:
 923 0017 256C750D 		.ascii	"%lu\015\012\000"
 923      0A00
 924              	.LC4:
 925 001d 696E666F 		.ascii	"info\000"
 925      00
 926              	.LC5:
 927 0022 322E362E 		.ascii	"2.6.1\000"
 927      3100
 928              	.LC6:
 929 0028 4B65726E 		.ascii	"Kernel:       %s\015\012\000"
 929      656C3A20 
 929      20202020 
 929      20202573 
 929      0D0A00
 930              	.LC7:
 931 003b 47434320 		.ascii	"GCC 5.3.1 20160307 (release) [ARM/embedded-5-branch"
 931      352E332E 
 931      31203230 
 931      31363033 
 931      30372028 
 932 006e 20726576 		.ascii	" revision 234589]\000"
 932      6973696F 
 932      6E203233 
 932      34353839 
 932      5D00
 933              	.LC8:
 934 0080 436F6D70 		.ascii	"Compiler:     %s\015\012\000"
 934      696C6572 
 934      3A202020 
 934      20202573 
 934      0D0A00
 935              	.LC9:
 936 0093 41524D76 		.ascii	"ARMv7-M\000"
 936      372D4D00 
 937              	.LC10:
 938 009b 41726368 		.ascii	"Architecture: %s\015\012\000"
 938      69746563 
 938      74757265 
 938      3A202573 
 938      0D0A00
 939              	.LC11:
 940 00ae 436F7274 		.ascii	"Cortex-M3\000"
 940      65782D4D 
 940      3300
ARM GAS  /var/folders/_2/42wyrlld3p52fkcpt1lv6gxh0000gp/T//ccCcHvTh.s 			page 18


 941              	.LC12:
 942 00b8 436F7265 		.ascii	"Core Variant: %s\015\012\000"
 942      20566172 
 942      69616E74 
 942      3A202573 
 942      0D0A00
 943              	.LC13:
 944 00cb 41647661 		.ascii	"Advanced kernel mode\000"
 944      6E636564 
 944      206B6572 
 944      6E656C20 
 944      6D6F6465 
 945              	.LC14:
 946 00e0 506F7274 		.ascii	"Port Info:    %s\015\012\000"
 946      20496E66 
 946      6F3A2020 
 946      20202573 
 946      0D0A00
 947              	.LC15:
 948 00f3 53544D33 		.ascii	"STM32L1xx Ultra Low Power Medium Density\000"
 948      324C3178 
 948      7820556C 
 948      74726120 
 948      4C6F7720 
 949              	.LC16:
 950 011c 506C6174 		.ascii	"Platform:     %s\015\012\000"
 950      666F726D 
 950      3A202020 
 950      20202573 
 950      0D0A00
 951              	.LC17:
 952 012f 55756E69 		.ascii	"Uunimittari\000"
 952      6D697474 
 952      61726900 
 953              	.LC18:
 954 013b 426F6172 		.ascii	"Board:        %s\015\012\000"
 954      643A2020 
 954      20202020 
 954      20202573 
 954      0D0A00
 955              	.LC19:
 956 014e 202D2000 		.ascii	" - \000"
 957              	.LC20:
 958 0152 4A756E20 		.ascii	"Jun 30 2016\000"
 958      33302032 
 958      30313600 
 959              	.LC21:
 960 015e 4275696C 		.ascii	"Build time:   %s%s%s\015\012\000"
 960      64207469 
 960      6D653A20 
 960      20202573 
 960      25732573 
 961              	.LC22:
 962 0175 31363A33 		.ascii	"16:31:17\000"
 962      313A3137 
 962      00
 963              	.LC23:
ARM GAS  /var/folders/_2/42wyrlld3p52fkcpt1lv6gxh0000gp/T//ccCcHvTh.s 			page 19


 964 017e 5E4400   		.ascii	"^D\000"
 965              	.LC24:
 966 0181 0D0A00   		.ascii	"\015\012\000"
 967              	.LC25:
 968 0184 7368656C 		.ascii	"shell\000"
 968      6C00
 969              	.LC26:
 970 018a 0D0A4368 		.ascii	"\015\012ChibiOS/RT Shell\015\012\000"
 970      6962694F 
 970      532F5254 
 970      20536865 
 970      6C6C0D0A 
 971              	.LC27:
 972 019f 63683E20 		.ascii	"ch> \000"
 972      00
 973              	.LC28:
 974 01a4 0D0A6C6F 		.ascii	"\015\012logout\000"
 974      676F7574 
 974      00
 975              	.LC29:
 976 01ad 746F6F20 		.ascii	"too many arguments\015\012\000"
 976      6D616E79 
 976      20617267 
 976      756D656E 
 976      74730D0A 
 977              	.LC30:
 978 01c2 65786974 		.ascii	"exit\000"
 978      00
 979              	.LC31:
 980 01c7 68656C70 		.ascii	"help\000"
 980      00
 981              	.LC32:
 982 01cc 436F6D6D 		.ascii	"Commands: help exit \000"
 982      616E6473 
 982      3A206865 
 982      6C702065 
 982      78697420 
 983              	.LC33:
 984 01e1 25732000 		.ascii	"%s \000"
 985              	.LC34:
 986 01e5 257300   		.ascii	"%s\000"
 987              	.LC35:
 988 01e8 203F0D0A 		.ascii	" ?\015\012\000"
 988      00
 989              		.section	.data.local_commands,"aw",%progbits
 990              		.align	2
 991              		.set	.LANCHOR1,. + 0
 992              		.type	local_commands, %object
 993              		.size	local_commands, 24
 994              	local_commands:
 995 0000 1D000000 		.word	.LC4
 996 0004 00000000 		.word	cmd_info
 997 0008 03000000 		.word	.LC1
 998 000c 00000000 		.word	cmd_systime
 999 0010 00000000 		.word	0
 1000 0014 00000000 		.word	0
 1001              		.section	.bss.shell_terminated,"aw",%nobits
ARM GAS  /var/folders/_2/42wyrlld3p52fkcpt1lv6gxh0000gp/T//ccCcHvTh.s 			page 20


 1002              		.align	2
 1003              		.set	.LANCHOR0,. + 0
 1004              		.type	shell_terminated, %object
 1005              		.size	shell_terminated, 4
 1006              	shell_terminated:
 1007 0000 00000000 		.space	4
 1008              		.text
 1009              	.Letext0:
 1010              		.file 2 "/Users/ARS/Applications/Eclipse.app/Contents/gcc-arm-none-eabi-5_3-2016q1/lib/gcc/arm-non
 1011              		.file 3 "/Users/ARS/Applications/Eclipse.app/Contents/gcc-arm-none-eabi-5_3-2016q1/arm-none-eabi/i
 1012              		.file 4 "/Users/ARS/Applications/Eclipse.app/Contents/gcc-arm-none-eabi-5_3-2016q1/arm-none-eabi/i
 1013              		.file 5 "chibios/os/ports/GCC/ARMCMx/chtypes.h"
 1014              		.file 6 "chibios/os/kernel/include/chlists.h"
 1015              		.file 7 "chibios/os/kernel/include/chthreads.h"
 1016              		.file 8 "chibios/os/ports/GCC/ARMCMx/chcore_v7m.h"
 1017              		.file 9 "chibios/os/kernel/include/chvt.h"
 1018              		.file 10 "chibios/os/kernel/include/chschd.h"
 1019              		.file 11 "chibios/os/kernel/include/chmtx.h"
 1020              		.file 12 "chibios/os/kernel/include/chevents.h"
 1021              		.file 13 "chibios/os/kernel/include/chstreams.h"
 1022              		.file 14 "chibios/os/various/shell.h"
 1023              		.file 15 "chibios/os/ports/common/ARMCMx/CMSIS/include/core_cm3.h"
 1024              		.file 16 "baselibc/include/string.h"
 1025              		.file 17 "chibios/os/various/chprintf.h"