ARM GAS  /var/folders/_2/42wyrlld3p52fkcpt1lv6gxh0000gp/T//ccmY1GN4.s 			page 1


   1              		.syntax unified
   2              		.cpu cortex-m3
   3              		.fpu softvfp
   4              		.eabi_attribute 20, 1
   5              		.eabi_attribute 21, 1
   6              		.eabi_attribute 23, 3
   7              		.eabi_attribute 24, 1
   8              		.eabi_attribute 25, 1
   9              		.eabi_attribute 26, 1
  10              		.eabi_attribute 30, 4
  11              		.eabi_attribute 34, 1
  12              		.eabi_attribute 18, 4
  13              		.thumb
  14              		.syntax unified
  15              		.file	"stm32_dma.c"
  16              		.text
  17              	.Ltext0:
  18              		.cfi_sections	.debug_frame
  19              		.section	.text.Vector6C,"ax",%progbits
  20              		.align	1
  21              		.global	Vector6C
  22              		.thumb
  23              		.thumb_func
  24              		.type	Vector6C, %function
  25              	Vector6C:
  26              	.LFB63:
  27              		.file 1 "chibios/os/hal/platforms/STM32L1xx/stm32_dma.c"
  28              		.loc 1 114 0
  29              		.cfi_startproc
  30              		@ args = 0, pretend = 0, frame = 0
  31              		@ frame_needed = 1, uses_anonymous_args = 0
  32              		.loc 1 119 0
  33 0000 084B     		ldr	r3, .L7
  34              		.loc 1 114 0
  35 0002 80B5     		push	{r7, lr}
  36              	.LCFI0:
  37              		.cfi_def_cfa_offset 8
  38              		.cfi_offset 7, -8
  39              		.cfi_offset 14, -4
  40              		.loc 1 120 0
  41 0004 0F22     		movs	r2, #15
  42              		.loc 1 119 0
  43 0006 1968     		ldr	r1, [r3]
  44              		.loc 1 120 0
  45 0008 5A60     		str	r2, [r3, #4]
  46              		.loc 1 121 0
  47 000a 074A     		ldr	r2, .L7+4
  48              		.loc 1 114 0
  49 000c 00AF     		add	r7, sp, #0
  50              	.LCFI1:
  51              		.cfi_def_cfa_register 7
  52              		.loc 1 121 0
  53 000e 1368     		ldr	r3, [r2]
  54              		.loc 1 119 0
  55 0010 01F00F01 		and	r1, r1, #15
  56              	.LVL0:
  57              		.loc 1 121 0
ARM GAS  /var/folders/_2/42wyrlld3p52fkcpt1lv6gxh0000gp/T//ccmY1GN4.s 			page 2


  58 0014 0BB1     		cbz	r3, .L2
  59              		.loc 1 122 0
  60 0016 5068     		ldr	r0, [r2, #4]
  61 0018 9847     		blx	r3
  62              	.LVL1:
  63              	.L2:
  64              		.loc 1 125 0
  65 001a BD46     		mov	sp, r7
  66              	.LCFI2:
  67              		.cfi_def_cfa_register 13
  68              		@ sp needed
  69 001c BDE88040 		pop	{r7, lr}
  70              	.LCFI3:
  71              		.cfi_restore 14
  72              		.cfi_restore 7
  73              		.cfi_def_cfa_offset 0
  74              		.loc 1 124 0
  75 0020 FFF7FEBF 		b	_port_irq_epilogue
  76              	.LVL2:
  77              	.L8:
  78              		.align	2
  79              	.L7:
  80 0024 00600240 		.word	1073897472
  81 0028 00000000 		.word	.LANCHOR0
  82              		.cfi_endproc
  83              	.LFE63:
  84              		.size	Vector6C, .-Vector6C
  85              		.section	.text.Vector70,"ax",%progbits
  86              		.align	1
  87              		.global	Vector70
  88              		.thumb
  89              		.thumb_func
  90              		.type	Vector70, %function
  91              	Vector70:
  92              	.LFB64:
  93              		.loc 1 132 0
  94              		.cfi_startproc
  95              		@ args = 0, pretend = 0, frame = 0
  96              		@ frame_needed = 1, uses_anonymous_args = 0
  97              		.loc 1 137 0
  98 0000 084B     		ldr	r3, .L14
  99              		.loc 1 132 0
 100 0002 80B5     		push	{r7, lr}
 101              	.LCFI4:
 102              		.cfi_def_cfa_offset 8
 103              		.cfi_offset 7, -8
 104              		.cfi_offset 14, -4
 105              		.loc 1 138 0
 106 0004 F022     		movs	r2, #240
 107              		.loc 1 137 0
 108 0006 1968     		ldr	r1, [r3]
 109              		.loc 1 138 0
 110 0008 5A60     		str	r2, [r3, #4]
 111              		.loc 1 139 0
 112 000a 074A     		ldr	r2, .L14+4
 113              		.loc 1 132 0
 114 000c 00AF     		add	r7, sp, #0
ARM GAS  /var/folders/_2/42wyrlld3p52fkcpt1lv6gxh0000gp/T//ccmY1GN4.s 			page 3


 115              	.LCFI5:
 116              		.cfi_def_cfa_register 7
 117              		.loc 1 139 0
 118 000e 9368     		ldr	r3, [r2, #8]
 119              		.loc 1 137 0
 120 0010 C1F30311 		ubfx	r1, r1, #4, #4
 121              	.LVL3:
 122              		.loc 1 139 0
 123 0014 0BB1     		cbz	r3, .L10
 124              		.loc 1 140 0
 125 0016 D068     		ldr	r0, [r2, #12]
 126 0018 9847     		blx	r3
 127              	.LVL4:
 128              	.L10:
 129              		.loc 1 143 0
 130 001a BD46     		mov	sp, r7
 131              	.LCFI6:
 132              		.cfi_def_cfa_register 13
 133              		@ sp needed
 134 001c BDE88040 		pop	{r7, lr}
 135              	.LCFI7:
 136              		.cfi_restore 14
 137              		.cfi_restore 7
 138              		.cfi_def_cfa_offset 0
 139              		.loc 1 142 0
 140 0020 FFF7FEBF 		b	_port_irq_epilogue
 141              	.LVL5:
 142              	.L15:
 143              		.align	2
 144              	.L14:
 145 0024 00600240 		.word	1073897472
 146 0028 00000000 		.word	.LANCHOR0
 147              		.cfi_endproc
 148              	.LFE64:
 149              		.size	Vector70, .-Vector70
 150              		.section	.text.Vector74,"ax",%progbits
 151              		.align	1
 152              		.global	Vector74
 153              		.thumb
 154              		.thumb_func
 155              		.type	Vector74, %function
 156              	Vector74:
 157              	.LFB65:
 158              		.loc 1 150 0
 159              		.cfi_startproc
 160              		@ args = 0, pretend = 0, frame = 0
 161              		@ frame_needed = 1, uses_anonymous_args = 0
 162              		.loc 1 155 0
 163 0000 094B     		ldr	r3, .L21
 164              		.loc 1 150 0
 165 0002 80B5     		push	{r7, lr}
 166              	.LCFI8:
 167              		.cfi_def_cfa_offset 8
 168              		.cfi_offset 7, -8
 169              		.cfi_offset 14, -4
 170              		.loc 1 156 0
 171 0004 4FF47062 		mov	r2, #3840
ARM GAS  /var/folders/_2/42wyrlld3p52fkcpt1lv6gxh0000gp/T//ccmY1GN4.s 			page 4


 172              		.loc 1 155 0
 173 0008 1968     		ldr	r1, [r3]
 174              		.loc 1 156 0
 175 000a 5A60     		str	r2, [r3, #4]
 176              		.loc 1 157 0
 177 000c 074A     		ldr	r2, .L21+4
 178              		.loc 1 150 0
 179 000e 00AF     		add	r7, sp, #0
 180              	.LCFI9:
 181              		.cfi_def_cfa_register 7
 182              		.loc 1 157 0
 183 0010 1369     		ldr	r3, [r2, #16]
 184              		.loc 1 155 0
 185 0012 C1F30321 		ubfx	r1, r1, #8, #4
 186              	.LVL6:
 187              		.loc 1 157 0
 188 0016 0BB1     		cbz	r3, .L17
 189              		.loc 1 158 0
 190 0018 5069     		ldr	r0, [r2, #20]
 191 001a 9847     		blx	r3
 192              	.LVL7:
 193              	.L17:
 194              		.loc 1 161 0
 195 001c BD46     		mov	sp, r7
 196              	.LCFI10:
 197              		.cfi_def_cfa_register 13
 198              		@ sp needed
 199 001e BDE88040 		pop	{r7, lr}
 200              	.LCFI11:
 201              		.cfi_restore 14
 202              		.cfi_restore 7
 203              		.cfi_def_cfa_offset 0
 204              		.loc 1 160 0
 205 0022 FFF7FEBF 		b	_port_irq_epilogue
 206              	.LVL8:
 207              	.L22:
 208 0026 00BF     		.align	2
 209              	.L21:
 210 0028 00600240 		.word	1073897472
 211 002c 00000000 		.word	.LANCHOR0
 212              		.cfi_endproc
 213              	.LFE65:
 214              		.size	Vector74, .-Vector74
 215              		.section	.text.Vector78,"ax",%progbits
 216              		.align	1
 217              		.global	Vector78
 218              		.thumb
 219              		.thumb_func
 220              		.type	Vector78, %function
 221              	Vector78:
 222              	.LFB66:
 223              		.loc 1 168 0
 224              		.cfi_startproc
 225              		@ args = 0, pretend = 0, frame = 0
 226              		@ frame_needed = 1, uses_anonymous_args = 0
 227              		.loc 1 173 0
 228 0000 094B     		ldr	r3, .L28
ARM GAS  /var/folders/_2/42wyrlld3p52fkcpt1lv6gxh0000gp/T//ccmY1GN4.s 			page 5


 229              		.loc 1 168 0
 230 0002 80B5     		push	{r7, lr}
 231              	.LCFI12:
 232              		.cfi_def_cfa_offset 8
 233              		.cfi_offset 7, -8
 234              		.cfi_offset 14, -4
 235              		.loc 1 174 0
 236 0004 4FF47042 		mov	r2, #61440
 237              		.loc 1 173 0
 238 0008 1968     		ldr	r1, [r3]
 239              		.loc 1 174 0
 240 000a 5A60     		str	r2, [r3, #4]
 241              		.loc 1 175 0
 242 000c 074A     		ldr	r2, .L28+4
 243              		.loc 1 168 0
 244 000e 00AF     		add	r7, sp, #0
 245              	.LCFI13:
 246              		.cfi_def_cfa_register 7
 247              		.loc 1 175 0
 248 0010 9369     		ldr	r3, [r2, #24]
 249              		.loc 1 173 0
 250 0012 C1F30331 		ubfx	r1, r1, #12, #4
 251              	.LVL9:
 252              		.loc 1 175 0
 253 0016 0BB1     		cbz	r3, .L24
 254              		.loc 1 176 0
 255 0018 D069     		ldr	r0, [r2, #28]
 256 001a 9847     		blx	r3
 257              	.LVL10:
 258              	.L24:
 259              		.loc 1 179 0
 260 001c BD46     		mov	sp, r7
 261              	.LCFI14:
 262              		.cfi_def_cfa_register 13
 263              		@ sp needed
 264 001e BDE88040 		pop	{r7, lr}
 265              	.LCFI15:
 266              		.cfi_restore 14
 267              		.cfi_restore 7
 268              		.cfi_def_cfa_offset 0
 269              		.loc 1 178 0
 270 0022 FFF7FEBF 		b	_port_irq_epilogue
 271              	.LVL11:
 272              	.L29:
 273 0026 00BF     		.align	2
 274              	.L28:
 275 0028 00600240 		.word	1073897472
 276 002c 00000000 		.word	.LANCHOR0
 277              		.cfi_endproc
 278              	.LFE66:
 279              		.size	Vector78, .-Vector78
 280              		.section	.text.Vector7C,"ax",%progbits
 281              		.align	1
 282              		.global	Vector7C
 283              		.thumb
 284              		.thumb_func
 285              		.type	Vector7C, %function
ARM GAS  /var/folders/_2/42wyrlld3p52fkcpt1lv6gxh0000gp/T//ccmY1GN4.s 			page 6


 286              	Vector7C:
 287              	.LFB67:
 288              		.loc 1 186 0
 289              		.cfi_startproc
 290              		@ args = 0, pretend = 0, frame = 0
 291              		@ frame_needed = 1, uses_anonymous_args = 0
 292              		.loc 1 191 0
 293 0000 094B     		ldr	r3, .L35
 294              		.loc 1 186 0
 295 0002 80B5     		push	{r7, lr}
 296              	.LCFI16:
 297              		.cfi_def_cfa_offset 8
 298              		.cfi_offset 7, -8
 299              		.cfi_offset 14, -4
 300              		.loc 1 192 0
 301 0004 4FF47022 		mov	r2, #983040
 302              		.loc 1 191 0
 303 0008 1968     		ldr	r1, [r3]
 304              		.loc 1 192 0
 305 000a 5A60     		str	r2, [r3, #4]
 306              		.loc 1 193 0
 307 000c 074A     		ldr	r2, .L35+4
 308              		.loc 1 186 0
 309 000e 00AF     		add	r7, sp, #0
 310              	.LCFI17:
 311              		.cfi_def_cfa_register 7
 312              		.loc 1 193 0
 313 0010 136A     		ldr	r3, [r2, #32]
 314              		.loc 1 191 0
 315 0012 C1F30341 		ubfx	r1, r1, #16, #4
 316              	.LVL12:
 317              		.loc 1 193 0
 318 0016 0BB1     		cbz	r3, .L31
 319              		.loc 1 194 0
 320 0018 506A     		ldr	r0, [r2, #36]
 321 001a 9847     		blx	r3
 322              	.LVL13:
 323              	.L31:
 324              		.loc 1 197 0
 325 001c BD46     		mov	sp, r7
 326              	.LCFI18:
 327              		.cfi_def_cfa_register 13
 328              		@ sp needed
 329 001e BDE88040 		pop	{r7, lr}
 330              	.LCFI19:
 331              		.cfi_restore 14
 332              		.cfi_restore 7
 333              		.cfi_def_cfa_offset 0
 334              		.loc 1 196 0
 335 0022 FFF7FEBF 		b	_port_irq_epilogue
 336              	.LVL14:
 337              	.L36:
 338 0026 00BF     		.align	2
 339              	.L35:
 340 0028 00600240 		.word	1073897472
 341 002c 00000000 		.word	.LANCHOR0
 342              		.cfi_endproc
ARM GAS  /var/folders/_2/42wyrlld3p52fkcpt1lv6gxh0000gp/T//ccmY1GN4.s 			page 7


 343              	.LFE67:
 344              		.size	Vector7C, .-Vector7C
 345              		.section	.text.Vector80,"ax",%progbits
 346              		.align	1
 347              		.global	Vector80
 348              		.thumb
 349              		.thumb_func
 350              		.type	Vector80, %function
 351              	Vector80:
 352              	.LFB68:
 353              		.loc 1 204 0
 354              		.cfi_startproc
 355              		@ args = 0, pretend = 0, frame = 0
 356              		@ frame_needed = 1, uses_anonymous_args = 0
 357              		.loc 1 209 0
 358 0000 094B     		ldr	r3, .L42
 359              		.loc 1 204 0
 360 0002 80B5     		push	{r7, lr}
 361              	.LCFI20:
 362              		.cfi_def_cfa_offset 8
 363              		.cfi_offset 7, -8
 364              		.cfi_offset 14, -4
 365              		.loc 1 210 0
 366 0004 4FF47002 		mov	r2, #15728640
 367              		.loc 1 209 0
 368 0008 1968     		ldr	r1, [r3]
 369              		.loc 1 210 0
 370 000a 5A60     		str	r2, [r3, #4]
 371              		.loc 1 211 0
 372 000c 074A     		ldr	r2, .L42+4
 373              		.loc 1 204 0
 374 000e 00AF     		add	r7, sp, #0
 375              	.LCFI21:
 376              		.cfi_def_cfa_register 7
 377              		.loc 1 211 0
 378 0010 936A     		ldr	r3, [r2, #40]
 379              		.loc 1 209 0
 380 0012 C1F30351 		ubfx	r1, r1, #20, #4
 381              	.LVL15:
 382              		.loc 1 211 0
 383 0016 0BB1     		cbz	r3, .L38
 384              		.loc 1 212 0
 385 0018 D06A     		ldr	r0, [r2, #44]
 386 001a 9847     		blx	r3
 387              	.LVL16:
 388              	.L38:
 389              		.loc 1 215 0
 390 001c BD46     		mov	sp, r7
 391              	.LCFI22:
 392              		.cfi_def_cfa_register 13
 393              		@ sp needed
 394 001e BDE88040 		pop	{r7, lr}
 395              	.LCFI23:
 396              		.cfi_restore 14
 397              		.cfi_restore 7
 398              		.cfi_def_cfa_offset 0
 399              		.loc 1 214 0
ARM GAS  /var/folders/_2/42wyrlld3p52fkcpt1lv6gxh0000gp/T//ccmY1GN4.s 			page 8


 400 0022 FFF7FEBF 		b	_port_irq_epilogue
 401              	.LVL17:
 402              	.L43:
 403 0026 00BF     		.align	2
 404              	.L42:
 405 0028 00600240 		.word	1073897472
 406 002c 00000000 		.word	.LANCHOR0
 407              		.cfi_endproc
 408              	.LFE68:
 409              		.size	Vector80, .-Vector80
 410              		.section	.text.Vector84,"ax",%progbits
 411              		.align	1
 412              		.global	Vector84
 413              		.thumb
 414              		.thumb_func
 415              		.type	Vector84, %function
 416              	Vector84:
 417              	.LFB69:
 418              		.loc 1 222 0
 419              		.cfi_startproc
 420              		@ args = 0, pretend = 0, frame = 0
 421              		@ frame_needed = 1, uses_anonymous_args = 0
 422              		.loc 1 227 0
 423 0000 094B     		ldr	r3, .L49
 424              		.loc 1 222 0
 425 0002 80B5     		push	{r7, lr}
 426              	.LCFI24:
 427              		.cfi_def_cfa_offset 8
 428              		.cfi_offset 7, -8
 429              		.cfi_offset 14, -4
 430              		.loc 1 228 0
 431 0004 4FF07062 		mov	r2, #251658240
 432              		.loc 1 227 0
 433 0008 1968     		ldr	r1, [r3]
 434              		.loc 1 228 0
 435 000a 5A60     		str	r2, [r3, #4]
 436              		.loc 1 229 0
 437 000c 074A     		ldr	r2, .L49+4
 438              		.loc 1 222 0
 439 000e 00AF     		add	r7, sp, #0
 440              	.LCFI25:
 441              		.cfi_def_cfa_register 7
 442              		.loc 1 229 0
 443 0010 136B     		ldr	r3, [r2, #48]
 444              		.loc 1 227 0
 445 0012 C1F30361 		ubfx	r1, r1, #24, #4
 446              	.LVL18:
 447              		.loc 1 229 0
 448 0016 0BB1     		cbz	r3, .L45
 449              		.loc 1 230 0
 450 0018 506B     		ldr	r0, [r2, #52]
 451 001a 9847     		blx	r3
 452              	.LVL19:
 453              	.L45:
 454              		.loc 1 233 0
 455 001c BD46     		mov	sp, r7
 456              	.LCFI26:
ARM GAS  /var/folders/_2/42wyrlld3p52fkcpt1lv6gxh0000gp/T//ccmY1GN4.s 			page 9


 457              		.cfi_def_cfa_register 13
 458              		@ sp needed
 459 001e BDE88040 		pop	{r7, lr}
 460              	.LCFI27:
 461              		.cfi_restore 14
 462              		.cfi_restore 7
 463              		.cfi_def_cfa_offset 0
 464              		.loc 1 232 0
 465 0022 FFF7FEBF 		b	_port_irq_epilogue
 466              	.LVL20:
 467              	.L50:
 468 0026 00BF     		.align	2
 469              	.L49:
 470 0028 00600240 		.word	1073897472
 471 002c 00000000 		.word	.LANCHOR0
 472              		.cfi_endproc
 473              	.LFE69:
 474              		.size	Vector84, .-Vector84
 475              		.section	.text.dmaInit,"ax",%progbits
 476              		.align	1
 477              		.global	dmaInit
 478              		.thumb
 479              		.thumb_func
 480              		.type	dmaInit, %function
 481              	dmaInit:
 482              	.LFB70:
 483              		.loc 1 244 0
 484              		.cfi_startproc
 485              		@ args = 0, pretend = 0, frame = 0
 486              		@ frame_needed = 1, uses_anonymous_args = 0
 487              		.loc 1 247 0
 488 0000 0B4A     		ldr	r2, .L54
 489 0002 0023     		movs	r3, #0
 490              		.loc 1 244 0
 491 0004 B0B5     		push	{r4, r5, r7, lr}
 492              	.LCFI28:
 493              		.cfi_def_cfa_offset 16
 494              		.cfi_offset 4, -16
 495              		.cfi_offset 5, -12
 496              		.cfi_offset 7, -8
 497              		.cfi_offset 14, -4
 498              		.loc 1 247 0
 499 0006 1360     		str	r3, [r2]
 500              	.LVL21:
 501              		.loc 1 249 0
 502 0008 1A46     		mov	r2, r3
 503 000a 0A4C     		ldr	r4, .L54+4
 504              		.loc 1 250 0
 505 000c 0A49     		ldr	r1, .L54+8
 506              		.loc 1 244 0
 507 000e 00AF     		add	r7, sp, #0
 508              	.LCFI29:
 509              		.cfi_def_cfa_register 7
 510              		.loc 1 249 0
 511 0010 0C25     		movs	r5, #12
 512              	.LVL22:
 513              	.L52:
ARM GAS  /var/folders/_2/42wyrlld3p52fkcpt1lv6gxh0000gp/T//ccmY1GN4.s 			page 10


 514              		.loc 1 249 0 is_stmt 0 discriminator 3
 515 0012 05FB03F0 		mul	r0, r5, r3
 516 0016 0059     		ldr	r0, [r0, r4]
 517 0018 0260     		str	r2, [r0]
 518              		.loc 1 250 0 is_stmt 1 discriminator 3
 519 001a 41F83320 		str	r2, [r1, r3, lsl #3]
 520              		.loc 1 248 0 discriminator 3
 521 001e 0133     		adds	r3, r3, #1
 522              	.LVL23:
 523 0020 072B     		cmp	r3, #7
 524 0022 F6D1     		bne	.L52
 525              		.loc 1 252 0
 526 0024 054B     		ldr	r3, .L54+12
 527              	.LVL24:
 528 0026 4FF0FF32 		mov	r2, #-1
 529 002a 5A60     		str	r2, [r3, #4]
 530 002c B0BD     		pop	{r4, r5, r7, pc}
 531              	.L55:
 532 002e 00BF     		.align	2
 533              	.L54:
 534 0030 00000000 		.word	.LANCHOR1
 535 0034 00000000 		.word	.LANCHOR2
 536 0038 00000000 		.word	.LANCHOR0
 537 003c 00600240 		.word	1073897472
 538              		.cfi_endproc
 539              	.LFE70:
 540              		.size	dmaInit, .-dmaInit
 541              		.section	.text.dmaStreamAllocate,"ax",%progbits
 542              		.align	1
 543              		.global	dmaStreamAllocate
 544              		.thumb
 545              		.thumb_func
 546              		.type	dmaStreamAllocate, %function
 547              	dmaStreamAllocate:
 548              	.LFB71:
 549              		.loc 1 282 0
 550              		.cfi_startproc
 551              		@ args = 0, pretend = 0, frame = 0
 552              		@ frame_needed = 1, uses_anonymous_args = 0
 553              	.LVL25:
 554 0000 F8B5     		push	{r3, r4, r5, r6, r7, lr}
 555              	.LCFI30:
 556              		.cfi_def_cfa_offset 24
 557              		.cfi_offset 3, -24
 558              		.cfi_offset 4, -20
 559              		.cfi_offset 5, -16
 560              		.cfi_offset 6, -12
 561              		.cfi_offset 7, -8
 562              		.cfi_offset 14, -4
 563              		.loc 1 287 0
 564 0002 DFF870E0 		ldr	lr, .L64+8
 565 0006 467A     		ldrb	r6, [r0, #9]	@ zero_extendqisi2
 566 0008 0125     		movs	r5, #1
 567 000a DEF80040 		ldr	r4, [lr]
 568 000e 05FA06FC 		lsl	ip, r5, r6
 569 0012 1CEA040F 		tst	ip, r4
 570              		.loc 1 282 0
ARM GAS  /var/folders/_2/42wyrlld3p52fkcpt1lv6gxh0000gp/T//ccmY1GN4.s 			page 11


 571 0016 00AF     		add	r7, sp, #0
 572              	.LCFI31:
 573              		.cfi_def_cfa_register 7
 574              		.loc 1 287 0
 575 0018 24D1     		bne	.L59
 576              		.loc 1 291 0
 577 001a 144D     		ldr	r5, .L64
 578 001c 45F83620 		str	r2, [r5, r6, lsl #3]
 579              		.loc 1 292 0
 580 0020 05EBC605 		add	r5, r5, r6, lsl #3
 581 0024 6B60     		str	r3, [r5, #4]
 582              		.loc 1 293 0
 583 0026 4CEA0403 		orr	r3, ip, r4
 584              	.LVL26:
 585 002a CEF80030 		str	r3, [lr]
 586              		.loc 1 296 0
 587 002e 5B06     		lsls	r3, r3, #25
 588              		.loc 1 297 0
 589 0030 18BF     		it	ne
 590 0032 0F4C     		ldrne	r4, .L64+4
 591              		.loc 1 300 0
 592 0034 4568     		ldr	r5, [r0, #4]
 593              	.LVL27:
 594              		.loc 1 297 0
 595 0036 1EBF     		ittt	ne
 596 0038 E369     		ldrne	r3, [r4, #28]
 597 003a 43F08073 		orrne	r3, r3, #16777216
 598 003e E361     		strne	r3, [r4, #28]
 599              		.loc 1 300 0
 600 0040 0368     		ldr	r3, [r0]
 601 0042 1C68     		ldr	r4, [r3]
 602 0044 24F00F04 		bic	r4, r4, #15
 603 0048 1C60     		str	r4, [r3]
 604 004a 067A     		ldrb	r6, [r0, #8]	@ zero_extendqisi2
 605              	.LVL28:
 606 004c 0F24     		movs	r4, #15
 607 004e B440     		lsls	r4, r4, r6
 608 0050 2C60     		str	r4, [r5]
 609              		.loc 1 301 0
 610 0052 0024     		movs	r4, #0
 611 0054 1C60     		str	r4, [r3]
 612              		.loc 1 304 0
 613 0056 3AB1     		cbz	r2, .L60
 614              		.loc 1 305 0
 615 0058 0901     		lsls	r1, r1, #4
 616              	.LVL29:
 617 005a 807A     		ldrb	r0, [r0, #10]	@ zero_extendqisi2
 618              	.LVL30:
 619 005c FFF7FEFF 		bl	nvicEnableVector
 620              	.LVL31:
 621              		.loc 1 307 0
 622 0060 2046     		mov	r0, r4
 623 0062 F8BD     		pop	{r3, r4, r5, r6, r7, pc}
 624              	.LVL32:
 625              	.L59:
 626              		.loc 1 288 0
 627 0064 2846     		mov	r0, r5
ARM GAS  /var/folders/_2/42wyrlld3p52fkcpt1lv6gxh0000gp/T//ccmY1GN4.s 			page 12


 628              	.LVL33:
 629 0066 F8BD     		pop	{r3, r4, r5, r6, r7, pc}
 630              	.LVL34:
 631              	.L60:
 632              		.loc 1 307 0
 633 0068 1046     		mov	r0, r2
 634              	.LVL35:
 635              		.loc 1 308 0
 636 006a F8BD     		pop	{r3, r4, r5, r6, r7, pc}
 637              	.L65:
 638              		.align	2
 639              	.L64:
 640 006c 00000000 		.word	.LANCHOR0
 641 0070 00380240 		.word	1073887232
 642 0074 00000000 		.word	.LANCHOR1
 643              		.cfi_endproc
 644              	.LFE71:
 645              		.size	dmaStreamAllocate, .-dmaStreamAllocate
 646              		.section	.text.dmaStreamRelease,"ax",%progbits
 647              		.align	1
 648              		.global	dmaStreamRelease
 649              		.thumb
 650              		.thumb_func
 651              		.type	dmaStreamRelease, %function
 652              	dmaStreamRelease:
 653              	.LFB72:
 654              		.loc 1 323 0
 655              		.cfi_startproc
 656              		@ args = 0, pretend = 0, frame = 0
 657              		@ frame_needed = 1, uses_anonymous_args = 0
 658              	.LVL36:
 659 0000 98B5     		push	{r3, r4, r7, lr}
 660              	.LCFI32:
 661              		.cfi_def_cfa_offset 16
 662              		.cfi_offset 3, -16
 663              		.cfi_offset 4, -12
 664              		.cfi_offset 7, -8
 665              		.cfi_offset 14, -4
 666 0002 0446     		mov	r4, r0
 667 0004 00AF     		add	r7, sp, #0
 668              	.LCFI33:
 669              		.cfi_def_cfa_register 7
 670              		.loc 1 332 0
 671 0006 807A     		ldrb	r0, [r0, #10]	@ zero_extendqisi2
 672              	.LVL37:
 673 0008 FFF7FEFF 		bl	nvicDisableVector
 674              	.LVL38:
 675              		.loc 1 335 0
 676 000c 627A     		ldrb	r2, [r4, #9]	@ zero_extendqisi2
 677 000e 0849     		ldr	r1, .L68
 678 0010 0123     		movs	r3, #1
 679 0012 03FA02F2 		lsl	r2, r3, r2
 680 0016 0B68     		ldr	r3, [r1]
 681 0018 23EA0203 		bic	r3, r3, r2
 682 001c 0B60     		str	r3, [r1]
 683              		.loc 1 338 0
 684 001e 5B06     		lsls	r3, r3, #25
ARM GAS  /var/folders/_2/42wyrlld3p52fkcpt1lv6gxh0000gp/T//ccmY1GN4.s 			page 13


 685              		.loc 1 339 0
 686 0020 01BF     		itttt	eq
 687 0022 044A     		ldreq	r2, .L68+4
 688 0024 D369     		ldreq	r3, [r2, #28]
 689 0026 23F08073 		biceq	r3, r3, #16777216
 690 002a D361     		streq	r3, [r2, #28]
 691 002c 98BD     		pop	{r3, r4, r7, pc}
 692              	.LVL39:
 693              	.L69:
 694 002e 00BF     		.align	2
 695              	.L68:
 696 0030 00000000 		.word	.LANCHOR1
 697 0034 00380240 		.word	1073887232
 698              		.cfi_endproc
 699              	.LFE72:
 700              		.size	dmaStreamRelease, .-dmaStreamRelease
 701              		.global	_stm32_dma_streams
 702              		.section	.bss.dma_isr_redir,"aw",%nobits
 703              		.align	2
 704              		.set	.LANCHOR0,. + 0
 705              		.type	dma_isr_redir, %object
 706              		.size	dma_isr_redir, 56
 707              	dma_isr_redir:
 708 0000 00000000 		.space	56
 708      00000000 
 708      00000000 
 708      00000000 
 708      00000000 
 709              		.section	.rodata._stm32_dma_streams,"a",%progbits
 710              		.align	2
 711              		.set	.LANCHOR2,. + 0
 712              		.type	_stm32_dma_streams, %object
 713              		.size	_stm32_dma_streams, 84
 714              	_stm32_dma_streams:
 715 0000 08600240 		.word	1073897480
 716 0004 04600240 		.word	1073897476
 717 0008 00       		.byte	0
 718 0009 00       		.byte	0
 719 000a 0B       		.byte	11
 720 000b 00       		.space	1
 721 000c 1C600240 		.word	1073897500
 722 0010 04600240 		.word	1073897476
 723 0014 04       		.byte	4
 724 0015 01       		.byte	1
 725 0016 0C       		.byte	12
 726 0017 00       		.space	1
 727 0018 30600240 		.word	1073897520
 728 001c 04600240 		.word	1073897476
 729 0020 08       		.byte	8
 730 0021 02       		.byte	2
 731 0022 0D       		.byte	13
 732 0023 00       		.space	1
 733 0024 44600240 		.word	1073897540
 734 0028 04600240 		.word	1073897476
 735 002c 0C       		.byte	12
 736 002d 03       		.byte	3
 737 002e 0E       		.byte	14
ARM GAS  /var/folders/_2/42wyrlld3p52fkcpt1lv6gxh0000gp/T//ccmY1GN4.s 			page 14


 738 002f 00       		.space	1
 739 0030 58600240 		.word	1073897560
 740 0034 04600240 		.word	1073897476
 741 0038 10       		.byte	16
 742 0039 04       		.byte	4
 743 003a 0F       		.byte	15
 744 003b 00       		.space	1
 745 003c 6C600240 		.word	1073897580
 746 0040 04600240 		.word	1073897476
 747 0044 14       		.byte	20
 748 0045 05       		.byte	5
 749 0046 10       		.byte	16
 750 0047 00       		.space	1
 751 0048 80600240 		.word	1073897600
 752 004c 04600240 		.word	1073897476
 753 0050 18       		.byte	24
 754 0051 06       		.byte	6
 755 0052 11       		.byte	17
 756 0053 00       		.space	1
 757              		.section	.bss.dma_streams_mask,"aw",%nobits
 758              		.align	2
 759              		.set	.LANCHOR1,. + 0
 760              		.type	dma_streams_mask, %object
 761              		.size	dma_streams_mask, 4
 762              	dma_streams_mask:
 763 0000 00000000 		.space	4
 764              		.text
 765              	.Letext0:
 766              		.file 2 "/Users/ARS/Applications/Eclipse.app/Contents/gcc-arm-none-eabi-5_3-2016q1/arm-none-eabi/i
 767              		.file 3 "/Users/ARS/Applications/Eclipse.app/Contents/gcc-arm-none-eabi-5_3-2016q1/arm-none-eabi/i
 768              		.file 4 "chibios/os/ports/GCC/ARMCMx/chtypes.h"
 769              		.file 5 "chibios/os/hal/platforms/STM32L1xx/stm32l1xx.h"
 770              		.file 6 "chibios/os/hal/platforms/STM32L1xx/stm32_dma.h"
 771              		.file 7 "chibios/os/ports/common/ARMCMx/CMSIS/include/core_cm3.h"
 772              		.file 8 "chibios/os/ports/GCC/ARMCMx/chcore_v7m.h"
 773              		.file 9 "chibios/os/ports/common/ARMCMx/nvic.h"