ARM GAS  /var/folders/_2/42wyrlld3p52fkcpt1lv6gxh0000gp/T//ccLjRQiS.s 			page 1


   1              		.syntax unified
   2              		.cpu cortex-m3
   3              		.fpu softvfp
   4              		.eabi_attribute 20, 1
   5              		.eabi_attribute 21, 1
   6              		.eabi_attribute 23, 3
   7              		.eabi_attribute 24, 1
   8              		.eabi_attribute 25, 1
   9              		.eabi_attribute 26, 1
  10              		.eabi_attribute 30, 4
  11              		.eabi_attribute 34, 1
  12              		.eabi_attribute 18, 4
  13              		.thumb
  14              		.syntax unified
  15              		.file	"stm32l_rtc.c"
  16              		.text
  17              	.Ltext0:
  18              		.cfi_sections	.debug_frame
  19              		.section	.text.rtc_init,"ax",%progbits
  20              		.align	1
  21              		.global	rtc_init
  22              		.thumb
  23              		.thumb_func
  24              		.type	rtc_init, %function
  25              	rtc_init:
  26              	.LFB63:
  27              		.file 1 "src/stm32l_rtc.c"
  28              		.loc 1 7 0
  29              		.cfi_startproc
  30              		@ args = 0, pretend = 0, frame = 0
  31              		@ frame_needed = 1, uses_anonymous_args = 0
  32 0000 98B5     		push	{r3, r4, r7, lr}
  33              	.LCFI0:
  34              		.cfi_def_cfa_offset 16
  35              		.cfi_offset 3, -16
  36              		.cfi_offset 4, -12
  37              		.cfi_offset 7, -8
  38              		.cfi_offset 14, -4
  39              		.loc 1 9 0
  40 0002 104C     		ldr	r4, .L2
  41 0004 CA23     		movs	r3, #202
  42 0006 6362     		str	r3, [r4, #36]
  43              		.loc 1 10 0
  44 0008 5323     		movs	r3, #83
  45 000a 6362     		str	r3, [r4, #36]
  46              		.loc 1 13 0
  47 000c E368     		ldr	r3, [r4, #12]
  48              		.loc 1 7 0
  49 000e 00AF     		add	r7, sp, #0
  50              	.LCFI1:
  51              		.cfi_def_cfa_register 7
  52              		.loc 1 13 0
  53 0010 43F08003 		orr	r3, r3, #128
  54 0014 E360     		str	r3, [r4, #12]
  55              		.loc 1 14 0
  56 0016 0A20     		movs	r0, #10
  57 0018 FFF7FEFF 		bl	chThdSleep
ARM GAS  /var/folders/_2/42wyrlld3p52fkcpt1lv6gxh0000gp/T//ccLjRQiS.s 			page 2


  58              	.LVL0:
  59              		.loc 1 18 0
  60 001c 4FF4FE03 		mov	r3, #8323072
  61 0020 2361     		str	r3, [r4, #16]
  62              		.loc 1 19 0
  63 0022 FF33     		adds	r3, r3, #255
  64 0024 2361     		str	r3, [r4, #16]
  65              		.loc 1 22 0
  66 0026 084B     		ldr	r3, .L2+4
  67              		.loc 1 37 0
  68 0028 0A20     		movs	r0, #10
  69              		.loc 1 22 0
  70 002a 6360     		str	r3, [r4, #4]
  71              		.loc 1 32 0
  72 002c 0023     		movs	r3, #0
  73 002e 2360     		str	r3, [r4]
  74              		.loc 1 35 0
  75 0030 E368     		ldr	r3, [r4, #12]
  76 0032 23F08003 		bic	r3, r3, #128
  77 0036 E360     		str	r3, [r4, #12]
  78              		.loc 1 39 0
  79 0038 BD46     		mov	sp, r7
  80              	.LCFI2:
  81              		.cfi_def_cfa_register 13
  82              		@ sp needed
  83 003a BDE89840 		pop	{r3, r4, r7, lr}
  84              	.LCFI3:
  85              		.cfi_restore 14
  86              		.cfi_restore 7
  87              		.cfi_restore 4
  88              		.cfi_restore 3
  89              		.cfi_def_cfa_offset 0
  90              		.loc 1 37 0
  91 003e FFF7FEBF 		b	chThdSleep
  92              	.LVL1:
  93              	.L3:
  94 0042 00BF     		.align	2
  95              	.L2:
  96 0044 00280040 		.word	1073752064
  97 0048 01011300 		.word	1245441
  98              		.cfi_endproc
  99              	.LFE63:
 100              		.size	rtc_init, .-rtc_init
 101              		.section	.text.rtc_get,"ax",%progbits
 102              		.align	1
 103              		.global	rtc_get
 104              		.thumb
 105              		.thumb_func
 106              		.type	rtc_get, %function
 107              	rtc_get:
 108              	.LFB64:
 109              		.loc 1 42 0
 110              		.cfi_startproc
 111              		@ args = 0, pretend = 0, frame = 0
 112              		@ frame_needed = 1, uses_anonymous_args = 0
 113              		.loc 1 43 0
 114 0000 144A     		ldr	r2, .L5
ARM GAS  /var/folders/_2/42wyrlld3p52fkcpt1lv6gxh0000gp/T//ccLjRQiS.s 			page 3


 115              		.loc 1 42 0
 116 0002 B0B5     		push	{r4, r5, r7, lr}
 117              	.LCFI4:
 118              		.cfi_def_cfa_offset 16
 119              		.cfi_offset 4, -16
 120              		.cfi_offset 5, -12
 121              		.cfi_offset 7, -8
 122              		.cfi_offset 14, -4
 123              		.loc 1 43 0
 124 0004 1368     		ldr	r3, [r2]
 125              	.LVL2:
 126              		.loc 1 44 0
 127 0006 5268     		ldr	r2, [r2, #4]
 128              	.LVL3:
 129              		.loc 1 51 0
 130 0008 0A25     		movs	r5, #10
 131 000a C2F30114 		ubfx	r4, r2, #4, #2
 132 000e 02F00F02 		and	r2, r2, #15
 133              	.LVL4:
 134 0012 05FB0422 		mla	r2, r5, r4, r2
 135 0016 C3F30340 		ubfx	r0, r3, #16, #4
 136 001a 511E     		subs	r1, r2, #1
 137 001c C3F30152 		ubfx	r2, r3, #20, #2
 138 0020 05FB0202 		mla	r2, r5, r2, r0
 139 0024 4FF46160 		mov	r0, #3600
 140 0028 4243     		muls	r2, r0, r2
 141 002a 0B48     		ldr	r0, .L5+4
 142              		.loc 1 42 0
 143 002c 00AF     		add	r7, sp, #0
 144              	.LCFI5:
 145              		.cfi_def_cfa_register 7
 146              		.loc 1 51 0
 147 002e 00FB0122 		mla	r2, r0, r1, r2
 148 0032 C3F30320 		ubfx	r0, r3, #8, #4
 149 0036 C3F30231 		ubfx	r1, r3, #12, #3
 150 003a 05FB0101 		mla	r1, r5, r1, r0
 151 003e 3C20     		movs	r0, #60
 152 0040 00FB0122 		mla	r2, r0, r1, r2
 153 0044 C3F30210 		ubfx	r0, r3, #4, #3
 154 0048 03F00F03 		and	r3, r3, #15
 155              	.LVL5:
 156 004c 05FB0030 		mla	r0, r5, r0, r3
 157              		.loc 1 52 0
 158 0050 1044     		add	r0, r0, r2
 159 0052 B0BD     		pop	{r4, r5, r7, pc}
 160              	.L6:
 161              		.align	2
 162              	.L5:
 163 0054 00280040 		.word	1073752064
 164 0058 80510100 		.word	86400
 165              		.cfi_endproc
 166              	.LFE64:
 167              		.size	rtc_get, .-rtc_get
 168              		.section	.text.rtc_sleep,"ax",%progbits
 169              		.align	1
 170              		.global	rtc_sleep
 171              		.thumb
ARM GAS  /var/folders/_2/42wyrlld3p52fkcpt1lv6gxh0000gp/T//ccLjRQiS.s 			page 4


 172              		.thumb_func
 173              		.type	rtc_sleep, %function
 174              	rtc_sleep:
 175              	.LFB65:
 176              		.loc 1 55 0
 177              		.cfi_startproc
 178              		@ args = 0, pretend = 0, frame = 0
 179              		@ frame_needed = 1, uses_anonymous_args = 0
 180              	.LVL6:
 181              		.loc 1 57 0
 182 0000 314B     		ldr	r3, .L12
 183 0002 CA22     		movs	r2, #202
 184              		.loc 1 55 0
 185 0004 B0B5     		push	{r4, r5, r7, lr}
 186              	.LCFI6:
 187              		.cfi_def_cfa_offset 16
 188              		.cfi_offset 4, -16
 189              		.cfi_offset 5, -12
 190              		.cfi_offset 7, -8
 191              		.cfi_offset 14, -4
 192              		.loc 1 57 0
 193 0006 5A62     		str	r2, [r3, #36]
 194              		.loc 1 58 0
 195 0008 5322     		movs	r2, #83
 196 000a 5A62     		str	r2, [r3, #36]
 197              	.LVL7:
 198              		.loc 1 61 0
 199 000c C002     		lsls	r0, r0, #11
 200              	.LVL8:
 201 000e 4FF47A72 		mov	r2, #1000
 202 0012 90FBF2F0 		sdiv	r0, r0, r2
 203              	.LVL9:
 204              		.loc 1 55 0
 205 0016 00AF     		add	r7, sp, #0
 206              	.LCFI7:
 207              		.cfi_def_cfa_register 7
 208              	.L8:
 209              		.loc 1 63 0
 210 0018 DA68     		ldr	r2, [r3, #12]
 211 001a 2B4C     		ldr	r4, .L12
 212 001c 5207     		lsls	r2, r2, #29
 213 001e 04D4     		bmi	.L11
 214              		.loc 1 64 0
 215 0020 9A68     		ldr	r2, [r3, #8]
 216 0022 22F48062 		bic	r2, r2, #1024
 217 0026 9A60     		str	r2, [r3, #8]
 218 0028 F6E7     		b	.L8
 219              	.L11:
 220              		.loc 1 66 0
 221 002a A368     		ldr	r3, [r4, #8]
 222              		.loc 1 70 0
 223 002c 274D     		ldr	r5, .L12+4
 224              		.loc 1 66 0
 225 002e 23F00703 		bic	r3, r3, #7
 226 0032 A360     		str	r3, [r4, #8]
 227              		.loc 1 67 0
 228 0034 6061     		str	r0, [r4, #20]
ARM GAS  /var/folders/_2/42wyrlld3p52fkcpt1lv6gxh0000gp/T//ccLjRQiS.s 			page 5


 229              		.loc 1 70 0
 230 0036 2B68     		ldr	r3, [r5]
 231              		.loc 1 75 0
 232 0038 254A     		ldr	r2, .L12+8
 233              		.loc 1 70 0
 234 003a 43F00403 		orr	r3, r3, #4
 235 003e 2B60     		str	r3, [r5]
 236              		.loc 1 71 0
 237 0040 E368     		ldr	r3, [r4, #12]
 238 0042 23F48063 		bic	r3, r3, #1024
 239 0046 E360     		str	r3, [r4, #12]
 240              		.loc 1 72 0
 241 0048 A368     		ldr	r3, [r4, #8]
 242 004a 43F48843 		orr	r3, r3, #17408
 243 004e A360     		str	r3, [r4, #8]
 244              		.loc 1 75 0
 245 0050 9368     		ldr	r3, [r2, #8]
 246 0052 23F00F03 		bic	r3, r3, #15
 247 0056 9360     		str	r3, [r2, #8]
 248              		.loc 1 78 0
 249 0058 1E4B     		ldr	r3, .L12+12
 250 005a 5A68     		ldr	r2, [r3, #4]
 251 005c 42F48012 		orr	r2, r2, #1048576
 252 0060 42F00102 		orr	r2, r2, #1
 253 0064 5A60     		str	r2, [r3, #4]
 254              		.loc 1 79 0
 255 0066 9A68     		ldr	r2, [r3, #8]
 256 0068 42F48012 		orr	r2, r2, #1048576
 257 006c 42F00102 		orr	r2, r2, #1
 258 0070 9A60     		str	r2, [r3, #8]
 259              		.loc 1 80 0
 260 0072 5A69     		ldr	r2, [r3, #20]
 261 0074 42F48012 		orr	r2, r2, #1048576
 262 0078 42F00102 		orr	r2, r2, #1
 263 007c 5A61     		str	r2, [r3, #20]
 264              		.loc 1 83 0
 265 007e 2B68     		ldr	r3, [r5]
 266 0080 43F00103 		orr	r3, r3, #1
 267 0084 2B60     		str	r3, [r5]
 268              		.loc 1 84 0
 269 0086 2B68     		ldr	r3, [r5]
 270 0088 23F00203 		bic	r3, r3, #2
 271 008c 2B60     		str	r3, [r5]
 272              		.loc 1 85 0
 273 008e 124B     		ldr	r3, .L12+16
 274 0090 1A69     		ldr	r2, [r3, #16]
 275 0092 42F00402 		orr	r2, r2, #4
 276 0096 1A61     		str	r2, [r3, #16]
 277              		.loc 1 86 0
 278              		.syntax unified
 279              	@ 86 "src/stm32l_rtc.c" 1
 280 0098 BFF34F8F 		dsb
 281              	@ 0 "" 2
 282              		.loc 1 87 0
 283              	@ 87 "src/stm32l_rtc.c" 1
 284 009c 20BF     		wfe
 285              	@ 0 "" 2
ARM GAS  /var/folders/_2/42wyrlld3p52fkcpt1lv6gxh0000gp/T//ccLjRQiS.s 			page 6


 286              		.loc 1 88 0
 287              		.thumb
 288              		.syntax unified
 289 009e 1A69     		ldr	r2, [r3, #16]
 290 00a0 22F00402 		bic	r2, r2, #4
 291 00a4 1A61     		str	r2, [r3, #16]
 292              		.loc 1 91 0
 293 00a6 FFF7FEFF 		bl	stm32_clock_init
 294              	.LVL10:
 295              		.loc 1 94 0
 296 00aa 2B68     		ldr	r3, [r5]
 297 00ac 43F48073 		orr	r3, r3, #256
 298 00b0 2B60     		str	r3, [r5]
 299              		.loc 1 96 0
 300 00b2 A368     		ldr	r3, [r4, #8]
 301 00b4 23F48063 		bic	r3, r3, #1024
 302 00b8 A360     		str	r3, [r4, #8]
 303              		.loc 1 97 0
 304 00ba E368     		ldr	r3, [r4, #12]
 305 00bc 23F48063 		bic	r3, r3, #1024
 306 00c0 E360     		str	r3, [r4, #12]
 307              		.loc 1 98 0
 308 00c2 0023     		movs	r3, #0
 309 00c4 6362     		str	r3, [r4, #36]
 310 00c6 B0BD     		pop	{r4, r5, r7, pc}
 311              	.L13:
 312              		.align	2
 313              	.L12:
 314 00c8 00280040 		.word	1073752064
 315 00cc 00700040 		.word	1073770496
 316 00d0 00000140 		.word	1073807360
 317 00d4 00040140 		.word	1073808384
 318 00d8 00ED00E0 		.word	-536810240
 319              		.cfi_endproc
 320              	.LFE65:
 321              		.size	rtc_sleep, .-rtc_sleep
 322              		.text
 323              	.Letext0:
 324              		.file 2 "/Users/ARS/Applications/Eclipse.app/Contents/gcc-arm-none-eabi-5_3-2016q1/arm-none-eabi/i
 325              		.file 3 "/Users/ARS/Applications/Eclipse.app/Contents/gcc-arm-none-eabi-5_3-2016q1/arm-none-eabi/i
 326              		.file 4 "chibios/os/ports/GCC/ARMCMx/chtypes.h"
 327              		.file 5 "chibios/os/ports/common/ARMCMx/CMSIS/include/core_cm3.h"
 328              		.file 6 "chibios/os/hal/platforms/STM32L1xx/stm32l1xx.h"
 329              		.file 7 "chibios/os/kernel/include/chthreads.h"
 330              		.file 8 "chibios/os/hal/platforms/STM32L1xx/hal_lld.h"