ARM GAS  /var/folders/_2/42wyrlld3p52fkcpt1lv6gxh0000gp/T//cc5isQxw.s 			page 1


   1              		.syntax unified
   2              		.cpu cortex-m3
   3              		.fpu softvfp
   4              		.eabi_attribute 20, 1
   5              		.eabi_attribute 21, 1
   6              		.eabi_attribute 23, 3
   7              		.eabi_attribute 24, 1
   8              		.eabi_attribute 25, 1
   9              		.eabi_attribute 26, 1
  10              		.eabi_attribute 30, 4
  11              		.eabi_attribute 34, 1
  12              		.eabi_attribute 18, 4
  13              		.thumb
  14              		.syntax unified
  15              		.file	"tempgraph.c"
  16              		.text
  17              	.Ltext0:
  18              		.cfi_sections	.debug_frame
  19              		.section	.text.graph_contains,"ax",%progbits
  20              		.align	1
  21              		.thumb
  22              		.thumb_func
  23              		.type	graph_contains, %function
  24              	graph_contains:
  25              	.LFB76:
  26              		.file 1 "src/tempgraph.c"
  27              		.loc 1 106 0
  28              		.cfi_startproc
  29              		@ args = 0, pretend = 0, frame = 0
  30              		@ frame_needed = 1, uses_anonymous_args = 0
  31              	.LVL0:
  32 0000 80B5     		push	{r7, lr}
  33              	.LCFI0:
  34              		.cfi_def_cfa_offset 8
  35              		.cfi_offset 7, -8
  36              		.cfi_offset 14, -4
  37              		.loc 1 107 0
  38 0002 0B4B     		ldr	r3, .L7
  39              		.loc 1 106 0
  40 0004 00AF     		add	r7, sp, #0
  41              	.LCFI1:
  42              		.cfi_def_cfa_register 7
  43              		.loc 1 107 0
  44 0006 1B68     		ldr	r3, [r3]
  45 0008 8342     		cmp	r3, r0
  46 000a 0EDC     		bgt	.L5
  47              		.loc 1 107 0 is_stmt 0 discriminator 1
  48 000c 094B     		ldr	r3, .L7+4
  49 000e 1B68     		ldr	r3, [r3]
  50 0010 9842     		cmp	r0, r3
  51 0012 0ADC     		bgt	.L5
  52              		.loc 1 107 0 discriminator 3
  53 0014 084B     		ldr	r3, .L7+8
  54 0016 1B68     		ldr	r3, [r3]
  55 0018 8B42     		cmp	r3, r1
  56 001a 06DC     		bgt	.L5
  57              		.loc 1 107 0 discriminator 5
ARM GAS  /var/folders/_2/42wyrlld3p52fkcpt1lv6gxh0000gp/T//cc5isQxw.s 			page 2


  58 001c 074B     		ldr	r3, .L7+12
  59 001e 1868     		ldr	r0, [r3]
  60              	.LVL1:
  61 0020 8142     		cmp	r1, r0
  62 0022 CCBF     		ite	gt
  63 0024 0020     		movgt	r0, #0
  64 0026 0120     		movle	r0, #1
  65 0028 80BD     		pop	{r7, pc}
  66              	.LVL2:
  67              	.L5:
  68              		.loc 1 107 0
  69 002a 0020     		movs	r0, #0
  70              	.LVL3:
  71              		.loc 1 108 0 is_stmt 1
  72 002c 80BD     		pop	{r7, pc}
  73              	.L8:
  74 002e 00BF     		.align	2
  75              	.L7:
  76 0030 00000000 		.word	.LANCHOR0
  77 0034 00000000 		.word	.LANCHOR1
  78 0038 00000000 		.word	.LANCHOR2
  79 003c 00000000 		.word	.LANCHOR3
  80              		.cfi_endproc
  81              	.LFE76:
  82              		.size	graph_contains, .-graph_contains
  83              		.section	.text.graph_gety,"ax",%progbits
  84              		.align	1
  85              		.global	graph_gety
  86              		.thumb
  87              		.thumb_func
  88              		.type	graph_gety, %function
  89              	graph_gety:
  90              	.LFB71:
  91              		.loc 1 13 0
  92              		.cfi_startproc
  93              		@ args = 0, pretend = 0, frame = 0
  94              		@ frame_needed = 1, uses_anonymous_args = 0
  95              	.LVL4:
  96              		.loc 1 14 0
  97 0000 074B     		ldr	r3, .L10
  98 0002 0849     		ldr	r1, .L10+4
  99 0004 1A68     		ldr	r2, [r3]
 100 0006 084B     		ldr	r3, .L10+8
 101 0008 801A     		subs	r0, r0, r2
 102              	.LVL5:
 103 000a 4343     		muls	r3, r0, r3
 104 000c 0868     		ldr	r0, [r1]
 105              		.loc 1 13 0
 106 000e 80B5     		push	{r7, lr}
 107              	.LCFI2:
 108              		.cfi_def_cfa_offset 8
 109              		.cfi_offset 7, -8
 110              		.cfi_offset 14, -4
 111              		.loc 1 14 0
 112 0010 801A     		subs	r0, r0, r2
 113 0012 93FBF0F0 		sdiv	r0, r3, r0
 114              		.loc 1 13 0
ARM GAS  /var/folders/_2/42wyrlld3p52fkcpt1lv6gxh0000gp/T//cc5isQxw.s 			page 3


 115 0016 00AF     		add	r7, sp, #0
 116              	.LCFI3:
 117              		.cfi_def_cfa_register 7
 118              		.loc 1 15 0
 119 0018 00F22620 		addw	r0, r0, #550
 120 001c 80BD     		pop	{r7, pc}
 121              	.L11:
 122 001e 00BF     		.align	2
 123              	.L10:
 124 0020 00000000 		.word	.LANCHOR2
 125 0024 00000000 		.word	.LANCHOR3
 126 0028 ACFEFFFF 		.word	-340
 127              		.cfi_endproc
 128              	.LFE71:
 129              		.size	graph_gety, .-graph_gety
 130              		.section	.text.graph_getx,"ax",%progbits
 131              		.align	1
 132              		.global	graph_getx
 133              		.thumb
 134              		.thumb_func
 135              		.type	graph_getx, %function
 136              	graph_getx:
 137              	.LFB72:
 138              		.loc 1 19 0
 139              		.cfi_startproc
 140              		@ args = 0, pretend = 0, frame = 0
 141              		@ frame_needed = 1, uses_anonymous_args = 0
 142              	.LVL6:
 143              		.loc 1 20 0
 144 0000 074B     		ldr	r3, .L13
 145 0002 0849     		ldr	r1, .L13+4
 146 0004 1A68     		ldr	r2, [r3]
 147 0006 40F2CB23 		movw	r3, #715
 148 000a 801A     		subs	r0, r0, r2
 149              	.LVL7:
 150 000c 4343     		muls	r3, r0, r3
 151 000e 0868     		ldr	r0, [r1]
 152              		.loc 1 19 0
 153 0010 80B5     		push	{r7, lr}
 154              	.LCFI4:
 155              		.cfi_def_cfa_offset 8
 156              		.cfi_offset 7, -8
 157              		.cfi_offset 14, -4
 158              		.loc 1 20 0
 159 0012 801A     		subs	r0, r0, r2
 160 0014 93FBF0F0 		sdiv	r0, r3, r0
 161              		.loc 1 19 0
 162 0018 00AF     		add	r7, sp, #0
 163              	.LCFI5:
 164              		.cfi_def_cfa_register 7
 165              		.loc 1 21 0
 166 001a 5030     		adds	r0, r0, #80
 167 001c 80BD     		pop	{r7, pc}
 168              	.L14:
 169 001e 00BF     		.align	2
 170              	.L13:
 171 0020 00000000 		.word	.LANCHOR0
ARM GAS  /var/folders/_2/42wyrlld3p52fkcpt1lv6gxh0000gp/T//cc5isQxw.s 			page 4


 172 0024 00000000 		.word	.LANCHOR1
 173              		.cfi_endproc
 174              	.LFE72:
 175              		.size	graph_getx, .-graph_getx
 176              		.section	.text.graph_drawgrid,"ax",%progbits
 177              		.align	1
 178              		.global	graph_drawgrid
 179              		.thumb
 180              		.thumb_func
 181              		.type	graph_drawgrid, %function
 182              	graph_drawgrid:
 183              	.LFB75:
 184              		.loc 1 52 0
 185              		.cfi_startproc
 186              		@ args = 0, pretend = 0, frame = 24
 187              		@ frame_needed = 1, uses_anonymous_args = 0
 188              	.LVL8:
 189 0000 2DE9F04F 		push	{r4, r5, r6, r7, r8, r9, r10, fp, lr}
 190              	.LCFI6:
 191              		.cfi_def_cfa_offset 36
 192              		.cfi_offset 4, -36
 193              		.cfi_offset 5, -32
 194              		.cfi_offset 6, -28
 195              		.cfi_offset 7, -24
 196              		.cfi_offset 8, -20
 197              		.cfi_offset 9, -16
 198              		.cfi_offset 10, -12
 199              		.cfi_offset 11, -8
 200              		.cfi_offset 14, -4
 201 0004 8DB0     		sub	sp, sp, #52
 202              	.LCFI7:
 203              		.cfi_def_cfa_offset 88
 204 0006 06AF     		add	r7, sp, #24
 205              	.LCFI8:
 206              		.cfi_def_cfa 7, 64
 207              		.loc 1 52 0
 208 0008 7B60     		str	r3, [r7, #4]
 209              		.loc 1 54 0
 210 000a 8A4B     		ldr	r3, .L44
 211              	.LVL9:
 212              		.loc 1 52 0
 213 000c 9146     		mov	r9, r2
 214              		.loc 1 54 0
 215 000e 1A60     		str	r2, [r3]
 216              		.loc 1 55 0
 217 0010 894B     		ldr	r3, .L44+4
 218 0012 7A68     		ldr	r2, [r7, #4]
 219              	.LVL10:
 220              		.loc 1 52 0
 221 0014 8046     		mov	r8, r0
 222              		.loc 1 55 0
 223 0016 1A60     		str	r2, [r3]
 224              		.loc 1 56 0
 225 0018 884B     		ldr	r3, .L44+8
 226              		.loc 1 60 0
 227 001a 0622     		movs	r2, #6
 228              		.loc 1 56 0
ARM GAS  /var/folders/_2/42wyrlld3p52fkcpt1lv6gxh0000gp/T//cc5isQxw.s 			page 5


 229 001c 1860     		str	r0, [r3]
 230              		.loc 1 57 0
 231 001e 884B     		ldr	r3, .L44+12
 232              		.loc 1 52 0
 233 0020 B960     		str	r1, [r7, #8]
 234              		.loc 1 57 0
 235 0022 1960     		str	r1, [r3]
 236              		.loc 1 60 0
 237 0024 0B1A     		subs	r3, r1, r0
 238 0026 93FBF2F3 		sdiv	r3, r3, r2
 239              	.LVL11:
 240              	.LBB12:
 241              	.LBB13:
 242              		.loc 1 39 0
 243 002a 3C2B     		cmp	r3, #60
 244 002c 18DD     		ble	.L28
 245              		.loc 1 40 0
 246 002e 782B     		cmp	r3, #120
 247 0030 18DD     		ble	.L29
 248              		.loc 1 41 0
 249 0032 B3F5967F 		cmp	r3, #300
 250 0036 17DD     		ble	.L30
 251              		.loc 1 42 0
 252 0038 B3F5167F 		cmp	r3, #600
 253 003c 17DD     		ble	.L31
 254              		.loc 1 43 0
 255 003e B3F5617F 		cmp	r3, #900
 256 0042 17DD     		ble	.L32
 257              		.loc 1 44 0
 258 0044 B3F5E16F 		cmp	r3, #1800
 259 0048 17DD     		ble	.L33
 260              		.loc 1 45 0
 261 004a B3F5616F 		cmp	r3, #3600
 262 004e 17DD     		ble	.L34
 263              		.loc 1 48 0
 264 0050 B3F5E15F 		cmp	r3, #7200
 265 0054 D4BF     		ite	le
 266 0056 4FF4E156 		movle	r6, #7200
 267 005a 4FF46156 		movgt	r6, #14400
 268 005e 11E0     		b	.L16
 269              	.L28:
 270              		.loc 1 39 0
 271 0060 3C26     		movs	r6, #60
 272 0062 0FE0     		b	.L16
 273              	.L29:
 274              		.loc 1 40 0
 275 0064 7826     		movs	r6, #120
 276 0066 0DE0     		b	.L16
 277              	.L30:
 278              		.loc 1 41 0
 279 0068 4FF49676 		mov	r6, #300
 280 006c 0AE0     		b	.L16
 281              	.L31:
 282              		.loc 1 42 0
 283 006e 4FF41676 		mov	r6, #600
 284 0072 07E0     		b	.L16
 285              	.L32:
ARM GAS  /var/folders/_2/42wyrlld3p52fkcpt1lv6gxh0000gp/T//cc5isQxw.s 			page 6


 286              		.loc 1 43 0
 287 0074 4FF46176 		mov	r6, #900
 288 0078 04E0     		b	.L16
 289              	.L33:
 290              		.loc 1 44 0
 291 007a 4FF4E166 		mov	r6, #1800
 292 007e 01E0     		b	.L16
 293              	.L34:
 294              		.loc 1 45 0
 295 0080 4FF46166 		mov	r6, #3600
 296              	.L16:
 297              	.LVL12:
 298              	.LBE13:
 299              	.LBE12:
 300              		.loc 1 61 0
 301 0084 7B68     		ldr	r3, [r7, #4]
 302 0086 0524     		movs	r4, #5
 303 0088 C9EB0303 		rsb	r3, r9, r3
 304 008c 93FBF4F3 		sdiv	r3, r3, r4
 305              	.LVL13:
 306              	.LBB14:
 307              	.LBB15:
 308              		.loc 1 26 0
 309 0090 B3F57A7F 		cmp	r3, #1000
 310 0094 17DD     		ble	.L36
 311              		.loc 1 27 0
 312 0096 41F28834 		movw	r4, #5000
 313 009a A342     		cmp	r3, r4
 314 009c 15DD     		ble	.L17
 315              		.loc 1 28 0
 316 009e 42F21074 		movw	r4, #10000
 317 00a2 A342     		cmp	r3, r4
 318 00a4 11DD     		ble	.L17
 319              		.loc 1 29 0
 320 00a6 44F62064 		movw	r4, #20000
 321 00aa A342     		cmp	r3, r4
 322 00ac 0DDD     		ble	.L17
 323              		.loc 1 30 0
 324 00ae 47F23054 		movw	r4, #30000
 325 00b2 A342     		cmp	r3, r4
 326 00b4 09DD     		ble	.L17
 327              		.loc 1 31 0
 328 00b6 49F64044 		movw	r4, #40000
 329              		.loc 1 33 0
 330 00ba 4CF25032 		movw	r2, #50000
 331 00be A342     		cmp	r3, r4
 332 00c0 C8BF     		it	gt
 333 00c2 1446     		movgt	r4, r2
 334 00c4 01E0     		b	.L17
 335              	.L36:
 336              		.loc 1 26 0
 337 00c6 4FF47A74 		mov	r4, #1000
 338              	.L17:
 339              	.LVL14:
 340              	.LBE15:
 341              	.LBE14:
 342              		.loc 1 63 0
ARM GAS  /var/folders/_2/42wyrlld3p52fkcpt1lv6gxh0000gp/T//cc5isQxw.s 			page 7


 343 00ca 5E48     		ldr	r0, .L44+16
 344              	.LVL15:
 345 00cc FFF7FEFF 		bl	gdispOpenFont
 346              	.LVL16:
 347              		.loc 1 66 0
 348 00d0 4FF0000A 		mov	r10, #0
 349 00d4 DFF878B1 		ldr	fp, .L44+28
 350 00d8 CDF804A0 		str	r10, [sp, #4]
 351 00dc 0090     		str	r0, [sp]
 352              		.loc 1 63 0
 353 00de F860     		str	r0, [r7, #12]
 354              	.LVL17:
 355              		.loc 1 66 0
 356 00e0 594B     		ldr	r3, .L44+20
 357 00e2 D222     		movs	r2, #210
 358 00e4 1421     		movs	r1, #20
 359 00e6 DBF80000 		ldr	r0, [fp]
 360              	.LVL18:
 361 00ea FFF7FEFF 		bl	gdispGDrawString
 362              	.LVL19:
 363              		.loc 1 69 0
 364 00ee 4FF4AA73 		mov	r3, #340
 365 00f2 0093     		str	r3, [sp]
 366 00f4 CDF804A0 		str	r10, [sp, #4]
 367 00f8 0623     		movs	r3, #6
 368 00fa D222     		movs	r2, #210
 369 00fc 5021     		movs	r1, #80
 370 00fe DBF80000 		ldr	r0, [fp]
 371 0102 FFF7FEFF 		bl	gdispGFillArea
 372              	.LVL20:
 373              	.LBB16:
 374              		.loc 1 71 0
 375 0106 99FBF4F5 		sdiv	r5, r9, r4
 376 010a 04FB1595 		mls	r5, r4, r5, r9
 377              	.LBB17:
 378              		.loc 1 76 0
 379 010e C7F800A0 		str	r10, [r7]
 380              	.LBE17:
 381              		.loc 1 71 0
 382 0112 C5EB0905 		rsb	r5, r5, r9
 383              	.LVL21:
 384              	.L18:
 385              		.loc 1 71 0 is_stmt 0 discriminator 1
 386 0116 7B68     		ldr	r3, [r7, #4]
 387 0118 9D42     		cmp	r5, r3
 388 011a 33DC     		bgt	.L42
 389              	.LBB19:
 390              		.loc 1 73 0 is_stmt 1
 391 011c 4D45     		cmp	r5, r9
 392 011e 2FDB     		blt	.L20
 393              		.loc 1 75 0
 394 0120 2846     		mov	r0, r5
 395 0122 FFF7FEFF 		bl	graph_gety
 396              	.LVL22:
 397 0126 8246     		mov	r10, r0
 398              	.LVL23:
 399              		.loc 1 76 0
ARM GAS  /var/folders/_2/42wyrlld3p52fkcpt1lv6gxh0000gp/T//cc5isQxw.s 			page 8


 400 0128 3B68     		ldr	r3, [r7]
 401 012a 02B2     		sxth	r2, r0
 402 012c 8DE80C00 		stmia	sp, {r2, r3}
 403 0130 5021     		movs	r1, #80
 404 0132 40F21B33 		movw	r3, #795
 405 0136 DBF80000 		ldr	r0, [fp]
 406              	.LVL24:
 407 013a FFF7FEFF 		bl	gdispGDrawLine
 408              	.LVL25:
 409              		.loc 1 78 0
 410 013e BAF5827F 		cmp	r10, #260
 411 0142 1DDD     		ble	.L20
 412              	.LBB18:
 413              		.loc 1 81 0
 414 0144 4FF47A73 		mov	r3, #1000
 415 0148 95FBF3F3 		sdiv	r3, r5, r3
 416 014c 3F4A     		ldr	r2, .L44+24
 417 014e 0821     		movs	r1, #8
 418 0150 07F11000 		add	r0, r7, #16
 419              	.LVL26:
 420 0154 FFF7FEFF 		bl	snprintf
 421              	.LVL27:
 422              		.loc 1 82 0
 423 0158 0223     		movs	r3, #2
 424 015a 0493     		str	r3, [sp, #16]
 425 015c 3B68     		ldr	r3, [r7]
 426 015e AAF11E02 		sub	r2, r10, #30
 427 0162 0393     		str	r3, [sp, #12]
 428 0164 FB68     		ldr	r3, [r7, #12]
 429 0166 12B2     		sxth	r2, r2
 430 0168 0293     		str	r3, [sp, #8]
 431 016a 07F11003 		add	r3, r7, #16
 432              	.LVL28:
 433 016e 0193     		str	r3, [sp, #4]
 434 0170 3C23     		movs	r3, #60
 435              	.LVL29:
 436 0172 0093     		str	r3, [sp]
 437 0174 0021     		movs	r1, #0
 438 0176 4B23     		movs	r3, #75
 439 0178 DBF80000 		ldr	r0, [fp]
 440 017c FFF7FEFF 		bl	gdispGDrawStringBox
 441              	.LVL30:
 442              	.L20:
 443              	.LBE18:
 444              	.LBE19:
 445              		.loc 1 71 0 discriminator 2
 446 0180 2544     		add	r5, r5, r4
 447              	.LVL31:
 448 0182 C8E7     		b	.L18
 449              	.L42:
 450              	.LBE16:
 451              		.loc 1 87 0
 452 0184 0623     		movs	r3, #6
 453 0186 4FF00009 		mov	r9, #0
 454              	.LVL32:
 455 018a 8DE80802 		stmia	sp, {r3, r9}
 456 018e 304D     		ldr	r5, .L44+28
ARM GAS  /var/folders/_2/42wyrlld3p52fkcpt1lv6gxh0000gp/T//cc5isQxw.s 			page 9


 457              	.LVL33:
 458 0190 40F2CB23 		movw	r3, #715
 459 0194 40F22122 		movw	r2, #545
 460 0198 5021     		movs	r1, #80
 461 019a 2868     		ldr	r0, [r5]
 462 019c FFF7FEFF 		bl	gdispGFillArea
 463              	.LVL34:
 464              	.LBB20:
 465              		.loc 1 89 0
 466 01a0 98FBF4F3 		sdiv	r3, r8, r4
 467 01a4 04FB1384 		mls	r4, r4, r3, r8
 468 01a8 C4EB0804 		rsb	r4, r4, r8
 469              	.LVL35:
 470              	.L23:
 471              		.loc 1 89 0 is_stmt 0 discriminator 1
 472 01ac BB68     		ldr	r3, [r7, #8]
 473 01ae 9C42     		cmp	r4, r3
 474 01b0 3CDC     		bgt	.L43
 475              	.LBB21:
 476              		.loc 1 91 0 is_stmt 1
 477 01b2 4445     		cmp	r4, r8
 478 01b4 38DB     		blt	.L25
 479              		.loc 1 93 0
 480 01b6 2046     		mov	r0, r4
 481 01b8 FFF7FEFF 		bl	graph_getx
 482              	.LVL36:
 483 01bc 8246     		mov	r10, r0
 484              	.LVL37:
 485              		.loc 1 94 0
 486 01be D222     		movs	r2, #210
 487 01c0 03B2     		sxth	r3, r0
 488 01c2 0092     		str	r2, [sp]
 489 01c4 CDF80490 		str	r9, [sp, #4]
 490 01c8 1946     		mov	r1, r3
 491 01ca 40F22622 		movw	r2, #550
 492 01ce 2868     		ldr	r0, [r5]
 493              	.LVL38:
 494 01d0 FFF7FEFF 		bl	gdispGDrawLine
 495              	.LVL39:
 496              		.loc 1 96 0
 497 01d4 AAF16F03 		sub	r3, r10, #111
 498 01d8 B3F51C7F 		cmp	r3, #624
 499 01dc 24D8     		bhi	.L25
 500              	.LBB22:
 501              		.loc 1 99 0
 502 01de 4FF46162 		mov	r2, #3600
 503 01e2 94FBF2F3 		sdiv	r3, r4, r2
 504 01e6 02FB1342 		mls	r2, r2, r3, r4
 505 01ea 4FF03C0B 		mov	fp, #60
 506 01ee 92FBFBF2 		sdiv	r2, r2, fp
 507 01f2 0821     		movs	r1, #8
 508 01f4 0092     		str	r2, [sp]
 509 01f6 07F11000 		add	r0, r7, #16
 510              	.LVL40:
 511 01fa 164A     		ldr	r2, .L44+32
 512 01fc FFF7FEFF 		bl	snprintf
 513              	.LVL41:
ARM GAS  /var/folders/_2/42wyrlld3p52fkcpt1lv6gxh0000gp/T//cc5isQxw.s 			page 10


 514              		.loc 1 100 0
 515 0200 0123     		movs	r3, #1
 516 0202 0493     		str	r3, [sp, #16]
 517 0204 FB68     		ldr	r3, [r7, #12]
 518 0206 AAF13201 		sub	r1, r10, #50
 519 020a 0293     		str	r3, [sp, #8]
 520 020c 07F11003 		add	r3, r7, #16
 521              	.LVL42:
 522 0210 0193     		str	r3, [sp, #4]
 523 0212 CDF80C90 		str	r9, [sp, #12]
 524 0216 CDF800B0 		str	fp, [sp]
 525 021a 6423     		movs	r3, #100
 526              	.LVL43:
 527 021c 40F22622 		movw	r2, #550
 528 0220 09B2     		sxth	r1, r1
 529 0222 2868     		ldr	r0, [r5]
 530 0224 FFF7FEFF 		bl	gdispGDrawStringBox
 531              	.LVL44:
 532              	.L25:
 533              	.LBE22:
 534              	.LBE21:
 535              		.loc 1 89 0 discriminator 2
 536 0228 3444     		add	r4, r4, r6
 537              	.LVL45:
 538 022a BFE7     		b	.L23
 539              	.L43:
 540              	.LBE20:
 541              		.loc 1 103 0
 542 022c 1C37     		adds	r7, r7, #28
 543              	.LCFI9:
 544              		.cfi_def_cfa_offset 36
 545 022e BD46     		mov	sp, r7
 546              	.LCFI10:
 547              		.cfi_def_cfa_register 13
 548              	.LVL46:
 549              		@ sp needed
 550 0230 BDE8F08F 		pop	{r4, r5, r6, r7, r8, r9, r10, fp, pc}
 551              	.LVL47:
 552              	.L45:
 553              		.align	2
 554              	.L44:
 555 0234 00000000 		.word	.LANCHOR2
 556 0238 00000000 		.word	.LANCHOR3
 557 023c 00000000 		.word	.LANCHOR0
 558 0240 00000000 		.word	.LANCHOR1
 559 0244 00000000 		.word	.LC0
 560 0248 0B000000 		.word	.LC1
 561 024c 0F000000 		.word	.LC2
 562 0250 00000000 		.word	GDISP
 563 0254 12000000 		.word	.LC3
 564              		.cfi_endproc
 565              	.LFE75:
 566              		.size	graph_drawgrid, .-graph_drawgrid
 567              		.section	.text.graph_drawline,"ax",%progbits
 568              		.align	1
 569              		.global	graph_drawline
 570              		.thumb
ARM GAS  /var/folders/_2/42wyrlld3p52fkcpt1lv6gxh0000gp/T//cc5isQxw.s 			page 11


 571              		.thumb_func
 572              		.type	graph_drawline, %function
 573              	graph_drawline:
 574              	.LFB77:
 575              		.loc 1 111 0
 576              		.cfi_startproc
 577              		@ args = 0, pretend = 0, frame = 0
 578              		@ frame_needed = 1, uses_anonymous_args = 0
 579              	.LVL48:
 580 0000 2DE9F043 		push	{r4, r5, r6, r7, r8, r9, lr}
 581              	.LCFI11:
 582              		.cfi_def_cfa_offset 28
 583              		.cfi_offset 4, -28
 584              		.cfi_offset 5, -24
 585              		.cfi_offset 6, -20
 586              		.cfi_offset 7, -16
 587              		.cfi_offset 8, -12
 588              		.cfi_offset 9, -8
 589              		.cfi_offset 14, -4
 590 0004 85B0     		sub	sp, sp, #20
 591              	.LCFI12:
 592              		.cfi_def_cfa_offset 48
 593 0006 04AF     		add	r7, sp, #16
 594              	.LCFI13:
 595              		.cfi_def_cfa 7, 32
 596              		.loc 1 111 0
 597 0008 8046     		mov	r8, r0
 598 000a 8946     		mov	r9, r1
 599 000c 1546     		mov	r5, r2
 600 000e 1C46     		mov	r4, r3
 601              		.loc 1 112 0
 602 0010 FFF7FEFF 		bl	graph_contains
 603              	.LVL49:
 604 0014 28B3     		cbz	r0, .L46
 605              		.loc 1 112 0 is_stmt 0 discriminator 1
 606 0016 2146     		mov	r1, r4
 607 0018 1046     		mov	r0, r2
 608 001a FFF7FEFF 		bl	graph_contains
 609              	.LVL50:
 610 001e 00B3     		cbz	r0, .L46
 611              		.loc 1 114 0 is_stmt 1
 612 0020 124B     		ldr	r3, .L54
 613 0022 4046     		mov	r0, r8
 614 0024 1E68     		ldr	r6, [r3]
 615 0026 FFF7FEFF 		bl	graph_getx
 616              	.LVL51:
 617 002a 8046     		mov	r8, r0
 618              	.LVL52:
 619 002c 4846     		mov	r0, r9
 620 002e FFF7FEFF 		bl	graph_gety
 621              	.LVL53:
 622 0032 8146     		mov	r9, r0
 623              	.LVL54:
 624 0034 2846     		mov	r0, r5
 625 0036 FFF7FEFF 		bl	graph_getx
 626              	.LVL55:
 627 003a 0546     		mov	r5, r0
ARM GAS  /var/folders/_2/42wyrlld3p52fkcpt1lv6gxh0000gp/T//cc5isQxw.s 			page 12


 628              	.LVL56:
 629 003c 2046     		mov	r0, r4
 630 003e FFF7FEFF 		bl	graph_gety
 631              	.LVL57:
 632 0042 0123     		movs	r3, #1
 633 0044 0393     		str	r3, [sp, #12]
 634 0046 0423     		movs	r3, #4
 635 0048 00B2     		sxth	r0, r0
 636 004a 0293     		str	r3, [sp, #8]
 637 004c 0023     		movs	r3, #0
 638 004e 0193     		str	r3, [sp, #4]
 639 0050 0090     		str	r0, [sp]
 640 0052 2BB2     		sxth	r3, r5
 641 0054 0FFA89F2 		sxth	r2, r9
 642 0058 0FFA88F1 		sxth	r1, r8
 643 005c 3046     		mov	r0, r6
 644 005e FFF7FEFF 		bl	gdispGDrawThickLine
 645              	.LVL58:
 646              	.L46:
 647              		.loc 1 118 0
 648 0062 0437     		adds	r7, r7, #4
 649              	.LCFI14:
 650              		.cfi_def_cfa_offset 28
 651 0064 BD46     		mov	sp, r7
 652              	.LCFI15:
 653              		.cfi_def_cfa_register 13
 654              		@ sp needed
 655 0066 BDE8F083 		pop	{r4, r5, r6, r7, r8, r9, pc}
 656              	.LVL59:
 657              	.L55:
 658 006a 00BF     		.align	2
 659              	.L54:
 660 006c 00000000 		.word	GDISP
 661              		.cfi_endproc
 662              	.LFE77:
 663              		.size	graph_drawline, .-graph_drawline
 664              		.section	.text.graph_drawcurve,"ax",%progbits
 665              		.align	1
 666              		.global	graph_drawcurve
 667              		.thumb
 668              		.thumb_func
 669              		.type	graph_drawcurve, %function
 670              	graph_drawcurve:
 671              	.LFB78:
 672              		.loc 1 121 0
 673              		.cfi_startproc
 674              		@ args = 0, pretend = 0, frame = 32
 675              		@ frame_needed = 1, uses_anonymous_args = 0
 676              	.LVL60:
 677 0000 2DE9F04F 		push	{r4, r5, r6, r7, r8, r9, r10, fp, lr}
 678              	.LCFI16:
 679              		.cfi_def_cfa_offset 36
 680              		.cfi_offset 4, -36
 681              		.cfi_offset 5, -32
 682              		.cfi_offset 6, -28
 683              		.cfi_offset 7, -24
 684              		.cfi_offset 8, -20
ARM GAS  /var/folders/_2/42wyrlld3p52fkcpt1lv6gxh0000gp/T//cc5isQxw.s 			page 13


 685              		.cfi_offset 9, -16
 686              		.cfi_offset 10, -12
 687              		.cfi_offset 11, -8
 688              		.cfi_offset 14, -4
 689 0004 8BB0     		sub	sp, sp, #44
 690              	.LCFI17:
 691              		.cfi_def_cfa_offset 80
 692 0006 02AF     		add	r7, sp, #8
 693              	.LCFI18:
 694              		.cfi_def_cfa 7, 72
 695              		.loc 1 122 0
 696 0008 2F4B     		ldr	r3, .L67
 697              		.loc 1 121 0
 698 000a 7A61     		str	r2, [r7, #20]
 699              		.loc 1 122 0
 700 000c 2F4A     		ldr	r2, .L67+4
 701              	.LVL61:
 702 000e 1C68     		ldr	r4, [r3]
 703 0010 1368     		ldr	r3, [r2]
 704 0012 6425     		movs	r5, #100
 705 0014 1B1B     		subs	r3, r3, r4
 706 0016 93FBF5F5 		sdiv	r5, r3, r5
 707 001a FD61     		str	r5, [r7, #28]
 708              	.LVL62:
 709              	.LBB23:
 710              	.LBB24:
 711              		.loc 1 126 0
 712 001c C825     		movs	r5, #200
 713              	.LVL63:
 714 001e 93FBF5F3 		sdiv	r3, r3, r5
 715              	.LBE24:
 716              		.loc 1 123 0
 717 0022 9346     		mov	fp, r2
 718              	.LBB25:
 719              		.loc 1 126 0
 720 0024 BB61     		str	r3, [r7, #24]
 721 0026 FB69     		ldr	r3, [r7, #28]
 722              		.loc 1 127 0
 723 0028 4FF47A7A 		mov	r10, #1000
 724 002c 4343     		muls	r3, r0, r3
 725 002e FB60     		str	r3, [r7, #12]
 726 0030 BB69     		ldr	r3, [r7, #24]
 727 0032 E318     		adds	r3, r4, r3
 728 0034 4343     		muls	r3, r0, r3
 729 0036 6043     		muls	r0, r4, r0
 730              	.LVL64:
 731 0038 5E18     		adds	r6, r3, r1
 732 003a C31A     		subs	r3, r0, r3
 733 003c BB60     		str	r3, [r7, #8]
 734              	.LVL65:
 735              	.L57:
 736              	.LBE25:
 737              		.loc 1 123 0 discriminator 1
 738 003e DBF80030 		ldr	r3, [fp]
 739 0042 9C42     		cmp	r4, r3
 740 0044 3BDA     		bge	.L66
 741              	.LVL66:
ARM GAS  /var/folders/_2/42wyrlld3p52fkcpt1lv6gxh0000gp/T//cc5isQxw.s 			page 14


 742              	.LBB26:
 743              		.loc 1 127 0
 744 0046 BB68     		ldr	r3, [r7, #8]
 745              		.loc 1 130 0
 746 0048 2046     		mov	r0, r4
 747              		.loc 1 127 0
 748 004a F518     		adds	r5, r6, r3
 749 004c 7B69     		ldr	r3, [r7, #20]
 750 004e 04FB0535 		mla	r5, r4, r5, r3
 751 0052 95FBFAF5 		sdiv	r5, r5, r10
 752              	.LVL67:
 753              		.loc 1 130 0
 754 0056 2946     		mov	r1, r5
 755 0058 FFF7FEFF 		bl	graph_contains
 756              	.LVL68:
 757 005c 50B3     		cbz	r0, .L58
 758 005e BB69     		ldr	r3, [r7, #24]
 759 0060 04EB0309 		add	r9, r4, r3
 760              		.loc 1 128 0 discriminator 1
 761 0064 7B69     		ldr	r3, [r7, #20]
 762              		.loc 1 130 0 discriminator 1
 763 0066 4846     		mov	r0, r9
 764              		.loc 1 128 0 discriminator 1
 765 0068 09FB0638 		mla	r8, r9, r6, r3
 766 006c 98FBFAF8 		sdiv	r8, r8, r10
 767              		.loc 1 130 0 discriminator 1
 768 0070 4146     		mov	r1, r8
 769 0072 FFF7FEFF 		bl	graph_contains
 770              	.LVL69:
 771 0076 E8B1     		cbz	r0, .L58
 772              		.loc 1 132 0
 773 0078 154B     		ldr	r3, .L67+8
 774 007a 2046     		mov	r0, r4
 775 007c 1B68     		ldr	r3, [r3]
 776 007e 3B61     		str	r3, [r7, #16]
 777 0080 FFF7FEFF 		bl	graph_getx
 778              	.LVL70:
 779 0084 3860     		str	r0, [r7]
 780 0086 2846     		mov	r0, r5
 781 0088 FFF7FEFF 		bl	graph_gety
 782              	.LVL71:
 783 008c 0546     		mov	r5, r0
 784              	.LVL72:
 785 008e 4846     		mov	r0, r9
 786 0090 FFF7FEFF 		bl	graph_getx
 787              	.LVL73:
 788 0094 7860     		str	r0, [r7, #4]
 789 0096 4046     		mov	r0, r8
 790 0098 FFF7FEFF 		bl	graph_gety
 791              	.LVL74:
 792 009c 7B68     		ldr	r3, [r7, #4]
 793 009e 3968     		ldr	r1, [r7]
 794 00a0 0022     		movs	r2, #0
 795 00a2 00B2     		sxth	r0, r0
 796 00a4 0192     		str	r2, [sp, #4]
 797 00a6 0090     		str	r0, [sp]
 798 00a8 1BB2     		sxth	r3, r3
ARM GAS  /var/folders/_2/42wyrlld3p52fkcpt1lv6gxh0000gp/T//cc5isQxw.s 			page 15


 799 00aa 2AB2     		sxth	r2, r5
 800 00ac 09B2     		sxth	r1, r1
 801 00ae 3869     		ldr	r0, [r7, #16]
 802 00b0 FFF7FEFF 		bl	gdispGDrawLine
 803              	.LVL75:
 804              	.L58:
 805              	.LBE26:
 806              		.loc 1 123 0 discriminator 2
 807 00b4 FB69     		ldr	r3, [r7, #28]
 808 00b6 1C44     		add	r4, r4, r3
 809              	.LVL76:
 810 00b8 FB68     		ldr	r3, [r7, #12]
 811 00ba 1E44     		add	r6, r6, r3
 812 00bc BFE7     		b	.L57
 813              	.L66:
 814              	.LBE23:
 815              		.loc 1 137 0
 816 00be 2437     		adds	r7, r7, #36
 817              	.LCFI19:
 818              		.cfi_def_cfa_offset 36
 819 00c0 BD46     		mov	sp, r7
 820              	.LCFI20:
 821              		.cfi_def_cfa_register 13
 822              	.LVL77:
 823              		@ sp needed
 824 00c2 BDE8F08F 		pop	{r4, r5, r6, r7, r8, r9, r10, fp, pc}
 825              	.LVL78:
 826              	.L68:
 827 00c6 00BF     		.align	2
 828              	.L67:
 829 00c8 00000000 		.word	.LANCHOR0
 830 00cc 00000000 		.word	.LANCHOR1
 831 00d0 00000000 		.word	GDISP
 832              		.cfi_endproc
 833              	.LFE78:
 834              		.size	graph_drawcurve, .-graph_drawcurve
 835              		.section	.text.graph_drawlinear,"ax",%progbits
 836              		.align	1
 837              		.global	graph_drawlinear
 838              		.thumb
 839              		.thumb_func
 840              		.type	graph_drawlinear, %function
 841              	graph_drawlinear:
 842              	.LFB79:
 843              		.loc 1 140 0
 844              		.cfi_startproc
 845              		@ args = 0, pretend = 0, frame = 24
 846              		@ frame_needed = 1, uses_anonymous_args = 0
 847              	.LVL79:
 848 0000 2DE9F04F 		push	{r4, r5, r6, r7, r8, r9, r10, fp, lr}
 849              	.LCFI21:
 850              		.cfi_def_cfa_offset 36
 851              		.cfi_offset 4, -36
 852              		.cfi_offset 5, -32
 853              		.cfi_offset 6, -28
 854              		.cfi_offset 7, -24
 855              		.cfi_offset 8, -20
ARM GAS  /var/folders/_2/42wyrlld3p52fkcpt1lv6gxh0000gp/T//cc5isQxw.s 			page 16


 856              		.cfi_offset 9, -16
 857              		.cfi_offset 10, -12
 858              		.cfi_offset 11, -8
 859              		.cfi_offset 14, -4
 860 0004 89B0     		sub	sp, sp, #36
 861              	.LCFI22:
 862              		.cfi_def_cfa_offset 72
 863 0006 0446     		mov	r4, r0
 864 0008 8946     		mov	r9, r1
 865              		.loc 1 141 0
 866 000a 2C48     		ldr	r0, .L80
 867              	.LVL80:
 868 000c 2C49     		ldr	r1, .L80+4
 869              	.LVL81:
 870 000e 0068     		ldr	r0, [r0]
 871 0010 0B68     		ldr	r3, [r1]
 872              		.loc 1 140 0
 873 0012 02AF     		add	r7, sp, #8
 874              	.LCFI23:
 875              		.cfi_def_cfa 7, 64
 876              		.loc 1 141 0
 877 0014 1B1A     		subs	r3, r3, r0
 878 0016 6420     		movs	r0, #100
 879 0018 93FBF0F0 		sdiv	r0, r3, r0
 880 001c 7861     		str	r0, [r7, #20]
 881              	.LVL82:
 882 001e 5043     		muls	r0, r2, r0
 883              	.LVL83:
 884 0020 B860     		str	r0, [r7, #8]
 885 0022 C820     		movs	r0, #200
 886 0024 93FBF0F3 		sdiv	r3, r3, r0
 887              	.LBB27:
 888              		.loc 1 142 0
 889 0028 8B46     		mov	fp, r1
 890 002a 3B61     		str	r3, [r7, #16]
 891 002c 5343     		muls	r3, r2, r3
 892 002e 0026     		movs	r6, #0
 893 0030 7B60     		str	r3, [r7, #4]
 894              	.LVL84:
 895              	.L70:
 896              		.loc 1 142 0 is_stmt 0 discriminator 1
 897 0032 DBF80030 		ldr	r3, [fp]
 898 0036 9C42     		cmp	r4, r3
 899 0038 3CDA     		bge	.L79
 900              	.LVL85:
 901              	.LBB28:
 902              		.loc 1 146 0 is_stmt 1
 903 003a 4FF47A73 		mov	r3, #1000
 904 003e 96FBF3F8 		sdiv	r8, r6, r3
 905 0042 C844     		add	r8, r8, r9
 906              	.LVL86:
 907              		.loc 1 149 0
 908 0044 4146     		mov	r1, r8
 909 0046 2046     		mov	r0, r4
 910 0048 FFF7FEFF 		bl	graph_contains
 911              	.LVL87:
 912 004c 68B3     		cbz	r0, .L71
ARM GAS  /var/folders/_2/42wyrlld3p52fkcpt1lv6gxh0000gp/T//cc5isQxw.s 			page 17


 913 004e 3B69     		ldr	r3, [r7, #16]
 914 0050 04EB030A 		add	r10, r4, r3
 915              		.loc 1 147 0 discriminator 1
 916 0054 7B68     		ldr	r3, [r7, #4]
 917              		.loc 1 149 0 discriminator 1
 918 0056 5046     		mov	r0, r10
 919              		.loc 1 147 0 discriminator 1
 920 0058 F518     		adds	r5, r6, r3
 921 005a 4FF47A73 		mov	r3, #1000
 922 005e 95FBF3F5 		sdiv	r5, r5, r3
 923 0062 4D44     		add	r5, r5, r9
 924              		.loc 1 149 0 discriminator 1
 925 0064 2946     		mov	r1, r5
 926 0066 FFF7FEFF 		bl	graph_contains
 927              	.LVL88:
 928 006a F0B1     		cbz	r0, .L71
 929              		.loc 1 151 0
 930 006c 154B     		ldr	r3, .L80+8
 931 006e 2046     		mov	r0, r4
 932 0070 1B68     		ldr	r3, [r3]
 933 0072 FB60     		str	r3, [r7, #12]
 934 0074 FFF7FEFF 		bl	graph_getx
 935              	.LVL89:
 936 0078 3860     		str	r0, [r7]
 937 007a 4046     		mov	r0, r8
 938 007c FFF7FEFF 		bl	graph_gety
 939              	.LVL90:
 940 0080 8046     		mov	r8, r0
 941              	.LVL91:
 942 0082 5046     		mov	r0, r10
 943 0084 FFF7FEFF 		bl	graph_getx
 944              	.LVL92:
 945 0088 8246     		mov	r10, r0
 946 008a 2846     		mov	r0, r5
 947 008c FFF7FEFF 		bl	graph_gety
 948              	.LVL93:
 949 0090 3968     		ldr	r1, [r7]
 950 0092 0023     		movs	r3, #0
 951 0094 00B2     		sxth	r0, r0
 952 0096 0193     		str	r3, [sp, #4]
 953 0098 0090     		str	r0, [sp]
 954 009a 0FFA8AF3 		sxth	r3, r10
 955 009e 0FFA88F2 		sxth	r2, r8
 956 00a2 09B2     		sxth	r1, r1
 957 00a4 F868     		ldr	r0, [r7, #12]
 958 00a6 FFF7FEFF 		bl	gdispGDrawLine
 959              	.LVL94:
 960              	.L71:
 961              	.LBE28:
 962              		.loc 1 142 0 discriminator 2
 963 00aa 7B69     		ldr	r3, [r7, #20]
 964 00ac 1C44     		add	r4, r4, r3
 965              	.LVL95:
 966 00ae BB68     		ldr	r3, [r7, #8]
 967 00b0 1E44     		add	r6, r6, r3
 968              	.LVL96:
 969 00b2 BEE7     		b	.L70
ARM GAS  /var/folders/_2/42wyrlld3p52fkcpt1lv6gxh0000gp/T//cc5isQxw.s 			page 18


 970              	.L79:
 971              	.LBE27:
 972              		.loc 1 156 0
 973 00b4 1C37     		adds	r7, r7, #28
 974              	.LCFI24:
 975              		.cfi_def_cfa_offset 36
 976 00b6 BD46     		mov	sp, r7
 977              	.LCFI25:
 978              		.cfi_def_cfa_register 13
 979              	.LVL97:
 980              		@ sp needed
 981 00b8 BDE8F08F 		pop	{r4, r5, r6, r7, r8, r9, r10, fp, pc}
 982              	.LVL98:
 983              	.L81:
 984              		.align	2
 985              	.L80:
 986 00bc 00000000 		.word	.LANCHOR0
 987 00c0 00000000 		.word	.LANCHOR1
 988 00c4 00000000 		.word	GDISP
 989              		.cfi_endproc
 990              	.LFE79:
 991              		.size	graph_drawlinear, .-graph_drawlinear
 992              		.section	.bss.g_xmin,"aw",%nobits
 993              		.align	2
 994              		.set	.LANCHOR0,. + 0
 995              		.type	g_xmin, %object
 996              		.size	g_xmin, 4
 997              	g_xmin:
 998 0000 00000000 		.space	4
 999              		.section	.bss.g_xmax,"aw",%nobits
 1000              		.align	2
 1001              		.set	.LANCHOR1,. + 0
 1002              		.type	g_xmax, %object
 1003              		.size	g_xmax, 4
 1004              	g_xmax:
 1005 0000 00000000 		.space	4
 1006              		.section	.bss.g_ymax,"aw",%nobits
 1007              		.align	2
 1008              		.set	.LANCHOR3,. + 0
 1009              		.type	g_ymax, %object
 1010              		.size	g_ymax, 4
 1011              	g_ymax:
 1012 0000 00000000 		.space	4
 1013              		.section	.rodata.str1.1,"aMS",%progbits,1
 1014              	.LC0:
 1015 0000 6D656469 		.ascii	"mediumfont\000"
 1015      756D666F 
 1015      6E7400
 1016              	.LC1:
 1017 000b C2B04300 		.ascii	"\302\260C\000"
 1018              	.LC2:
 1019 000f 256400   		.ascii	"%d\000"
 1020              	.LC3:
 1021 0012 25643A25 		.ascii	"%d:%02d\000"
 1021      30326400 
 1022              		.section	.bss.g_ymin,"aw",%nobits
 1023              		.align	2
ARM GAS  /var/folders/_2/42wyrlld3p52fkcpt1lv6gxh0000gp/T//cc5isQxw.s 			page 19


 1024              		.set	.LANCHOR2,. + 0
 1025              		.type	g_ymin, %object
 1026              		.size	g_ymin, 4
 1027              	g_ymin:
 1028 0000 00000000 		.space	4
 1029              		.text
 1030              	.Letext0:
 1031              		.file 2 "/Users/ARS/Applications/Eclipse.app/Contents/gcc-arm-none-eabi-5_3-2016q1/lib/gcc/arm-non
 1032              		.file 3 "/Users/ARS/Applications/Eclipse.app/Contents/gcc-arm-none-eabi-5_3-2016q1/arm-none-eabi/i
 1033              		.file 4 "/Users/ARS/Applications/Eclipse.app/Contents/gcc-arm-none-eabi-5_3-2016q1/arm-none-eabi/i
 1034              		.file 5 "ugfx/src/gdisp/gdisp.h"
 1035              		.file 6 "baselibc/include/stdio.h"
 1036              		.file 7 "chibios/os/ports/common/ARMCMx/CMSIS/include/core_cm3.h"