ARM GAS  /var/folders/_2/42wyrlld3p52fkcpt1lv6gxh0000gp/T//cc46znBC.s 			page 1


   1              		.syntax unified
   2              		.cpu cortex-m3
   3              		.fpu softvfp
   4              		.eabi_attribute 20, 1
   5              		.eabi_attribute 21, 1
   6              		.eabi_attribute 23, 3
   7              		.eabi_attribute 24, 1
   8              		.eabi_attribute 25, 1
   9              		.eabi_attribute 26, 1
  10              		.eabi_attribute 30, 4
  11              		.eabi_attribute 34, 1
  12              		.eabi_attribute 18, 4
  13              		.thumb
  14              		.syntax unified
  15              		.file	"usb.c"
  16              		.text
  17              	.Ltext0:
  18              		.cfi_sections	.debug_frame
  19              		.section	.text.set_address,"ax",%progbits
  20              		.align	1
  21              		.thumb
  22              		.thumb_func
  23              		.type	set_address, %function
  24              	set_address:
  25              	.LFB65:
  26              		.file 1 "chibios/os/hal/src/usb.c"
  27              		.loc 1 69 0
  28              		.cfi_startproc
  29              		@ args = 0, pretend = 0, frame = 0
  30              		@ frame_needed = 1, uses_anonymous_args = 0
  31              	.LVL0:
  32 0000 98B5     		push	{r3, r4, r7, lr}
  33              	.LCFI0:
  34              		.cfi_def_cfa_offset 16
  35              		.cfi_offset 3, -16
  36              		.cfi_offset 4, -12
  37              		.cfi_offset 7, -8
  38              		.cfi_offset 14, -4
  39 0002 0446     		mov	r4, r0
  40              		.loc 1 71 0
  41 0004 90F87630 		ldrb	r3, [r0, #118]	@ zero_extendqisi2
  42              		.loc 1 69 0
  43 0008 00AF     		add	r7, sp, #0
  44              	.LCFI1:
  45              		.cfi_def_cfa_register 7
  46              		.loc 1 71 0
  47 000a 80F87E30 		strb	r3, [r0, #126]
  48              		.loc 1 72 0
  49 000e FFF7FEFF 		bl	usb_lld_set_address
  50              	.LVL1:
  51              		.loc 1 73 0
  52 0012 6368     		ldr	r3, [r4, #4]
  53 0014 1B68     		ldr	r3, [r3]
  54 0016 13B1     		cbz	r3, .L2
  55              		.loc 1 73 0 is_stmt 0 discriminator 1
  56 0018 0121     		movs	r1, #1
  57 001a 2046     		mov	r0, r4
ARM GAS  /var/folders/_2/42wyrlld3p52fkcpt1lv6gxh0000gp/T//cc46znBC.s 			page 2


  58 001c 9847     		blx	r3
  59              	.LVL2:
  60              	.L2:
  61              		.loc 1 74 0 is_stmt 1
  62 001e 0323     		movs	r3, #3
  63 0020 2370     		strb	r3, [r4]
  64 0022 98BD     		pop	{r3, r4, r7, pc}
  65              		.cfi_endproc
  66              	.LFE65:
  67              		.size	set_address, .-set_address
  68              		.section	.text.usbInit,"ax",%progbits
  69              		.align	1
  70              		.global	usbInit
  71              		.thumb
  72              		.thumb_func
  73              		.type	usbInit, %function
  74              	usbInit:
  75              	.LFB67:
  76              		.loc 1 235 0
  77              		.cfi_startproc
  78              		@ args = 0, pretend = 0, frame = 0
  79              		@ frame_needed = 1, uses_anonymous_args = 0
  80              		@ link register save eliminated.
  81 0000 80B4     		push	{r7}
  82              	.LCFI2:
  83              		.cfi_def_cfa_offset 4
  84              		.cfi_offset 7, -4
  85 0002 00AF     		add	r7, sp, #0
  86              	.LCFI3:
  87              		.cfi_def_cfa_register 7
  88              		.loc 1 238 0
  89 0004 BD46     		mov	sp, r7
  90              	.LCFI4:
  91              		.cfi_def_cfa_register 13
  92              		@ sp needed
  93 0006 80BC     		pop	{r7}
  94              	.LCFI5:
  95              		.cfi_restore 7
  96              		.cfi_def_cfa_offset 0
  97              		.loc 1 237 0
  98 0008 FFF7FEBF 		b	usb_lld_init
  99              	.LVL3:
 100              		.cfi_endproc
 101              	.LFE67:
 102              		.size	usbInit, .-usbInit
 103              		.section	.text.usbObjectInit,"ax",%progbits
 104              		.align	1
 105              		.global	usbObjectInit
 106              		.thumb
 107              		.thumb_func
 108              		.type	usbObjectInit, %function
 109              	usbObjectInit:
 110              	.LFB68:
 111              		.loc 1 247 0
 112              		.cfi_startproc
 113              		@ args = 0, pretend = 0, frame = 0
 114              		@ frame_needed = 1, uses_anonymous_args = 0
ARM GAS  /var/folders/_2/42wyrlld3p52fkcpt1lv6gxh0000gp/T//cc46znBC.s 			page 3


 115              	.LVL4:
 116 0000 90B5     		push	{r4, r7, lr}
 117              	.LCFI6:
 118              		.cfi_def_cfa_offset 12
 119              		.cfi_offset 4, -12
 120              		.cfi_offset 7, -8
 121              		.cfi_offset 14, -4
 122              		.loc 1 250 0
 123 0002 0123     		movs	r3, #1
 124 0004 0370     		strb	r3, [r0]
 125              		.loc 1 251 0
 126 0006 0023     		movs	r3, #0
 127              		.loc 1 247 0
 128 0008 00AF     		add	r7, sp, #0
 129              	.LCFI7:
 130              		.cfi_def_cfa_register 7
 131              		.loc 1 251 0
 132 000a 4360     		str	r3, [r0, #4]
 133              	.LVL5:
 134 000c 00F12802 		add	r2, r0, #40
 135 0010 00F14404 		add	r4, r0, #68
 136              	.LVL6:
 137              	.L9:
 138              		.loc 1 253 0 discriminator 3
 139 0014 42F8043F 		str	r3, [r2, #4]!
 140              		.loc 1 252 0 discriminator 3
 141 0018 A242     		cmp	r2, r4
 142              		.loc 1 253 0 discriminator 3
 143 001a 4FF00001 		mov	r1, #0
 144              		.loc 1 254 0 discriminator 3
 145 001e D361     		str	r3, [r2, #28]
 146              		.loc 1 252 0 discriminator 3
 147 0020 F8D1     		bne	.L9
 148              		.loc 1 256 0
 149 0022 0181     		strh	r1, [r0, #8]	@ movhi
 150              		.loc 1 257 0
 151 0024 4181     		strh	r1, [r0, #10]	@ movhi
 152 0026 90BD     		pop	{r4, r7, pc}
 153              		.cfi_endproc
 154              	.LFE68:
 155              		.size	usbObjectInit, .-usbObjectInit
 156              		.section	.text.usbStart,"ax",%progbits
 157              		.align	1
 158              		.global	usbStart
 159              		.thumb
 160              		.thumb_func
 161              		.type	usbStart, %function
 162              	usbStart:
 163              	.LFB69:
 164              		.loc 1 268 0
 165              		.cfi_startproc
 166              		@ args = 0, pretend = 0, frame = 0
 167              		@ frame_needed = 1, uses_anonymous_args = 0
 168              	.LVL7:
 169 0000 98B5     		push	{r3, r4, r7, lr}
 170              	.LCFI8:
 171              		.cfi_def_cfa_offset 16
ARM GAS  /var/folders/_2/42wyrlld3p52fkcpt1lv6gxh0000gp/T//cc46znBC.s 			page 4


 172              		.cfi_offset 3, -16
 173              		.cfi_offset 4, -12
 174              		.cfi_offset 7, -8
 175              		.cfi_offset 14, -4
 176 0002 0446     		mov	r4, r0
 177 0004 00AF     		add	r7, sp, #0
 178              	.LCFI9:
 179              		.cfi_def_cfa_register 7
 180              	.LBB2:
 181              		.loc 1 273 0
 182 0006 2023     		movs	r3, #32
 183              		.syntax unified
 184              	@ 273 "chibios/os/hal/src/usb.c" 1
 185 0008 83F31188 		msr     BASEPRI, r3
 186              	@ 0 "" 2
 187              		.thumb
 188              		.syntax unified
 189              	.LBE2:
 190              		.loc 1 276 0
 191 000c 4160     		str	r1, [r0, #4]
 192              	.LVL8:
 193 000e 00F10803 		add	r3, r0, #8
 194 0012 00F12802 		add	r2, r0, #40
 195              		.loc 1 278 0
 196 0016 0021     		movs	r1, #0
 197              	.LVL9:
 198              	.L12:
 199              		.loc 1 278 0 is_stmt 0 discriminator 3
 200 0018 43F8041F 		str	r1, [r3, #4]!
 201              		.loc 1 277 0 is_stmt 1 discriminator 3
 202 001c 9342     		cmp	r3, r2
 203 001e FBD1     		bne	.L12
 204              		.loc 1 279 0
 205 0020 2046     		mov	r0, r4
 206              	.LVL10:
 207 0022 FFF7FEFF 		bl	usb_lld_start
 208              	.LVL11:
 209              		.loc 1 280 0
 210 0026 0223     		movs	r3, #2
 211 0028 2370     		strb	r3, [r4]
 212              	.LBB3:
 213              		.loc 1 281 0
 214 002a 0023     		movs	r3, #0
 215              		.syntax unified
 216              	@ 281 "chibios/os/hal/src/usb.c" 1
 217 002c 83F31188 		msr     BASEPRI, r3
 218              	@ 0 "" 2
 219              		.thumb
 220              		.syntax unified
 221 0030 98BD     		pop	{r3, r4, r7, pc}
 222              	.LBE3:
 223              		.cfi_endproc
 224              	.LFE69:
 225              		.size	usbStart, .-usbStart
 226              		.section	.text.usbStop,"ax",%progbits
 227              		.align	1
 228              		.global	usbStop
ARM GAS  /var/folders/_2/42wyrlld3p52fkcpt1lv6gxh0000gp/T//cc46znBC.s 			page 5


 229              		.thumb
 230              		.thumb_func
 231              		.type	usbStop, %function
 232              	usbStop:
 233              	.LFB70:
 234              		.loc 1 291 0
 235              		.cfi_startproc
 236              		@ args = 0, pretend = 0, frame = 0
 237              		@ frame_needed = 1, uses_anonymous_args = 0
 238              	.LVL12:
 239 0000 98B5     		push	{r3, r4, r7, lr}
 240              	.LCFI10:
 241              		.cfi_def_cfa_offset 16
 242              		.cfi_offset 3, -16
 243              		.cfi_offset 4, -12
 244              		.cfi_offset 7, -8
 245              		.cfi_offset 14, -4
 246 0002 0446     		mov	r4, r0
 247 0004 00AF     		add	r7, sp, #0
 248              	.LCFI11:
 249              		.cfi_def_cfa_register 7
 250              	.LBB4:
 251              		.loc 1 295 0
 252 0006 2023     		movs	r3, #32
 253              		.syntax unified
 254              	@ 295 "chibios/os/hal/src/usb.c" 1
 255 0008 83F31188 		msr     BASEPRI, r3
 256              	@ 0 "" 2
 257              		.thumb
 258              		.syntax unified
 259              	.LBE4:
 260              		.loc 1 299 0
 261 000c FFF7FEFF 		bl	usb_lld_stop
 262              	.LVL13:
 263              		.loc 1 300 0
 264 0010 0123     		movs	r3, #1
 265 0012 2370     		strb	r3, [r4]
 266              	.LBB5:
 267              		.loc 1 301 0
 268 0014 0023     		movs	r3, #0
 269              		.syntax unified
 270              	@ 301 "chibios/os/hal/src/usb.c" 1
 271 0016 83F31188 		msr     BASEPRI, r3
 272              	@ 0 "" 2
 273              		.thumb
 274              		.syntax unified
 275 001a 98BD     		pop	{r3, r4, r7, pc}
 276              	.LBE5:
 277              		.cfi_endproc
 278              	.LFE70:
 279              		.size	usbStop, .-usbStop
 280              		.section	.text.usbInitEndpointI,"ax",%progbits
 281              		.align	1
 282              		.global	usbInitEndpointI
 283              		.thumb
 284              		.thumb_func
 285              		.type	usbInitEndpointI, %function
ARM GAS  /var/folders/_2/42wyrlld3p52fkcpt1lv6gxh0000gp/T//cc46znBC.s 			page 6


 286              	usbInitEndpointI:
 287              	.LFB71:
 288              		.loc 1 318 0
 289              		.cfi_startproc
 290              		@ args = 0, pretend = 0, frame = 0
 291              		@ frame_needed = 1, uses_anonymous_args = 0
 292              	.LVL14:
 293 0000 F8B5     		push	{r3, r4, r5, r6, r7, lr}
 294              	.LCFI12:
 295              		.cfi_def_cfa_offset 24
 296              		.cfi_offset 3, -24
 297              		.cfi_offset 4, -20
 298              		.cfi_offset 5, -16
 299              		.cfi_offset 6, -12
 300              		.cfi_offset 7, -8
 301              		.cfi_offset 14, -4
 302 0002 0546     		mov	r5, r0
 303              		.loc 1 328 0
 304 0004 5069     		ldr	r0, [r2, #20]
 305              	.LVL15:
 306              		.loc 1 318 0
 307 0006 00AF     		add	r7, sp, #0
 308              	.LCFI13:
 309              		.cfi_def_cfa_register 7
 310              		.loc 1 318 0
 311 0008 0E46     		mov	r6, r1
 312 000a 1446     		mov	r4, r2
 313              		.loc 1 328 0
 314 000c 18B1     		cbz	r0, .L16
 315              		.loc 1 329 0
 316 000e 1022     		movs	r2, #16
 317              	.LVL16:
 318 0010 0021     		movs	r1, #0
 319              	.LVL17:
 320 0012 FFF7FEFF 		bl	memset
 321              	.LVL18:
 322              	.L16:
 323              		.loc 1 330 0
 324 0016 A069     		ldr	r0, [r4, #24]
 325 0018 18B1     		cbz	r0, .L17
 326              		.loc 1 331 0
 327 001a 1422     		movs	r2, #20
 328 001c 0021     		movs	r1, #0
 329 001e FFF7FEFF 		bl	memset
 330              	.LVL19:
 331              	.L17:
 332              		.loc 1 336 0
 333 0022 3146     		mov	r1, r6
 334 0024 2846     		mov	r0, r5
 335              		.loc 1 333 0
 336 0026 05EB8603 		add	r3, r5, r6, lsl #2
 337 002a DC60     		str	r4, [r3, #12]
 338              		.loc 1 337 0
 339 002c BD46     		mov	sp, r7
 340              	.LCFI14:
 341              		.cfi_def_cfa_register 13
 342              		@ sp needed
ARM GAS  /var/folders/_2/42wyrlld3p52fkcpt1lv6gxh0000gp/T//cc46znBC.s 			page 7


 343 002e BDE8F840 		pop	{r3, r4, r5, r6, r7, lr}
 344              	.LCFI15:
 345              		.cfi_restore 14
 346              		.cfi_restore 7
 347              		.cfi_restore 6
 348              		.cfi_restore 5
 349              		.cfi_restore 4
 350              		.cfi_restore 3
 351              		.cfi_def_cfa_offset 0
 352              	.LVL20:
 353              		.loc 1 336 0
 354 0032 FFF7FEBF 		b	usb_lld_init_endpoint
 355              	.LVL21:
 356              		.cfi_endproc
 357              	.LFE71:
 358              		.size	usbInitEndpointI, .-usbInitEndpointI
 359              		.section	.text.usbDisableEndpointsI,"ax",%progbits
 360              		.align	1
 361              		.global	usbDisableEndpointsI
 362              		.thumb
 363              		.thumb_func
 364              		.type	usbDisableEndpointsI, %function
 365              	usbDisableEndpointsI:
 366              	.LFB72:
 367              		.loc 1 350 0
 368              		.cfi_startproc
 369              		@ args = 0, pretend = 0, frame = 0
 370              		@ frame_needed = 1, uses_anonymous_args = 0
 371              		@ link register save eliminated.
 372              	.LVL22:
 373              		.loc 1 358 0
 374 0000 0389     		ldrh	r3, [r0, #8]
 375              		.loc 1 350 0
 376 0002 80B4     		push	{r7}
 377              	.LCFI16:
 378              		.cfi_def_cfa_offset 4
 379              		.cfi_offset 7, -4
 380              		.loc 1 358 0
 381 0004 23F00103 		bic	r3, r3, #1
 382 0008 0381     		strh	r3, [r0, #8]	@ movhi
 383              		.loc 1 359 0
 384 000a 4389     		ldrh	r3, [r0, #10]
 385              		.loc 1 350 0
 386 000c 00AF     		add	r7, sp, #0
 387              	.LCFI17:
 388              		.cfi_def_cfa_register 7
 389              		.loc 1 359 0
 390 000e 23F00103 		bic	r3, r3, #1
 391 0012 4381     		strh	r3, [r0, #10]	@ movhi
 392              	.LVL23:
 393 0014 00F12802 		add	r2, r0, #40
 394 0018 00F10C03 		add	r3, r0, #12
 395              		.loc 1 361 0
 396 001c 0021     		movs	r1, #0
 397              	.LVL24:
 398              	.L25:
 399              		.loc 1 361 0 is_stmt 0 discriminator 3
ARM GAS  /var/folders/_2/42wyrlld3p52fkcpt1lv6gxh0000gp/T//cc46znBC.s 			page 8


 400 001e 43F8041F 		str	r1, [r3, #4]!
 401              		.loc 1 360 0 is_stmt 1 discriminator 3
 402 0022 9342     		cmp	r3, r2
 403 0024 FBD1     		bne	.L25
 404              		.loc 1 365 0
 405 0026 BD46     		mov	sp, r7
 406              	.LCFI18:
 407              		.cfi_def_cfa_register 13
 408              		@ sp needed
 409 0028 80BC     		pop	{r7}
 410              	.LCFI19:
 411              		.cfi_restore 7
 412              		.cfi_def_cfa_offset 0
 413              		.loc 1 364 0
 414 002a FFF7FEBF 		b	usb_lld_disable_endpoints
 415              	.LVL25:
 416              		.cfi_endproc
 417              	.LFE72:
 418              		.size	usbDisableEndpointsI, .-usbDisableEndpointsI
 419              		.section	.text.usbPrepareReceive,"ax",%progbits
 420              		.align	1
 421              		.global	usbPrepareReceive
 422              		.thumb
 423              		.thumb_func
 424              		.type	usbPrepareReceive, %function
 425              	usbPrepareReceive:
 426              	.LFB73:
 427              		.loc 1 379 0
 428              		.cfi_startproc
 429              		@ args = 0, pretend = 0, frame = 0
 430              		@ frame_needed = 1, uses_anonymous_args = 0
 431              		@ link register save eliminated.
 432              	.LVL26:
 433 0000 B0B4     		push	{r4, r5, r7}
 434              	.LCFI20:
 435              		.cfi_def_cfa_offset 12
 436              		.cfi_offset 4, -12
 437              		.cfi_offset 5, -8
 438              		.cfi_offset 7, -4
 439              		.loc 1 380 0
 440 0002 00EB8104 		add	r4, r0, r1, lsl #2
 441 0006 E468     		ldr	r4, [r4, #12]
 442              		.loc 1 382 0
 443 0008 0025     		movs	r5, #0
 444              		.loc 1 380 0
 445 000a A469     		ldr	r4, [r4, #24]
 446              	.LVL27:
 447              		.loc 1 379 0
 448 000c 00AF     		add	r7, sp, #0
 449              	.LCFI21:
 450              		.cfi_def_cfa_register 7
 451              		.loc 1 382 0
 452 000e 2570     		strb	r5, [r4]
 453              		.loc 1 383 0
 454 0010 E260     		str	r2, [r4, #12]
 455              		.loc 1 384 0
 456 0012 6360     		str	r3, [r4, #4]
ARM GAS  /var/folders/_2/42wyrlld3p52fkcpt1lv6gxh0000gp/T//cc46znBC.s 			page 9


 457              		.loc 1 385 0
 458 0014 A560     		str	r5, [r4, #8]
 459              		.loc 1 388 0
 460 0016 BD46     		mov	sp, r7
 461              	.LCFI22:
 462              		.cfi_def_cfa_register 13
 463              		@ sp needed
 464 0018 B0BC     		pop	{r4, r5, r7}
 465              	.LCFI23:
 466              		.cfi_restore 7
 467              		.cfi_restore 5
 468              		.cfi_restore 4
 469              		.cfi_def_cfa_offset 0
 470              	.LVL28:
 471              		.loc 1 387 0
 472 001a FFF7FEBF 		b	usb_lld_prepare_receive
 473              	.LVL29:
 474              		.cfi_endproc
 475              	.LFE73:
 476              		.size	usbPrepareReceive, .-usbPrepareReceive
 477              		.section	.text.usbPrepareTransmit,"ax",%progbits
 478              		.align	1
 479              		.global	usbPrepareTransmit
 480              		.thumb
 481              		.thumb_func
 482              		.type	usbPrepareTransmit, %function
 483              	usbPrepareTransmit:
 484              	.LFB74:
 485              		.loc 1 405 0
 486              		.cfi_startproc
 487              		@ args = 0, pretend = 0, frame = 0
 488              		@ frame_needed = 1, uses_anonymous_args = 0
 489              		@ link register save eliminated.
 490              	.LVL30:
 491 0000 B0B4     		push	{r4, r5, r7}
 492              	.LCFI24:
 493              		.cfi_def_cfa_offset 12
 494              		.cfi_offset 4, -12
 495              		.cfi_offset 5, -8
 496              		.cfi_offset 7, -4
 497              		.loc 1 406 0
 498 0002 00EB8104 		add	r4, r0, r1, lsl #2
 499 0006 E468     		ldr	r4, [r4, #12]
 500              		.loc 1 408 0
 501 0008 0025     		movs	r5, #0
 502              		.loc 1 406 0
 503 000a 6469     		ldr	r4, [r4, #20]
 504              	.LVL31:
 505              		.loc 1 405 0
 506 000c 00AF     		add	r7, sp, #0
 507              	.LCFI25:
 508              		.cfi_def_cfa_register 7
 509              		.loc 1 408 0
 510 000e 2570     		strb	r5, [r4]
 511              		.loc 1 409 0
 512 0010 E260     		str	r2, [r4, #12]
 513              		.loc 1 410 0
ARM GAS  /var/folders/_2/42wyrlld3p52fkcpt1lv6gxh0000gp/T//cc46znBC.s 			page 10


 514 0012 6360     		str	r3, [r4, #4]
 515              		.loc 1 411 0
 516 0014 A560     		str	r5, [r4, #8]
 517              		.loc 1 414 0
 518 0016 BD46     		mov	sp, r7
 519              	.LCFI26:
 520              		.cfi_def_cfa_register 13
 521              		@ sp needed
 522 0018 B0BC     		pop	{r4, r5, r7}
 523              	.LCFI27:
 524              		.cfi_restore 7
 525              		.cfi_restore 5
 526              		.cfi_restore 4
 527              		.cfi_def_cfa_offset 0
 528              	.LVL32:
 529              		.loc 1 413 0
 530 001a FFF7FEBF 		b	usb_lld_prepare_transmit
 531              	.LVL33:
 532              		.cfi_endproc
 533              	.LFE74:
 534              		.size	usbPrepareTransmit, .-usbPrepareTransmit
 535              		.section	.text.usbPrepareQueuedReceive,"ax",%progbits
 536              		.align	1
 537              		.global	usbPrepareQueuedReceive
 538              		.thumb
 539              		.thumb_func
 540              		.type	usbPrepareQueuedReceive, %function
 541              	usbPrepareQueuedReceive:
 542              	.LFB75:
 543              		.loc 1 434 0
 544              		.cfi_startproc
 545              		@ args = 0, pretend = 0, frame = 0
 546              		@ frame_needed = 1, uses_anonymous_args = 0
 547              		@ link register save eliminated.
 548              	.LVL34:
 549 0000 B0B4     		push	{r4, r5, r7}
 550              	.LCFI28:
 551              		.cfi_def_cfa_offset 12
 552              		.cfi_offset 4, -12
 553              		.cfi_offset 5, -8
 554              		.cfi_offset 7, -4
 555              		.loc 1 435 0
 556 0002 00EB8104 		add	r4, r0, r1, lsl #2
 557 0006 E468     		ldr	r4, [r4, #12]
 558              		.loc 1 437 0
 559 0008 0125     		movs	r5, #1
 560              		.loc 1 435 0
 561 000a A469     		ldr	r4, [r4, #24]
 562              	.LVL35:
 563              		.loc 1 434 0
 564 000c 00AF     		add	r7, sp, #0
 565              	.LCFI29:
 566              		.cfi_def_cfa_register 7
 567              		.loc 1 439 0
 568 000e 6360     		str	r3, [r4, #4]
 569              		.loc 1 440 0
 570 0010 0023     		movs	r3, #0
ARM GAS  /var/folders/_2/42wyrlld3p52fkcpt1lv6gxh0000gp/T//cc46znBC.s 			page 11


 571              	.LVL36:
 572              		.loc 1 437 0
 573 0012 2570     		strb	r5, [r4]
 574              		.loc 1 438 0
 575 0014 E260     		str	r2, [r4, #12]
 576              		.loc 1 440 0
 577 0016 A360     		str	r3, [r4, #8]
 578              		.loc 1 443 0
 579 0018 BD46     		mov	sp, r7
 580              	.LCFI30:
 581              		.cfi_def_cfa_register 13
 582              		@ sp needed
 583 001a B0BC     		pop	{r4, r5, r7}
 584              	.LCFI31:
 585              		.cfi_restore 7
 586              		.cfi_restore 5
 587              		.cfi_restore 4
 588              		.cfi_def_cfa_offset 0
 589              	.LVL37:
 590              		.loc 1 442 0
 591 001c FFF7FEBF 		b	usb_lld_prepare_receive
 592              	.LVL38:
 593              		.cfi_endproc
 594              	.LFE75:
 595              		.size	usbPrepareQueuedReceive, .-usbPrepareQueuedReceive
 596              		.section	.text.usbPrepareQueuedTransmit,"ax",%progbits
 597              		.align	1
 598              		.global	usbPrepareQueuedTransmit
 599              		.thumb
 600              		.thumb_func
 601              		.type	usbPrepareQueuedTransmit, %function
 602              	usbPrepareQueuedTransmit:
 603              	.LFB76:
 604              		.loc 1 460 0
 605              		.cfi_startproc
 606              		@ args = 0, pretend = 0, frame = 0
 607              		@ frame_needed = 1, uses_anonymous_args = 0
 608              		@ link register save eliminated.
 609              	.LVL39:
 610 0000 B0B4     		push	{r4, r5, r7}
 611              	.LCFI32:
 612              		.cfi_def_cfa_offset 12
 613              		.cfi_offset 4, -12
 614              		.cfi_offset 5, -8
 615              		.cfi_offset 7, -4
 616              		.loc 1 461 0
 617 0002 00EB8104 		add	r4, r0, r1, lsl #2
 618 0006 E468     		ldr	r4, [r4, #12]
 619              		.loc 1 463 0
 620 0008 0125     		movs	r5, #1
 621              		.loc 1 461 0
 622 000a 6469     		ldr	r4, [r4, #20]
 623              	.LVL40:
 624              		.loc 1 460 0
 625 000c 00AF     		add	r7, sp, #0
 626              	.LCFI33:
 627              		.cfi_def_cfa_register 7
ARM GAS  /var/folders/_2/42wyrlld3p52fkcpt1lv6gxh0000gp/T//cc46znBC.s 			page 12


 628              		.loc 1 465 0
 629 000e 6360     		str	r3, [r4, #4]
 630              		.loc 1 466 0
 631 0010 0023     		movs	r3, #0
 632              	.LVL41:
 633              		.loc 1 463 0
 634 0012 2570     		strb	r5, [r4]
 635              		.loc 1 464 0
 636 0014 E260     		str	r2, [r4, #12]
 637              		.loc 1 466 0
 638 0016 A360     		str	r3, [r4, #8]
 639              		.loc 1 469 0
 640 0018 BD46     		mov	sp, r7
 641              	.LCFI34:
 642              		.cfi_def_cfa_register 13
 643              		@ sp needed
 644 001a B0BC     		pop	{r4, r5, r7}
 645              	.LCFI35:
 646              		.cfi_restore 7
 647              		.cfi_restore 5
 648              		.cfi_restore 4
 649              		.cfi_def_cfa_offset 0
 650              	.LVL42:
 651              		.loc 1 468 0
 652 001c FFF7FEBF 		b	usb_lld_prepare_transmit
 653              	.LVL43:
 654              		.cfi_endproc
 655              	.LFE76:
 656              		.size	usbPrepareQueuedTransmit, .-usbPrepareQueuedTransmit
 657              		.section	.text.usbStartReceiveI,"ax",%progbits
 658              		.align	1
 659              		.global	usbStartReceiveI
 660              		.thumb
 661              		.thumb_func
 662              		.type	usbStartReceiveI, %function
 663              	usbStartReceiveI:
 664              	.LFB77:
 665              		.loc 1 485 0
 666              		.cfi_startproc
 667              		@ args = 0, pretend = 0, frame = 0
 668              		@ frame_needed = 1, uses_anonymous_args = 0
 669              	.LVL44:
 670 0000 F8B5     		push	{r3, r4, r5, r6, r7, lr}
 671              	.LCFI36:
 672              		.cfi_def_cfa_offset 24
 673              		.cfi_offset 3, -24
 674              		.cfi_offset 4, -20
 675              		.cfi_offset 5, -16
 676              		.cfi_offset 6, -12
 677              		.cfi_offset 7, -8
 678              		.cfi_offset 14, -4
 679              		.loc 1 490 0
 680 0002 4589     		ldrh	r5, [r0, #10]
 681              		.loc 1 485 0
 682 0004 00AF     		add	r7, sp, #0
 683              	.LCFI37:
 684              		.cfi_def_cfa_register 7
ARM GAS  /var/folders/_2/42wyrlld3p52fkcpt1lv6gxh0000gp/T//cc46znBC.s 			page 13


 685              		.loc 1 490 0
 686 0006 45FA01F4 		asr	r4, r5, r1
 687 000a 14F00104 		ands	r4, r4, #1
 688 000e 4FF00103 		mov	r3, #1
 689 0012 08D1     		bne	.L33
 690              		.loc 1 493 0
 691 0014 03FA01F2 		lsl	r2, r3, r1
 692 0018 42EA0503 		orr	r3, r2, r5
 693 001c 4381     		strh	r3, [r0, #10]	@ movhi
 694              		.loc 1 494 0
 695 001e FFF7FEFF 		bl	usb_lld_start_out
 696              	.LVL45:
 697              		.loc 1 495 0
 698 0022 2046     		mov	r0, r4
 699 0024 F8BD     		pop	{r3, r4, r5, r6, r7, pc}
 700              	.LVL46:
 701              	.L33:
 702              		.loc 1 491 0
 703 0026 1846     		mov	r0, r3
 704              	.LVL47:
 705              		.loc 1 496 0
 706 0028 F8BD     		pop	{r3, r4, r5, r6, r7, pc}
 707              		.cfi_endproc
 708              	.LFE77:
 709              		.size	usbStartReceiveI, .-usbStartReceiveI
 710              		.section	.text.usbStartTransmitI,"ax",%progbits
 711              		.align	1
 712              		.global	usbStartTransmitI
 713              		.thumb
 714              		.thumb_func
 715              		.type	usbStartTransmitI, %function
 716              	usbStartTransmitI:
 717              	.LFB78:
 718              		.loc 1 512 0
 719              		.cfi_startproc
 720              		@ args = 0, pretend = 0, frame = 0
 721              		@ frame_needed = 1, uses_anonymous_args = 0
 722              	.LVL48:
 723 0000 F8B5     		push	{r3, r4, r5, r6, r7, lr}
 724              	.LCFI38:
 725              		.cfi_def_cfa_offset 24
 726              		.cfi_offset 3, -24
 727              		.cfi_offset 4, -20
 728              		.cfi_offset 5, -16
 729              		.cfi_offset 6, -12
 730              		.cfi_offset 7, -8
 731              		.cfi_offset 14, -4
 732              		.loc 1 517 0
 733 0002 0589     		ldrh	r5, [r0, #8]
 734              		.loc 1 512 0
 735 0004 00AF     		add	r7, sp, #0
 736              	.LCFI39:
 737              		.cfi_def_cfa_register 7
 738              		.loc 1 517 0
 739 0006 45FA01F4 		asr	r4, r5, r1
 740 000a 14F00104 		ands	r4, r4, #1
 741 000e 4FF00103 		mov	r3, #1
ARM GAS  /var/folders/_2/42wyrlld3p52fkcpt1lv6gxh0000gp/T//cc46znBC.s 			page 14


 742 0012 08D1     		bne	.L36
 743              		.loc 1 520 0
 744 0014 03FA01F2 		lsl	r2, r3, r1
 745 0018 42EA0503 		orr	r3, r2, r5
 746 001c 0381     		strh	r3, [r0, #8]	@ movhi
 747              		.loc 1 521 0
 748 001e FFF7FEFF 		bl	usb_lld_start_in
 749              	.LVL49:
 750              		.loc 1 522 0
 751 0022 2046     		mov	r0, r4
 752 0024 F8BD     		pop	{r3, r4, r5, r6, r7, pc}
 753              	.LVL50:
 754              	.L36:
 755              		.loc 1 518 0
 756 0026 1846     		mov	r0, r3
 757              	.LVL51:
 758              		.loc 1 523 0
 759 0028 F8BD     		pop	{r3, r4, r5, r6, r7, pc}
 760              		.cfi_endproc
 761              	.LFE78:
 762              		.size	usbStartTransmitI, .-usbStartTransmitI
 763              		.section	.text.usbStallReceiveI,"ax",%progbits
 764              		.align	1
 765              		.global	usbStallReceiveI
 766              		.thumb
 767              		.thumb_func
 768              		.type	usbStallReceiveI, %function
 769              	usbStallReceiveI:
 770              	.LFB79:
 771              		.loc 1 537 0
 772              		.cfi_startproc
 773              		@ args = 0, pretend = 0, frame = 0
 774              		@ frame_needed = 1, uses_anonymous_args = 0
 775              	.LVL52:
 776 0000 98B5     		push	{r3, r4, r7, lr}
 777              	.LCFI40:
 778              		.cfi_def_cfa_offset 16
 779              		.cfi_offset 3, -16
 780              		.cfi_offset 4, -12
 781              		.cfi_offset 7, -8
 782              		.cfi_offset 14, -4
 783              		.loc 1 542 0
 784 0002 4389     		ldrh	r3, [r0, #10]
 785              		.loc 1 537 0
 786 0004 00AF     		add	r7, sp, #0
 787              	.LCFI41:
 788              		.cfi_def_cfa_register 7
 789              		.loc 1 542 0
 790 0006 0B41     		asrs	r3, r3, r1
 791 0008 13F00104 		ands	r4, r3, #1
 792 000c 03D1     		bne	.L39
 793              		.loc 1 545 0
 794 000e FFF7FEFF 		bl	usb_lld_stall_out
 795              	.LVL53:
 796              		.loc 1 546 0
 797 0012 2046     		mov	r0, r4
 798 0014 98BD     		pop	{r3, r4, r7, pc}
ARM GAS  /var/folders/_2/42wyrlld3p52fkcpt1lv6gxh0000gp/T//cc46znBC.s 			page 15


 799              	.LVL54:
 800              	.L39:
 801              		.loc 1 543 0
 802 0016 0120     		movs	r0, #1
 803              	.LVL55:
 804              		.loc 1 547 0
 805 0018 98BD     		pop	{r3, r4, r7, pc}
 806              		.cfi_endproc
 807              	.LFE79:
 808              		.size	usbStallReceiveI, .-usbStallReceiveI
 809              		.section	.text.usbStallTransmitI,"ax",%progbits
 810              		.align	1
 811              		.global	usbStallTransmitI
 812              		.thumb
 813              		.thumb_func
 814              		.type	usbStallTransmitI, %function
 815              	usbStallTransmitI:
 816              	.LFB80:
 817              		.loc 1 561 0
 818              		.cfi_startproc
 819              		@ args = 0, pretend = 0, frame = 0
 820              		@ frame_needed = 1, uses_anonymous_args = 0
 821              	.LVL56:
 822 0000 98B5     		push	{r3, r4, r7, lr}
 823              	.LCFI42:
 824              		.cfi_def_cfa_offset 16
 825              		.cfi_offset 3, -16
 826              		.cfi_offset 4, -12
 827              		.cfi_offset 7, -8
 828              		.cfi_offset 14, -4
 829              		.loc 1 566 0
 830 0002 0389     		ldrh	r3, [r0, #8]
 831              		.loc 1 561 0
 832 0004 00AF     		add	r7, sp, #0
 833              	.LCFI43:
 834              		.cfi_def_cfa_register 7
 835              		.loc 1 566 0
 836 0006 0B41     		asrs	r3, r3, r1
 837 0008 13F00104 		ands	r4, r3, #1
 838 000c 03D1     		bne	.L42
 839              		.loc 1 569 0
 840 000e FFF7FEFF 		bl	usb_lld_stall_in
 841              	.LVL57:
 842              		.loc 1 570 0
 843 0012 2046     		mov	r0, r4
 844 0014 98BD     		pop	{r3, r4, r7, pc}
 845              	.LVL58:
 846              	.L42:
 847              		.loc 1 567 0
 848 0016 0120     		movs	r0, #1
 849              	.LVL59:
 850              		.loc 1 571 0
 851 0018 98BD     		pop	{r3, r4, r7, pc}
 852              		.cfi_endproc
 853              	.LFE80:
 854              		.size	usbStallTransmitI, .-usbStallTransmitI
 855              		.section	.text._usb_reset,"ax",%progbits
ARM GAS  /var/folders/_2/42wyrlld3p52fkcpt1lv6gxh0000gp/T//cc46znBC.s 			page 16


 856              		.align	1
 857              		.global	_usb_reset
 858              		.thumb
 859              		.thumb_func
 860              		.type	_usb_reset, %function
 861              	_usb_reset:
 862              	.LFB81:
 863              		.loc 1 582 0
 864              		.cfi_startproc
 865              		@ args = 0, pretend = 0, frame = 0
 866              		@ frame_needed = 1, uses_anonymous_args = 0
 867              		@ link register save eliminated.
 868              	.LVL60:
 869 0000 80B4     		push	{r7}
 870              	.LCFI44:
 871              		.cfi_def_cfa_offset 4
 872              		.cfi_offset 7, -4
 873              		.loc 1 585 0
 874 0002 0223     		movs	r3, #2
 875 0004 0370     		strb	r3, [r0]
 876              		.loc 1 586 0
 877 0006 0023     		movs	r3, #0
 878              		.loc 1 582 0
 879 0008 00AF     		add	r7, sp, #0
 880              	.LCFI45:
 881              		.cfi_def_cfa_register 7
 882              		.loc 1 586 0
 883 000a A0F87C30 		strh	r3, [r0, #124]	@ movhi
 884              		.loc 1 587 0
 885 000e 80F87E30 		strb	r3, [r0, #126]
 886              		.loc 1 588 0
 887 0012 80F87F30 		strb	r3, [r0, #127]
 888              		.loc 1 589 0
 889 0016 0381     		strh	r3, [r0, #8]	@ movhi
 890              		.loc 1 590 0
 891 0018 4381     		strh	r3, [r0, #10]	@ movhi
 892              	.LVL61:
 893 001a 00F10802 		add	r2, r0, #8
 894 001e 00F12801 		add	r1, r0, #40
 895              	.LVL62:
 896              	.L44:
 897              		.loc 1 594 0 discriminator 3
 898 0022 42F8043F 		str	r3, [r2, #4]!
 899              		.loc 1 593 0 discriminator 3
 900 0026 8A42     		cmp	r2, r1
 901 0028 FBD1     		bne	.L44
 902              		.loc 1 597 0
 903 002a 0023     		movs	r3, #0
 904 002c 80F86430 		strb	r3, [r0, #100]
 905              		.loc 1 601 0
 906 0030 BD46     		mov	sp, r7
 907              	.LCFI46:
 908              		.cfi_def_cfa_register 13
 909              		@ sp needed
 910 0032 80BC     		pop	{r7}
 911              	.LCFI47:
 912              		.cfi_restore 7
ARM GAS  /var/folders/_2/42wyrlld3p52fkcpt1lv6gxh0000gp/T//cc46znBC.s 			page 17


 913              		.cfi_def_cfa_offset 0
 914              		.loc 1 600 0
 915 0034 FFF7FEBF 		b	usb_lld_reset
 916              	.LVL63:
 917              		.cfi_endproc
 918              	.LFE81:
 919              		.size	_usb_reset, .-_usb_reset
 920              		.section	.text._usb_ep0setup,"ax",%progbits
 921              		.align	1
 922              		.global	_usb_ep0setup
 923              		.thumb
 924              		.thumb_func
 925              		.type	_usb_ep0setup, %function
 926              	_usb_ep0setup:
 927              	.LFB82:
 928              		.loc 1 613 0
 929              		.cfi_startproc
 930              		@ args = 0, pretend = 0, frame = 0
 931              		@ frame_needed = 1, uses_anonymous_args = 0
 932              	.LVL64:
 933 0000 F8B5     		push	{r3, r4, r5, r6, r7, lr}
 934              	.LCFI48:
 935              		.cfi_def_cfa_offset 24
 936              		.cfi_offset 3, -24
 937              		.cfi_offset 4, -20
 938              		.cfi_offset 5, -16
 939              		.cfi_offset 6, -12
 940              		.cfi_offset 7, -8
 941              		.cfi_offset 14, -4
 942 0002 0446     		mov	r4, r0
 943              		.loc 1 616 0
 944 0004 0023     		movs	r3, #0
 945 0006 80F86430 		strb	r3, [r0, #100]
 946              		.loc 1 613 0
 947 000a 00AF     		add	r7, sp, #0
 948              	.LCFI49:
 949              		.cfi_def_cfa_register 7
 950              		.loc 1 617 0
 951 000c 00F17402 		add	r2, r0, #116
 952 0010 FFF7FEFF 		bl	usb_lld_read_setup
 953              	.LVL65:
 954              		.loc 1 621 0
 955 0014 6368     		ldr	r3, [r4, #4]
 956 0016 9B68     		ldr	r3, [r3, #8]
 957 0018 33B9     		cbnz	r3, .L47
 958              	.L51:
 959              		.loc 1 625 0
 960 001a 94F87430 		ldrb	r3, [r4, #116]	@ zero_extendqisi2
 961 001e 13F06006 		ands	r6, r3, #96
 962 0022 40F0CB80 		bne	.L48
 963 0026 05E0     		b	.L116
 964              	.L47:
 965              		.loc 1 622 0 discriminator 1
 966 0028 2046     		mov	r0, r4
 967 002a 9847     		blx	r3
 968              	.LVL66:
 969              		.loc 1 621 0 discriminator 1
ARM GAS  /var/folders/_2/42wyrlld3p52fkcpt1lv6gxh0000gp/T//cc46znBC.s 			page 18


 970 002c 0028     		cmp	r0, #0
 971 002e 40F0D780 		bne	.L50
 972 0032 F2E7     		b	.L51
 973              	.L116:
 974              	.LVL67:
 975              	.LBB16:
 976              	.LBB17:
 977              		.loc 1 93 0
 978 0034 94F87550 		ldrb	r5, [r4, #117]	@ zero_extendqisi2
 979 0038 03F07F03 		and	r3, r3, #127
 980 003c 43EA0525 		orr	r5, r3, r5, lsl #8
 981 0040 B5F5407F 		cmp	r5, #768
 982 0044 40D0     		beq	.L53
 983 0046 0EDC     		bgt	.L54
 984 0048 022D     		cmp	r5, #2
 985 004a 7BD0     		beq	.L55
 986 004c 03DC     		bgt	.L56
 987 004e 5DB3     		cbz	r5, .L57
 988 0050 012D     		cmp	r5, #1
 989 0052 70D0     		beq	.L58
 990 0054 B2E0     		b	.L48
 991              	.L56:
 992 0056 B5F5807F 		cmp	r5, #256
 993 005a 2CD0     		beq	.L59
 994 005c B5F5817F 		cmp	r5, #258
 995 0060 00F08A80 		beq	.L60
 996 0064 AAE0     		b	.L48
 997              	.L54:
 998 0066 B5F5C06F 		cmp	r5, #1536
 999 006a 3BD0     		beq	.L61
 1000 006c 0CDC     		bgt	.L62
 1001 006e 40F20233 		movw	r3, #770
 1002 0072 9D42     		cmp	r5, r3
 1003 0074 00F09180 		beq	.L63
 1004 0078 B5F5A06F 		cmp	r5, #1280
 1005 007c 40F09E80 		bne	.L48
 1006              		.loc 1 128 0
 1007 0080 A666     		str	r6, [r4, #104]
 1008 0082 E666     		str	r6, [r4, #108]
 1009 0084 814B     		ldr	r3, .L117
 1010 0086 54E0     		b	.L106
 1011              	.L62:
 1012              		.loc 1 93 0
 1013 0088 B5F5106F 		cmp	r5, #2304
 1014 008c 3FD0     		beq	.L65
 1015 008e 40F60243 		movw	r3, #3074
 1016 0092 9D42     		cmp	r5, r3
 1017 0094 4FD0     		beq	.L58
 1018 0096 B5F5006F 		cmp	r5, #2048
 1019 009a 40F08F80 		bne	.L48
 1020              		.loc 1 142 0
 1021 009e 04F17F03 		add	r3, r4, #127
 1022 00a2 A366     		str	r3, [r4, #104]
 1023 00a4 0123     		movs	r3, #1
 1024 00a6 30E0     		b	.L111
 1025              	.L57:
 1026              		.loc 1 98 0
ARM GAS  /var/folders/_2/42wyrlld3p52fkcpt1lv6gxh0000gp/T//cc46znBC.s 			page 19


 1027 00a8 04F17C03 		add	r3, r4, #124
 1028 00ac A366     		str	r3, [r4, #104]
 1029 00ae 0223     		movs	r3, #2
 1030 00b0 E366     		str	r3, [r4, #108]
 1031 00b2 2567     		str	r5, [r4, #112]
 1032 00b4 94E0     		b	.L50
 1033              	.L59:
 1034              		.loc 1 103 0
 1035 00b6 94F87630 		ldrb	r3, [r4, #118]	@ zero_extendqisi2
 1036 00ba 012B     		cmp	r3, #1
 1037 00bc 7ED1     		bne	.L48
 1038              		.loc 1 104 0
 1039 00be B4F87C30 		ldrh	r3, [r4, #124]
 1040 00c2 23F00203 		bic	r3, r3, #2
 1041 00c6 07E0     		b	.L107
 1042              	.L53:
 1043              		.loc 1 112 0
 1044 00c8 94F87630 		ldrb	r3, [r4, #118]	@ zero_extendqisi2
 1045 00cc 012B     		cmp	r3, #1
 1046 00ce 75D1     		bne	.L48
 1047              		.loc 1 113 0
 1048 00d0 B4F87C30 		ldrh	r3, [r4, #124]
 1049 00d4 43F00203 		orr	r3, r3, #2
 1050              	.L107:
 1051 00d8 A4F87C30 		strh	r3, [r4, #124]	@ movhi
 1052              		.loc 1 114 0
 1053 00dc A666     		str	r6, [r4, #104]
 1054 00de E666     		str	r6, [r4, #108]
 1055 00e0 2667     		str	r6, [r4, #112]
 1056 00e2 83E0     		b	.L88
 1057              	.L61:
 1058              		.loc 1 133 0
 1059 00e4 94F87920 		ldrb	r2, [r4, #121]	@ zero_extendqisi2
 1060 00e8 6168     		ldr	r1, [r4, #4]
 1061 00ea 94F87830 		ldrb	r3, [r4, #120]	@ zero_extendqisi2
 1062 00ee 4D68     		ldr	r5, [r1, #4]
 1063 00f0 43EA0223 		orr	r3, r3, r2, lsl #8
 1064 00f4 94F87710 		ldrb	r1, [r4, #119]	@ zero_extendqisi2
 1065 00f8 94F87620 		ldrb	r2, [r4, #118]	@ zero_extendqisi2
 1066 00fc 2046     		mov	r0, r4
 1067 00fe A847     		blx	r5
 1068              	.LVL68:
 1069              		.loc 1 136 0
 1070 0100 0028     		cmp	r0, #0
 1071 0102 5BD0     		beq	.L48
 1072              		.loc 1 138 0
 1073 0104 4368     		ldr	r3, [r0, #4]
 1074 0106 A366     		str	r3, [r4, #104]
 1075 0108 0368     		ldr	r3, [r0]
 1076              	.LVL69:
 1077              	.L111:
 1078              		.loc 1 142 0
 1079 010a E366     		str	r3, [r4, #108]
 1080 010c 32E0     		b	.L108
 1081              	.L65:
 1082              		.loc 1 146 0
 1083 010e 94F87630 		ldrb	r3, [r4, #118]	@ zero_extendqisi2
ARM GAS  /var/folders/_2/42wyrlld3p52fkcpt1lv6gxh0000gp/T//cc46znBC.s 			page 20


 1084 0112 84F87F30 		strb	r3, [r4, #127]
 1085              		.loc 1 147 0
 1086 0116 0BB9     		cbnz	r3, .L70
 1087              		.loc 1 148 0
 1088 0118 0323     		movs	r3, #3
 1089 011a 00E0     		b	.L105
 1090              	.L70:
 1091              		.loc 1 150 0
 1092 011c 0423     		movs	r3, #4
 1093              	.L105:
 1094 011e 2370     		strb	r3, [r4]
 1095              		.loc 1 151 0
 1096 0120 6368     		ldr	r3, [r4, #4]
 1097 0122 1B68     		ldr	r3, [r3]
 1098 0124 13B1     		cbz	r3, .L73
 1099 0126 0221     		movs	r1, #2
 1100 0128 2046     		mov	r0, r4
 1101 012a 9847     		blx	r3
 1102              	.LVL70:
 1103              	.L73:
 1104              		.loc 1 152 0
 1105 012c 0023     		movs	r3, #0
 1106 012e A366     		str	r3, [r4, #104]
 1107 0130 E366     		str	r3, [r4, #108]
 1108              	.L106:
 1109 0132 2367     		str	r3, [r4, #112]
 1110 0134 5AE0     		b	.L88
 1111              	.L58:
 1112              		.loc 1 158 0
 1113 0136 564B     		ldr	r3, .L117+4
 1114 0138 A366     		str	r3, [r4, #104]
 1115 013a 0223     		movs	r3, #2
 1116 013c E366     		str	r3, [r4, #108]
 1117 013e 0023     		movs	r3, #0
 1118 0140 2367     		str	r3, [r4, #112]
 1119 0142 4DE0     		b	.L50
 1120              	.L55:
 1121              		.loc 1 162 0
 1122 0144 94F87810 		ldrb	r1, [r4, #120]	@ zero_extendqisi2
 1123              		.loc 1 163 0
 1124 0148 2046     		mov	r0, r4
 1125              		.loc 1 162 0
 1126 014a 11F0800F 		tst	r1, #128
 1127 014e 01F00F01 		and	r1, r1, #15
 1128 0152 02D0     		beq	.L74
 1129              	.LVL71:
 1130              		.loc 1 163 0
 1131 0154 FFF7FEFF 		bl	usb_lld_get_status_in
 1132              	.LVL72:
 1133 0158 01E0     		b	.L115
 1134              	.LVL73:
 1135              	.L74:
 1136              		.loc 1 175 0
 1137 015a FFF7FEFF 		bl	usb_lld_get_status_out
 1138              	.LVL74:
 1139              	.L115:
 1140 015e 0128     		cmp	r0, #1
ARM GAS  /var/folders/_2/42wyrlld3p52fkcpt1lv6gxh0000gp/T//cc46znBC.s 			page 21


 1141 0160 05D0     		beq	.L77
 1142 0162 0228     		cmp	r0, #2
 1143 0164 2AD1     		bne	.L48
 1144              		.loc 1 180 0
 1145 0166 4B4B     		ldr	r3, .L117+8
 1146 0168 E066     		str	r0, [r4, #108]
 1147 016a A366     		str	r3, [r4, #104]
 1148 016c 02E0     		b	.L108
 1149              	.L77:
 1150              		.loc 1 177 0
 1151 016e 4A4B     		ldr	r3, .L117+12
 1152 0170 E566     		str	r5, [r4, #108]
 1153 0172 A366     		str	r3, [r4, #104]
 1154              	.L108:
 1155 0174 2667     		str	r6, [r4, #112]
 1156 0176 33E0     		b	.L50
 1157              	.L60:
 1158              		.loc 1 188 0
 1159 0178 94F87630 		ldrb	r3, [r4, #118]	@ zero_extendqisi2
 1160 017c F3B9     		cbnz	r3, .L48
 1161              		.loc 1 191 0
 1162 017e 94F87830 		ldrb	r3, [r4, #120]	@ zero_extendqisi2
 1163 0182 13F00F01 		ands	r1, r3, #15
 1164 0186 D1D0     		beq	.L73
 1165              		.loc 1 192 0
 1166 0188 1A06     		lsls	r2, r3, #24
 1167              		.loc 1 193 0
 1168 018a 2046     		mov	r0, r4
 1169              		.loc 1 192 0
 1170 018c 02D5     		bpl	.L80
 1171              	.LVL75:
 1172              		.loc 1 193 0
 1173 018e FFF7FEFF 		bl	usb_lld_clear_in
 1174              	.LVL76:
 1175 0192 CBE7     		b	.L73
 1176              	.LVL77:
 1177              	.L80:
 1178              		.loc 1 195 0
 1179 0194 FFF7FEFF 		bl	usb_lld_clear_out
 1180              	.LVL78:
 1181 0198 C8E7     		b	.L73
 1182              	.L63:
 1183              		.loc 1 201 0
 1184 019a 94F87630 		ldrb	r3, [r4, #118]	@ zero_extendqisi2
 1185 019e 6BB9     		cbnz	r3, .L48
 1186              		.loc 1 204 0
 1187 01a0 94F87830 		ldrb	r3, [r4, #120]	@ zero_extendqisi2
 1188 01a4 13F00F01 		ands	r1, r3, #15
 1189 01a8 C0D0     		beq	.L73
 1190              		.loc 1 205 0
 1191 01aa 1B06     		lsls	r3, r3, #24
 1192              		.loc 1 206 0
 1193 01ac 2046     		mov	r0, r4
 1194              		.loc 1 205 0
 1195 01ae 02D5     		bpl	.L81
 1196              	.LVL79:
 1197              		.loc 1 206 0
ARM GAS  /var/folders/_2/42wyrlld3p52fkcpt1lv6gxh0000gp/T//cc46znBC.s 			page 22


 1198 01b0 FFF7FEFF 		bl	usb_lld_stall_in
 1199              	.LVL80:
 1200 01b4 BAE7     		b	.L73
 1201              	.LVL81:
 1202              	.L81:
 1203              		.loc 1 208 0
 1204 01b6 FFF7FEFF 		bl	usb_lld_stall_out
 1205              	.LVL82:
 1206 01ba B7E7     		b	.L73
 1207              	.LVL83:
 1208              	.L48:
 1209              	.LBE17:
 1210              	.LBE16:
 1211              		.loc 1 630 0
 1212 01bc 0021     		movs	r1, #0
 1213 01be 2046     		mov	r0, r4
 1214 01c0 FFF7FEFF 		bl	usb_lld_stall_in
 1215              	.LVL84:
 1216              		.loc 1 631 0
 1217 01c4 0021     		movs	r1, #0
 1218 01c6 2046     		mov	r0, r4
 1219 01c8 FFF7FEFF 		bl	usb_lld_stall_out
 1220              	.LVL85:
 1221              		.loc 1 632 0
 1222 01cc 6368     		ldr	r3, [r4, #4]
 1223 01ce 1B68     		ldr	r3, [r3]
 1224 01d0 13B1     		cbz	r3, .L82
 1225              		.loc 1 632 0 is_stmt 0 discriminator 1
 1226 01d2 0521     		movs	r1, #5
 1227 01d4 2046     		mov	r0, r4
 1228 01d6 9847     		blx	r3
 1229              	.LVL86:
 1230              	.L82:
 1231              		.loc 1 633 0 is_stmt 1
 1232 01d8 0623     		movs	r3, #6
 1233 01da 84F86430 		strb	r3, [r4, #100]
 1234              		.loc 1 634 0
 1235 01de F8BD     		pop	{r3, r4, r5, r6, r7, pc}
 1236              	.LVL87:
 1237              	.L50:
 1238 01e0 B4F87A30 		ldrh	r3, [r4, #122]
 1239              	.LVL88:
 1240              		.loc 1 643 0
 1241 01e4 E26E     		ldr	r2, [r4, #108]
 1242 01e6 9342     		cmp	r3, r2
 1243 01e8 00D2     		bcs	.L88
 1244              		.loc 1 644 0
 1245 01ea E366     		str	r3, [r4, #108]
 1246              	.LVL89:
 1247              	.L88:
 1248              		.loc 1 645 0
 1249 01ec 94F97430 		ldrsb	r3, [r4, #116]
 1250 01f0 E56E     		ldr	r5, [r4, #108]
 1251 01f2 002B     		cmp	r3, #0
 1252 01f4 22DA     		bge	.L84
 1253              		.loc 1 647 0
 1254 01f6 85B1     		cbz	r5, .L85
ARM GAS  /var/folders/_2/42wyrlld3p52fkcpt1lv6gxh0000gp/T//cc46znBC.s 			page 23


 1255              		.loc 1 649 0
 1256 01f8 0123     		movs	r3, #1
 1257 01fa 84F86430 		strb	r3, [r4, #100]
 1258              		.loc 1 650 0
 1259 01fe A26E     		ldr	r2, [r4, #104]
 1260 0200 2B46     		mov	r3, r5
 1261 0202 0021     		movs	r1, #0
 1262 0204 2046     		mov	r0, r4
 1263 0206 FFF7FEFF 		bl	usbPrepareTransmit
 1264              	.LVL90:
 1265              	.LBB18:
 1266              		.loc 1 651 0
 1267 020a 2023     		movs	r3, #32
 1268              		.syntax unified
 1269              	@ 651 "chibios/os/hal/src/usb.c" 1
 1270 020c 83F31188 		msr     BASEPRI, r3
 1271              	@ 0 "" 2
 1272              		.thumb
 1273              		.syntax unified
 1274              	.LBE18:
 1275              		.loc 1 652 0
 1276 0210 0021     		movs	r1, #0
 1277 0212 2046     		mov	r0, r4
 1278 0214 FFF7FEFF 		bl	usbStartTransmitI
 1279              	.LVL91:
 1280 0218 21E0     		b	.L112
 1281              	.L85:
 1282              		.loc 1 658 0
 1283 021a 0323     		movs	r3, #3
 1284 021c 84F86430 		strb	r3, [r4, #100]
 1285              		.loc 1 659 0
 1286 0220 2A46     		mov	r2, r5
 1287 0222 2B46     		mov	r3, r5
 1288 0224 2946     		mov	r1, r5
 1289 0226 2046     		mov	r0, r4
 1290 0228 FFF7FEFF 		bl	usbPrepareReceive
 1291              	.LVL92:
 1292              	.LBB19:
 1293              		.loc 1 660 0
 1294 022c 2023     		movs	r3, #32
 1295              		.syntax unified
 1296              	@ 660 "chibios/os/hal/src/usb.c" 1
 1297 022e 83F31188 		msr     BASEPRI, r3
 1298              	@ 0 "" 2
 1299              		.thumb
 1300              		.syntax unified
 1301              	.LBE19:
 1302              		.loc 1 661 0
 1303 0232 2946     		mov	r1, r5
 1304 0234 2046     		mov	r0, r4
 1305 0236 FFF7FEFF 		bl	usbStartReceiveI
 1306              	.LVL93:
 1307 023a 22E0     		b	.L110
 1308              	.L84:
 1309              		.loc 1 667 0
 1310 023c 8DB1     		cbz	r5, .L86
 1311              		.loc 1 669 0
ARM GAS  /var/folders/_2/42wyrlld3p52fkcpt1lv6gxh0000gp/T//cc46znBC.s 			page 24


 1312 023e 0423     		movs	r3, #4
 1313 0240 84F86430 		strb	r3, [r4, #100]
 1314              		.loc 1 670 0
 1315 0244 A26E     		ldr	r2, [r4, #104]
 1316 0246 2B46     		mov	r3, r5
 1317 0248 0021     		movs	r1, #0
 1318 024a 2046     		mov	r0, r4
 1319 024c FFF7FEFF 		bl	usbPrepareReceive
 1320              	.LVL94:
 1321              	.LBB20:
 1322              		.loc 1 671 0
 1323 0250 2023     		movs	r3, #32
 1324              		.syntax unified
 1325              	@ 671 "chibios/os/hal/src/usb.c" 1
 1326 0252 83F31188 		msr     BASEPRI, r3
 1327              	@ 0 "" 2
 1328              		.thumb
 1329              		.syntax unified
 1330              	.LBE20:
 1331              		.loc 1 672 0
 1332 0256 0021     		movs	r1, #0
 1333 0258 2046     		mov	r0, r4
 1334 025a FFF7FEFF 		bl	usbStartReceiveI
 1335              	.LVL95:
 1336              	.L112:
 1337              	.LBB21:
 1338              		.loc 1 673 0
 1339 025e 0023     		movs	r3, #0
 1340 0260 10E0     		b	.L109
 1341              	.L86:
 1342              	.LBE21:
 1343              		.loc 1 678 0
 1344 0262 0523     		movs	r3, #5
 1345 0264 84F86430 		strb	r3, [r4, #100]
 1346              		.loc 1 679 0
 1347 0268 2A46     		mov	r2, r5
 1348 026a 2B46     		mov	r3, r5
 1349 026c 2946     		mov	r1, r5
 1350 026e 2046     		mov	r0, r4
 1351 0270 FFF7FEFF 		bl	usbPrepareTransmit
 1352              	.LVL96:
 1353              	.LBB22:
 1354              		.loc 1 680 0
 1355 0274 2023     		movs	r3, #32
 1356              		.syntax unified
 1357              	@ 680 "chibios/os/hal/src/usb.c" 1
 1358 0276 83F31188 		msr     BASEPRI, r3
 1359              	@ 0 "" 2
 1360              		.thumb
 1361              		.syntax unified
 1362              	.LBE22:
 1363              		.loc 1 681 0
 1364 027a 2946     		mov	r1, r5
 1365 027c 2046     		mov	r0, r4
 1366 027e FFF7FEFF 		bl	usbStartTransmitI
 1367              	.LVL97:
 1368              	.L110:
ARM GAS  /var/folders/_2/42wyrlld3p52fkcpt1lv6gxh0000gp/T//cc46znBC.s 			page 25


 1369              	.LBB23:
 1370              		.loc 1 682 0
 1371 0282 2B46     		mov	r3, r5
 1372              	.L109:
 1373              		.syntax unified
 1374              	@ 682 "chibios/os/hal/src/usb.c" 1
 1375 0284 83F31188 		msr     BASEPRI, r3
 1376              	@ 0 "" 2
 1377              		.thumb
 1378              		.syntax unified
 1379 0288 F8BD     		pop	{r3, r4, r5, r6, r7, pc}
 1380              	.LVL98:
 1381              	.L118:
 1382 028a 00BF     		.align	2
 1383              	.L117:
 1384 028c 00000000 		.word	set_address
 1385 0290 00000000 		.word	.LANCHOR0
 1386 0294 00000000 		.word	.LANCHOR2
 1387 0298 00000000 		.word	.LANCHOR1
 1388              	.LBE23:
 1389              		.cfi_endproc
 1390              	.LFE82:
 1391              		.size	_usb_ep0setup, .-_usb_ep0setup
 1392              		.section	.text._usb_ep0in,"ax",%progbits
 1393              		.align	1
 1394              		.global	_usb_ep0in
 1395              		.thumb
 1396              		.thumb_func
 1397              		.type	_usb_ep0in, %function
 1398              	_usb_ep0in:
 1399              	.LFB83:
 1400              		.loc 1 697 0
 1401              		.cfi_startproc
 1402              		@ args = 0, pretend = 0, frame = 0
 1403              		@ frame_needed = 1, uses_anonymous_args = 0
 1404              	.LVL99:
 1405 0000 B0B5     		push	{r4, r5, r7, lr}
 1406              	.LCFI50:
 1407              		.cfi_def_cfa_offset 16
 1408              		.cfi_offset 4, -16
 1409              		.cfi_offset 5, -12
 1410              		.cfi_offset 7, -8
 1411              		.cfi_offset 14, -4
 1412              		.loc 1 701 0
 1413 0002 90F86430 		ldrb	r3, [r0, #100]	@ zero_extendqisi2
 1414              		.loc 1 697 0
 1415 0006 00AF     		add	r7, sp, #0
 1416              	.LCFI51:
 1417              		.cfi_def_cfa_register 7
 1418              		.loc 1 701 0
 1419 0008 022B     		cmp	r3, #2
 1420              		.loc 1 697 0
 1421 000a 0446     		mov	r4, r0
 1422              		.loc 1 701 0
 1423 000c 20D0     		beq	.L121
 1424 000e 052B     		cmp	r3, #5
 1425 0010 32D0     		beq	.L122
ARM GAS  /var/folders/_2/42wyrlld3p52fkcpt1lv6gxh0000gp/T//cc46znBC.s 			page 26


 1426 0012 012B     		cmp	r3, #1
 1427 0014 35D1     		bne	.L136
 1428 0016 B0F87A30 		ldrh	r3, [r0, #122]
 1429              	.LVL100:
 1430              		.loc 1 707 0
 1431 001a C26E     		ldr	r2, [r0, #108]
 1432 001c 9342     		cmp	r3, r2
 1433 001e 17D9     		bls	.L121
 1434              		.loc 1 707 0 is_stmt 0 discriminator 1
 1435 0020 C368     		ldr	r3, [r0, #12]
 1436              	.LVL101:
 1437 0022 1D8A     		ldrh	r5, [r3, #16]
 1438 0024 B2FBF5F3 		udiv	r3, r2, r5
 1439 0028 05FB1325 		mls	r5, r5, r3, r2
 1440 002c 85B9     		cbnz	r5, .L121
 1441              		.loc 1 708 0 is_stmt 1
 1442 002e 2B46     		mov	r3, r5
 1443 0030 2A46     		mov	r2, r5
 1444 0032 2946     		mov	r1, r5
 1445              	.LVL102:
 1446 0034 FFF7FEFF 		bl	usbPrepareTransmit
 1447              	.LVL103:
 1448              	.LBB24:
 1449              		.loc 1 709 0
 1450 0038 2023     		movs	r3, #32
 1451              		.syntax unified
 1452              	@ 709 "chibios/os/hal/src/usb.c" 1
 1453 003a 83F31188 		msr     BASEPRI, r3
 1454              	@ 0 "" 2
 1455              		.thumb
 1456              		.syntax unified
 1457              	.LBE24:
 1458              		.loc 1 710 0
 1459 003e 2946     		mov	r1, r5
 1460 0040 2046     		mov	r0, r4
 1461 0042 FFF7FEFF 		bl	usbStartTransmitI
 1462              	.LVL104:
 1463              	.LBB25:
 1464              		.loc 1 711 0
 1465 0046 2B46     		mov	r3, r5
 1466              		.syntax unified
 1467              	@ 711 "chibios/os/hal/src/usb.c" 1
 1468 0048 83F31188 		msr     BASEPRI, r3
 1469              	@ 0 "" 2
 1470              		.thumb
 1471              		.syntax unified
 1472              	.LBE25:
 1473              		.loc 1 712 0
 1474 004c 0223     		movs	r3, #2
 1475 004e 26E0     		b	.L137
 1476              	.LVL105:
 1477              	.L121:
 1478              		.loc 1 718 0
 1479 0050 0323     		movs	r3, #3
 1480 0052 84F86430 		strb	r3, [r4, #100]
 1481              		.loc 1 719 0
 1482 0056 0023     		movs	r3, #0
ARM GAS  /var/folders/_2/42wyrlld3p52fkcpt1lv6gxh0000gp/T//cc46znBC.s 			page 27


 1483 0058 1A46     		mov	r2, r3
 1484 005a 1946     		mov	r1, r3
 1485              	.LVL106:
 1486 005c 2046     		mov	r0, r4
 1487              	.LVL107:
 1488 005e FFF7FEFF 		bl	usbPrepareReceive
 1489              	.LVL108:
 1490              	.LBB26:
 1491              		.loc 1 720 0
 1492 0062 2023     		movs	r3, #32
 1493              		.syntax unified
 1494              	@ 720 "chibios/os/hal/src/usb.c" 1
 1495 0064 83F31188 		msr     BASEPRI, r3
 1496              	@ 0 "" 2
 1497              		.thumb
 1498              		.syntax unified
 1499              	.LBE26:
 1500              		.loc 1 721 0
 1501 0068 0021     		movs	r1, #0
 1502 006a 2046     		mov	r0, r4
 1503 006c FFF7FEFF 		bl	usbStartReceiveI
 1504              	.LVL109:
 1505              	.LBB27:
 1506              		.loc 1 722 0
 1507 0070 0023     		movs	r3, #0
 1508              		.syntax unified
 1509              	@ 722 "chibios/os/hal/src/usb.c" 1
 1510 0072 83F31188 		msr     BASEPRI, r3
 1511              	@ 0 "" 2
 1512              		.thumb
 1513              		.syntax unified
 1514              	.LBE27:
 1515              		.loc 1 723 0
 1516 0076 B0BD     		pop	{r4, r5, r7, pc}
 1517              	.LVL110:
 1518              	.L122:
 1519              		.loc 1 726 0
 1520 0078 036F     		ldr	r3, [r0, #112]
 1521 007a 03B1     		cbz	r3, .L125
 1522              		.loc 1 727 0
 1523 007c 9847     		blx	r3
 1524              	.LVL111:
 1525              	.L125:
 1526              		.loc 1 728 0
 1527 007e 0023     		movs	r3, #0
 1528 0080 0DE0     		b	.L137
 1529              	.LVL112:
 1530              	.L136:
 1531              		.loc 1 736 0
 1532 0082 0021     		movs	r1, #0
 1533              	.LVL113:
 1534 0084 FFF7FEFF 		bl	usb_lld_stall_in
 1535              	.LVL114:
 1536              		.loc 1 737 0
 1537 0088 0021     		movs	r1, #0
 1538 008a 2046     		mov	r0, r4
 1539 008c FFF7FEFF 		bl	usb_lld_stall_out
ARM GAS  /var/folders/_2/42wyrlld3p52fkcpt1lv6gxh0000gp/T//cc46znBC.s 			page 28


 1540              	.LVL115:
 1541              		.loc 1 738 0
 1542 0090 6368     		ldr	r3, [r4, #4]
 1543 0092 1B68     		ldr	r3, [r3]
 1544 0094 13B1     		cbz	r3, .L126
 1545              		.loc 1 738 0 is_stmt 0 discriminator 1
 1546 0096 0521     		movs	r1, #5
 1547 0098 2046     		mov	r0, r4
 1548 009a 9847     		blx	r3
 1549              	.LVL116:
 1550              	.L126:
 1551              		.loc 1 739 0 is_stmt 1
 1552 009c 0623     		movs	r3, #6
 1553              	.L137:
 1554 009e 84F86430 		strb	r3, [r4, #100]
 1555 00a2 B0BD     		pop	{r4, r5, r7, pc}
 1556              		.cfi_endproc
 1557              	.LFE83:
 1558              		.size	_usb_ep0in, .-_usb_ep0in
 1559              		.section	.text._usb_ep0out,"ax",%progbits
 1560              		.align	1
 1561              		.global	_usb_ep0out
 1562              		.thumb
 1563              		.thumb_func
 1564              		.type	_usb_ep0out, %function
 1565              	_usb_ep0out:
 1566              	.LFB84:
 1567              		.loc 1 752 0
 1568              		.cfi_startproc
 1569              		@ args = 0, pretend = 0, frame = 0
 1570              		@ frame_needed = 1, uses_anonymous_args = 0
 1571              	.LVL117:
 1572 0000 98B5     		push	{r3, r4, r7, lr}
 1573              	.LCFI52:
 1574              		.cfi_def_cfa_offset 16
 1575              		.cfi_offset 3, -16
 1576              		.cfi_offset 4, -12
 1577              		.cfi_offset 7, -8
 1578              		.cfi_offset 14, -4
 1579              		.loc 1 755 0
 1580 0002 90F86430 		ldrb	r3, [r0, #100]	@ zero_extendqisi2
 1581              		.loc 1 752 0
 1582 0006 00AF     		add	r7, sp, #0
 1583              	.LCFI53:
 1584              		.cfi_def_cfa_register 7
 1585              		.loc 1 755 0
 1586 0008 032B     		cmp	r3, #3
 1587              		.loc 1 752 0
 1588 000a 0446     		mov	r4, r0
 1589              		.loc 1 755 0
 1590 000c 14D0     		beq	.L140
 1591 000e 042B     		cmp	r3, #4
 1592 0010 1BD1     		bne	.L139
 1593              		.loc 1 758 0
 1594 0012 0523     		movs	r3, #5
 1595 0014 80F86430 		strb	r3, [r0, #100]
 1596              		.loc 1 759 0
ARM GAS  /var/folders/_2/42wyrlld3p52fkcpt1lv6gxh0000gp/T//cc46znBC.s 			page 29


 1597 0018 0023     		movs	r3, #0
 1598 001a 1A46     		mov	r2, r3
 1599 001c 1946     		mov	r1, r3
 1600              	.LVL118:
 1601 001e FFF7FEFF 		bl	usbPrepareTransmit
 1602              	.LVL119:
 1603              	.LBB28:
 1604              		.loc 1 760 0
 1605 0022 2023     		movs	r3, #32
 1606              		.syntax unified
 1607              	@ 760 "chibios/os/hal/src/usb.c" 1
 1608 0024 83F31188 		msr     BASEPRI, r3
 1609              	@ 0 "" 2
 1610              		.thumb
 1611              		.syntax unified
 1612              	.LBE28:
 1613              		.loc 1 761 0
 1614 0028 0021     		movs	r1, #0
 1615 002a 2046     		mov	r0, r4
 1616 002c FFF7FEFF 		bl	usbStartTransmitI
 1617              	.LVL120:
 1618              	.LBB29:
 1619              		.loc 1 762 0
 1620 0030 0023     		movs	r3, #0
 1621              		.syntax unified
 1622              	@ 762 "chibios/os/hal/src/usb.c" 1
 1623 0032 83F31188 		msr     BASEPRI, r3
 1624              	@ 0 "" 2
 1625              		.thumb
 1626              		.syntax unified
 1627              	.LBE29:
 1628              		.loc 1 763 0
 1629 0036 98BD     		pop	{r3, r4, r7, pc}
 1630              	.LVL121:
 1631              	.L140:
 1632              		.loc 1 767 0
 1633 0038 C368     		ldr	r3, [r0, #12]
 1634 003a 9B69     		ldr	r3, [r3, #24]
 1635 003c 9B68     		ldr	r3, [r3, #8]
 1636 003e 23B9     		cbnz	r3, .L139
 1637              		.loc 1 769 0
 1638 0040 036F     		ldr	r3, [r0, #112]
 1639 0042 03B1     		cbz	r3, .L143
 1640              		.loc 1 770 0
 1641 0044 9847     		blx	r3
 1642              	.LVL122:
 1643              	.L143:
 1644              		.loc 1 771 0
 1645 0046 0023     		movs	r3, #0
 1646 0048 0EE0     		b	.L151
 1647              	.LVL123:
 1648              	.L139:
 1649              		.loc 1 779 0
 1650 004a 0021     		movs	r1, #0
 1651              	.LVL124:
 1652 004c 2046     		mov	r0, r4
 1653              	.LVL125:
ARM GAS  /var/folders/_2/42wyrlld3p52fkcpt1lv6gxh0000gp/T//cc46znBC.s 			page 30


 1654 004e FFF7FEFF 		bl	usb_lld_stall_in
 1655              	.LVL126:
 1656              		.loc 1 780 0
 1657 0052 0021     		movs	r1, #0
 1658 0054 2046     		mov	r0, r4
 1659 0056 FFF7FEFF 		bl	usb_lld_stall_out
 1660              	.LVL127:
 1661              		.loc 1 781 0
 1662 005a 6368     		ldr	r3, [r4, #4]
 1663 005c 1B68     		ldr	r3, [r3]
 1664 005e 13B1     		cbz	r3, .L144
 1665              		.loc 1 781 0 is_stmt 0 discriminator 1
 1666 0060 0521     		movs	r1, #5
 1667 0062 2046     		mov	r0, r4
 1668 0064 9847     		blx	r3
 1669              	.LVL128:
 1670              	.L144:
 1671              		.loc 1 782 0 is_stmt 1
 1672 0066 0623     		movs	r3, #6
 1673              	.L151:
 1674 0068 84F86430 		strb	r3, [r4, #100]
 1675 006c 98BD     		pop	{r3, r4, r7, pc}
 1676              		.cfi_endproc
 1677              	.LFE84:
 1678              		.size	_usb_ep0out, .-_usb_ep0out
 1679              		.section	.rodata.zero_status,"a",%progbits
 1680              		.set	.LANCHOR0,. + 0
 1681              		.type	zero_status, %object
 1682              		.size	zero_status, 2
 1683              	zero_status:
 1684 0000 0000     		.space	2
 1685              		.section	.rodata.active_status,"a",%progbits
 1686              		.set	.LANCHOR2,. + 0
 1687              		.type	active_status, %object
 1688              		.size	active_status, 2
 1689              	active_status:
 1690 0000 0000     		.space	2
 1691              		.section	.rodata.halted_status,"a",%progbits
 1692              		.set	.LANCHOR1,. + 0
 1693              		.type	halted_status, %object
 1694              		.size	halted_status, 2
 1695              	halted_status:
 1696 0000 01       		.byte	1
 1697 0001 00       		.byte	0
 1698              		.text
 1699              	.Letext0:
 1700              		.file 2 "/Users/ARS/Applications/Eclipse.app/Contents/gcc-arm-none-eabi-5_3-2016q1/lib/gcc/arm-non
 1701              		.file 3 "/Users/ARS/Applications/Eclipse.app/Contents/gcc-arm-none-eabi-5_3-2016q1/arm-none-eabi/i
 1702              		.file 4 "/Users/ARS/Applications/Eclipse.app/Contents/gcc-arm-none-eabi-5_3-2016q1/arm-none-eabi/i
 1703              		.file 5 "chibios/os/ports/GCC/ARMCMx/chtypes.h"
 1704              		.file 6 "chibios/os/kernel/include/chlists.h"
 1705              		.file 7 "chibios/os/kernel/include/chthreads.h"
 1706              		.file 8 "chibios/os/ports/GCC/ARMCMx/chcore_v7m.h"
 1707              		.file 9 "chibios/os/kernel/include/chmtx.h"
 1708              		.file 10 "chibios/os/kernel/include/chqueues.h"
 1709              		.file 11 "chibios/os/hal/include/usb.h"
 1710              		.file 12 "chibios/os/hal/platforms/STM32/USBv1/usb_lld.h"
ARM GAS  /var/folders/_2/42wyrlld3p52fkcpt1lv6gxh0000gp/T//cc46znBC.s 			page 31


 1711              		.file 13 "chibios/os/ports/common/ARMCMx/CMSIS/include/core_cm3.h"