ARM GAS  /var/folders/_2/42wyrlld3p52fkcpt1lv6gxh0000gp/T//ccO6u6RC.s 			page 1


   1              		.syntax unified
   2              		.cpu cortex-m3
   3              		.fpu softvfp
   4              		.eabi_attribute 20, 1
   5              		.eabi_attribute 21, 1
   6              		.eabi_attribute 23, 3
   7              		.eabi_attribute 24, 1
   8              		.eabi_attribute 25, 1
   9              		.eabi_attribute 26, 1
  10              		.eabi_attribute 30, 4
  11              		.eabi_attribute 34, 1
  12              		.eabi_attribute 18, 4
  13              		.thumb
  14              		.syntax unified
  15              		.file	"usb_lld.c"
  16              		.text
  17              	.Ltext0:
  18              		.cfi_sections	.debug_frame
  19              		.section	.text.usb_packet_write_from_queue,"ax",%progbits
  20              		.align	1
  21              		.thumb
  22              		.thumb_func
  23              		.type	usb_packet_write_from_queue, %function
  24              	usb_packet_write_from_queue:
  25              	.LFB70:
  26              		.file 1 "chibios/os/hal/platforms/STM32/USBv1/usb_lld.c"
  27              		.loc 1 223 0
  28              		.cfi_startproc
  29              		@ args = 0, pretend = 0, frame = 0
  30              		@ frame_needed = 1, uses_anonymous_args = 0
  31              	.LVL0:
  32              		.loc 1 225 0
  33 0000 0368     		ldr	r3, [r0]	@ unaligned
  34              		.loc 1 223 0
  35 0002 2DE9F041 		push	{r4, r5, r6, r7, r8, lr}
  36              	.LCFI0:
  37              		.cfi_def_cfa_offset 24
  38              		.cfi_offset 4, -24
  39              		.cfi_offset 5, -20
  40              		.cfi_offset 6, -16
  41              		.cfi_offset 7, -12
  42              		.cfi_offset 8, -8
  43              		.cfi_offset 14, -4
  44              		.loc 1 225 0
  45 0006 03F10053 		add	r3, r3, #536870912
  46 000a 03F54053 		add	r3, r3, #12288
  47              		.loc 1 223 0
  48 000e 0C46     		mov	r4, r1
  49              		.loc 1 225 0
  50 0010 5B00     		lsls	r3, r3, #1
  51              	.LVL1:
  52              		.loc 1 227 0
  53 0012 91B2     		uxth	r1, r2
  54              	.LVL2:
  55              		.loc 1 228 0
  56 0014 5508     		lsrs	r5, r2, #1
  57              	.LVL3:
ARM GAS  /var/folders/_2/42wyrlld3p52fkcpt1lv6gxh0000gp/T//ccO6u6RC.s 			page 2


  58              		.loc 1 227 0
  59 0016 8180     		strh	r1, [r0, #4]	@ movhi
  60              		.loc 1 225 0
  61 0018 9E46     		mov	lr, r3
  62              		.loc 1 228 0
  63 001a 2946     		mov	r1, r5
  64              		.loc 1 223 0
  65 001c 00AF     		add	r7, sp, #0
  66              	.LCFI1:
  67              		.cfi_def_cfa_register 7
  68              	.LVL4:
  69              	.L2:
  70              		.loc 1 229 0
  71 001e E1B1     		cbz	r1, .L12
  72              	.LBB20:
  73              		.loc 1 232 0
  74 0020 A069     		ldr	r0, [r4, #24]
  75              		.loc 1 233 0
  76 0022 D4F810C0 		ldr	ip, [r4, #16]
  77              		.loc 1 232 0
  78 0026 461C     		adds	r6, r0, #1
  79              		.loc 1 233 0
  80 0028 6645     		cmp	r6, ip
  81              		.loc 1 232 0
  82 002a A661     		str	r6, [r4, #24]
  83              		.loc 1 234 0
  84 002c 28BF     		it	cs
  85 002e E668     		ldrcs	r6, [r4, #12]
  86              		.loc 1 232 0
  87 0030 0078     		ldrb	r0, [r0]	@ zero_extendqisi2
  88              	.LVL5:
  89              		.loc 1 234 0
  90 0032 28BF     		it	cs
  91 0034 A661     		strcs	r6, [r4, #24]
  92              		.loc 1 235 0
  93 0036 D4F81880 		ldr	r8, [r4, #24]
  94              		.loc 1 239 0
  95 003a 0139     		subs	r1, r1, #1
  96              	.LVL6:
  97              		.loc 1 235 0
  98 003c 08F10106 		add	r6, r8, #1
  99 0040 A661     		str	r6, [r4, #24]
 100 0042 98F80080 		ldrb	r8, [r8]	@ zero_extendqisi2
 101              		.loc 1 236 0
 102 0046 B445     		cmp	ip, r6
 103              		.loc 1 237 0
 104 0048 98BF     		it	ls
 105 004a E668     		ldrls	r6, [r4, #12]
 106              		.loc 1 235 0
 107 004c 40EA0820 		orr	r0, r0, r8, lsl #8
 108              	.LVL7:
 109              		.loc 1 237 0
 110 0050 98BF     		it	ls
 111 0052 A661     		strls	r6, [r4, #24]
 112              	.LVL8:
 113              		.loc 1 238 0
 114 0054 4EF8040B 		str	r0, [lr], #4
ARM GAS  /var/folders/_2/42wyrlld3p52fkcpt1lv6gxh0000gp/T//ccO6u6RC.s 			page 3


 115              	.LVL9:
 116 0058 E1E7     		b	.L2
 117              	.LVL10:
 118              	.L12:
 119              	.LBE20:
 120              		.loc 1 243 0
 121 005a D107     		lsls	r1, r2, #31
 122              	.LVL11:
 123 005c 0AD5     		bpl	.L7
 124              		.loc 1 244 0
 125 005e A069     		ldr	r0, [r4, #24]
 126 0060 411C     		adds	r1, r0, #1
 127 0062 A161     		str	r1, [r4, #24]
 128 0064 0078     		ldrb	r0, [r0]	@ zero_extendqisi2
 129 0066 43F82500 		str	r0, [r3, r5, lsl #2]	@ unaligned
 130              		.loc 1 245 0
 131 006a 2369     		ldr	r3, [r4, #16]
 132 006c 9942     		cmp	r1, r3
 133              		.loc 1 246 0
 134 006e 24BF     		itt	cs
 135 0070 E368     		ldrcs	r3, [r4, #12]
 136 0072 A361     		strcs	r3, [r4, #24]
 137              	.L7:
 138              	.LBB21:
 139              		.loc 1 252 0
 140 0074 2023     		movs	r3, #32
 141              		.syntax unified
 142              	@ 252 "chibios/os/hal/platforms/STM32/USBv1/usb_lld.c" 1
 143 0076 83F31188 		msr     BASEPRI, r3
 144              	@ 0 "" 2
 145              		.thumb
 146              		.syntax unified
 147              	.LBE21:
 148              		.loc 1 255 0
 149 007a A368     		ldr	r3, [r4, #8]
 150              		.loc 1 257 0
 151 007c 0025     		movs	r5, #0
 152              		.loc 1 255 0
 153 007e 1A44     		add	r2, r2, r3
 154              	.LVL12:
 155 0080 A260     		str	r2, [r4, #8]
 156              	.LVL13:
 157              	.L9:
 158              		.loc 1 256 0
 159 0082 2068     		ldr	r0, [r4]
 160 0084 A042     		cmp	r0, r4
 161 0086 06D0     		beq	.L13
 162              	.LVL14:
 163              	.LBB22:
 164              	.LBB23:
 165              		.file 2 "chibios/os/kernel/include/chinline.h"
 166              		.loc 2 62 0
 167 0088 0368     		ldr	r3, [r0]
 168 008a 2360     		str	r3, [r4]
 169 008c 5C60     		str	r4, [r3, #4]
 170              	.LVL15:
 171              	.LBE23:
ARM GAS  /var/folders/_2/42wyrlld3p52fkcpt1lv6gxh0000gp/T//ccO6u6RC.s 			page 4


 172              	.LBE22:
 173              		.loc 1 257 0
 174 008e FFF7FEFF 		bl	chSchReadyI
 175              	.LVL16:
 176 0092 8562     		str	r5, [r0, #40]
 177 0094 F5E7     		b	.L9
 178              	.L13:
 179              	.LBB24:
 180              		.loc 1 260 0
 181 0096 0023     		movs	r3, #0
 182              		.syntax unified
 183              	@ 260 "chibios/os/hal/platforms/STM32/USBv1/usb_lld.c" 1
 184 0098 83F31188 		msr     BASEPRI, r3
 185              	@ 0 "" 2
 186              		.thumb
 187              		.syntax unified
 188 009c BDE8F081 		pop	{r4, r5, r6, r7, r8, pc}
 189              	.LBE24:
 190              		.cfi_endproc
 191              	.LFE70:
 192              		.size	usb_packet_write_from_queue, .-usb_packet_write_from_queue
 193              		.section	.text.Vector8C,"ax",%progbits
 194              		.align	1
 195              		.global	Vector8C
 196              		.thumb
 197              		.thumb_func
 198              		.type	Vector8C, %function
 199              	Vector8C:
 200              	.LFB71:
 201              		.loc 1 276 0
 202              		.cfi_startproc
 203              		@ args = 0, pretend = 0, frame = 0
 204              		@ frame_needed = 1, uses_anonymous_args = 0
 205              		@ link register save eliminated.
 206 0000 80B4     		push	{r7}
 207              	.LCFI2:
 208              		.cfi_def_cfa_offset 4
 209              		.cfi_offset 7, -4
 210 0002 00AF     		add	r7, sp, #0
 211              	.LCFI3:
 212              		.cfi_def_cfa_register 7
 213              		.loc 1 281 0
 214 0004 BD46     		mov	sp, r7
 215              	.LCFI4:
 216              		.cfi_def_cfa_register 13
 217              		@ sp needed
 218 0006 80BC     		pop	{r7}
 219              	.LCFI5:
 220              		.cfi_restore 7
 221              		.cfi_def_cfa_offset 0
 222              		.loc 1 280 0
 223 0008 FFF7FEBF 		b	_port_irq_epilogue
 224              	.LVL17:
 225              		.cfi_endproc
 226              	.LFE71:
 227              		.size	Vector8C, .-Vector8C
 228              		.section	.text.usb_lld_init,"ax",%progbits
ARM GAS  /var/folders/_2/42wyrlld3p52fkcpt1lv6gxh0000gp/T//ccO6u6RC.s 			page 5


 229              		.align	1
 230              		.global	usb_lld_init
 231              		.thumb
 232              		.thumb_func
 233              		.type	usb_lld_init, %function
 234              	usb_lld_init:
 235              	.LFB73:
 236              		.loc 1 434 0
 237              		.cfi_startproc
 238              		@ args = 0, pretend = 0, frame = 0
 239              		@ frame_needed = 1, uses_anonymous_args = 0
 240              		@ link register save eliminated.
 241 0000 80B4     		push	{r7}
 242              	.LCFI6:
 243              		.cfi_def_cfa_offset 4
 244              		.cfi_offset 7, -4
 245              		.loc 1 437 0
 246 0002 0348     		ldr	r0, .L16
 247              		.loc 1 434 0
 248 0004 00AF     		add	r7, sp, #0
 249              	.LCFI7:
 250              		.cfi_def_cfa_register 7
 251              		.loc 1 438 0
 252 0006 BD46     		mov	sp, r7
 253              	.LCFI8:
 254              		.cfi_def_cfa_register 13
 255              		@ sp needed
 256 0008 80BC     		pop	{r7}
 257              	.LCFI9:
 258              		.cfi_restore 7
 259              		.cfi_def_cfa_offset 0
 260              		.loc 1 437 0
 261 000a FFF7FEBF 		b	usbObjectInit
 262              	.LVL18:
 263              	.L17:
 264 000e 00BF     		.align	2
 265              	.L16:
 266 0010 00000000 		.word	.LANCHOR0
 267              		.cfi_endproc
 268              	.LFE73:
 269              		.size	usb_lld_init, .-usb_lld_init
 270              		.section	.text.usb_lld_start,"ax",%progbits
 271              		.align	1
 272              		.global	usb_lld_start
 273              		.thumb
 274              		.thumb_func
 275              		.type	usb_lld_start, %function
 276              	usb_lld_start:
 277              	.LFB74:
 278              		.loc 1 447 0
 279              		.cfi_startproc
 280              		@ args = 0, pretend = 0, frame = 0
 281              		@ frame_needed = 1, uses_anonymous_args = 0
 282              	.LVL19:
 283 0000 B0B5     		push	{r4, r5, r7, lr}
 284              	.LCFI10:
 285              		.cfi_def_cfa_offset 16
ARM GAS  /var/folders/_2/42wyrlld3p52fkcpt1lv6gxh0000gp/T//ccO6u6RC.s 			page 6


 286              		.cfi_offset 4, -16
 287              		.cfi_offset 5, -12
 288              		.cfi_offset 7, -8
 289              		.cfi_offset 14, -4
 290              		.loc 1 449 0
 291 0002 0278     		ldrb	r2, [r0]	@ zero_extendqisi2
 292              		.loc 1 447 0
 293 0004 00AF     		add	r7, sp, #0
 294              	.LCFI11:
 295              		.cfi_def_cfa_register 7
 296              		.loc 1 449 0
 297 0006 012A     		cmp	r2, #1
 298              		.loc 1 447 0
 299 0008 0446     		mov	r4, r0
 300              		.loc 1 449 0
 301 000a 19D1     		bne	.L18
 302              		.loc 1 452 0
 303 000c 0D4B     		ldr	r3, .L21
 304 000e 9842     		cmp	r0, r3
 305 0010 10D1     		bne	.L20
 306              		.loc 1 454 0
 307 0012 0D49     		ldr	r1, .L21+4
 308              		.loc 1 456 0
 309 0014 0D4D     		ldr	r5, .L21+8
 310              		.loc 1 454 0
 311 0016 4B6A     		ldr	r3, [r1, #36]
 312              		.loc 1 459 0
 313 0018 1320     		movs	r0, #19
 314              	.LVL20:
 315              		.loc 1 454 0
 316 001a 43F40003 		orr	r3, r3, #8388608
 317 001e 4B62     		str	r3, [r1, #36]
 318              		.loc 1 456 0
 319 0020 2A64     		str	r2, [r5, #64]
 320              		.loc 1 459 0
 321 0022 D021     		movs	r1, #208
 322 0024 FFF7FEFF 		bl	nvicEnableVector
 323              	.LVL21:
 324              		.loc 1 461 0
 325 0028 E021     		movs	r1, #224
 326 002a 1420     		movs	r0, #20
 327 002c FFF7FEFF 		bl	nvicEnableVector
 328              	.LVL22:
 329              		.loc 1 464 0
 330 0030 0023     		movs	r3, #0
 331 0032 2B64     		str	r3, [r5, #64]
 332              	.L20:
 333              		.loc 1 468 0
 334 0034 2046     		mov	r0, r4
 335              		.loc 1 471 0
 336 0036 BD46     		mov	sp, r7
 337              	.LCFI12:
 338              		.cfi_remember_state
 339              		.cfi_def_cfa_register 13
 340              		@ sp needed
 341 0038 BDE8B040 		pop	{r4, r5, r7, lr}
 342              	.LCFI13:
ARM GAS  /var/folders/_2/42wyrlld3p52fkcpt1lv6gxh0000gp/T//ccO6u6RC.s 			page 7


 343              		.cfi_restore 14
 344              		.cfi_restore 7
 345              		.cfi_restore 5
 346              		.cfi_restore 4
 347              		.cfi_def_cfa_offset 0
 348              	.LVL23:
 349              		.loc 1 468 0
 350 003c FFF7FEBF 		b	_usb_reset
 351              	.LVL24:
 352              	.L18:
 353              	.LCFI14:
 354              		.cfi_restore_state
 355 0040 B0BD     		pop	{r4, r5, r7, pc}
 356              	.L22:
 357 0042 00BF     		.align	2
 358              	.L21:
 359 0044 00000000 		.word	.LANCHOR0
 360 0048 00380240 		.word	1073887232
 361 004c 005C0040 		.word	1073765376
 362              		.cfi_endproc
 363              	.LFE74:
 364              		.size	usb_lld_start, .-usb_lld_start
 365              		.section	.text.usb_lld_stop,"ax",%progbits
 366              		.align	1
 367              		.global	usb_lld_stop
 368              		.thumb
 369              		.thumb_func
 370              		.type	usb_lld_stop, %function
 371              	usb_lld_stop:
 372              	.LFB75:
 373              		.loc 1 480 0
 374              		.cfi_startproc
 375              		@ args = 0, pretend = 0, frame = 0
 376              		@ frame_needed = 1, uses_anonymous_args = 0
 377              	.LVL25:
 378 0000 80B5     		push	{r7, lr}
 379              	.LCFI15:
 380              		.cfi_def_cfa_offset 8
 381              		.cfi_offset 7, -8
 382              		.cfi_offset 14, -4
 383              		.loc 1 483 0
 384 0002 0378     		ldrb	r3, [r0]	@ zero_extendqisi2
 385              		.loc 1 480 0
 386 0004 00AF     		add	r7, sp, #0
 387              	.LCFI16:
 388              		.cfi_def_cfa_register 7
 389              		.loc 1 483 0
 390 0006 012B     		cmp	r3, #1
 391 0008 10D1     		bne	.L23
 392              		.loc 1 485 0
 393 000a 094B     		ldr	r3, .L25
 394 000c 9842     		cmp	r0, r3
 395 000e 0DD1     		bne	.L23
 396              		.loc 1 486 0
 397 0010 1320     		movs	r0, #19
 398              	.LVL26:
 399 0012 FFF7FEFF 		bl	nvicDisableVector
ARM GAS  /var/folders/_2/42wyrlld3p52fkcpt1lv6gxh0000gp/T//ccO6u6RC.s 			page 8


 400              	.LVL27:
 401              		.loc 1 487 0
 402 0016 1420     		movs	r0, #20
 403 0018 FFF7FEFF 		bl	nvicDisableVector
 404              	.LVL28:
 405              		.loc 1 488 0
 406 001c 054B     		ldr	r3, .L25+4
 407 001e 0322     		movs	r2, #3
 408 0020 1A64     		str	r2, [r3, #64]
 409              		.loc 1 489 0
 410 0022 054A     		ldr	r2, .L25+8
 411 0024 536A     		ldr	r3, [r2, #36]
 412 0026 23F40003 		bic	r3, r3, #8388608
 413 002a 5362     		str	r3, [r2, #36]
 414              	.L23:
 415 002c 80BD     		pop	{r7, pc}
 416              	.L26:
 417 002e 00BF     		.align	2
 418              	.L25:
 419 0030 00000000 		.word	.LANCHOR0
 420 0034 005C0040 		.word	1073765376
 421 0038 00380240 		.word	1073887232
 422              		.cfi_endproc
 423              	.LFE75:
 424              		.size	usb_lld_stop, .-usb_lld_stop
 425              		.section	.text.usb_lld_set_address,"ax",%progbits
 426              		.align	1
 427              		.global	usb_lld_set_address
 428              		.thumb
 429              		.thumb_func
 430              		.type	usb_lld_set_address, %function
 431              	usb_lld_set_address:
 432              	.LFB77:
 433              		.loc 1 532 0
 434              		.cfi_startproc
 435              		@ args = 0, pretend = 0, frame = 0
 436              		@ frame_needed = 1, uses_anonymous_args = 0
 437              	.LVL29:
 438 0000 80B5     		push	{r7, lr}
 439              	.LCFI17:
 440              		.cfi_def_cfa_offset 8
 441              		.cfi_offset 7, -8
 442              		.cfi_offset 14, -4
 443              		.loc 1 534 0
 444 0002 90F87E30 		ldrb	r3, [r0, #126]	@ zero_extendqisi2
 445 0006 034A     		ldr	r2, .L28
 446 0008 43F08003 		orr	r3, r3, #128
 447              		.loc 1 532 0
 448 000c 00AF     		add	r7, sp, #0
 449              	.LCFI18:
 450              		.cfi_def_cfa_register 7
 451              		.loc 1 534 0
 452 000e D364     		str	r3, [r2, #76]
 453 0010 80BD     		pop	{r7, pc}
 454              	.L29:
 455 0012 00BF     		.align	2
 456              	.L28:
ARM GAS  /var/folders/_2/42wyrlld3p52fkcpt1lv6gxh0000gp/T//ccO6u6RC.s 			page 9


 457 0014 005C0040 		.word	1073765376
 458              		.cfi_endproc
 459              	.LFE77:
 460              		.size	usb_lld_set_address, .-usb_lld_set_address
 461              		.section	.text.usb_lld_init_endpoint,"ax",%progbits
 462              		.align	1
 463              		.global	usb_lld_init_endpoint
 464              		.thumb
 465              		.thumb_func
 466              		.type	usb_lld_init_endpoint, %function
 467              	usb_lld_init_endpoint:
 468              	.LFB78:
 469              		.loc 1 545 0
 470              		.cfi_startproc
 471              		@ args = 0, pretend = 0, frame = 0
 472              		@ frame_needed = 1, uses_anonymous_args = 0
 473              	.LVL30:
 474              		.loc 1 548 0
 475 0000 00EB8103 		add	r3, r0, r1, lsl #2
 476              		.loc 1 545 0
 477 0004 F0B5     		push	{r4, r5, r6, r7, lr}
 478              	.LCFI19:
 479              		.cfi_def_cfa_offset 20
 480              		.cfi_offset 4, -20
 481              		.cfi_offset 5, -16
 482              		.cfi_offset 6, -12
 483              		.cfi_offset 7, -8
 484              		.cfi_offset 14, -4
 485              		.loc 1 548 0
 486 0006 DC68     		ldr	r4, [r3, #12]
 487              	.LVL31:
 488              		.loc 1 545 0
 489 0008 00AF     		add	r7, sp, #0
 490              	.LCFI20:
 491              		.cfi_def_cfa_register 7
 492 000a 2368     		ldr	r3, [r4]
 493 000c 03F00303 		and	r3, r3, #3
 494 0010 013B     		subs	r3, r3, #1
 495 0012 022B     		cmp	r3, #2
 496 0014 96BF     		itet	ls
 497 0016 284A     		ldrls	r2, .L44
 498              		.loc 1 551 0
 499 0018 4FF40072 		movhi	r2, #512
 500 001c 32F81320 		ldrhls	r2, [r2, r3, lsl #1]
 501              	.LVL32:
 502              		.loc 1 566 0
 503 0020 A368     		ldr	r3, [r4, #8]
 504 0022 0BB1     		cbz	r3, .L32
 505              		.loc 1 567 0
 506 0024 42F02002 		orr	r2, r2, #32
 507              	.LVL33:
 508              	.L32:
 509              		.loc 1 570 0
 510 0028 E368     		ldr	r3, [r4, #12]
 511 002a 0BB1     		cbz	r3, .L33
 512              		.loc 1 571 0
 513 002c 42F40052 		orr	r2, r2, #8192
ARM GAS  /var/folders/_2/42wyrlld3p52fkcpt1lv6gxh0000gp/T//ccO6u6RC.s 			page 10


 514              	.LVL34:
 515              	.L33:
 516              		.loc 1 575 0
 517 0030 47F67006 		movw	r6, #30832
 518              		.loc 1 574 0
 519 0034 42EA0105 		orr	r5, r2, r1
 520 0038 8B00     		lsls	r3, r1, #2
 521 003a 25F4F045 		bic	r5, r5, #30720
 522 003e 03F18043 		add	r3, r3, #1073741824
 523 0042 03F5B843 		add	r3, r3, #23552
 524 0046 25F07005 		bic	r5, r5, #112
 525 004a 1D60     		str	r5, [r3]
 526              		.loc 1 575 0
 527 004c 1D68     		ldr	r5, [r3]
 528 004e 1640     		ands	r6, r6, r2
 529 0050 86EA0502 		eor	r2, r6, r5
 530              	.LVL35:
 531 0054 1A60     		str	r2, [r3]
 532              		.loc 1 578 0
 533 0056 628A     		ldrh	r2, [r4, #18]
 534 0058 3E2A     		cmp	r2, #62
 535 005a 02F1FF33 		add	r3, r2, #-1
 536 005e 08D9     		bls	.L34
 537              		.loc 1 579 0
 538 0060 43F01F03 		orr	r3, r3, #31
 539 0064 0133     		adds	r3, r3, #1
 540 0066 5B11     		asrs	r3, r3, #5
 541 0068 6FEAC363 		mvn	r3, r3, lsl #27
 542 006c 6FEA5343 		mvn	r3, r3, lsr #17
 543 0070 06E0     		b	.L43
 544              	.L34:
 545              		.loc 1 582 0
 546 0072 43F00103 		orr	r3, r3, #1
 547 0076 0133     		adds	r3, r3, #1
 548 0078 0225     		movs	r5, #2
 549 007a 93FBF5F3 		sdiv	r3, r3, r5
 550 007e 9B02     		lsls	r3, r3, #10
 551              	.L43:
 552              		.loc 1 583 0
 553 0080 0E4D     		ldr	r5, .L44+4
 554              		.loc 1 582 0
 555 0082 9BB2     		uxth	r3, r3
 556              	.LVL36:
 557              		.loc 1 583 0
 558 0084 2D6D     		ldr	r5, [r5, #80]
 559 0086 05F10055 		add	r5, r5, #536870912
 560 008a 05F54055 		add	r5, r5, #12288
 561 008e 05EBC101 		add	r1, r5, r1, lsl #3
 562              	.LVL37:
 563 0092 4900     		lsls	r1, r1, #1
 564              	.LVL38:
 565              		.loc 1 584 0
 566 0094 0025     		movs	r5, #0
 567 0096 8D80     		strh	r5, [r1, #4]	@ movhi
 568              		.loc 1 585 0
 569 0098 8B81     		strh	r3, [r1, #12]	@ movhi
 570              	.LVL39:
ARM GAS  /var/folders/_2/42wyrlld3p52fkcpt1lv6gxh0000gp/T//ccO6u6RC.s 			page 11


 571              	.LBB25:
 572              	.LBB26:
 573              		.loc 1 113 0
 574 009a D0F88050 		ldr	r5, [r0, #128]
 575              	.LVL40:
 576              		.loc 1 114 0
 577 009e 238A     		ldrh	r3, [r4, #16]
 578              	.LVL41:
 579 00a0 2B44     		add	r3, r3, r5
 580              	.LVL42:
 581 00a2 C0F88030 		str	r3, [r0, #128]
 582              	.LVL43:
 583              	.LBE26:
 584              	.LBE25:
 585              		.loc 1 586 0
 586 00a6 0D60     		str	r5, [r1]	@ unaligned
 587              	.LVL44:
 588              	.LBB27:
 589              	.LBB28:
 590              		.loc 1 113 0
 591 00a8 D0F88030 		ldr	r3, [r0, #128]
 592              	.LVL45:
 593              		.loc 1 114 0
 594 00ac 1A44     		add	r2, r2, r3
 595              	.LVL46:
 596 00ae C0F88020 		str	r2, [r0, #128]
 597              	.LVL47:
 598              	.LBE28:
 599              	.LBE27:
 600              		.loc 1 587 0
 601 00b2 8B60     		str	r3, [r1, #8]	@ unaligned
 602 00b4 F0BD     		pop	{r4, r5, r6, r7, pc}
 603              	.LVL48:
 604              	.L45:
 605 00b6 00BF     		.align	2
 606              	.L44:
 607 00b8 00000000 		.word	.LANCHOR1
 608 00bc 005C0040 		.word	1073765376
 609              		.cfi_endproc
 610              	.LFE78:
 611              		.size	usb_lld_init_endpoint, .-usb_lld_init_endpoint
 612              		.section	.text.usb_lld_reset,"ax",%progbits
 613              		.align	1
 614              		.global	usb_lld_reset
 615              		.thumb
 616              		.thumb_func
 617              		.type	usb_lld_reset, %function
 618              	usb_lld_reset:
 619              	.LFB76:
 620              		.loc 1 502 0
 621              		.cfi_startproc
 622              		@ args = 0, pretend = 0, frame = 0
 623              		@ frame_needed = 1, uses_anonymous_args = 0
 624              		@ link register save eliminated.
 625              	.LVL49:
 626              		.loc 1 506 0
 627 0000 0C4B     		ldr	r3, .L49
ARM GAS  /var/folders/_2/42wyrlld3p52fkcpt1lv6gxh0000gp/T//ccO6u6RC.s 			page 12


 628              		.loc 1 502 0
 629 0002 90B4     		push	{r4, r7}
 630              	.LCFI21:
 631              		.cfi_def_cfa_offset 8
 632              		.cfi_offset 4, -8
 633              		.cfi_offset 7, -4
 634              		.loc 1 506 0
 635 0004 0021     		movs	r1, #0
 636              		.loc 1 508 0
 637 0006 8024     		movs	r4, #128
 638              		.loc 1 506 0
 639 0008 1965     		str	r1, [r3, #80]
 640              		.loc 1 507 0
 641 000a 5964     		str	r1, [r3, #68]
 642              		.loc 1 508 0
 643 000c DC64     		str	r4, [r3, #76]
 644              	.LVL50:
 645              		.loc 1 513 0
 646 000e 4468     		ldr	r4, [r0, #4]
 647              		.loc 1 502 0
 648 0010 00AF     		add	r7, sp, #0
 649              	.LCFI22:
 650              		.cfi_def_cfa_register 7
 651              		.loc 1 513 0
 652 0012 E468     		ldr	r4, [r4, #12]
 653 0014 8C42     		cmp	r4, r1
 654              		.loc 1 514 0
 655 0016 0CBF     		ite	eq
 656 0018 4FF41C44 		moveq	r4, #39936
 657 001c 4FF41E44 		movne	r4, #40448
 658              	.LVL51:
 659              		.loc 1 515 0
 660 0020 1C64     		str	r4, [r3, #64]
 661              	.LVL52:
 662              	.LBB29:
 663              	.LBB30:
 664              		.loc 1 101 0
 665 0022 4023     		movs	r3, #64
 666 0024 C0F88030 		str	r3, [r0, #128]
 667              	.LBE30:
 668              	.LBE29:
 669              		.loc 1 521 0
 670 0028 034B     		ldr	r3, .L49+4
 671 002a C360     		str	r3, [r0, #12]
 672              		.loc 1 523 0
 673 002c BD46     		mov	sp, r7
 674              	.LCFI23:
 675              		.cfi_def_cfa_register 13
 676              		@ sp needed
 677 002e 90BC     		pop	{r4, r7}
 678              	.LCFI24:
 679              		.cfi_restore 7
 680              		.cfi_restore 4
 681              		.cfi_def_cfa_offset 0
 682              	.LVL53:
 683              		.loc 1 522 0
 684 0030 FFF7FEBF 		b	usb_lld_init_endpoint
ARM GAS  /var/folders/_2/42wyrlld3p52fkcpt1lv6gxh0000gp/T//ccO6u6RC.s 			page 13


 685              	.LVL54:
 686              	.L50:
 687              		.align	2
 688              	.L49:
 689 0034 005C0040 		.word	1073765376
 690 0038 00000000 		.word	.LANCHOR2
 691              		.cfi_endproc
 692              	.LFE76:
 693              		.size	usb_lld_reset, .-usb_lld_reset
 694              		.section	.text.usb_lld_disable_endpoints,"ax",%progbits
 695              		.align	1
 696              		.global	usb_lld_disable_endpoints
 697              		.thumb
 698              		.thumb_func
 699              		.type	usb_lld_disable_endpoints, %function
 700              	usb_lld_disable_endpoints:
 701              	.LFB79:
 702              		.loc 1 597 0
 703              		.cfi_startproc
 704              		@ args = 0, pretend = 0, frame = 0
 705              		@ frame_needed = 1, uses_anonymous_args = 0
 706              	.LVL55:
 707 0000 80B5     		push	{r7, lr}
 708              	.LCFI25:
 709              		.cfi_def_cfa_offset 8
 710              		.cfi_offset 7, -8
 711              		.cfi_offset 14, -4
 712              	.LBB31:
 713              	.LBB32:
 714              		.loc 1 101 0
 715 0002 4023     		movs	r3, #64
 716              	.LBE32:
 717              	.LBE31:
 718              		.loc 1 597 0
 719 0004 00AF     		add	r7, sp, #0
 720              	.LCFI26:
 721              		.cfi_def_cfa_register 7
 722              	.LBB34:
 723              	.LBB33:
 724              		.loc 1 101 0
 725 0006 C0F88030 		str	r3, [r0, #128]
 726              	.LVL56:
 727              	.LBE33:
 728              	.LBE34:
 729              		.loc 1 604 0
 730 000a 0122     		movs	r2, #1
 731              		.loc 1 606 0
 732 000c 0021     		movs	r1, #0
 733              	.LVL57:
 734              	.L52:
 735 000e 9300     		lsls	r3, r2, #2
 736 0010 03F18043 		add	r3, r3, #1073741824
 737 0014 03F5B843 		add	r3, r3, #23552
 738              		.loc 1 605 0 discriminator 3
 739 0018 1868     		ldr	r0, [r3]
 740              		.loc 1 604 0 discriminator 3
 741 001a 0132     		adds	r2, r2, #1
ARM GAS  /var/folders/_2/42wyrlld3p52fkcpt1lv6gxh0000gp/T//ccO6u6RC.s 			page 14


 742              	.LVL58:
 743 001c 082A     		cmp	r2, #8
 744              		.loc 1 605 0 discriminator 3
 745 001e 1860     		str	r0, [r3]
 746              		.loc 1 606 0 discriminator 3
 747 0020 1960     		str	r1, [r3]
 748              		.loc 1 604 0 discriminator 3
 749 0022 F4D1     		bne	.L52
 750              		.loc 1 608 0
 751 0024 80BD     		pop	{r7, pc}
 752              		.cfi_endproc
 753              	.LFE79:
 754              		.size	usb_lld_disable_endpoints, .-usb_lld_disable_endpoints
 755              		.section	.text.usb_lld_get_status_out,"ax",%progbits
 756              		.align	1
 757              		.global	usb_lld_get_status_out
 758              		.thumb
 759              		.thumb_func
 760              		.type	usb_lld_get_status_out, %function
 761              	usb_lld_get_status_out:
 762              	.LFB80:
 763              		.loc 1 622 0
 764              		.cfi_startproc
 765              		@ args = 0, pretend = 0, frame = 0
 766              		@ frame_needed = 1, uses_anonymous_args = 0
 767              	.LVL59:
 768 0000 80B5     		push	{r7, lr}
 769              	.LCFI27:
 770              		.cfi_def_cfa_offset 8
 771              		.cfi_offset 7, -8
 772              		.cfi_offset 14, -4
 773              		.loc 1 625 0
 774 0002 064B     		ldr	r3, .L59
 775              		.loc 1 622 0
 776 0004 00AF     		add	r7, sp, #0
 777              	.LCFI28:
 778              		.cfi_def_cfa_register 7
 779              		.loc 1 625 0
 780 0006 53F82100 		ldr	r0, [r3, r1, lsl #2]
 781              	.LVL60:
 782 000a 10F44050 		ands	r0, r0, #12288
 783 000e 04D0     		beq	.L56
 784 0010 B0F5805F 		cmp	r0, #4096
 785              		.loc 1 631 0
 786 0014 0CBF     		ite	eq
 787 0016 0120     		moveq	r0, #1
 788 0018 0220     		movne	r0, #2
 789              	.L56:
 790              		.loc 1 633 0
 791 001a 80BD     		pop	{r7, pc}
 792              	.L60:
 793              		.align	2
 794              	.L59:
 795 001c 005C0040 		.word	1073765376
 796              		.cfi_endproc
 797              	.LFE80:
 798              		.size	usb_lld_get_status_out, .-usb_lld_get_status_out
ARM GAS  /var/folders/_2/42wyrlld3p52fkcpt1lv6gxh0000gp/T//ccO6u6RC.s 			page 15


 799              		.section	.text.usb_lld_get_status_in,"ax",%progbits
 800              		.align	1
 801              		.global	usb_lld_get_status_in
 802              		.thumb
 803              		.thumb_func
 804              		.type	usb_lld_get_status_in, %function
 805              	usb_lld_get_status_in:
 806              	.LFB81:
 807              		.loc 1 647 0
 808              		.cfi_startproc
 809              		@ args = 0, pretend = 0, frame = 0
 810              		@ frame_needed = 1, uses_anonymous_args = 0
 811              	.LVL61:
 812 0000 80B5     		push	{r7, lr}
 813              	.LCFI29:
 814              		.cfi_def_cfa_offset 8
 815              		.cfi_offset 7, -8
 816              		.cfi_offset 14, -4
 817              		.loc 1 650 0
 818 0002 064B     		ldr	r3, .L66
 819              		.loc 1 647 0
 820 0004 00AF     		add	r7, sp, #0
 821              	.LCFI30:
 822              		.cfi_def_cfa_register 7
 823              		.loc 1 650 0
 824 0006 53F82100 		ldr	r0, [r3, r1, lsl #2]
 825              	.LVL62:
 826 000a 10F03000 		ands	r0, r0, #48
 827 000e 03D0     		beq	.L63
 828 0010 1028     		cmp	r0, #16
 829              		.loc 1 656 0
 830 0012 0CBF     		ite	eq
 831 0014 0120     		moveq	r0, #1
 832 0016 0220     		movne	r0, #2
 833              	.L63:
 834              		.loc 1 658 0
 835 0018 80BD     		pop	{r7, pc}
 836              	.L67:
 837 001a 00BF     		.align	2
 838              	.L66:
 839 001c 005C0040 		.word	1073765376
 840              		.cfi_endproc
 841              	.LFE81:
 842              		.size	usb_lld_get_status_in, .-usb_lld_get_status_in
 843              		.section	.text.usb_lld_read_setup,"ax",%progbits
 844              		.align	1
 845              		.global	usb_lld_read_setup
 846              		.thumb
 847              		.thumb_func
 848              		.type	usb_lld_read_setup, %function
 849              	usb_lld_read_setup:
 850              	.LFB82:
 851              		.loc 1 674 0
 852              		.cfi_startproc
 853              		@ args = 0, pretend = 0, frame = 0
 854              		@ frame_needed = 1, uses_anonymous_args = 0
 855              	.LVL63:
ARM GAS  /var/folders/_2/42wyrlld3p52fkcpt1lv6gxh0000gp/T//ccO6u6RC.s 			page 16


 856              		.loc 1 680 0
 857 0000 0C4B     		ldr	r3, .L71
 858              		.loc 1 674 0
 859 0002 80B5     		push	{r7, lr}
 860              	.LCFI31:
 861              		.cfi_def_cfa_offset 8
 862              		.cfi_offset 7, -8
 863              		.cfi_offset 14, -4
 864              		.loc 1 680 0
 865 0004 1B6D     		ldr	r3, [r3, #80]
 866              		.loc 1 674 0
 867 0006 00AF     		add	r7, sp, #0
 868              	.LCFI32:
 869              		.cfi_def_cfa_register 7
 870              		.loc 1 680 0
 871 0008 03F10053 		add	r3, r3, #536870912
 872 000c 03F54053 		add	r3, r3, #12288
 873 0010 03EBC101 		add	r1, r3, r1, lsl #3
 874              	.LVL64:
 875 0014 4900     		lsls	r1, r1, #1
 876              	.LVL65:
 877              		.loc 1 681 0
 878 0016 8B68     		ldr	r3, [r1, #8]	@ unaligned
 879 0018 03F10053 		add	r3, r3, #536870912
 880 001c 03F54053 		add	r3, r3, #12288
 881 0020 5B00     		lsls	r3, r3, #1
 882              	.LVL66:
 883 0022 03F11001 		add	r1, r3, #16
 884              	.LVL67:
 885              	.L69:
 886              		.loc 1 683 0 discriminator 3
 887 0026 53F8040B 		ldr	r0, [r3], #4
 888              	.LVL68:
 889              		.loc 1 682 0 discriminator 3
 890 002a 8B42     		cmp	r3, r1
 891              		.loc 1 683 0 discriminator 3
 892 002c 22F8020B 		strh	r0, [r2], #2	@ movhi
 893              	.LVL69:
 894              		.loc 1 682 0 discriminator 3
 895 0030 F9D1     		bne	.L69
 896              		.loc 1 686 0
 897 0032 80BD     		pop	{r7, pc}
 898              	.L72:
 899              		.align	2
 900              	.L71:
 901 0034 005C0040 		.word	1073765376
 902              		.cfi_endproc
 903              	.LFE82:
 904              		.size	usb_lld_read_setup, .-usb_lld_read_setup
 905              		.section	.text.usb_lld_prepare_receive,"ax",%progbits
 906              		.align	1
 907              		.global	usb_lld_prepare_receive
 908              		.thumb
 909              		.thumb_func
 910              		.type	usb_lld_prepare_receive, %function
 911              	usb_lld_prepare_receive:
 912              	.LFB83:
ARM GAS  /var/folders/_2/42wyrlld3p52fkcpt1lv6gxh0000gp/T//ccO6u6RC.s 			page 17


 913              		.loc 1 696 0
 914              		.cfi_startproc
 915              		@ args = 0, pretend = 0, frame = 0
 916              		@ frame_needed = 1, uses_anonymous_args = 0
 917              	.LVL70:
 918              		.loc 1 697 0
 919 0000 00EB8101 		add	r1, r0, r1, lsl #2
 920              	.LVL71:
 921 0004 C968     		ldr	r1, [r1, #12]
 922              		.loc 1 696 0
 923 0006 80B5     		push	{r7, lr}
 924              	.LCFI33:
 925              		.cfi_def_cfa_offset 8
 926              		.cfi_offset 7, -8
 927              		.cfi_offset 14, -4
 928              		.loc 1 697 0
 929 0008 8A69     		ldr	r2, [r1, #24]
 930              	.LVL72:
 931              		.loc 1 696 0
 932 000a 00AF     		add	r7, sp, #0
 933              	.LCFI34:
 934              		.cfi_def_cfa_register 7
 935              		.loc 1 700 0
 936 000c 5368     		ldr	r3, [r2, #4]
 937 000e 0BB9     		cbnz	r3, .L74
 938              		.loc 1 701 0
 939 0010 0123     		movs	r3, #1
 940 0012 04E0     		b	.L76
 941              	.L74:
 942              		.loc 1 703 0
 943 0014 498A     		ldrh	r1, [r1, #18]
 944 0016 013B     		subs	r3, r3, #1
 945 0018 0B44     		add	r3, r3, r1
 946 001a B3FBF1F3 		udiv	r3, r3, r1
 947              	.L76:
 948 001e 1382     		strh	r3, [r2, #16]	@ movhi
 949 0020 80BD     		pop	{r7, pc}
 950              		.cfi_endproc
 951              	.LFE83:
 952              		.size	usb_lld_prepare_receive, .-usb_lld_prepare_receive
 953              		.section	.text.usb_lld_prepare_transmit,"ax",%progbits
 954              		.align	1
 955              		.global	usb_lld_prepare_transmit
 956              		.thumb
 957              		.thumb_func
 958              		.type	usb_lld_prepare_transmit, %function
 959              	usb_lld_prepare_transmit:
 960              	.LFB84:
 961              		.loc 1 715 0
 962              		.cfi_startproc
 963              		@ args = 0, pretend = 0, frame = 0
 964              		@ frame_needed = 1, uses_anonymous_args = 0
 965              		@ link register save eliminated.
 966              	.LVL73:
 967              		.loc 1 717 0
 968 0000 00EB8100 		add	r0, r0, r1, lsl #2
 969              	.LVL74:
ARM GAS  /var/folders/_2/42wyrlld3p52fkcpt1lv6gxh0000gp/T//ccO6u6RC.s 			page 18


 970 0004 C368     		ldr	r3, [r0, #12]
 971              		.loc 1 715 0
 972 0006 B0B4     		push	{r4, r5, r7}
 973              	.LCFI35:
 974              		.cfi_def_cfa_offset 12
 975              		.cfi_offset 4, -12
 976              		.cfi_offset 5, -8
 977              		.cfi_offset 7, -4
 978              		.loc 1 717 0
 979 0008 5C69     		ldr	r4, [r3, #20]
 980              	.LVL75:
 981 000a 1748     		ldr	r0, .L82
 982              		.loc 1 721 0
 983 000c 1B8A     		ldrh	r3, [r3, #16]
 984              		.loc 1 720 0
 985 000e 6268     		ldr	r2, [r4, #4]
 986              	.LVL76:
 987              		.loc 1 725 0
 988 0010 006D     		ldr	r0, [r0, #80]
 989 0012 9A42     		cmp	r2, r3
 990 0014 28BF     		it	cs
 991 0016 1A46     		movcs	r2, r3
 992              	.LVL77:
 993              		.loc 1 724 0
 994 0018 2378     		ldrb	r3, [r4]	@ zero_extendqisi2
 995              		.loc 1 725 0
 996 001a 00F10050 		add	r0, r0, #536870912
 997              		.loc 1 715 0
 998 001e 00AF     		add	r7, sp, #0
 999              	.LCFI36:
 1000              		.cfi_def_cfa_register 7
 1001 0020 C900     		lsls	r1, r1, #3
 1002              	.LVL78:
 1003              		.loc 1 725 0
 1004 0022 00F54050 		add	r0, r0, #12288
 1005              		.loc 1 724 0
 1006 0026 33B1     		cbz	r3, .L78
 1007              		.loc 1 725 0
 1008 0028 0844     		add	r0, r0, r1
 1009 002a E168     		ldr	r1, [r4, #12]
 1010 002c 4000     		lsls	r0, r0, #1
 1011              		.loc 1 730 0
 1012 002e BD46     		mov	sp, r7
 1013              	.LCFI37:
 1014              		.cfi_remember_state
 1015              		.cfi_def_cfa_register 13
 1016              		@ sp needed
 1017 0030 B0BC     		pop	{r4, r5, r7}
 1018              	.LCFI38:
 1019              		.cfi_restore 7
 1020              		.cfi_restore 5
 1021              		.cfi_restore 4
 1022              		.cfi_def_cfa_offset 0
 1023              	.LVL79:
 1024              		.loc 1 725 0
 1025 0032 FFF7FEBF 		b	usb_packet_write_from_queue
 1026              	.LVL80:
ARM GAS  /var/folders/_2/42wyrlld3p52fkcpt1lv6gxh0000gp/T//ccO6u6RC.s 			page 19


 1027              	.L78:
 1028              	.LCFI39:
 1029              		.cfi_restore_state
 1030              		.loc 1 728 0
 1031 0036 0144     		add	r1, r1, r0
 1032 0038 4900     		lsls	r1, r1, #1
 1033              	.LBB37:
 1034              	.LBB38:
 1035              		.loc 1 199 0
 1036 003a 0868     		ldr	r0, [r1]	@ unaligned
 1037              		.loc 1 201 0
 1038 003c 95B2     		uxth	r5, r2
 1039              		.loc 1 199 0
 1040 003e 00F10050 		add	r0, r0, #536870912
 1041 0042 00F54050 		add	r0, r0, #12288
 1042              		.loc 1 202 0
 1043 0046 0132     		adds	r2, r2, #1
 1044              	.LVL81:
 1045              	.LBE38:
 1046              	.LBE37:
 1047              		.loc 1 728 0
 1048 0048 E468     		ldr	r4, [r4, #12]
 1049              	.LVL82:
 1050              	.LBB40:
 1051              	.LBB39:
 1052              		.loc 1 199 0
 1053 004a 4000     		lsls	r0, r0, #1
 1054              	.LVL83:
 1055              		.loc 1 201 0
 1056 004c 8D80     		strh	r5, [r1, #4]	@ movhi
 1057              		.loc 1 202 0
 1058 004e 5208     		lsrs	r2, r2, #1
 1059              	.LVL84:
 1060              	.L79:
 1061              		.loc 1 203 0
 1062 0050 9342     		cmp	r3, r2
 1063 0052 05D0     		beq	.L81
 1064              	.LVL85:
 1065              		.loc 1 206 0
 1066 0054 34F81310 		ldrh	r1, [r4, r3, lsl #1]
 1067 0058 40F82310 		str	r1, [r0, r3, lsl #2]
 1068              	.LVL86:
 1069 005c 0133     		adds	r3, r3, #1
 1070              	.LVL87:
 1071 005e F7E7     		b	.L79
 1072              	.LVL88:
 1073              	.L81:
 1074              	.LBE39:
 1075              	.LBE40:
 1076              		.loc 1 730 0
 1077 0060 BD46     		mov	sp, r7
 1078              	.LCFI40:
 1079              		.cfi_def_cfa_register 13
 1080              		@ sp needed
 1081 0062 B0BC     		pop	{r4, r5, r7}
 1082              	.LCFI41:
 1083              		.cfi_restore 7
ARM GAS  /var/folders/_2/42wyrlld3p52fkcpt1lv6gxh0000gp/T//ccO6u6RC.s 			page 20


 1084              		.cfi_restore 5
 1085              		.cfi_restore 4
 1086              		.cfi_def_cfa_offset 0
 1087 0064 7047     		bx	lr
 1088              	.L83:
 1089 0066 00BF     		.align	2
 1090              	.L82:
 1091 0068 005C0040 		.word	1073765376
 1092              		.cfi_endproc
 1093              	.LFE84:
 1094              		.size	usb_lld_prepare_transmit, .-usb_lld_prepare_transmit
 1095              		.section	.text.usb_lld_start_out,"ax",%progbits
 1096              		.align	1
 1097              		.global	usb_lld_start_out
 1098              		.thumb
 1099              		.thumb_func
 1100              		.type	usb_lld_start_out, %function
 1101              	usb_lld_start_out:
 1102              	.LFB85:
 1103              		.loc 1 740 0
 1104              		.cfi_startproc
 1105              		@ args = 0, pretend = 0, frame = 0
 1106              		@ frame_needed = 1, uses_anonymous_args = 0
 1107              	.LVL89:
 1108 0000 8900     		lsls	r1, r1, #2
 1109              	.LVL90:
 1110 0002 01F18041 		add	r1, r1, #1073741824
 1111 0006 01F5B841 		add	r1, r1, #23552
 1112 000a 80B5     		push	{r7, lr}
 1113              	.LCFI42:
 1114              		.cfi_def_cfa_offset 8
 1115              		.cfi_offset 7, -8
 1116              		.cfi_offset 14, -4
 1117              		.loc 1 744 0
 1118 000c 0B68     		ldr	r3, [r1]
 1119              		.loc 1 740 0
 1120 000e 00AF     		add	r7, sp, #0
 1121              	.LCFI43:
 1122              		.cfi_def_cfa_register 7
 1123              		.loc 1 744 0
 1124 0010 23F49043 		bic	r3, r3, #18432
 1125 0014 23F07003 		bic	r3, r3, #112
 1126 0018 83F44053 		eor	r3, r3, #12288
 1127 001c 0B60     		str	r3, [r1]
 1128 001e 80BD     		pop	{r7, pc}
 1129              		.cfi_endproc
 1130              	.LFE85:
 1131              		.size	usb_lld_start_out, .-usb_lld_start_out
 1132              		.section	.text.usb_lld_start_in,"ax",%progbits
 1133              		.align	1
 1134              		.global	usb_lld_start_in
 1135              		.thumb
 1136              		.thumb_func
 1137              		.type	usb_lld_start_in, %function
 1138              	usb_lld_start_in:
 1139              	.LFB86:
 1140              		.loc 1 755 0
ARM GAS  /var/folders/_2/42wyrlld3p52fkcpt1lv6gxh0000gp/T//ccO6u6RC.s 			page 21


 1141              		.cfi_startproc
 1142              		@ args = 0, pretend = 0, frame = 0
 1143              		@ frame_needed = 1, uses_anonymous_args = 0
 1144              	.LVL91:
 1145 0000 8900     		lsls	r1, r1, #2
 1146              	.LVL92:
 1147 0002 01F18041 		add	r1, r1, #1073741824
 1148 0006 01F5B841 		add	r1, r1, #23552
 1149 000a 80B5     		push	{r7, lr}
 1150              	.LCFI44:
 1151              		.cfi_def_cfa_offset 8
 1152              		.cfi_offset 7, -8
 1153              		.cfi_offset 14, -4
 1154              		.loc 1 759 0
 1155 000c 0B68     		ldr	r3, [r1]
 1156              		.loc 1 755 0
 1157 000e 00AF     		add	r7, sp, #0
 1158              	.LCFI45:
 1159              		.cfi_def_cfa_register 7
 1160              		.loc 1 759 0
 1161 0010 23F4F043 		bic	r3, r3, #30720
 1162 0014 23F04003 		bic	r3, r3, #64
 1163 0018 83F03003 		eor	r3, r3, #48
 1164 001c 0B60     		str	r3, [r1]
 1165 001e 80BD     		pop	{r7, pc}
 1166              		.cfi_endproc
 1167              	.LFE86:
 1168              		.size	usb_lld_start_in, .-usb_lld_start_in
 1169              		.section	.text.Vector90,"ax",%progbits
 1170              		.align	1
 1171              		.global	Vector90
 1172              		.thumb
 1173              		.thumb_func
 1174              		.type	Vector90, %function
 1175              	Vector90:
 1176              	.LFB72:
 1177              		.loc 1 291 0
 1178              		.cfi_startproc
 1179              		@ args = 0, pretend = 0, frame = 8
 1180              		@ frame_needed = 1, uses_anonymous_args = 0
 1181              	.LVL93:
 1182 0000 2DE9F04F 		push	{r4, r5, r6, r7, r8, r9, r10, fp, lr}
 1183              	.LCFI46:
 1184              		.cfi_def_cfa_offset 36
 1185              		.cfi_offset 4, -36
 1186              		.cfi_offset 5, -32
 1187              		.cfi_offset 6, -28
 1188              		.cfi_offset 7, -24
 1189              		.cfi_offset 8, -20
 1190              		.cfi_offset 9, -16
 1191              		.cfi_offset 10, -12
 1192              		.cfi_offset 11, -8
 1193              		.cfi_offset 14, -4
 1194 0004 83B0     		sub	sp, sp, #12
 1195              	.LCFI47:
 1196              		.cfi_def_cfa_offset 48
 1197              		.loc 1 297 0
ARM GAS  /var/folders/_2/42wyrlld3p52fkcpt1lv6gxh0000gp/T//ccO6u6RC.s 			page 22


 1198 0006 B64B     		ldr	r3, .L157
 1199              		.loc 1 291 0
 1200 0008 00AF     		add	r7, sp, #0
 1201              	.LCFI48:
 1202              		.cfi_def_cfa_register 7
 1203              		.loc 1 297 0
 1204 000a 5C6C     		ldr	r4, [r3, #68]
 1205              	.LVL94:
 1206 000c 1D46     		mov	r5, r3
 1207              		.loc 1 300 0
 1208 000e 14F4806F 		tst	r4, #1024
 1209 0012 0CD0     		beq	.L87
 1210              		.loc 1 301 0
 1211 0014 B34E     		ldr	r6, .L157+4
 1212 0016 3046     		mov	r0, r6
 1213 0018 FFF7FEFF 		bl	_usb_reset
 1214              	.LVL95:
 1215              		.loc 1 302 0
 1216 001c 7368     		ldr	r3, [r6, #4]
 1217 001e 1B68     		ldr	r3, [r3]
 1218 0020 13B1     		cbz	r3, .L88
 1219              		.loc 1 302 0 is_stmt 0 discriminator 1
 1220 0022 0021     		movs	r1, #0
 1221 0024 3046     		mov	r0, r6
 1222 0026 9847     		blx	r3
 1223              	.LVL96:
 1224              	.L88:
 1225              		.loc 1 303 0 is_stmt 1
 1226 0028 6FF48063 		mvn	r3, #1024
 1227 002c 6B64     		str	r3, [r5, #68]
 1228              	.L87:
 1229              		.loc 1 307 0
 1230 002e 2605     		lsls	r6, r4, #20
 1231 0030 0ED5     		bpl	.L89
 1232              		.loc 1 308 0
 1233 0032 AB4B     		ldr	r3, .L157
 1234              		.loc 1 309 0
 1235 0034 AB48     		ldr	r0, .L157+4
 1236              		.loc 1 308 0
 1237 0036 1A6C     		ldr	r2, [r3, #64]
 1238 0038 1D46     		mov	r5, r3
 1239 003a 42F00802 		orr	r2, r2, #8
 1240 003e 1A64     		str	r2, [r3, #64]
 1241              		.loc 1 309 0
 1242 0040 4268     		ldr	r2, [r0, #4]
 1243 0042 1268     		ldr	r2, [r2]
 1244 0044 0AB1     		cbz	r2, .L90
 1245              		.loc 1 309 0 is_stmt 0 discriminator 1
 1246 0046 0321     		movs	r1, #3
 1247 0048 9047     		blx	r2
 1248              	.LVL97:
 1249              	.L90:
 1250              		.loc 1 313 0 is_stmt 1
 1251 004a 6FF40063 		mvn	r3, #2048
 1252 004e 6B64     		str	r3, [r5, #68]
 1253              	.L89:
 1254              		.loc 1 317 0
ARM GAS  /var/folders/_2/42wyrlld3p52fkcpt1lv6gxh0000gp/T//ccO6u6RC.s 			page 23


 1255 0050 E504     		lsls	r5, r4, #19
 1256 0052 11D5     		bpl	.L91
 1257              	.LBB58:
 1258              		.loc 1 318 0
 1259 0054 A24B     		ldr	r3, .L157
 1260 0056 9A6C     		ldr	r2, [r3, #72]
 1261              	.LVL98:
 1262              		.loc 1 319 0
 1263 0058 1004     		lsls	r0, r2, #16
 1264 005a 09D4     		bmi	.L93
 1265              		.loc 1 320 0
 1266 005c 1A6C     		ldr	r2, [r3, #64]
 1267              	.LVL99:
 1268              		.loc 1 321 0
 1269 005e A148     		ldr	r0, .L157+4
 1270              		.loc 1 320 0
 1271 0060 22F00802 		bic	r2, r2, #8
 1272 0064 1A64     		str	r2, [r3, #64]
 1273              		.loc 1 321 0
 1274 0066 4368     		ldr	r3, [r0, #4]
 1275 0068 1B68     		ldr	r3, [r3]
 1276 006a 0BB1     		cbz	r3, .L93
 1277              		.loc 1 321 0 is_stmt 0 discriminator 1
 1278 006c 0421     		movs	r1, #4
 1279 006e 9847     		blx	r3
 1280              	.LVL100:
 1281              	.L93:
 1282              		.loc 1 330 0 is_stmt 1
 1283 0070 9B4B     		ldr	r3, .L157
 1284 0072 6FF48052 		mvn	r2, #4096
 1285 0076 5A64     		str	r2, [r3, #68]
 1286              	.L91:
 1287              	.LBE58:
 1288              		.loc 1 334 0
 1289 0078 A105     		lsls	r1, r4, #22
 1290 007a 08D5     		bpl	.L95
 1291              		.loc 1 335 0
 1292 007c 9948     		ldr	r0, .L157+4
 1293 007e 4368     		ldr	r3, [r0, #4]
 1294 0080 DB68     		ldr	r3, [r3, #12]
 1295 0082 03B1     		cbz	r3, .L96
 1296              		.loc 1 335 0 is_stmt 0 discriminator 1
 1297 0084 9847     		blx	r3
 1298              	.LVL101:
 1299              	.L96:
 1300              		.loc 1 336 0 is_stmt 1
 1301 0086 964B     		ldr	r3, .L157
 1302 0088 6FF40072 		mvn	r2, #512
 1303 008c 5A64     		str	r2, [r3, #68]
 1304              	.L95:
 1305 008e DFF85492 		ldr	r9, .L157+4
 1306              	.LBB59:
 1307              	.LBB60:
 1308              		.loc 1 351 0
 1309 0092 DFF84C82 		ldr	r8, .L157
 1310              	.L97:
 1311              	.LBE60:
ARM GAS  /var/folders/_2/42wyrlld3p52fkcpt1lv6gxh0000gp/T//ccO6u6RC.s 			page 24


 1312              	.LBE59:
 1313              		.loc 1 340 0
 1314 0096 2304     		lsls	r3, r4, #16
 1315 0098 40F15581 		bpl	.L153
 1316              	.LBB82:
 1317              		.loc 1 343 0
 1318 009c 04F00F04 		and	r4, r4, #15
 1319              	.LVL102:
 1320 00a0 A500     		lsls	r5, r4, #2
 1321 00a2 05F18045 		add	r5, r5, #1073741824
 1322 00a6 05F5B845 		add	r5, r5, #23552
 1323 00aa D5F800B0 		ldr	fp, [r5]
 1324              	.LVL103:
 1325              		.loc 1 344 0
 1326 00ae 8D4B     		ldr	r3, .L157+4
 1327 00b0 04F1020A 		add	r10, r4, #2
 1328 00b4 03EB8A03 		add	r3, r3, r10, lsl #2
 1329              		.loc 1 346 0
 1330 00b8 1BF0800F 		tst	fp, #128
 1331              		.loc 1 344 0
 1332 00bc 5E68     		ldr	r6, [r3, #4]
 1333              	.LVL104:
 1334              		.loc 1 346 0
 1335 00be 6BD0     		beq	.L98
 1336              	.LBB67:
 1337              		.loc 1 349 0
 1338 00c0 2B68     		ldr	r3, [r5]
 1339              		.loc 1 351 0
 1340 00c2 E100     		lsls	r1, r4, #3
 1341              		.loc 1 349 0
 1342 00c4 23F4F143 		bic	r3, r3, #30848
 1343 00c8 23F07003 		bic	r3, r3, #112
 1344 00cc 2B60     		str	r3, [r5]
 1345              		.loc 1 351 0
 1346 00ce D8F85030 		ldr	r3, [r8, #80]
 1347              		.loc 1 352 0
 1348 00d2 D6F814E0 		ldr	lr, [r6, #20]
 1349              		.loc 1 351 0
 1350 00d6 03F10053 		add	r3, r3, #536870912
 1351 00da 03F54053 		add	r3, r3, #12288
 1352 00de 0B44     		add	r3, r3, r1
 1353 00e0 5B00     		lsls	r3, r3, #1
 1354 00e2 9888     		ldrh	r0, [r3, #4]
 1355              		.loc 1 352 0
 1356 00e4 DEF80820 		ldr	r2, [lr, #8]
 1357              		.loc 1 351 0
 1358 00e8 1FFA80FC 		uxth	ip, r0
 1359              	.LVL105:
 1360              		.loc 1 353 0
 1361 00ec DEF80430 		ldr	r3, [lr, #4]
 1362              		.loc 1 352 0
 1363 00f0 6244     		add	r2, r2, ip
 1364              	.LVL106:
 1365 00f2 CEF80820 		str	r2, [lr, #8]
 1366              		.loc 1 354 0
 1367 00f6 9A1A     		subs	r2, r3, r2
 1368              	.LVL107:
ARM GAS  /var/folders/_2/42wyrlld3p52fkcpt1lv6gxh0000gp/T//ccO6u6RC.s 			page 25


 1369 00f8 41D0     		beq	.L99
 1370              		.loc 1 356 0
 1371 00fa 338A     		ldrh	r3, [r6, #16]
 1372 00fc 9A42     		cmp	r2, r3
 1373 00fe 28BF     		it	cs
 1374 0100 1A46     		movcs	r2, r3
 1375              	.LVL108:
 1376              		.loc 1 359 0
 1377 0102 9EF80030 		ldrb	r3, [lr]	@ zero_extendqisi2
 1378 0106 63B1     		cbz	r3, .L100
 1379              		.loc 1 360 0
 1380 0108 D8F85000 		ldr	r0, [r8, #80]
 1381 010c 00F10050 		add	r0, r0, #536870912
 1382 0110 00F54050 		add	r0, r0, #12288
 1383 0114 0844     		add	r0, r0, r1
 1384 0116 4000     		lsls	r0, r0, #1
 1385 0118 DEF80C10 		ldr	r1, [lr, #12]
 1386 011c FFF7FEFF 		bl	usb_packet_write_from_queue
 1387              	.LVL109:
 1388 0120 22E0     		b	.L101
 1389              	.LVL110:
 1390              	.L100:
 1391              		.loc 1 364 0
 1392 0122 DEF80C00 		ldr	r0, [lr, #12]
 1393 0126 6044     		add	r0, r0, ip
 1394 0128 CEF80C00 		str	r0, [lr, #12]
 1395              		.loc 1 365 0
 1396 012c D8F850E0 		ldr	lr, [r8, #80]
 1397              	.LBB61:
 1398              	.LBB62:
 1399              		.loc 1 201 0
 1400 0130 1FFA82FC 		uxth	ip, r2
 1401              	.LVL111:
 1402              	.LBE62:
 1403              	.LBE61:
 1404              		.loc 1 365 0
 1405 0134 0EF1005E 		add	lr, lr, #536870912
 1406 0138 0EF5405E 		add	lr, lr, #12288
 1407 013c 7144     		add	r1, r1, lr
 1408 013e 4900     		lsls	r1, r1, #1
 1409              	.LVL112:
 1410              	.LBB64:
 1411              	.LBB63:
 1412              		.loc 1 199 0
 1413 0140 D1F800E0 		ldr	lr, [r1]	@ unaligned
 1414              		.loc 1 202 0
 1415 0144 0132     		adds	r2, r2, #1
 1416              	.LVL113:
 1417              		.loc 1 199 0
 1418 0146 0EF1005E 		add	lr, lr, #536870912
 1419 014a 0EF5405E 		add	lr, lr, #12288
 1420 014e 4FEA4E0E 		lsl	lr, lr, #1
 1421              	.LVL114:
 1422              		.loc 1 201 0
 1423 0152 A1F804C0 		strh	ip, [r1, #4]	@ movhi
 1424              		.loc 1 202 0
 1425 0156 5208     		lsrs	r2, r2, #1
ARM GAS  /var/folders/_2/42wyrlld3p52fkcpt1lv6gxh0000gp/T//ccO6u6RC.s 			page 26


 1426              	.LVL115:
 1427              	.L102:
 1428              		.loc 1 203 0
 1429 0158 9A42     		cmp	r2, r3
 1430 015a 05D0     		beq	.L101
 1431              	.LVL116:
 1432              		.loc 1 206 0
 1433 015c 30F81310 		ldrh	r1, [r0, r3, lsl #1]
 1434 0160 4EF82310 		str	r1, [lr, r3, lsl #2]
 1435              	.LVL117:
 1436 0164 0133     		adds	r3, r3, #1
 1437              	.LVL118:
 1438 0166 F7E7     		b	.L102
 1439              	.LVL119:
 1440              	.L101:
 1441              	.LBE63:
 1442              	.LBE64:
 1443              	.LBB65:
 1444              		.loc 1 369 0
 1445 0168 2023     		movs	r3, #32
 1446              		.syntax unified
 1447              	@ 369 "chibios/os/hal/platforms/STM32/USBv1/usb_lld.c" 1
 1448 016a 83F31188 		msr     BASEPRI, r3
 1449              	@ 0 "" 2
 1450              		.thumb
 1451              		.syntax unified
 1452              	.LBE65:
 1453              		.loc 1 370 0
 1454 016e 5D48     		ldr	r0, .L157+4
 1455 0170 2146     		mov	r1, r4
 1456 0172 FFF7FEFF 		bl	usb_lld_start_in
 1457              	.LVL120:
 1458              	.LBB66:
 1459              		.loc 1 371 0
 1460 0176 0023     		movs	r3, #0
 1461              		.syntax unified
 1462              	@ 371 "chibios/os/hal/platforms/STM32/USBv1/usb_lld.c" 1
 1463 0178 83F31188 		msr     BASEPRI, r3
 1464              	@ 0 "" 2
 1465              		.thumb
 1466              		.syntax unified
 1467              	.LBE66:
 1468 017c 0CE0     		b	.L98
 1469              	.LVL121:
 1470              	.L99:
 1471              		.loc 1 375 0
 1472 017e 0123     		movs	r3, #1
 1473 0180 03FA04F2 		lsl	r2, r3, r4
 1474              	.LVL122:
 1475 0184 574B     		ldr	r3, .L157+4
 1476 0186 2146     		mov	r1, r4
 1477 0188 1B89     		ldrh	r3, [r3, #8]
 1478 018a 23EA0203 		bic	r3, r3, r2
 1479 018e 554A     		ldr	r2, .L157+4
 1480 0190 1381     		strh	r3, [r2, #8]	@ movhi
 1481 0192 1046     		mov	r0, r2
 1482 0194 B368     		ldr	r3, [r6, #8]
ARM GAS  /var/folders/_2/42wyrlld3p52fkcpt1lv6gxh0000gp/T//ccO6u6RC.s 			page 27


 1483 0196 9847     		blx	r3
 1484              	.LVL123:
 1485              	.L98:
 1486              	.LBE67:
 1487              		.loc 1 378 0
 1488 0198 1BF4004F 		tst	fp, #32768
 1489 019c 00F0D080 		beq	.L104
 1490              		.loc 1 379 0
 1491 01a0 2B68     		ldr	r3, [r5]
 1492              		.loc 1 381 0
 1493 01a2 1BF4006F 		tst	fp, #2048
 1494              		.loc 1 379 0
 1495 01a6 23F47843 		bic	r3, r3, #63488
 1496 01aa 23F07003 		bic	r3, r3, #112
 1497 01ae 2B60     		str	r3, [r5]
 1498              		.loc 1 381 0
 1499 01b0 05D0     		beq	.L105
 1500              		.loc 1 384 0
 1501 01b2 09EB8A0A 		add	r10, r9, r10, lsl #2
 1502 01b6 DAF80430 		ldr	r3, [r10, #4]
 1503 01ba 5B68     		ldr	r3, [r3, #4]
 1504 01bc B4E0     		b	.L152
 1505              	.L105:
 1506              	.LBB68:
 1507              		.loc 1 387 0
 1508 01be D8F85030 		ldr	r3, [r8, #80]
 1509 01c2 03F10053 		add	r3, r3, #536870912
 1510 01c6 03F54053 		add	r3, r3, #12288
 1511 01ca 03EBC403 		add	r3, r3, r4, lsl #3
 1512 01ce 5B00     		lsls	r3, r3, #1
 1513              	.LVL124:
 1514              		.loc 1 388 0
 1515 01d0 9A89     		ldrh	r2, [r3, #12]
 1516 01d2 92B2     		uxth	r2, r2
 1517 01d4 7A60     		str	r2, [r7, #4]
 1518 01d6 C2F3090B 		ubfx	fp, r2, #0, #10
 1519              	.LVL125:
 1520              		.loc 1 391 0
 1521 01da B269     		ldr	r2, [r6, #24]
 1522 01dc 1178     		ldrb	r1, [r2]	@ zero_extendqisi2
 1523 01de 0029     		cmp	r1, #0
 1524 01e0 6AD0     		beq	.L106
 1525              	.LBB69:
 1526              	.LBB70:
 1527              		.loc 1 156 0
 1528 01e2 9868     		ldr	r0, [r3, #8]	@ unaligned
 1529 01e4 4FEA5B0C 		lsr	ip, fp, #1
 1530 01e8 00F10050 		add	r0, r0, #536870912
 1531 01ec 00F54050 		add	r0, r0, #12288
 1532 01f0 4000     		lsls	r0, r0, #1
 1533 01f2 0146     		mov	r1, r0
 1534 01f4 4FEA8C0C 		lsl	ip, ip, #2
 1535 01f8 00EB0C03 		add	r3, r0, ip
 1536              	.LVL126:
 1537              	.LBE70:
 1538              	.LBE69:
 1539              		.loc 1 392 0
ARM GAS  /var/folders/_2/42wyrlld3p52fkcpt1lv6gxh0000gp/T//ccO6u6RC.s 			page 28


 1540 01fc D2F80CA0 		ldr	r10, [r2, #12]
 1541              	.LVL127:
 1542 0200 3B60     		str	r3, [r7]
 1543              	.LVL128:
 1544              	.L107:
 1545              	.LBB77:
 1546              	.LBB76:
 1547              		.loc 1 159 0
 1548 0202 3B68     		ldr	r3, [r7]
 1549 0204 9942     		cmp	r1, r3
 1550 0206 26D0     		beq	.L154
 1551              	.LBB71:
 1552              		.loc 1 163 0
 1553 0208 DAF81430 		ldr	r3, [r10, #20]
 1554              		.loc 1 162 0
 1555 020c 51F804EB 		ldr	lr, [r1], #4
 1556              	.LVL129:
 1557              		.loc 1 163 0
 1558 0210 5A1C     		adds	r2, r3, #1
 1559 0212 CAF81420 		str	r2, [r10, #20]
 1560 0216 83F800E0 		strb	lr, [r3]
 1561              		.loc 1 164 0
 1562 021a DAF81420 		ldr	r2, [r10, #20]
 1563 021e DAF81030 		ldr	r3, [r10, #16]
 1564              		.loc 1 166 0
 1565 0222 4FEA1E2E 		lsr	lr, lr, #8
 1566              	.LVL130:
 1567              		.loc 1 164 0
 1568 0226 9A42     		cmp	r2, r3
 1569              		.loc 1 165 0
 1570 0228 24BF     		itt	cs
 1571 022a DAF80C30 		ldrcs	r3, [r10, #12]
 1572 022e CAF81430 		strcs	r3, [r10, #20]
 1573              		.loc 1 166 0
 1574 0232 DAF81430 		ldr	r3, [r10, #20]
 1575 0236 5A1C     		adds	r2, r3, #1
 1576 0238 CAF81420 		str	r2, [r10, #20]
 1577 023c 83F800E0 		strb	lr, [r3]
 1578              		.loc 1 167 0
 1579 0240 DAF81030 		ldr	r3, [r10, #16]
 1580 0244 DAF81420 		ldr	r2, [r10, #20]
 1581 0248 9A42     		cmp	r2, r3
 1582              		.loc 1 168 0
 1583 024a 24BF     		itt	cs
 1584 024c DAF80C30 		ldrcs	r3, [r10, #12]
 1585 0250 CAF81430 		strcs	r3, [r10, #20]
 1586 0254 D5E7     		b	.L107
 1587              	.LVL131:
 1588              	.L154:
 1589              	.LBE71:
 1590              		.loc 1 172 0
 1591 0256 7B68     		ldr	r3, [r7, #4]
 1592 0258 6044     		add	r0, r0, ip
 1593 025a DA07     		lsls	r2, r3, #31
 1594 025c 10D5     		bpl	.L112
 1595              		.loc 1 173 0
 1596 025e DAF81430 		ldr	r3, [r10, #20]
ARM GAS  /var/folders/_2/42wyrlld3p52fkcpt1lv6gxh0000gp/T//ccO6u6RC.s 			page 29


 1597 0262 5A1C     		adds	r2, r3, #1
 1598 0264 CAF81420 		str	r2, [r10, #20]
 1599 0268 0268     		ldr	r2, [r0]	@ unaligned
 1600 026a 1A70     		strb	r2, [r3]
 1601              		.loc 1 174 0
 1602 026c DAF81030 		ldr	r3, [r10, #16]
 1603 0270 DAF81420 		ldr	r2, [r10, #20]
 1604 0274 9A42     		cmp	r2, r3
 1605              		.loc 1 175 0
 1606 0276 24BF     		itt	cs
 1607 0278 DAF80C30 		ldrcs	r3, [r10, #12]
 1608 027c CAF81430 		strcs	r3, [r10, #20]
 1609              	.L112:
 1610              	.LBB72:
 1611              		.loc 1 179 0
 1612 0280 2023     		movs	r3, #32
 1613              		.syntax unified
 1614              	@ 179 "chibios/os/hal/platforms/STM32/USBv1/usb_lld.c" 1
 1615 0282 83F31188 		msr     BASEPRI, r3
 1616              	@ 0 "" 2
 1617              		.thumb
 1618              		.syntax unified
 1619              	.LBE72:
 1620              		.loc 1 180 0
 1621 0286 DAF80830 		ldr	r3, [r10, #8]
 1622 028a 5B44     		add	r3, r3, fp
 1623 028c CAF80830 		str	r3, [r10, #8]
 1624              		.loc 1 182 0
 1625 0290 0023     		movs	r3, #0
 1626              	.LVL132:
 1627              	.L114:
 1628              		.loc 1 181 0
 1629 0292 DAF80000 		ldr	r0, [r10]
 1630 0296 5045     		cmp	r0, r10
 1631 0298 0AD0     		beq	.L155
 1632              	.LBB73:
 1633              	.LBB74:
 1634              		.loc 2 62 0
 1635 029a 0268     		ldr	r2, [r0]
 1636 029c 7B60     		str	r3, [r7, #4]
 1637              	.LVL133:
 1638 029e CAF80020 		str	r2, [r10]
 1639 02a2 C2F804A0 		str	r10, [r2, #4]
 1640              	.LVL134:
 1641              	.LBE74:
 1642              	.LBE73:
 1643              		.loc 1 182 0
 1644 02a6 FFF7FEFF 		bl	chSchReadyI
 1645              	.LVL135:
 1646 02aa 7B68     		ldr	r3, [r7, #4]
 1647 02ac 8362     		str	r3, [r0, #40]
 1648 02ae F0E7     		b	.L114
 1649              	.L155:
 1650              	.LBB75:
 1651              		.loc 1 183 0
 1652 02b0 0023     		movs	r3, #0
 1653              		.syntax unified
ARM GAS  /var/folders/_2/42wyrlld3p52fkcpt1lv6gxh0000gp/T//ccO6u6RC.s 			page 30


 1654              	@ 183 "chibios/os/hal/platforms/STM32/USBv1/usb_lld.c" 1
 1655 02b2 83F31188 		msr     BASEPRI, r3
 1656              	@ 0 "" 2
 1657              		.thumb
 1658              		.syntax unified
 1659 02b6 1AE0     		b	.L116
 1660              	.LVL136:
 1661              	.L106:
 1662              	.LBE75:
 1663              	.LBE76:
 1664              	.LBE77:
 1665              	.LBB78:
 1666              	.LBB79:
 1667              		.loc 1 131 0
 1668 02b8 9B68     		ldr	r3, [r3, #8]	@ unaligned
 1669              	.LVL137:
 1670 02ba 0BF10101 		add	r1, fp, #1
 1671 02be 03F10053 		add	r3, r3, #536870912
 1672 02c2 03F54053 		add	r3, r3, #12288
 1673 02c6 5B00     		lsls	r3, r3, #1
 1674 02c8 4908     		lsrs	r1, r1, #1
 1675              	.LBE79:
 1676              	.LBE78:
 1677              		.loc 1 396 0
 1678 02ca D068     		ldr	r0, [r2, #12]
 1679              	.LVL138:
 1680 02cc 03EB8101 		add	r1, r3, r1, lsl #2
 1681              	.LVL139:
 1682              	.L117:
 1683              	.LBB81:
 1684              	.LBB80:
 1685              		.loc 1 134 0
 1686 02d0 8B42     		cmp	r3, r1
 1687 02d2 09D0     		beq	.L156
 1688              		.loc 1 137 0
 1689 02d4 53F804EB 		ldr	lr, [r3], #4
 1690              	.LVL140:
 1691 02d8 20F802EB 		strh	lr, [r0], #2	@ movhi
 1692              	.LVL141:
 1693 02dc F8E7     		b	.L117
 1694              	.L158:
 1695 02de 00BF     		.align	2
 1696              	.L157:
 1697 02e0 005C0040 		.word	1073765376
 1698 02e4 00000000 		.word	.LANCHOR0
 1699              	.LVL142:
 1700              	.L156:
 1701              	.LBE80:
 1702              	.LBE81:
 1703              		.loc 1 399 0
 1704 02e8 D368     		ldr	r3, [r2, #12]
 1705 02ea 5B44     		add	r3, r3, fp
 1706 02ec D360     		str	r3, [r2, #12]
 1707              	.L116:
 1708              		.loc 1 402 0
 1709 02ee B269     		ldr	r2, [r6, #24]
 1710 02f0 9368     		ldr	r3, [r2, #8]
ARM GAS  /var/folders/_2/42wyrlld3p52fkcpt1lv6gxh0000gp/T//ccO6u6RC.s 			page 31


 1711 02f2 5B44     		add	r3, r3, fp
 1712 02f4 9360     		str	r3, [r2, #8]
 1713              		.loc 1 403 0
 1714 02f6 5368     		ldr	r3, [r2, #4]
 1715 02f8 CBEB0303 		rsb	r3, fp, r3
 1716 02fc 5360     		str	r3, [r2, #4]
 1717              		.loc 1 404 0
 1718 02fe 138A     		ldrh	r3, [r2, #16]
 1719 0300 013B     		subs	r3, r3, #1
 1720 0302 9BB2     		uxth	r3, r3
 1721 0304 1382     		strh	r3, [r2, #16]	@ movhi
 1722              		.loc 1 408 0
 1723 0306 728A     		ldrh	r2, [r6, #18]
 1724 0308 9345     		cmp	fp, r2
 1725 030a 00D3     		bcc	.L119
 1726              		.loc 1 408 0 is_stmt 0 discriminator 1
 1727 030c 83B9     		cbnz	r3, .L120
 1728              	.L119:
 1729              		.loc 1 410 0 is_stmt 1
 1730 030e 0123     		movs	r3, #1
 1731 0310 03FA04F2 		lsl	r2, r3, r4
 1732 0314 B9F80A30 		ldrh	r3, [r9, #10]
 1733 0318 23EA0203 		bic	r3, r3, r2
 1734 031c A9F80A30 		strh	r3, [r9, #10]	@ movhi
 1735 0320 09EB8403 		add	r3, r9, r4, lsl #2
 1736 0324 DB68     		ldr	r3, [r3, #12]
 1737 0326 DB68     		ldr	r3, [r3, #12]
 1738              	.LVL143:
 1739              	.L152:
 1740 0328 2146     		mov	r1, r4
 1741 032a 0A48     		ldr	r0, .L159
 1742 032c 9847     		blx	r3
 1743              	.LVL144:
 1744 032e 07E0     		b	.L104
 1745              	.LVL145:
 1746              	.L120:
 1747              		.loc 1 414 0
 1748 0330 2B68     		ldr	r3, [r5]
 1749 0332 23F49043 		bic	r3, r3, #18432
 1750 0336 23F07003 		bic	r3, r3, #112
 1751 033a 83F44053 		eor	r3, r3, #12288
 1752 033e 2B60     		str	r3, [r5]
 1753              	.LVL146:
 1754              	.L104:
 1755              	.LBE68:
 1756              		.loc 1 418 0
 1757 0340 D8F84440 		ldr	r4, [r8, #68]
 1758              	.LVL147:
 1759 0344 A7E6     		b	.L97
 1760              	.LVL148:
 1761              	.L153:
 1762              	.LBE82:
 1763              		.loc 1 422 0
 1764 0346 0C37     		adds	r7, r7, #12
 1765              	.LCFI49:
 1766              		.cfi_def_cfa_offset 36
 1767 0348 BD46     		mov	sp, r7
ARM GAS  /var/folders/_2/42wyrlld3p52fkcpt1lv6gxh0000gp/T//ccO6u6RC.s 			page 32


 1768              	.LCFI50:
 1769              		.cfi_def_cfa_register 13
 1770              		@ sp needed
 1771 034a BDE8F04F 		pop	{r4, r5, r6, r7, r8, r9, r10, fp, lr}
 1772              	.LCFI51:
 1773              		.cfi_restore 14
 1774              		.cfi_restore 11
 1775              		.cfi_restore 10
 1776              		.cfi_restore 9
 1777              		.cfi_restore 8
 1778              		.cfi_restore 7
 1779              		.cfi_restore 6
 1780              		.cfi_restore 5
 1781              		.cfi_restore 4
 1782              		.cfi_def_cfa_offset 0
 1783              	.LVL149:
 1784              		.loc 1 421 0
 1785 034e FFF7FEBF 		b	_port_irq_epilogue
 1786              	.LVL150:
 1787              	.L160:
 1788 0352 00BF     		.align	2
 1789              	.L159:
 1790 0354 00000000 		.word	.LANCHOR0
 1791              		.cfi_endproc
 1792              	.LFE72:
 1793              		.size	Vector90, .-Vector90
 1794              		.section	.text.usb_lld_stall_out,"ax",%progbits
 1795              		.align	1
 1796              		.global	usb_lld_stall_out
 1797              		.thumb
 1798              		.thumb_func
 1799              		.type	usb_lld_stall_out, %function
 1800              	usb_lld_stall_out:
 1801              	.LFB87:
 1802              		.loc 1 770 0
 1803              		.cfi_startproc
 1804              		@ args = 0, pretend = 0, frame = 0
 1805              		@ frame_needed = 1, uses_anonymous_args = 0
 1806              	.LVL151:
 1807 0000 8900     		lsls	r1, r1, #2
 1808              	.LVL152:
 1809 0002 01F18041 		add	r1, r1, #1073741824
 1810 0006 01F5B841 		add	r1, r1, #23552
 1811 000a 80B5     		push	{r7, lr}
 1812              	.LCFI52:
 1813              		.cfi_def_cfa_offset 8
 1814              		.cfi_offset 7, -8
 1815              		.cfi_offset 14, -4
 1816              		.loc 1 774 0
 1817 000c 0B68     		ldr	r3, [r1]
 1818              		.loc 1 770 0
 1819 000e 00AF     		add	r7, sp, #0
 1820              	.LCFI53:
 1821              		.cfi_def_cfa_register 7
 1822              		.loc 1 774 0
 1823 0010 23F49043 		bic	r3, r3, #18432
 1824 0014 23F07003 		bic	r3, r3, #112
ARM GAS  /var/folders/_2/42wyrlld3p52fkcpt1lv6gxh0000gp/T//ccO6u6RC.s 			page 33


 1825 0018 83F48053 		eor	r3, r3, #4096
 1826 001c 0B60     		str	r3, [r1]
 1827 001e 80BD     		pop	{r7, pc}
 1828              		.cfi_endproc
 1829              	.LFE87:
 1830              		.size	usb_lld_stall_out, .-usb_lld_stall_out
 1831              		.section	.text.usb_lld_stall_in,"ax",%progbits
 1832              		.align	1
 1833              		.global	usb_lld_stall_in
 1834              		.thumb
 1835              		.thumb_func
 1836              		.type	usb_lld_stall_in, %function
 1837              	usb_lld_stall_in:
 1838              	.LFB88:
 1839              		.loc 1 785 0
 1840              		.cfi_startproc
 1841              		@ args = 0, pretend = 0, frame = 0
 1842              		@ frame_needed = 1, uses_anonymous_args = 0
 1843              	.LVL153:
 1844 0000 8900     		lsls	r1, r1, #2
 1845              	.LVL154:
 1846 0002 01F18041 		add	r1, r1, #1073741824
 1847 0006 01F5B841 		add	r1, r1, #23552
 1848 000a 80B5     		push	{r7, lr}
 1849              	.LCFI54:
 1850              		.cfi_def_cfa_offset 8
 1851              		.cfi_offset 7, -8
 1852              		.cfi_offset 14, -4
 1853              		.loc 1 789 0
 1854 000c 0B68     		ldr	r3, [r1]
 1855              		.loc 1 785 0
 1856 000e 00AF     		add	r7, sp, #0
 1857              	.LCFI55:
 1858              		.cfi_def_cfa_register 7
 1859              		.loc 1 789 0
 1860 0010 23F4F043 		bic	r3, r3, #30720
 1861 0014 23F04003 		bic	r3, r3, #64
 1862 0018 83F01003 		eor	r3, r3, #16
 1863 001c 0B60     		str	r3, [r1]
 1864 001e 80BD     		pop	{r7, pc}
 1865              		.cfi_endproc
 1866              	.LFE88:
 1867              		.size	usb_lld_stall_in, .-usb_lld_stall_in
 1868              		.section	.text.usb_lld_clear_out,"ax",%progbits
 1869              		.align	1
 1870              		.global	usb_lld_clear_out
 1871              		.thumb
 1872              		.thumb_func
 1873              		.type	usb_lld_clear_out, %function
 1874              	usb_lld_clear_out:
 1875              	.LFB89:
 1876              		.loc 1 800 0
 1877              		.cfi_startproc
 1878              		@ args = 0, pretend = 0, frame = 0
 1879              		@ frame_needed = 1, uses_anonymous_args = 0
 1880              	.LVL155:
 1881 0000 8900     		lsls	r1, r1, #2
ARM GAS  /var/folders/_2/42wyrlld3p52fkcpt1lv6gxh0000gp/T//ccO6u6RC.s 			page 34


 1882              	.LVL156:
 1883 0002 01F18041 		add	r1, r1, #1073741824
 1884 0006 80B5     		push	{r7, lr}
 1885              	.LCFI56:
 1886              		.cfi_def_cfa_offset 8
 1887              		.cfi_offset 7, -8
 1888              		.cfi_offset 14, -4
 1889 0008 01F5B841 		add	r1, r1, #23552
 1890              		.loc 1 806 0
 1891 000c 0B68     		ldr	r3, [r1]
 1892              		.loc 1 800 0
 1893 000e 00AF     		add	r7, sp, #0
 1894              	.LCFI57:
 1895              		.cfi_def_cfa_register 7
 1896              		.loc 1 806 0
 1897 0010 03F44053 		and	r3, r3, #12288
 1898 0014 B3F5405F 		cmp	r3, #12288
 1899 0018 07D0     		beq	.L163
 1900              		.loc 1 807 0
 1901 001a 0B68     		ldr	r3, [r1]
 1902 001c 23F4F043 		bic	r3, r3, #30720
 1903 0020 23F04003 		bic	r3, r3, #64
 1904 0024 83F40053 		eor	r3, r3, #8192
 1905 0028 0B60     		str	r3, [r1]
 1906              	.L163:
 1907 002a 80BD     		pop	{r7, pc}
 1908              		.cfi_endproc
 1909              	.LFE89:
 1910              		.size	usb_lld_clear_out, .-usb_lld_clear_out
 1911              		.section	.text.usb_lld_clear_in,"ax",%progbits
 1912              		.align	1
 1913              		.global	usb_lld_clear_in
 1914              		.thumb
 1915              		.thumb_func
 1916              		.type	usb_lld_clear_in, %function
 1917              	usb_lld_clear_in:
 1918              	.LFB90:
 1919              		.loc 1 818 0
 1920              		.cfi_startproc
 1921              		@ args = 0, pretend = 0, frame = 0
 1922              		@ frame_needed = 1, uses_anonymous_args = 0
 1923              	.LVL157:
 1924 0000 8900     		lsls	r1, r1, #2
 1925              	.LVL158:
 1926 0002 01F18041 		add	r1, r1, #1073741824
 1927 0006 80B5     		push	{r7, lr}
 1928              	.LCFI58:
 1929              		.cfi_def_cfa_offset 8
 1930              		.cfi_offset 7, -8
 1931              		.cfi_offset 14, -4
 1932 0008 01F5B841 		add	r1, r1, #23552
 1933              		.loc 1 824 0
 1934 000c 0B68     		ldr	r3, [r1]
 1935              		.loc 1 818 0
 1936 000e 00AF     		add	r7, sp, #0
 1937              	.LCFI59:
 1938              		.cfi_def_cfa_register 7
ARM GAS  /var/folders/_2/42wyrlld3p52fkcpt1lv6gxh0000gp/T//ccO6u6RC.s 			page 35


 1939              		.loc 1 824 0
 1940 0010 03F03003 		and	r3, r3, #48
 1941 0014 302B     		cmp	r3, #48
 1942 0016 07D0     		beq	.L168
 1943              		.loc 1 825 0
 1944 0018 0B68     		ldr	r3, [r1]
 1945 001a 23F4F043 		bic	r3, r3, #30720
 1946 001e 23F04003 		bic	r3, r3, #64
 1947 0022 83F02003 		eor	r3, r3, #32
 1948 0026 0B60     		str	r3, [r1]
 1949              	.L168:
 1950 0028 80BD     		pop	{r7, pc}
 1951              		.cfi_endproc
 1952              	.LFE90:
 1953              		.size	usb_lld_clear_in, .-usb_lld_clear_in
 1954              		.global	USBD1
 1955              		.section	.bss.USBD1,"aw",%nobits
 1956              		.align	2
 1957              		.set	.LANCHOR0,. + 0
 1958              		.type	USBD1, %object
 1959              		.size	USBD1, 132
 1960              	USBD1:
 1961 0000 00000000 		.space	132
 1961      00000000 
 1961      00000000 
 1961      00000000 
 1961      00000000 
 1962              		.section	.rodata.CSWTCH.20,"a",%progbits
 1963              		.align	1
 1964              		.set	.LANCHOR1,. + 0
 1965              		.type	CSWTCH.20, %object
 1966              		.size	CSWTCH.20, 6
 1967              	CSWTCH.20:
 1968 0000 0004     		.short	1024
 1969 0002 0000     		.short	0
 1970 0004 0006     		.short	1536
 1971              		.section	.rodata.ep0config,"a",%progbits
 1972              		.align	2
 1973              		.set	.LANCHOR2,. + 0
 1974              		.type	ep0config, %object
 1975              		.size	ep0config, 36
 1976              	ep0config:
 1977 0000 00000000 		.word	0
 1978 0004 00000000 		.word	_usb_ep0setup
 1979 0008 00000000 		.word	_usb_ep0in
 1980 000c 00000000 		.word	_usb_ep0out
 1981 0010 4000     		.short	64
 1982 0012 4000     		.short	64
 1983 0014 00000000 		.word	ep0_state
 1984 0018 00000000 		.word	ep0_state
 1985 001c 0100     		.short	1
 1986 001e 0000     		.space	2
 1987 0020 00000000 		.word	ep0setup_buffer
 1988              		.section	.bss.ep0_state,"aw",%nobits
 1989              		.align	2
 1990              		.type	ep0_state, %object
 1991              		.size	ep0_state, 20
ARM GAS  /var/folders/_2/42wyrlld3p52fkcpt1lv6gxh0000gp/T//ccO6u6RC.s 			page 36


 1992              	ep0_state:
 1993 0000 00000000 		.space	20
 1993      00000000 
 1993      00000000 
 1993      00000000 
 1993      00000000 
 1994              		.section	.bss.ep0setup_buffer,"aw",%nobits
 1995              		.type	ep0setup_buffer, %object
 1996              		.size	ep0setup_buffer, 8
 1997              	ep0setup_buffer:
 1998 0000 00000000 		.space	8
 1998      00000000 
 1999              		.text
 2000              	.Letext0:
 2001              		.file 3 "/Users/ARS/Applications/Eclipse.app/Contents/gcc-arm-none-eabi-5_3-2016q1/lib/gcc/arm-non
 2002              		.file 4 "/Users/ARS/Applications/Eclipse.app/Contents/gcc-arm-none-eabi-5_3-2016q1/arm-none-eabi/i
 2003              		.file 5 "/Users/ARS/Applications/Eclipse.app/Contents/gcc-arm-none-eabi-5_3-2016q1/arm-none-eabi/i
 2004              		.file 6 "chibios/os/ports/GCC/ARMCMx/chtypes.h"
 2005              		.file 7 "chibios/os/kernel/include/chlists.h"
 2006              		.file 8 "chibios/os/kernel/include/chthreads.h"
 2007              		.file 9 "chibios/os/ports/GCC/ARMCMx/chcore_v7m.h"
 2008              		.file 10 "chibios/os/kernel/include/chmtx.h"
 2009              		.file 11 "chibios/os/kernel/include/chqueues.h"
 2010              		.file 12 "chibios/os/hal/platforms/STM32L1xx/stm32l1xx.h"
 2011              		.file 13 "chibios/os/hal/include/usb.h"
 2012              		.file 14 "chibios/os/hal/platforms/STM32/USBv1/usb_lld.h"
 2013              		.file 15 "chibios/os/hal/platforms/STM32/USBv1/stm32_usb.h"
 2014              		.file 16 "chibios/os/ports/common/ARMCMx/CMSIS/include/core_cm3.h"
 2015              		.file 17 "chibios/os/kernel/include/chschd.h"
 2016              		.file 18 "chibios/os/ports/common/ARMCMx/nvic.h"