ARM GAS  /var/folders/_2/42wyrlld3p52fkcpt1lv6gxh0000gp/T//ccEq9flu.s 			page 1


   1              		.syntax unified
   2              		.cpu cortex-m3
   3              		.fpu softvfp
   4              		.eabi_attribute 20, 1
   5              		.eabi_attribute 21, 1
   6              		.eabi_attribute 23, 3
   7              		.eabi_attribute 24, 1
   8              		.eabi_attribute 25, 1
   9              		.eabi_attribute 26, 1
  10              		.eabi_attribute 30, 4
  11              		.eabi_attribute 34, 1
  12              		.eabi_attribute 18, 4
  13              		.thumb
  14              		.syntax unified
  15              		.file	"usb_usart.c"
  16              		.text
  17              	.Ltext0:
  18              		.cfi_sections	.debug_frame
  19              		.section	.text.get_descriptor,"ax",%progbits
  20              		.align	1
  21              		.thumb
  22              		.thumb_func
  23              		.type	get_descriptor, %function
  24              	get_descriptor:
  25              	.LFB63:
  26              		.file 1 "src/usb_usart.c"
  27              		.loc 1 177 0
  28              		.cfi_startproc
  29              		@ args = 0, pretend = 0, frame = 0
  30              		@ frame_needed = 1, uses_anonymous_args = 0
  31              	.LVL0:
  32 0000 80B5     		push	{r7, lr}
  33              	.LCFI0:
  34              		.cfi_def_cfa_offset 8
  35              		.cfi_offset 7, -8
  36              		.cfi_offset 14, -4
  37              		.loc 1 181 0
  38 0002 0229     		cmp	r1, #2
  39              		.loc 1 177 0
  40 0004 00AF     		add	r7, sp, #0
  41              	.LCFI1:
  42              		.cfi_def_cfa_register 7
  43              		.loc 1 181 0
  44 0006 06D0     		beq	.L3
  45 0008 0329     		cmp	r1, #3
  46 000a 06D0     		beq	.L4
  47 000c 0129     		cmp	r1, #1
  48              		.loc 1 190 0
  49 000e 0648     		ldr	r0, .L9
  50              	.LVL1:
  51 0010 18BF     		it	ne
  52 0012 0020     		movne	r0, #0
  53 0014 80BD     		pop	{r7, pc}
  54              	.LVL2:
  55              	.L3:
  56              		.loc 1 185 0
  57 0016 0548     		ldr	r0, .L9+4
ARM GAS  /var/folders/_2/42wyrlld3p52fkcpt1lv6gxh0000gp/T//ccEq9flu.s 			page 2


  58              	.LVL3:
  59 0018 80BD     		pop	{r7, pc}
  60              	.LVL4:
  61              	.L4:
  62              		.loc 1 187 0
  63 001a 032A     		cmp	r2, #3
  64              		.loc 1 188 0
  65 001c 9ABF     		itte	ls
  66 001e 044B     		ldrls	r3, .L9+8
  67              	.LVL5:
  68 0020 03EBC200 		addls	r0, r3, r2, lsl #3
  69              	.LVL6:
  70              		.loc 1 190 0
  71 0024 0020     		movhi	r0, #0
  72              		.loc 1 191 0
  73 0026 80BD     		pop	{r7, pc}
  74              	.L10:
  75              		.align	2
  76              	.L9:
  77 0028 00000000 		.word	.LANCHOR0
  78 002c 00000000 		.word	.LANCHOR1
  79 0030 00000000 		.word	.LANCHOR2
  80              		.cfi_endproc
  81              	.LFE63:
  82              		.size	get_descriptor, .-get_descriptor
  83              		.section	.text.usb_event,"ax",%progbits
  84              		.align	1
  85              		.thumb
  86              		.thumb_func
  87              		.type	usb_event, %function
  88              	usb_event:
  89              	.LFB64:
  90              		.loc 1 243 0
  91              		.cfi_startproc
  92              		@ args = 0, pretend = 0, frame = 0
  93              		@ frame_needed = 1, uses_anonymous_args = 0
  94              	.LVL7:
  95 0000 B0B5     		push	{r4, r5, r7, lr}
  96              	.LCFI2:
  97              		.cfi_def_cfa_offset 16
  98              		.cfi_offset 4, -16
  99              		.cfi_offset 5, -12
 100              		.cfi_offset 7, -8
 101              		.cfi_offset 14, -4
 102              		.loc 1 245 0
 103 0002 0229     		cmp	r1, #2
 104              		.loc 1 243 0
 105 0004 00AF     		add	r7, sp, #0
 106              	.LCFI3:
 107              		.cfi_def_cfa_register 7
 108              		.loc 1 243 0
 109 0006 0546     		mov	r5, r0
 110 0008 0C46     		mov	r4, r1
 111              		.loc 1 245 0
 112 000a 11D1     		bne	.L11
 113              	.LVL8:
 114              	.LBB8:
ARM GAS  /var/folders/_2/42wyrlld3p52fkcpt1lv6gxh0000gp/T//ccEq9flu.s 			page 3


 115              	.LBB9:
 116              	.LBB10:
 117              		.loc 1 249 0
 118 000c 2023     		movs	r3, #32
 119              		.syntax unified
 120              	@ 249 "src/usb_usart.c" 1
 121 000e 83F31188 		msr     BASEPRI, r3
 122              	@ 0 "" 2
 123              		.thumb
 124              		.syntax unified
 125              	.LBE10:
 126              		.loc 1 254 0
 127 0012 084A     		ldr	r2, .L14
 128 0014 0121     		movs	r1, #1
 129              	.LVL9:
 130 0016 FFF7FEFF 		bl	usbInitEndpointI
 131              	.LVL10:
 132              		.loc 1 255 0
 133 001a 074A     		ldr	r2, .L14+4
 134 001c 2146     		mov	r1, r4
 135 001e 2846     		mov	r0, r5
 136 0020 FFF7FEFF 		bl	usbInitEndpointI
 137              	.LVL11:
 138              		.loc 1 258 0
 139 0024 0548     		ldr	r0, .L14+8
 140 0026 FFF7FEFF 		bl	sduConfigureHookI
 141              	.LVL12:
 142              	.LBB11:
 143              		.loc 1 260 0
 144 002a 0023     		movs	r3, #0
 145              		.syntax unified
 146              	@ 260 "src/usb_usart.c" 1
 147 002c 83F31188 		msr     BASEPRI, r3
 148              	@ 0 "" 2
 149              	.LVL13:
 150              		.thumb
 151              		.syntax unified
 152              	.L11:
 153 0030 B0BD     		pop	{r4, r5, r7, pc}
 154              	.LVL14:
 155              	.L15:
 156 0032 00BF     		.align	2
 157              	.L14:
 158 0034 00000000 		.word	.LANCHOR3
 159 0038 00000000 		.word	.LANCHOR4
 160 003c 00000000 		.word	.LANCHOR5
 161              	.LBE11:
 162              	.LBE9:
 163              	.LBE8:
 164              		.cfi_endproc
 165              	.LFE64:
 166              		.size	usb_event, .-usb_event
 167              		.section	.text.start_usb_usart,"ax",%progbits
 168              		.align	1
 169              		.global	start_usb_usart
 170              		.thumb
 171              		.thumb_func
ARM GAS  /var/folders/_2/42wyrlld3p52fkcpt1lv6gxh0000gp/T//ccEq9flu.s 			page 4


 172              		.type	start_usb_usart, %function
 173              	start_usb_usart:
 174              	.LFB65:
 175              		.loc 1 305 0
 176              		.cfi_startproc
 177              		@ args = 0, pretend = 0, frame = 0
 178              		@ frame_needed = 1, uses_anonymous_args = 0
 179 0000 B0B5     		push	{r4, r5, r7, lr}
 180              	.LCFI4:
 181              		.cfi_def_cfa_offset 16
 182              		.cfi_offset 4, -16
 183              		.cfi_offset 5, -12
 184              		.cfi_offset 7, -8
 185              		.cfi_offset 14, -4
 186              		.loc 1 306 0
 187 0002 174A     		ldr	r2, .L23
 188              		.loc 1 305 0
 189 0004 00AF     		add	r7, sp, #0
 190              	.LCFI5:
 191              		.cfi_def_cfa_register 7
 192              		.loc 1 306 0
 193 0006 1378     		ldrb	r3, [r2]	@ zero_extendqisi2
 194 0008 1546     		mov	r5, r2
 195 000a 43BB     		cbnz	r3, .L16
 196              		.loc 1 309 0
 197 000c 154C     		ldr	r4, .L23+4
 198              		.loc 1 310 0
 199 000e 4FF4FA70 		mov	r0, #500
 200              		.loc 1 309 0
 201 0012 6360     		str	r3, [r4, #4]
 202              		.loc 1 310 0
 203 0014 FFF7FEFF 		bl	chThdSleep
 204              	.LVL15:
 205              		.loc 1 313 0
 206 0018 1348     		ldr	r0, .L23+8
 207 001a FFF7FEFF 		bl	sduObjectInit
 208              	.LVL16:
 209              		.loc 1 314 0
 210 001e 1349     		ldr	r1, .L23+12
 211 0020 1148     		ldr	r0, .L23+8
 212 0022 FFF7FEFF 		bl	sduStart
 213              	.LVL17:
 214              		.loc 1 315 0
 215 0026 1249     		ldr	r1, .L23+16
 216 0028 1248     		ldr	r0, .L23+20
 217 002a FFF7FEFF 		bl	usbStart
 218              	.LVL18:
 219              		.loc 1 316 0
 220 002e 0123     		movs	r3, #1
 221 0030 6360     		str	r3, [r4, #4]
 222              		.loc 1 318 0
 223 0032 4FF4FA70 		mov	r0, #500
 224 0036 FFF7FEFF 		bl	chThdSleep
 225              	.LVL19:
 226              		.loc 1 320 0
 227 003a 0F4B     		ldr	r3, .L23+24
 228 003c 1A68     		ldr	r2, [r3]
ARM GAS  /var/folders/_2/42wyrlld3p52fkcpt1lv6gxh0000gp/T//ccEq9flu.s 			page 5


 229 003e 1C46     		mov	r4, r3
 230 0040 1AB1     		cbz	r2, .L18
 231              		.loc 1 320 0 is_stmt 0 discriminator 1
 232 0042 92F82030 		ldrb	r3, [r2, #32]	@ zero_extendqisi2
 233 0046 0E2B     		cmp	r3, #14
 234 0048 07D1     		bne	.L19
 235              	.L18:
 236              		.loc 1 322 0 is_stmt 1
 237 004a 4023     		movs	r3, #64
 238 004c 4FF42872 		mov	r2, #672
 239 0050 0A49     		ldr	r1, .L23+28
 240 0052 0B48     		ldr	r0, .L23+32
 241 0054 FFF7FEFF 		bl	shellCreateStatic
 242              	.LVL20:
 243 0058 2060     		str	r0, [r4]
 244              	.L19:
 245              		.loc 1 326 0
 246 005a 0123     		movs	r3, #1
 247 005c 2B70     		strb	r3, [r5]
 248              	.L16:
 249 005e B0BD     		pop	{r4, r5, r7, pc}
 250              	.L24:
 251              		.align	2
 252              	.L23:
 253 0060 00000000 		.word	.LANCHOR6
 254 0064 00000140 		.word	1073807360
 255 0068 00000000 		.word	.LANCHOR5
 256 006c 00000000 		.word	.LANCHOR7
 257 0070 00000000 		.word	.LANCHOR8
 258 0074 00000000 		.word	USBD1
 259 0078 00000000 		.word	.LANCHOR9
 260 007c 00000000 		.word	.LANCHOR10
 261 0080 00000000 		.word	.LANCHOR11
 262              		.cfi_endproc
 263              	.LFE65:
 264              		.size	start_usb_usart, .-start_usb_usart
 265              		.section	.text.stop_usb_usart,"ax",%progbits
 266              		.align	1
 267              		.global	stop_usb_usart
 268              		.thumb
 269              		.thumb_func
 270              		.type	stop_usb_usart, %function
 271              	stop_usb_usart:
 272              	.LFB66:
 273              		.loc 1 331 0
 274              		.cfi_startproc
 275              		@ args = 0, pretend = 0, frame = 0
 276              		@ frame_needed = 1, uses_anonymous_args = 0
 277 0000 98B5     		push	{r3, r4, r7, lr}
 278              	.LCFI6:
 279              		.cfi_def_cfa_offset 16
 280              		.cfi_offset 3, -16
 281              		.cfi_offset 4, -12
 282              		.cfi_offset 7, -8
 283              		.cfi_offset 14, -4
 284              		.loc 1 332 0
 285 0002 074C     		ldr	r4, .L30
ARM GAS  /var/folders/_2/42wyrlld3p52fkcpt1lv6gxh0000gp/T//ccEq9flu.s 			page 6


 286              		.loc 1 331 0
 287 0004 00AF     		add	r7, sp, #0
 288              	.LCFI7:
 289              		.cfi_def_cfa_register 7
 290              		.loc 1 332 0
 291 0006 2378     		ldrb	r3, [r4]	@ zero_extendqisi2
 292 0008 4BB1     		cbz	r3, .L25
 293              		.loc 1 334 0
 294 000a 0648     		ldr	r0, .L30+4
 295 000c FFF7FEFF 		bl	usbStop
 296              	.LVL21:
 297              		.loc 1 335 0
 298 0010 0548     		ldr	r0, .L30+8
 299 0012 FFF7FEFF 		bl	sduStop
 300              	.LVL22:
 301              		.loc 1 336 0
 302 0016 054A     		ldr	r2, .L30+12
 303 0018 0023     		movs	r3, #0
 304 001a 5360     		str	r3, [r2, #4]
 305              		.loc 1 337 0
 306 001c 2370     		strb	r3, [r4]
 307              	.L25:
 308 001e 98BD     		pop	{r3, r4, r7, pc}
 309              	.L31:
 310              		.align	2
 311              	.L30:
 312 0020 00000000 		.word	.LANCHOR6
 313 0024 00000000 		.word	USBD1
 314 0028 00000000 		.word	.LANCHOR5
 315 002c 00000140 		.word	1073807360
 316              		.cfi_endproc
 317              	.LFE66:
 318              		.size	stop_usb_usart, .-stop_usb_usart
 319              		.global	usb_running
 320              		.global	usb_shell
 321              		.global	SDU1
 322              		.section	.rodata.ep1config,"a",%progbits
 323              		.align	2
 324              		.set	.LANCHOR3,. + 0
 325              		.type	ep1config, %object
 326              		.size	ep1config, 36
 327              	ep1config:
 328 0000 02000000 		.word	2
 329 0004 00000000 		.word	0
 330 0008 00000000 		.word	sduDataTransmitted
 331 000c 00000000 		.word	sduDataReceived
 332 0010 4000     		.short	64
 333 0012 4000     		.short	64
 334 0014 00000000 		.word	ep1instate
 335 0018 00000000 		.word	ep1outstate
 336 001c 0100     		.short	1
 337 001e 0000     		.space	2
 338 0020 00000000 		.word	0
 339              		.section	.bss.ep2instate,"aw",%nobits
 340              		.align	2
 341              		.type	ep2instate, %object
 342              		.size	ep2instate, 16
ARM GAS  /var/folders/_2/42wyrlld3p52fkcpt1lv6gxh0000gp/T//ccEq9flu.s 			page 7


 343              	ep2instate:
 344 0000 00000000 		.space	16
 344      00000000 
 344      00000000 
 344      00000000 
 345              		.section	.bss.SDU1,"aw",%nobits
 346              		.align	2
 347              		.set	.LANCHOR5,. + 0
 348              		.type	SDU1, %object
 349              		.size	SDU1, 600
 350              	SDU1:
 351 0000 00000000 		.space	600
 351      00000000 
 351      00000000 
 351      00000000 
 351      00000000 
 352              		.section	.bss.ep1instate,"aw",%nobits
 353              		.align	2
 354              		.type	ep1instate, %object
 355              		.size	ep1instate, 16
 356              	ep1instate:
 357 0000 00000000 		.space	16
 357      00000000 
 357      00000000 
 357      00000000 
 358              		.section	.rodata.vcom_string2,"a",%progbits
 359              		.type	vcom_string2, %object
 360              		.size	vcom_string2, 24
 361              	vcom_string2:
 362 0000 18       		.byte	24
 363 0001 03       		.byte	3
 364 0002 55       		.byte	85
 365 0003 00       		.byte	0
 366 0004 75       		.byte	117
 367 0005 00       		.byte	0
 368 0006 6E       		.byte	110
 369 0007 00       		.byte	0
 370 0008 69       		.byte	105
 371 0009 00       		.byte	0
 372 000a 6D       		.byte	109
 373 000b 00       		.byte	0
 374 000c 69       		.byte	105
 375 000d 00       		.byte	0
 376 000e 74       		.byte	116
 377 000f 00       		.byte	0
 378 0010 74       		.byte	116
 379 0011 00       		.byte	0
 380 0012 61       		.byte	97
 381 0013 00       		.byte	0
 382 0014 72       		.byte	114
 383 0015 00       		.byte	0
 384 0016 69       		.byte	105
 385 0017 00       		.byte	0
 386              		.section	.rodata.vcom_configuration_descriptor,"a",%progbits
 387              		.align	2
 388              		.set	.LANCHOR1,. + 0
 389              		.type	vcom_configuration_descriptor, %object
ARM GAS  /var/folders/_2/42wyrlld3p52fkcpt1lv6gxh0000gp/T//ccEq9flu.s 			page 8


 390              		.size	vcom_configuration_descriptor, 8
 391              	vcom_configuration_descriptor:
 392 0000 43000000 		.word	67
 393 0004 00000000 		.word	vcom_configuration_descriptor_data
 394              		.section	.rodata.ep2config,"a",%progbits
 395              		.align	2
 396              		.set	.LANCHOR4,. + 0
 397              		.type	ep2config, %object
 398              		.size	ep2config, 36
 399              	ep2config:
 400 0000 03000000 		.word	3
 401 0004 00000000 		.word	0
 402 0008 00000000 		.word	sduInterruptTransmitted
 403 000c 00000000 		.word	0
 404 0010 1000     		.short	16
 405 0012 0000     		.short	0
 406 0014 00000000 		.word	ep2instate
 407 0018 00000000 		.word	0
 408 001c 0100     		.short	1
 409 001e 0000     		.space	2
 410 0020 00000000 		.word	0
 411              		.section	.rodata.vcom_configuration_descriptor_data,"a",%progbits
 412              		.type	vcom_configuration_descriptor_data, %object
 413              		.size	vcom_configuration_descriptor_data, 67
 414              	vcom_configuration_descriptor_data:
 415 0000 09       		.byte	9
 416 0001 02       		.byte	2
 417 0002 43       		.byte	67
 418 0003 00       		.byte	0
 419 0004 02       		.byte	2
 420 0005 01       		.byte	1
 421 0006 00       		.byte	0
 422 0007 C0       		.byte	-64
 423 0008 32       		.byte	50
 424 0009 09       		.byte	9
 425 000a 04       		.byte	4
 426 000b 00       		.byte	0
 427 000c 00       		.byte	0
 428 000d 01       		.byte	1
 429 000e 02       		.byte	2
 430 000f 02       		.byte	2
 431 0010 01       		.byte	1
 432 0011 00       		.byte	0
 433 0012 05       		.byte	5
 434 0013 24       		.byte	36
 435 0014 00       		.byte	0
 436 0015 10       		.byte	16
 437 0016 01       		.byte	1
 438 0017 05       		.byte	5
 439 0018 24       		.byte	36
 440 0019 01       		.byte	1
 441 001a 00       		.byte	0
 442 001b 01       		.byte	1
 443 001c 04       		.byte	4
 444 001d 24       		.byte	36
 445 001e 02       		.byte	2
 446 001f 02       		.byte	2
ARM GAS  /var/folders/_2/42wyrlld3p52fkcpt1lv6gxh0000gp/T//ccEq9flu.s 			page 9


 447 0020 05       		.byte	5
 448 0021 24       		.byte	36
 449 0022 06       		.byte	6
 450 0023 00       		.byte	0
 451 0024 01       		.byte	1
 452 0025 07       		.byte	7
 453 0026 05       		.byte	5
 454 0027 82       		.byte	-126
 455 0028 03       		.byte	3
 456 0029 08       		.byte	8
 457 002a 00       		.byte	0
 458 002b FF       		.byte	-1
 459 002c 09       		.byte	9
 460 002d 04       		.byte	4
 461 002e 01       		.byte	1
 462 002f 00       		.byte	0
 463 0030 02       		.byte	2
 464 0031 0A       		.byte	10
 465 0032 00       		.byte	0
 466 0033 00       		.byte	0
 467 0034 00       		.byte	0
 468 0035 07       		.byte	7
 469 0036 05       		.byte	5
 470 0037 01       		.byte	1
 471 0038 02       		.byte	2
 472 0039 40       		.byte	64
 473 003a 00       		.byte	0
 474 003b 00       		.byte	0
 475 003c 07       		.byte	7
 476 003d 05       		.byte	5
 477 003e 81       		.byte	-127
 478 003f 02       		.byte	2
 479 0040 40       		.byte	64
 480 0041 00       		.byte	0
 481 0042 00       		.byte	0
 482              		.section	.rodata.usbcfg,"a",%progbits
 483              		.align	2
 484              		.set	.LANCHOR8,. + 0
 485              		.type	usbcfg, %object
 486              		.size	usbcfg, 16
 487              	usbcfg:
 488 0000 00000000 		.word	usb_event
 489 0004 00000000 		.word	get_descriptor
 490 0008 00000000 		.word	sduRequestsHook
 491 000c 00000000 		.word	0
 492              		.section	.rodata.usb_shellconfig,"a",%progbits
 493              		.align	2
 494              		.set	.LANCHOR11,. + 0
 495              		.type	usb_shellconfig, %object
 496              		.size	usb_shellconfig, 8
 497              	usb_shellconfig:
 498 0000 00000000 		.word	SDU1
 499 0004 00000000 		.word	shell_commands
 500              		.section	.rodata.vcom_string1,"a",%progbits
 501              		.type	vcom_string1, %object
 502              		.size	vcom_string1, 32
 503              	vcom_string1:
ARM GAS  /var/folders/_2/42wyrlld3p52fkcpt1lv6gxh0000gp/T//ccEq9flu.s 			page 10


 504 0000 20       		.byte	32
 505 0001 03       		.byte	3
 506 0002 50       		.byte	80
 507 0003 00       		.byte	0
 508 0004 65       		.byte	101
 509 0005 00       		.byte	0
 510 0006 74       		.byte	116
 511 0007 00       		.byte	0
 512 0008 74       		.byte	116
 513 0009 00       		.byte	0
 514 000a 65       		.byte	101
 515 000b 00       		.byte	0
 516 000c 72       		.byte	114
 517 000d 00       		.byte	0
 518 000e 69       		.byte	105
 519 000f 00       		.byte	0
 520 0010 20       		.byte	32
 521 0011 00       		.byte	0
 522 0012 41       		.byte	65
 523 0013 00       		.byte	0
 524 0014 69       		.byte	105
 525 0015 00       		.byte	0
 526 0016 6D       		.byte	109
 527 0017 00       		.byte	0
 528 0018 6F       		.byte	111
 529 0019 00       		.byte	0
 530 001a 6E       		.byte	110
 531 001b 00       		.byte	0
 532 001c 65       		.byte	101
 533 001d 00       		.byte	0
 534 001e 6E       		.byte	110
 535 001f 00       		.byte	0
 536              		.section	.bss.usb_running,"aw",%nobits
 537              		.set	.LANCHOR6,. + 0
 538              		.type	usb_running, %object
 539              		.size	usb_running, 1
 540              	usb_running:
 541 0000 00       		.space	1
 542              		.section	.bss.ep1outstate,"aw",%nobits
 543              		.align	2
 544              		.type	ep1outstate, %object
 545              		.size	ep1outstate, 20
 546              	ep1outstate:
 547 0000 00000000 		.space	20
 547      00000000 
 547      00000000 
 547      00000000 
 547      00000000 
 548              		.section	.rodata.vcom_string0,"a",%progbits
 549              		.type	vcom_string0, %object
 550              		.size	vcom_string0, 4
 551              	vcom_string0:
 552 0000 04       		.byte	4
 553 0001 03       		.byte	3
 554 0002 09       		.byte	9
 555 0003 04       		.byte	4
 556              		.section	.rodata.vcom_string3,"a",%progbits
ARM GAS  /var/folders/_2/42wyrlld3p52fkcpt1lv6gxh0000gp/T//ccEq9flu.s 			page 11


 557              		.type	vcom_string3, %object
 558              		.size	vcom_string3, 8
 559              	vcom_string3:
 560 0000 08       		.byte	8
 561 0001 03       		.byte	3
 562 0002 31       		.byte	49
 563 0003 00       		.byte	0
 564 0004 32       		.byte	50
 565 0005 00       		.byte	0
 566 0006 33       		.byte	51
 567 0007 00       		.byte	0
 568              		.section	.bss.usb_shellstack,"aw",%nobits
 569              		.align	3
 570              		.set	.LANCHOR10,. + 0
 571              		.type	usb_shellstack, %object
 572              		.size	usb_shellstack, 672
 573              	usb_shellstack:
 574 0000 00000000 		.space	672
 574      00000000 
 574      00000000 
 574      00000000 
 574      00000000 
 575              		.section	.bss.usb_shell,"aw",%nobits
 576              		.align	2
 577              		.set	.LANCHOR9,. + 0
 578              		.type	usb_shell, %object
 579              		.size	usb_shell, 4
 580              	usb_shell:
 581 0000 00000000 		.space	4
 582              		.section	.rodata.vcom_device_descriptor_data,"a",%progbits
 583              		.type	vcom_device_descriptor_data, %object
 584              		.size	vcom_device_descriptor_data, 18
 585              	vcom_device_descriptor_data:
 586 0000 12       		.byte	18
 587 0001 01       		.byte	1
 588 0002 10       		.byte	16
 589 0003 01       		.byte	1
 590 0004 02       		.byte	2
 591 0005 00       		.byte	0
 592 0006 00       		.byte	0
 593 0007 40       		.byte	64
 594 0008 83       		.byte	-125
 595 0009 04       		.byte	4
 596 000a 40       		.byte	64
 597 000b 57       		.byte	87
 598 000c 00       		.byte	0
 599 000d 02       		.byte	2
 600 000e 01       		.byte	1
 601 000f 02       		.byte	2
 602 0010 03       		.byte	3
 603 0011 01       		.byte	1
 604              		.section	.rodata.vcom_strings,"a",%progbits
 605              		.align	2
 606              		.set	.LANCHOR2,. + 0
 607              		.type	vcom_strings, %object
 608              		.size	vcom_strings, 32
 609              	vcom_strings:
ARM GAS  /var/folders/_2/42wyrlld3p52fkcpt1lv6gxh0000gp/T//ccEq9flu.s 			page 12


 610 0000 04000000 		.word	4
 611 0004 00000000 		.word	vcom_string0
 612 0008 20000000 		.word	32
 613 000c 00000000 		.word	vcom_string1
 614 0010 18000000 		.word	24
 615 0014 00000000 		.word	vcom_string2
 616 0018 08000000 		.word	8
 617 001c 00000000 		.word	vcom_string3
 618              		.section	.rodata.serusbcfg,"a",%progbits
 619              		.align	2
 620              		.set	.LANCHOR7,. + 0
 621              		.type	serusbcfg, %object
 622              		.size	serusbcfg, 8
 623              	serusbcfg:
 624 0000 00000000 		.word	USBD1
 625 0004 01       		.byte	1
 626 0005 01       		.byte	1
 627 0006 02       		.byte	2
 628 0007 00       		.space	1
 629              		.section	.rodata.vcom_device_descriptor,"a",%progbits
 630              		.align	2
 631              		.set	.LANCHOR0,. + 0
 632              		.type	vcom_device_descriptor, %object
 633              		.size	vcom_device_descriptor, 8
 634              	vcom_device_descriptor:
 635 0000 12000000 		.word	18
 636 0004 00000000 		.word	vcom_device_descriptor_data
 637              		.text
 638              	.Letext0:
 639              		.file 2 "/Users/ARS/Applications/Eclipse.app/Contents/gcc-arm-none-eabi-5_3-2016q1/lib/gcc/arm-non
 640              		.file 3 "/Users/ARS/Applications/Eclipse.app/Contents/gcc-arm-none-eabi-5_3-2016q1/arm-none-eabi/i
 641              		.file 4 "/Users/ARS/Applications/Eclipse.app/Contents/gcc-arm-none-eabi-5_3-2016q1/arm-none-eabi/i
 642              		.file 5 "chibios/os/ports/GCC/ARMCMx/chtypes.h"
 643              		.file 6 "chibios/os/kernel/include/chlists.h"
 644              		.file 7 "chibios/os/kernel/include/chthreads.h"
 645              		.file 8 "chibios/os/ports/GCC/ARMCMx/chcore_v7m.h"
 646              		.file 9 "chibios/os/kernel/include/chmtx.h"
 647              		.file 10 "chibios/os/kernel/include/chevents.h"
 648              		.file 11 "chibios/os/kernel/include/chqueues.h"
 649              		.file 12 "chibios/os/kernel/include/chstreams.h"
 650              		.file 13 "chibios/os/hal/platforms/STM32L1xx/stm32l1xx.h"
 651              		.file 14 "chibios/os/hal/include/io_channel.h"
 652              		.file 15 "chibios/os/hal/include/usb.h"
 653              		.file 16 "chibios/os/hal/platforms/STM32/USBv1/usb_lld.h"
 654              		.file 17 "chibios/os/hal/include/serial_usb.h"
 655              		.file 18 "chibios/os/various/shell.h"
 656              		.file 19 "chibios/os/ports/common/ARMCMx/CMSIS/include/core_cm3.h"
 657              		.file 20 "src/shell_commands.h"